(dp1
S'description'
p2
(dp3
S'type'
p4
S'text'
p5
sS'sortable'
p6
I6
sS'sql'
p7
S'TEXT'
p8
ssS'IP'
p9
(dp10
g4
S'string'
p11
sg6
I4
sg7
S'CHAR(512) NOT NULL'
p12
ssS'id'
p13
(dp14
g4
g13
sg6
I1
sg7
S'INTEGER PRIMARY KEY AUTOINCREMENT'
p15
ssS'project'
p16
(dp17
g4
S'reference t_project'
p18
sg6
I2
sg7
S'INTEGER REFERENCES t_project(id) ON DELETE CASCADE'
p19
ssS'port'
p20
(dp21
g4
g11
sg6
I5
sg7
S'CHAR(512) NOT NULL'
p22
ssS'name'
p23
(dp24
g4
g11
sg6
I3
sg7
S'CHAR(512) NOT NULL'
p25
ss.