(dp1
S'description'
p2
(dp3
S'type'
p4
S'text'
p5
sS'sortable'
p6
I5
sS'sql'
p7
S'TEXT'
p8
ssS'datemodified'
p9
(dp10
g4
S'datetime'
p11
sg6
I7
sg7
S'TIMESTAMP'
p12
ssS'html_table'
p13
(dp14
g4
g5
sg6
I4
sg7
S'TEXT'
p15
ssS'datecreated'
p16
(dp17
g4
g11
sg6
I6
sg7
S'TIMESTAMP'
p18
ssS'id'
p19
(dp20
g4
g19
sg6
I1
sg7
S'INTEGER PRIMARY KEY AUTOINCREMENT'
p21
ssS'regex_code'
p22
(dp23
g4
g5
sg6
I3
sg7
S'TEXT'
p24
ssS'name'
p25
(dp26
g4
S'string'
p27
sg6
I2
sg7
S'CHAR(512)'
p28
ss.