(dp1
S'output'
p2
S''
sS'layer'
p3
S'/home/jose/DESARROLLO/web2py199/applications/streamlog/controllers/default.py'
p4
sS'code'
p5
S'# -*- coding: utf-8 -*-\n# this file is released under public domain and you can use without limitations\n\n#########################################################################\n## This is a samples controller\n## - index is the default action of any application\n## - user is required for authentication and authorization\n## - download is for downloading files uploaded in the db (does streaming)\n## - call exposes all registered services (none by default)\n#########################################################################\n\n\n\ndef index():\n    """\n    example action using the internationalization operator T and flash\n    rendered by views/default/index.html or views/generic.html\n    """\n    links = [lambda row:  INPUT(_type=\'button\',_value=\'START STREAM\', _onclick=\'createStream(\'+str(row.id)+\')\')]\n    form=SQLFORM.grid(db.t_log, selectable=False, csv=False,create=False, deletable=False, editable=False, links=links, user_signature=False)\n    return dict(message=T(\'Hello World2\'), form=form)\n\n@service.json\ndef getConnectionData():\n\t\n\treturn response.json({"connection": [{\'name_log\': \'xhtml\',\'IP\': \'127.0.0.1\',\'port\': \'8888\'}]})\n\ndef choose_log():\n    """\n    example action using the internationalization operator T and flash\n    rendered by views/default/index.html or views/generic.html\n    """\n    \n    \n    return dict(message="log")\n\n\ndef getTypeTable():\n    """\n    example action using the internationalization operator T and flash\n    rendered by views/default/index.html or views/generic.html\n    """\n    id_log=sys.arg[0]\n    print id_log\n    #type_table=db()    \n\n    table=\'<table cellpadding="0" cellspacing="0" border="0" class="display" id="tablelog"> \\\n    <thead> \\\n        <tr> \\\n            <th>IP</th> \\\n            <th>hyphen</th> \\\n            <th>userid</th> \\\n            <th>Time Request</th> \\\n        <th>Request Time</th> \\\n        <th>Status Code</th> \\\n        <th>Size Object</th> \\\n        </tr>\\\n    </thead> \\\n    <tfoot> \\\n        <tr> \\\n            <th>IP</th> \\\n            <th>hyphen</th> \\\n            <th>userid</th>\\\n            <th>Time Request</th> \\\n        <th>Request Time</th> \\\n        <th>Status Code</th> \\\n        <th>Size Object</th> \\\n        </tr>  \\\n    </tfoot>  \\\n        <tbody> \\\n        </tbody> \\\n    </table>\'\n    \n    return table\n\n\ndef user():\n    """\n    exposes:\n    http://..../[app]/default/user/login\n    http://..../[app]/default/user/logout\n    http://..../[app]/default/user/register\n    http://..../[app]/default/user/profile\n    http://..../[app]/default/user/retrieve_password\n    http://..../[app]/default/user/change_password\n    use @auth.requires_login()\n        @auth.requires_membership(\'group name\')\n        @auth.requires_permission(\'read\',\'table name\',record_id)\n    to decorate functions that need access control\n    """\n    return dict(form=auth())\n\ndef error():\n    return dict()\n\n\ndef project_manage():\n    \n    form = SQLFORM.smartgrid(db.t_project)\n    return locals()\n\n\n\ndef server_manage():\n\n    form=SQLFORM.grid(db.t_server)\n    return locals()\n\ndef log_manage():\n \n    #form = SQLFORM.smartgrid(db.t_log,constraints=dict(t_log=query), selectable=True,searchable=False, csv=False,showbuttontext=True,onupdate=auth.archive)\n    #form = SQLFORM.smartgrid(db.t_log)\n    form=SQLFORM.grid(db.t_log)\n    return locals()\n\ndef type_log_manage():\n\n    form=SQLFORM.grid(db.t_type_log)\n    return locals()\n\ndef download():\n    """\n    allows downloading of uploaded files\n    http://..../[app]/default/download/[filename]\n    """\n    return response.download(request,db)\n\n\ndef call():\n    """\n    exposes services. for example:\n    http://..../[app]/default/call/jsonrpc\n    decorate with @services.jsonrpc the functions to expose\n    supports xml, json, xmlrpc, jsonrpc, amfrpc, rss, csv\n    """\n    return service()\n\n\n@auth.requires_signature()\ndef data():\n    """\n    http://..../[app]/default/data/tables\n    http://..../[app]/default/data/create/[table]\n    http://..../[app]/default/data/read/[table]/[id]\n    http://..../[app]/default/data/update/[table]/[id]\n    http://..../[app]/default/data/delete/[table]/[id]\n    http://..../[app]/default/data/select/[table]\n    http://..../[app]/default/data/search/[table]\n    but URLs bust be signed, i.e. linked with\n      A(\'table\',_href=URL(\'data/tables\',user_signature=True))\n    or with the signed load operator\n      LOAD(\'default\',\'data.load\',args=\'tables\',ajax=True,user_signature=True)\n    """\n    return dict(form=crud())\n\nresponse._vars=response._caller(getTypeTable)\n'
p6
sS'snapshot'
p7
(dp8
S'exception'
p9
(dp10
S'__hash__'
p11
S"<method-wrapper '__hash__' of exceptions.NameError object>"
p12
sS'__setattr__'
p13
S"<method-wrapper '__setattr__' of exceptions.NameError object>"
p14
sS'__reduce_ex__'
p15
S'<built-in method __reduce_ex__ of exceptions.NameError object>'
p16
sS'__getslice__'
p17
S"<method-wrapper '__getslice__' of exceptions.NameError object>"
p18
sS'__getitem__'
p19
S"<method-wrapper '__getitem__' of exceptions.NameError object>"
p20
sS'__setstate__'
p21
S'<built-in method __setstate__ of exceptions.NameError object>'
p22
sS'args'
p23
S'("global name \'sys\' is not defined",)'
p24
sS'__reduce__'
p25
S'<built-in method __reduce__ of exceptions.NameError object>'
p26
sS'__str__'
p27
S"<method-wrapper '__str__' of exceptions.NameError object>"
p28
sS'__format__'
p29
S'<built-in method __format__ of exceptions.NameError object>'
p30
sS'__getattribute__'
p31
S"<method-wrapper '__getattribute__' of exceptions.NameError object>"
p32
sS'__class__'
p33
S"<type 'exceptions.NameError'>"
p34
sS'__unicode__'
p35
S'<built-in method __unicode__ of exceptions.NameError object>'
p36
sS'__delattr__'
p37
S"<method-wrapper '__delattr__' of exceptions.NameError object>"
p38
sS'__subclasshook__'
p39
S'<built-in method __subclasshook__ of type object>'
p40
sS'__repr__'
p41
S"<method-wrapper '__repr__' of exceptions.NameError object>"
p42
sS'__dict__'
p43
S'{}'
p44
sS'__sizeof__'
p45
S'<built-in method __sizeof__ of exceptions.NameError object>'
p46
sS'__doc__'
p47
S"'Name not found globally.'"
p48
sS'__init__'
p49
S"<method-wrapper '__init__' of exceptions.NameError object>"
p50
sS'__new__'
p51
S'<built-in method __new__ of type object>'
p52
ssS'evalue'
p53
S"global name 'sys' is not defined"
p54
sS'request'
p55
ccopy_reg
_reconstructor
p56
(cgluon.html
BEAUTIFY
p57
c__builtin__
object
p58
NtRp59
(dp60
S'attributes'
p61
(dp62
sS'components'
p63
(lp64
g56
(cgluon.html
TABLE
p65
g58
NtRp66
(dp67
g61
(dp68
S'level'
p69
I5
ssS'parent'
p70
Nsg63
(lp71
g56
(cgluon.html
TR
p72
g58
NtRp73
(dp74
g61
(dp75
sg70
g66
sg63
(lp76
g56
(cgluon.html
TD
p77
g58
NtRp78
(dp79
g61
(dp80
S'_style'
p81
S'font-weight:bold;'
p82
ssg70
g73
sg63
(lp83
S'ajax'
p84
asbag56
(g77
g58
NtRp85
(dp86
g61
(dp87
S'_valign'
p88
S'top'
p89
ssg70
g73
sg63
(lp90
S':'
asbag56
(g77
g58
NtRp91
(dp92
g61
(dp93
sg70
g73
sg63
(lp94
g56
(g57
g58
NtRp95
(dp96
g61
(dp97
g69
I5
ssg70
g91
sg63
(lp98
S'True'
p99
asbasbasbag56
(g72
g58
NtRp100
(dp101
g61
(dp102
sg70
g66
sg63
(lp103
g56
(g77
g58
NtRp104
(dp105
g61
(dp106
g81
g82
ssg70
g100
sg63
(lp107
S'application'
p108
asbag56
(g77
g58
NtRp109
(dp110
g61
(dp111
g88
g89
ssg70
g100
sg63
(lp112
S':'
asbag56
(g77
g58
NtRp113
(dp114
g61
(dp115
sg70
g100
sg63
(lp116
g56
(g57
g58
NtRp117
(dp118
g61
(dp119
g69
I5
ssg70
g113
sg63
(lp120
S'streamlog'
p121
asbasbasbag56
(g72
g58
NtRp122
(dp123
g61
(dp124
sg70
g66
sg63
(lp125
g56
(g77
g58
NtRp126
(dp127
g61
(dp128
g81
g82
ssg70
g122
sg63
(lp129
g23
asbag56
(g77
g58
NtRp130
(dp131
g61
(dp132
g88
g89
ssg70
g122
sg63
(lp133
S':'
asbag56
(g77
g58
NtRp134
(dp135
g61
(dp136
sg70
g122
sg63
(lp137
g56
(g57
g58
NtRp138
(dp139
g61
(dp140
g69
I5
ssg70
g134
sg63
(lp141
g56
(g65
g58
NtRp142
(dp143
g61
(dp144
g69
I4
ssg70
Nsg63
(lp145
g56
(g72
g58
NtRp146
(dp147
g61
(dp148
sg70
g142
sg63
(lp149
g56
(g77
g58
NtRp150
(dp151
g61
(dp152
sg70
g146
sg63
(lp153
g56
(g57
g58
NtRp154
(dp155
g61
(dp156
g69
I4
ssg70
g150
sg63
(lp157
S'1'
asbasbasbasbasbasbasbag56
(g72
g58
NtRp158
(dp159
g61
(dp160
sg70
g66
sg63
(lp161
g56
(g77
g58
NtRp162
(dp163
g61
(dp164
g81
g82
ssg70
g158
sg63
(lp165
S'body'
p166
asbag56
(g77
g58
NtRp167
(dp168
g61
(dp169
g88
g89
ssg70
g158
sg63
(lp170
S':'
asbag56
(g77
g58
NtRp171
(dp172
g61
(dp173
sg70
g158
sg63
(lp174
g56
(g57
g58
NtRp175
(dp176
g61
(dp177
g69
I5
ssg70
g171
sg63
(lp178
S"<open file '<fdopen>', mode 'w+b' at 0x36da9c0>"
p179
asbasbasbag56
(g72
g58
NtRp180
(dp181
g61
(dp182
sg70
g66
sg63
(lp183
g56
(g77
g58
NtRp184
(dp185
g61
(dp186
g81
g82
ssg70
g180
sg63
(lp187
S'client'
p188
asbag56
(g77
g58
NtRp189
(dp190
g61
(dp191
g88
g89
ssg70
g180
sg63
(lp192
S':'
asbag56
(g77
g58
NtRp193
(dp194
g61
(dp195
sg70
g180
sg63
(lp196
g56
(g57
g58
NtRp197
(dp198
g61
(dp199
g69
I5
ssg70
g193
sg63
(lp200
S'127.0.0.1'
p201
asbasbasbag56
(g72
g58
NtRp202
(dp203
g61
(dp204
sg70
g66
sg63
(lp205
g56
(g77
g58
NtRp206
(dp207
g61
(dp208
g81
g82
ssg70
g202
sg63
(lp209
S'controller'
p210
asbag56
(g77
g58
NtRp211
(dp212
g61
(dp213
g88
g89
ssg70
g202
sg63
(lp214
S':'
asbag56
(g77
g58
NtRp215
(dp216
g61
(dp217
sg70
g202
sg63
(lp218
g56
(g57
g58
NtRp219
(dp220
g61
(dp221
g69
I5
ssg70
g215
sg63
(lp222
S'default'
p223
asbasbasbag56
(g72
g58
NtRp224
(dp225
g61
(dp226
sg70
g66
sg63
(lp227
g56
(g77
g58
NtRp228
(dp229
g61
(dp230
g81
g82
ssg70
g224
sg63
(lp231
S'cookies'
p232
asbag56
(g77
g58
NtRp233
(dp234
g61
(dp235
g88
g89
ssg70
g224
sg63
(lp236
S':'
asbag56
(g77
g58
NtRp237
(dp238
g61
(dp239
sg70
g224
sg63
(lp240
g56
(g57
g58
NtRp241
(dp242
g61
(dp243
g69
I5
ssg70
g237
sg63
(lp244
g56
(g65
g58
NtRp245
(dp246
g61
(dp247
g69
I4
ssg70
Nsg63
(lp248
g56
(g72
g58
NtRp249
(dp250
g61
(dp251
sg70
g245
sg63
(lp252
g56
(g77
g58
NtRp253
(dp254
g61
(dp255
g81
g82
ssg70
g249
sg63
(lp256
S'session_id_admin'
p257
asbag56
(g77
g58
NtRp258
(dp259
g61
(dp260
g88
g89
ssg70
g249
sg63
(lp261
S':'
asbag56
(g77
g58
NtRp262
(dp263
g61
(dp264
sg70
g249
sg63
(lp265
g56
(g57
g58
NtRp266
(dp267
g61
(dp268
g69
I4
ssg70
g262
sg63
(lp269
g56
(g65
g58
NtRp270
(dp271
g61
(dp272
g69
I3
ssg70
Nsg63
(lp273
g56
(g72
g58
NtRp274
(dp275
g61
(dp276
sg70
g270
sg63
(lp277
g56
(g77
g58
NtRp278
(dp279
g61
(dp280
g81
g82
ssg70
g274
sg63
(lp281
S'comment'
p282
asbag56
(g77
g58
NtRp283
(dp284
g61
(dp285
g88
g89
ssg70
g274
sg63
(lp286
S':'
asbag56
(g77
g58
NtRp287
(dp288
g61
(dp289
sg70
g274
sg63
(lp290
g56
(g57
g58
NtRp291
(dp292
g61
(dp293
g69
I3
ssg70
g287
sg63
(lp294
S''
asbasbasbag56
(g72
g58
NtRp295
(dp296
g61
(dp297
sg70
g270
sg63
(lp298
g56
(g77
g58
NtRp299
(dp300
g61
(dp301
g81
g82
ssg70
g295
sg63
(lp302
S'domain'
p303
asbag56
(g77
g58
NtRp304
(dp305
g61
(dp306
g88
g89
ssg70
g295
sg63
(lp307
S':'
asbag56
(g77
g58
NtRp308
(dp309
g61
(dp310
sg70
g295
sg63
(lp311
g56
(g57
g58
NtRp312
(dp313
g61
(dp314
g69
I3
ssg70
g308
sg63
(lp315
S''
asbasbasbag56
(g72
g58
NtRp316
(dp317
g61
(dp318
sg70
g270
sg63
(lp319
g56
(g77
g58
NtRp320
(dp321
g61
(dp322
g81
g82
ssg70
g316
sg63
(lp323
S'expires'
p324
asbag56
(g77
g58
NtRp325
(dp326
g61
(dp327
g88
g89
ssg70
g316
sg63
(lp328
S':'
asbag56
(g77
g58
NtRp329
(dp330
g61
(dp331
sg70
g316
sg63
(lp332
g56
(g57
g58
NtRp333
(dp334
g61
(dp335
g69
I3
ssg70
g329
sg63
(lp336
S''
asbasbasbag56
(g72
g58
NtRp337
(dp338
g61
(dp339
sg70
g270
sg63
(lp340
g56
(g77
g58
NtRp341
(dp342
g61
(dp343
g81
g82
ssg70
g337
sg63
(lp344
S'httponly'
p345
asbag56
(g77
g58
NtRp346
(dp347
g61
(dp348
g88
g89
ssg70
g337
sg63
(lp349
S':'
asbag56
(g77
g58
NtRp350
(dp351
g61
(dp352
sg70
g337
sg63
(lp353
g56
(g57
g58
NtRp354
(dp355
g61
(dp356
g69
I3
ssg70
g350
sg63
(lp357
S''
asbasbasbag56
(g72
g58
NtRp358
(dp359
g61
(dp360
sg70
g270
sg63
(lp361
g56
(g77
g58
NtRp362
(dp363
g61
(dp364
g81
g82
ssg70
g358
sg63
(lp365
S'max-age'
p366
asbag56
(g77
g58
NtRp367
(dp368
g61
(dp369
g88
g89
ssg70
g358
sg63
(lp370
S':'
asbag56
(g77
g58
NtRp371
(dp372
g61
(dp373
sg70
g358
sg63
(lp374
g56
(g57
g58
NtRp375
(dp376
g61
(dp377
g69
I3
ssg70
g371
sg63
(lp378
S''
asbasbasbag56
(g72
g58
NtRp379
(dp380
g61
(dp381
sg70
g270
sg63
(lp382
g56
(g77
g58
NtRp383
(dp384
g61
(dp385
g81
g82
ssg70
g379
sg63
(lp386
S'path'
p387
asbag56
(g77
g58
NtRp388
(dp389
g61
(dp390
g88
g89
ssg70
g379
sg63
(lp391
S':'
asbag56
(g77
g58
NtRp392
(dp393
g61
(dp394
sg70
g379
sg63
(lp395
g56
(g57
g58
NtRp396
(dp397
g61
(dp398
g69
I3
ssg70
g392
sg63
(lp399
S''
asbasbasbag56
(g72
g58
NtRp400
(dp401
g61
(dp402
sg70
g270
sg63
(lp403
g56
(g77
g58
NtRp404
(dp405
g61
(dp406
g81
g82
ssg70
g400
sg63
(lp407
S'secure'
p408
asbag56
(g77
g58
NtRp409
(dp410
g61
(dp411
g88
g89
ssg70
g400
sg63
(lp412
S':'
asbag56
(g77
g58
NtRp413
(dp414
g61
(dp415
sg70
g400
sg63
(lp416
g56
(g57
g58
NtRp417
(dp418
g61
(dp419
g69
I3
ssg70
g413
sg63
(lp420
S''
asbasbasbag56
(g72
g58
NtRp421
(dp422
g61
(dp423
sg70
g270
sg63
(lp424
g56
(g77
g58
NtRp425
(dp426
g61
(dp427
g81
g82
ssg70
g421
sg63
(lp428
S'version'
p429
asbag56
(g77
g58
NtRp430
(dp431
g61
(dp432
g88
g89
ssg70
g421
sg63
(lp433
S':'
asbag56
(g77
g58
NtRp434
(dp435
g61
(dp436
sg70
g421
sg63
(lp437
g56
(g57
g58
NtRp438
(dp439
g61
(dp440
g69
I3
ssg70
g434
sg63
(lp441
S''
asbasbasbasbasbasbasbag56
(g72
g58
NtRp442
(dp443
g61
(dp444
sg70
g245
sg63
(lp445
g56
(g77
g58
NtRp446
(dp447
g61
(dp448
g81
g82
ssg70
g442
sg63
(lp449
S'session_id_streamlog'
p450
asbag56
(g77
g58
NtRp451
(dp452
g61
(dp453
g88
g89
ssg70
g442
sg63
(lp454
S':'
asbag56
(g77
g58
NtRp455
(dp456
g61
(dp457
sg70
g442
sg63
(lp458
g56
(g57
g58
NtRp459
(dp460
g61
(dp461
g69
I4
ssg70
g455
sg63
(lp462
g56
(g65
g58
NtRp463
(dp464
g61
(dp465
g69
I3
ssg70
Nsg63
(lp466
g56
(g72
g58
NtRp467
(dp468
g61
(dp469
sg70
g463
sg63
(lp470
g56
(g77
g58
NtRp471
(dp472
g61
(dp473
g81
g82
ssg70
g467
sg63
(lp474
g282
asbag56
(g77
g58
NtRp475
(dp476
g61
(dp477
g88
g89
ssg70
g467
sg63
(lp478
S':'
asbag56
(g77
g58
NtRp479
(dp480
g61
(dp481
sg70
g467
sg63
(lp482
g56
(g57
g58
NtRp483
(dp484
g61
(dp485
g69
I3
ssg70
g479
sg63
(lp486
S''
asbasbasbag56
(g72
g58
NtRp487
(dp488
g61
(dp489
sg70
g463
sg63
(lp490
g56
(g77
g58
NtRp491
(dp492
g61
(dp493
g81
g82
ssg70
g487
sg63
(lp494
g303
asbag56
(g77
g58
NtRp495
(dp496
g61
(dp497
g88
g89
ssg70
g487
sg63
(lp498
S':'
asbag56
(g77
g58
NtRp499
(dp500
g61
(dp501
sg70
g487
sg63
(lp502
g56
(g57
g58
NtRp503
(dp504
g61
(dp505
g69
I3
ssg70
g499
sg63
(lp506
S''
asbasbasbag56
(g72
g58
NtRp507
(dp508
g61
(dp509
sg70
g463
sg63
(lp510
g56
(g77
g58
NtRp511
(dp512
g61
(dp513
g81
g82
ssg70
g507
sg63
(lp514
g324
asbag56
(g77
g58
NtRp515
(dp516
g61
(dp517
g88
g89
ssg70
g507
sg63
(lp518
S':'
asbag56
(g77
g58
NtRp519
(dp520
g61
(dp521
sg70
g507
sg63
(lp522
g56
(g57
g58
NtRp523
(dp524
g61
(dp525
g69
I3
ssg70
g519
sg63
(lp526
S''
asbasbasbag56
(g72
g58
NtRp527
(dp528
g61
(dp529
sg70
g463
sg63
(lp530
g56
(g77
g58
NtRp531
(dp532
g61
(dp533
g81
g82
ssg70
g527
sg63
(lp534
g345
asbag56
(g77
g58
NtRp535
(dp536
g61
(dp537
g88
g89
ssg70
g527
sg63
(lp538
S':'
asbag56
(g77
g58
NtRp539
(dp540
g61
(dp541
sg70
g527
sg63
(lp542
g56
(g57
g58
NtRp543
(dp544
g61
(dp545
g69
I3
ssg70
g539
sg63
(lp546
S''
asbasbasbag56
(g72
g58
NtRp547
(dp548
g61
(dp549
sg70
g463
sg63
(lp550
g56
(g77
g58
NtRp551
(dp552
g61
(dp553
g81
g82
ssg70
g547
sg63
(lp554
g366
asbag56
(g77
g58
NtRp555
(dp556
g61
(dp557
g88
g89
ssg70
g547
sg63
(lp558
S':'
asbag56
(g77
g58
NtRp559
(dp560
g61
(dp561
sg70
g547
sg63
(lp562
g56
(g57
g58
NtRp563
(dp564
g61
(dp565
g69
I3
ssg70
g559
sg63
(lp566
S''
asbasbasbag56
(g72
g58
NtRp567
(dp568
g61
(dp569
sg70
g463
sg63
(lp570
g56
(g77
g58
NtRp571
(dp572
g61
(dp573
g81
g82
ssg70
g567
sg63
(lp574
g387
asbag56
(g77
g58
NtRp575
(dp576
g61
(dp577
g88
g89
ssg70
g567
sg63
(lp578
S':'
asbag56
(g77
g58
NtRp579
(dp580
g61
(dp581
sg70
g567
sg63
(lp582
g56
(g57
g58
NtRp583
(dp584
g61
(dp585
g69
I3
ssg70
g579
sg63
(lp586
S''
asbasbasbag56
(g72
g58
NtRp587
(dp588
g61
(dp589
sg70
g463
sg63
(lp590
g56
(g77
g58
NtRp591
(dp592
g61
(dp593
g81
g82
ssg70
g587
sg63
(lp594
g408
asbag56
(g77
g58
NtRp595
(dp596
g61
(dp597
g88
g89
ssg70
g587
sg63
(lp598
S':'
asbag56
(g77
g58
NtRp599
(dp600
g61
(dp601
sg70
g587
sg63
(lp602
g56
(g57
g58
NtRp603
(dp604
g61
(dp605
g69
I3
ssg70
g599
sg63
(lp606
S''
asbasbasbag56
(g72
g58
NtRp607
(dp608
g61
(dp609
sg70
g463
sg63
(lp610
g56
(g77
g58
NtRp611
(dp612
g61
(dp613
g81
g82
ssg70
g607
sg63
(lp614
g429
asbag56
(g77
g58
NtRp615
(dp616
g61
(dp617
g88
g89
ssg70
g607
sg63
(lp618
S':'
asbag56
(g77
g58
NtRp619
(dp620
g61
(dp621
sg70
g607
sg63
(lp622
g56
(g57
g58
NtRp623
(dp624
g61
(dp625
g69
I3
ssg70
g619
sg63
(lp626
S''
asbasbasbasbasbasbasbag56
(g72
g58
NtRp627
(dp628
g61
(dp629
sg70
g245
sg63
(lp630
g56
(g77
g58
NtRp631
(dp632
g61
(dp633
g81
g82
ssg70
g627
sg63
(lp634
S'session_id_test3'
p635
asbag56
(g77
g58
NtRp636
(dp637
g61
(dp638
g88
g89
ssg70
g627
sg63
(lp639
S':'
asbag56
(g77
g58
NtRp640
(dp641
g61
(dp642
sg70
g627
sg63
(lp643
g56
(g57
g58
NtRp644
(dp645
g61
(dp646
g69
I4
ssg70
g640
sg63
(lp647
g56
(g65
g58
NtRp648
(dp649
g61
(dp650
g69
I3
ssg70
Nsg63
(lp651
g56
(g72
g58
NtRp652
(dp653
g61
(dp654
sg70
g648
sg63
(lp655
g56
(g77
g58
NtRp656
(dp657
g61
(dp658
g81
g82
ssg70
g652
sg63
(lp659
g282
asbag56
(g77
g58
NtRp660
(dp661
g61
(dp662
g88
g89
ssg70
g652
sg63
(lp663
S':'
asbag56
(g77
g58
NtRp664
(dp665
g61
(dp666
sg70
g652
sg63
(lp667
g56
(g57
g58
NtRp668
(dp669
g61
(dp670
g69
I3
ssg70
g664
sg63
(lp671
S''
asbasbasbag56
(g72
g58
NtRp672
(dp673
g61
(dp674
sg70
g648
sg63
(lp675
g56
(g77
g58
NtRp676
(dp677
g61
(dp678
g81
g82
ssg70
g672
sg63
(lp679
g303
asbag56
(g77
g58
NtRp680
(dp681
g61
(dp682
g88
g89
ssg70
g672
sg63
(lp683
S':'
asbag56
(g77
g58
NtRp684
(dp685
g61
(dp686
sg70
g672
sg63
(lp687
g56
(g57
g58
NtRp688
(dp689
g61
(dp690
g69
I3
ssg70
g684
sg63
(lp691
S''
asbasbasbag56
(g72
g58
NtRp692
(dp693
g61
(dp694
sg70
g648
sg63
(lp695
g56
(g77
g58
NtRp696
(dp697
g61
(dp698
g81
g82
ssg70
g692
sg63
(lp699
g324
asbag56
(g77
g58
NtRp700
(dp701
g61
(dp702
g88
g89
ssg70
g692
sg63
(lp703
S':'
asbag56
(g77
g58
NtRp704
(dp705
g61
(dp706
sg70
g692
sg63
(lp707
g56
(g57
g58
NtRp708
(dp709
g61
(dp710
g69
I3
ssg70
g704
sg63
(lp711
S''
asbasbasbag56
(g72
g58
NtRp712
(dp713
g61
(dp714
sg70
g648
sg63
(lp715
g56
(g77
g58
NtRp716
(dp717
g61
(dp718
g81
g82
ssg70
g712
sg63
(lp719
g345
asbag56
(g77
g58
NtRp720
(dp721
g61
(dp722
g88
g89
ssg70
g712
sg63
(lp723
S':'
asbag56
(g77
g58
NtRp724
(dp725
g61
(dp726
sg70
g712
sg63
(lp727
g56
(g57
g58
NtRp728
(dp729
g61
(dp730
g69
I3
ssg70
g724
sg63
(lp731
S''
asbasbasbag56
(g72
g58
NtRp732
(dp733
g61
(dp734
sg70
g648
sg63
(lp735
g56
(g77
g58
NtRp736
(dp737
g61
(dp738
g81
g82
ssg70
g732
sg63
(lp739
g366
asbag56
(g77
g58
NtRp740
(dp741
g61
(dp742
g88
g89
ssg70
g732
sg63
(lp743
S':'
asbag56
(g77
g58
NtRp744
(dp745
g61
(dp746
sg70
g732
sg63
(lp747
g56
(g57
g58
NtRp748
(dp749
g61
(dp750
g69
I3
ssg70
g744
sg63
(lp751
S''
asbasbasbag56
(g72
g58
NtRp752
(dp753
g61
(dp754
sg70
g648
sg63
(lp755
g56
(g77
g58
NtRp756
(dp757
g61
(dp758
g81
g82
ssg70
g752
sg63
(lp759
g387
asbag56
(g77
g58
NtRp760
(dp761
g61
(dp762
g88
g89
ssg70
g752
sg63
(lp763
S':'
asbag56
(g77
g58
NtRp764
(dp765
g61
(dp766
sg70
g752
sg63
(lp767
g56
(g57
g58
NtRp768
(dp769
g61
(dp770
g69
I3
ssg70
g764
sg63
(lp771
S''
asbasbasbag56
(g72
g58
NtRp772
(dp773
g61
(dp774
sg70
g648
sg63
(lp775
g56
(g77
g58
NtRp776
(dp777
g61
(dp778
g81
g82
ssg70
g772
sg63
(lp779
g408
asbag56
(g77
g58
NtRp780
(dp781
g61
(dp782
g88
g89
ssg70
g772
sg63
(lp783
S':'
asbag56
(g77
g58
NtRp784
(dp785
g61
(dp786
sg70
g772
sg63
(lp787
g56
(g57
g58
NtRp788
(dp789
g61
(dp790
g69
I3
ssg70
g784
sg63
(lp791
S''
asbasbasbag56
(g72
g58
NtRp792
(dp793
g61
(dp794
sg70
g648
sg63
(lp795
g56
(g77
g58
NtRp796
(dp797
g61
(dp798
g81
g82
ssg70
g792
sg63
(lp799
g429
asbag56
(g77
g58
NtRp800
(dp801
g61
(dp802
g88
g89
ssg70
g792
sg63
(lp803
S':'
asbag56
(g77
g58
NtRp804
(dp805
g61
(dp806
sg70
g792
sg63
(lp807
g56
(g57
g58
NtRp808
(dp809
g61
(dp810
g69
I3
ssg70
g804
sg63
(lp811
S''
asbasbasbasbasbasbasbasbasbasbasbag56
(g72
g58
NtRp812
(dp813
g61
(dp814
sg70
g66
sg63
(lp815
g56
(g77
g58
NtRp816
(dp817
g61
(dp818
g81
g82
ssg70
g812
sg63
(lp819
S'env'
p820
asbag56
(g77
g58
NtRp821
(dp822
g61
(dp823
g88
g89
ssg70
g812
sg63
(lp824
S':'
asbag56
(g77
g58
NtRp825
(dp826
g61
(dp827
sg70
g812
sg63
(lp828
g56
(g57
g58
NtRp829
(dp830
g61
(dp831
g69
I5
ssg70
g825
sg63
(lp832
g56
(g65
g58
NtRp833
(dp834
g61
(dp835
g69
I4
ssg70
Nsg63
(lp836
g56
(g72
g58
NtRp837
(dp838
g61
(dp839
sg70
g833
sg63
(lp840
g56
(g77
g58
NtRp841
(dp842
g61
(dp843
g81
g82
ssg70
g837
sg63
(lp844
S'app_folders'
p845
asbag56
(g77
g58
NtRp846
(dp847
g61
(dp848
g88
g89
ssg70
g837
sg63
(lp849
S':'
asbag56
(g77
g58
NtRp850
(dp851
g61
(dp852
sg70
g837
sg63
(lp853
g56
(g57
g58
NtRp854
(dp855
g61
(dp856
g69
I4
ssg70
g850
sg63
(lp857
S"set(['/home/jose/DESARROLLO/web2py199/applications/streamlog/', '/home/jose/DESARROLLO/web2py199/applications/admin/'])"
p858
asbasbasbag56
(g72
g58
NtRp859
(dp860
g61
(dp861
sg70
g833
sg63
(lp862
g56
(g77
g58
NtRp863
(dp864
g61
(dp865
g81
g82
ssg70
g859
sg63
(lp866
S'applications_parent'
p867
asbag56
(g77
g58
NtRp868
(dp869
g61
(dp870
g88
g89
ssg70
g859
sg63
(lp871
S':'
asbag56
(g77
g58
NtRp872
(dp873
g61
(dp874
sg70
g859
sg63
(lp875
g56
(g57
g58
NtRp876
(dp877
g61
(dp878
g69
I4
ssg70
g872
sg63
(lp879
S'/home/jose/DESARROLLO/web2py199'
p880
asbasbasbag56
(g72
g58
NtRp881
(dp882
g61
(dp883
sg70
g833
sg63
(lp884
g56
(g77
g58
NtRp885
(dp886
g61
(dp887
g81
g82
ssg70
g881
sg63
(lp888
S'cmd_args'
p889
asbag56
(g77
g58
NtRp890
(dp891
g61
(dp892
g88
g89
ssg70
g881
sg63
(lp893
S':'
asbag56
(g77
g58
NtRp894
(dp895
g61
(dp896
sg70
g881
sg63
(lp897
g56
(g57
g58
NtRp898
(dp899
g61
(dp900
g69
I4
ssg70
g894
sg63
(lp901
g56
(g65
g58
NtRp902
(dp903
g61
(dp904
g69
I3
ssg70
Nsg63
(lp905
sbasbasbasbag56
(g72
g58
NtRp906
(dp907
g61
(dp908
sg70
g833
sg63
(lp909
g56
(g77
g58
NtRp910
(dp911
g61
(dp912
g81
g82
ssg70
g906
sg63
(lp913
S'cmd_options'
p914
asbag56
(g77
g58
NtRp915
(dp916
g61
(dp917
g88
g89
ssg70
g906
sg63
(lp918
S':'
asbag56
(g77
g58
NtRp919
(dp920
g61
(dp921
sg70
g906
sg63
(lp922
g56
(g57
g58
NtRp923
(dp924
g61
(dp925
g69
I4
ssg70
g919
sg63
(lp926
S"<Values at 0x1c79f80: {'verbose': False, 'ip': '127.0.0.1', 'shutdown_timeout': 5, 'taskbar': False, 'nocron': False, 'pid_filename': 'httpserver.pid', 'maxthreads': None, 'softcron': False, 'server_name': 'jose', 'bpython': False, 'nogui': False, 'port': 8000, 'extcron': False, 'debuglevel': 30, 'test': None, 'folder': '/home/jose/DESARROLLO/web2py199', 'config': '', 'import_models': False, 'winservice': '', 'shell': None, 'run': '', 'log_filename': 'httpserver.log', 'args': [''], 'ssl_ca_certificate': None, 'scheduler': None, 'profiler_filename': None, 'ssl_private_key': '', 'password': 't', 'request_queue_size': 5, 'ssl_certificate': '', 'cronjob': False, 'plain': False, 'quiet': False, 'interfaces': None, 'minthreads': None, 'timeout': 10, 'numthreads': None, 'nobanner': False}>"
p927
asbasbasbag56
(g72
g58
NtRp928
(dp929
g61
(dp930
sg70
g833
sg63
(lp931
g56
(g77
g58
NtRp932
(dp933
g61
(dp934
g81
g82
ssg70
g928
sg63
(lp935
S'content_length'
p936
asbag56
(g77
g58
NtRp937
(dp938
g61
(dp939
g88
g89
ssg70
g928
sg63
(lp940
S':'
asbag56
(g77
g58
NtRp941
(dp942
g61
(dp943
sg70
g928
sg63
(lp944
g56
(g57
g58
NtRp945
(dp946
g61
(dp947
g69
I4
ssg70
g941
sg63
(lp948
S'0'
asbasbasbag56
(g72
g58
NtRp949
(dp950
g61
(dp951
sg70
g833
sg63
(lp952
g56
(g77
g58
NtRp953
(dp954
g61
(dp955
g81
g82
ssg70
g949
sg63
(lp956
S'db_sessions'
p957
asbag56
(g77
g58
NtRp958
(dp959
g61
(dp960
g88
g89
ssg70
g949
sg63
(lp961
S':'
asbag56
(g77
g58
NtRp962
(dp963
g61
(dp964
sg70
g949
sg63
(lp965
g56
(g57
g58
NtRp966
(dp967
g61
(dp968
g69
I4
ssg70
g962
sg63
(lp969
S'set([])'
p970
asbasbasbag56
(g72
g58
NtRp971
(dp972
g61
(dp973
sg70
g833
sg63
(lp974
g56
(g77
g58
NtRp975
(dp976
g61
(dp977
g81
g82
ssg70
g971
sg63
(lp978
S'debugging'
p979
asbag56
(g77
g58
NtRp980
(dp981
g61
(dp982
g88
g89
ssg70
g971
sg63
(lp983
S':'
asbag56
(g77
g58
NtRp984
(dp985
g61
(dp986
sg70
g971
sg63
(lp987
g56
(g57
g58
NtRp988
(dp989
g61
(dp990
g69
I4
ssg70
g984
sg63
(lp991
S'False'
p992
asbasbasbag56
(g72
g58
NtRp993
(dp994
g61
(dp995
sg70
g833
sg63
(lp996
g56
(g77
g58
NtRp997
(dp998
g61
(dp999
g81
g82
ssg70
g993
sg63
(lp1000
S'gluon_parent'
p1001
asbag56
(g77
g58
NtRp1002
(dp1003
g61
(dp1004
g88
g89
ssg70
g993
sg63
(lp1005
S':'
asbag56
(g77
g58
NtRp1006
(dp1007
g61
(dp1008
sg70
g993
sg63
(lp1009
g56
(g57
g58
NtRp1010
(dp1011
g61
(dp1012
g69
I4
ssg70
g1006
sg63
(lp1013
S'/home/jose/DESARROLLO/web2py199'
p1014
asbasbasbag56
(g72
g58
NtRp1015
(dp1016
g61
(dp1017
sg70
g833
sg63
(lp1018
g56
(g77
g58
NtRp1019
(dp1020
g61
(dp1021
g81
g82
ssg70
g1015
sg63
(lp1022
S'http_accept'
p1023
asbag56
(g77
g58
NtRp1024
(dp1025
g61
(dp1026
g88
g89
ssg70
g1015
sg63
(lp1027
S':'
asbag56
(g77
g58
NtRp1028
(dp1029
g61
(dp1030
sg70
g1015
sg63
(lp1031
g56
(g57
g58
NtRp1032
(dp1033
g61
(dp1034
g69
I4
ssg70
g1028
sg63
(lp1035
S'*/*'
p1036
asbasbasbag56
(g72
g58
NtRp1037
(dp1038
g61
(dp1039
sg70
g833
sg63
(lp1040
g56
(g77
g58
NtRp1041
(dp1042
g61
(dp1043
g81
g82
ssg70
g1037
sg63
(lp1044
S'http_accept_encoding'
p1045
asbag56
(g77
g58
NtRp1046
(dp1047
g61
(dp1048
g88
g89
ssg70
g1037
sg63
(lp1049
S':'
asbag56
(g77
g58
NtRp1050
(dp1051
g61
(dp1052
sg70
g1037
sg63
(lp1053
g56
(g57
g58
NtRp1054
(dp1055
g61
(dp1056
g69
I4
ssg70
g1050
sg63
(lp1057
S'gzip, deflate'
p1058
asbasbasbag56
(g72
g58
NtRp1059
(dp1060
g61
(dp1061
sg70
g833
sg63
(lp1062
g56
(g77
g58
NtRp1063
(dp1064
g61
(dp1065
g81
g82
ssg70
g1059
sg63
(lp1066
S'http_accept_language'
p1067
asbag56
(g77
g58
NtRp1068
(dp1069
g61
(dp1070
g88
g89
ssg70
g1059
sg63
(lp1071
S':'
asbag56
(g77
g58
NtRp1072
(dp1073
g61
(dp1074
sg70
g1059
sg63
(lp1075
g56
(g57
g58
NtRp1076
(dp1077
g61
(dp1078
g69
I4
ssg70
g1072
sg63
(lp1079
S'en-us,en;q=0.5'
p1080
asbasbasbag56
(g72
g58
NtRp1081
(dp1082
g61
(dp1083
sg70
g833
sg63
(lp1084
g56
(g77
g58
NtRp1085
(dp1086
g61
(dp1087
g81
g82
ssg70
g1081
sg63
(lp1088
S'http_cache_control'
p1089
asbag56
(g77
g58
NtRp1090
(dp1091
g61
(dp1092
g88
g89
ssg70
g1081
sg63
(lp1093
S':'
asbag56
(g77
g58
NtRp1094
(dp1095
g61
(dp1096
sg70
g1081
sg63
(lp1097
g56
(g57
g58
NtRp1098
(dp1099
g61
(dp1100
g69
I4
ssg70
g1094
sg63
(lp1101
S'no-cache'
p1102
asbasbasbag56
(g72
g58
NtRp1103
(dp1104
g61
(dp1105
sg70
g833
sg63
(lp1106
g56
(g77
g58
NtRp1107
(dp1108
g61
(dp1109
g81
g82
ssg70
g1103
sg63
(lp1110
S'http_connection'
p1111
asbag56
(g77
g58
NtRp1112
(dp1113
g61
(dp1114
g88
g89
ssg70
g1103
sg63
(lp1115
S':'
asbag56
(g77
g58
NtRp1116
(dp1117
g61
(dp1118
sg70
g1103
sg63
(lp1119
g56
(g57
g58
NtRp1120
(dp1121
g61
(dp1122
g69
I4
ssg70
g1116
sg63
(lp1123
S'keep-alive'
p1124
asbasbasbag56
(g72
g58
NtRp1125
(dp1126
g61
(dp1127
sg70
g833
sg63
(lp1128
g56
(g77
g58
NtRp1129
(dp1130
g61
(dp1131
g81
g82
ssg70
g1125
sg63
(lp1132
S'http_content_length'
p1133
asbag56
(g77
g58
NtRp1134
(dp1135
g61
(dp1136
g88
g89
ssg70
g1125
sg63
(lp1137
S':'
asbag56
(g77
g58
NtRp1138
(dp1139
g61
(dp1140
sg70
g1125
sg63
(lp1141
g56
(g57
g58
NtRp1142
(dp1143
g61
(dp1144
g69
I4
ssg70
g1138
sg63
(lp1145
S'0'
asbasbasbag56
(g72
g58
NtRp1146
(dp1147
g61
(dp1148
sg70
g833
sg63
(lp1149
g56
(g77
g58
NtRp1150
(dp1151
g61
(dp1152
g81
g82
ssg70
g1146
sg63
(lp1153
S'http_cookie'
p1154
asbag56
(g77
g58
NtRp1155
(dp1156
g61
(dp1157
g88
g89
ssg70
g1146
sg63
(lp1158
S':'
asbag56
(g77
g58
NtRp1159
(dp1160
g61
(dp1161
sg70
g1146
sg63
(lp1162
g56
(g57
g58
NtRp1163
(dp1164
g61
(dp1165
g69
I4
ssg70
g1159
sg63
(lp1166
S'session_id_streamlog=127.0.0.1-610b0c7d-3f6f-4500-a76a-b095fb30f7fd; session_id_admin=127.0.0.1-8f69464e-4a83-4875-ad25-00cf5c7e8e11; session_id_test3=127.0.0.1-380e7b29-b635-4690-b9ca-812870d6a061'
p1167
asbasbasbag56
(g72
g58
NtRp1168
(dp1169
g61
(dp1170
sg70
g833
sg63
(lp1171
g56
(g77
g58
NtRp1172
(dp1173
g61
(dp1174
g81
g82
ssg70
g1168
sg63
(lp1175
S'http_host'
p1176
asbag56
(g77
g58
NtRp1177
(dp1178
g61
(dp1179
g88
g89
ssg70
g1168
sg63
(lp1180
S':'
asbag56
(g77
g58
NtRp1181
(dp1182
g61
(dp1183
sg70
g1168
sg63
(lp1184
g56
(g57
g58
NtRp1185
(dp1186
g61
(dp1187
g69
I4
ssg70
g1181
sg63
(lp1188
S'localhost:8000'
p1189
asbasbasbag56
(g72
g58
NtRp1190
(dp1191
g61
(dp1192
sg70
g833
sg63
(lp1193
g56
(g77
g58
NtRp1194
(dp1195
g61
(dp1196
g81
g82
ssg70
g1190
sg63
(lp1197
S'http_pragma'
p1198
asbag56
(g77
g58
NtRp1199
(dp1200
g61
(dp1201
g88
g89
ssg70
g1190
sg63
(lp1202
S':'
asbag56
(g77
g58
NtRp1203
(dp1204
g61
(dp1205
sg70
g1190
sg63
(lp1206
g56
(g57
g58
NtRp1207
(dp1208
g61
(dp1209
g69
I4
ssg70
g1203
sg63
(lp1210
S'no-cache'
p1211
asbasbasbag56
(g72
g58
NtRp1212
(dp1213
g61
(dp1214
sg70
g833
sg63
(lp1215
g56
(g77
g58
NtRp1216
(dp1217
g61
(dp1218
g81
g82
ssg70
g1212
sg63
(lp1219
S'http_referer'
p1220
asbag56
(g77
g58
NtRp1221
(dp1222
g61
(dp1223
g88
g89
ssg70
g1212
sg63
(lp1224
S':'
asbag56
(g77
g58
NtRp1225
(dp1226
g61
(dp1227
sg70
g1212
sg63
(lp1228
g56
(g57
g58
NtRp1229
(dp1230
g61
(dp1231
g69
I4
ssg70
g1225
sg63
(lp1232
S'http://localhost:8000/streamlog/default/index'
p1233
asbasbasbag56
(g72
g58
NtRp1234
(dp1235
g61
(dp1236
sg70
g833
sg63
(lp1237
g56
(g77
g58
NtRp1238
(dp1239
g61
(dp1240
g81
g82
ssg70
g1234
sg63
(lp1241
S'http_user_agent'
p1242
asbag56
(g77
g58
NtRp1243
(dp1244
g61
(dp1245
g88
g89
ssg70
g1234
sg63
(lp1246
S':'
asbag56
(g77
g58
NtRp1247
(dp1248
g61
(dp1249
sg70
g1234
sg63
(lp1250
g56
(g57
g58
NtRp1251
(dp1252
g61
(dp1253
g69
I4
ssg70
g1247
sg63
(lp1254
S'Mozilla/5.0 (X11; Ubuntu; Linux x86_64; rv:12.0) Gecko/20100101 Firefox/12.0'
p1255
asbasbasbag56
(g72
g58
NtRp1256
(dp1257
g61
(dp1258
sg70
g833
sg63
(lp1259
g56
(g77
g58
NtRp1260
(dp1261
g61
(dp1262
g81
g82
ssg70
g1256
sg63
(lp1263
S'http_x_requested_with'
p1264
asbag56
(g77
g58
NtRp1265
(dp1266
g61
(dp1267
g88
g89
ssg70
g1256
sg63
(lp1268
S':'
asbag56
(g77
g58
NtRp1269
(dp1270
g61
(dp1271
sg70
g1256
sg63
(lp1272
g56
(g57
g58
NtRp1273
(dp1274
g61
(dp1275
g69
I4
ssg70
g1269
sg63
(lp1276
S'XMLHttpRequest'
p1277
asbasbasbag56
(g72
g58
NtRp1278
(dp1279
g61
(dp1280
sg70
g833
sg63
(lp1281
g56
(g77
g58
NtRp1282
(dp1283
g61
(dp1284
g81
g82
ssg70
g1278
sg63
(lp1285
S'is_jython'
p1286
asbag56
(g77
g58
NtRp1287
(dp1288
g61
(dp1289
g88
g89
ssg70
g1278
sg63
(lp1290
S':'
asbag56
(g77
g58
NtRp1291
(dp1292
g61
(dp1293
sg70
g1278
sg63
(lp1294
g56
(g57
g58
NtRp1295
(dp1296
g61
(dp1297
g69
I4
ssg70
g1291
sg63
(lp1298
g992
asbasbasbag56
(g72
g58
NtRp1299
(dp1300
g61
(dp1301
sg70
g833
sg63
(lp1302
g56
(g77
g58
NtRp1303
(dp1304
g61
(dp1305
g81
g82
ssg70
g1299
sg63
(lp1306
S'path_info'
p1307
asbag56
(g77
g58
NtRp1308
(dp1309
g61
(dp1310
g88
g89
ssg70
g1299
sg63
(lp1311
S':'
asbag56
(g77
g58
NtRp1312
(dp1313
g61
(dp1314
sg70
g1299
sg63
(lp1315
g56
(g57
g58
NtRp1316
(dp1317
g61
(dp1318
g69
I4
ssg70
g1312
sg63
(lp1319
S'/streamlog/default/getTypeTable/1'
p1320
asbasbasbag56
(g72
g58
NtRp1321
(dp1322
g61
(dp1323
sg70
g833
sg63
(lp1324
g56
(g77
g58
NtRp1325
(dp1326
g61
(dp1327
g81
g82
ssg70
g1321
sg63
(lp1328
S'query_string'
p1329
asbag56
(g77
g58
NtRp1330
(dp1331
g61
(dp1332
g88
g89
ssg70
g1321
sg63
(lp1333
S':'
asbag56
(g77
g58
NtRp1334
(dp1335
g61
(dp1336
sg70
g1321
sg63
(lp1337
g56
(g57
g58
NtRp1338
(dp1339
g61
(dp1340
g69
I4
ssg70
g1334
sg63
(lp1341
S''
asbasbasbag56
(g72
g58
NtRp1342
(dp1343
g61
(dp1344
sg70
g833
sg63
(lp1345
g56
(g77
g58
NtRp1346
(dp1347
g61
(dp1348
g81
g82
ssg70
g1342
sg63
(lp1349
S'remote_addr'
p1350
asbag56
(g77
g58
NtRp1351
(dp1352
g61
(dp1353
g88
g89
ssg70
g1342
sg63
(lp1354
S':'
asbag56
(g77
g58
NtRp1355
(dp1356
g61
(dp1357
sg70
g1342
sg63
(lp1358
g56
(g57
g58
NtRp1359
(dp1360
g61
(dp1361
g69
I4
ssg70
g1355
sg63
(lp1362
g201
asbasbasbag56
(g72
g58
NtRp1363
(dp1364
g61
(dp1365
sg70
g833
sg63
(lp1366
g56
(g77
g58
NtRp1367
(dp1368
g61
(dp1369
g81
g82
ssg70
g1363
sg63
(lp1370
S'remote_port'
p1371
asbag56
(g77
g58
NtRp1372
(dp1373
g61
(dp1374
g88
g89
ssg70
g1363
sg63
(lp1375
S':'
asbag56
(g77
g58
NtRp1376
(dp1377
g61
(dp1378
sg70
g1363
sg63
(lp1379
g56
(g57
g58
NtRp1380
(dp1381
g61
(dp1382
g69
I4
ssg70
g1376
sg63
(lp1383
S'36103'
p1384
asbasbasbag56
(g72
g58
NtRp1385
(dp1386
g61
(dp1387
sg70
g833
sg63
(lp1388
g56
(g77
g58
NtRp1389
(dp1390
g61
(dp1391
g81
g82
ssg70
g1385
sg63
(lp1392
S'request_method'
p1393
asbag56
(g77
g58
NtRp1394
(dp1395
g61
(dp1396
g88
g89
ssg70
g1385
sg63
(lp1397
S':'
asbag56
(g77
g58
NtRp1398
(dp1399
g61
(dp1400
sg70
g1385
sg63
(lp1401
g56
(g57
g58
NtRp1402
(dp1403
g61
(dp1404
g69
I4
ssg70
g1398
sg63
(lp1405
S'POST'
p1406
asbasbasbag56
(g72
g58
NtRp1407
(dp1408
g61
(dp1409
sg70
g833
sg63
(lp1410
g56
(g77
g58
NtRp1411
(dp1412
g61
(dp1413
g81
g82
ssg70
g1407
sg63
(lp1414
S'script_name'
p1415
asbag56
(g77
g58
NtRp1416
(dp1417
g61
(dp1418
g88
g89
ssg70
g1407
sg63
(lp1419
S':'
asbag56
(g77
g58
NtRp1420
(dp1421
g61
(dp1422
sg70
g1407
sg63
(lp1423
g56
(g57
g58
NtRp1424
(dp1425
g61
(dp1426
g69
I4
ssg70
g1420
sg63
(lp1427
S''
asbasbasbag56
(g72
g58
NtRp1428
(dp1429
g61
(dp1430
sg70
g833
sg63
(lp1431
g56
(g77
g58
NtRp1432
(dp1433
g61
(dp1434
g81
g82
ssg70
g1428
sg63
(lp1435
S'server_name'
p1436
asbag56
(g77
g58
NtRp1437
(dp1438
g61
(dp1439
g88
g89
ssg70
g1428
sg63
(lp1440
S':'
asbag56
(g77
g58
NtRp1441
(dp1442
g61
(dp1443
sg70
g1428
sg63
(lp1444
g56
(g57
g58
NtRp1445
(dp1446
g61
(dp1447
g69
I4
ssg70
g1441
sg63
(lp1448
S'jose'
p1449
asbasbasbag56
(g72
g58
NtRp1450
(dp1451
g61
(dp1452
sg70
g833
sg63
(lp1453
g56
(g77
g58
NtRp1454
(dp1455
g61
(dp1456
g81
g82
ssg70
g1450
sg63
(lp1457
S'server_port'
p1458
asbag56
(g77
g58
NtRp1459
(dp1460
g61
(dp1461
g88
g89
ssg70
g1450
sg63
(lp1462
S':'
asbag56
(g77
g58
NtRp1463
(dp1464
g61
(dp1465
sg70
g1450
sg63
(lp1466
g56
(g57
g58
NtRp1467
(dp1468
g61
(dp1469
g69
I4
ssg70
g1463
sg63
(lp1470
S'8000'
p1471
asbasbasbag56
(g72
g58
NtRp1472
(dp1473
g61
(dp1474
sg70
g833
sg63
(lp1475
g56
(g77
g58
NtRp1476
(dp1477
g61
(dp1478
g81
g82
ssg70
g1472
sg63
(lp1479
S'server_protocol'
p1480
asbag56
(g77
g58
NtRp1481
(dp1482
g61
(dp1483
g88
g89
ssg70
g1472
sg63
(lp1484
S':'
asbag56
(g77
g58
NtRp1485
(dp1486
g61
(dp1487
sg70
g1472
sg63
(lp1488
g56
(g57
g58
NtRp1489
(dp1490
g61
(dp1491
g69
I4
ssg70
g1485
sg63
(lp1492
S'HTTP/1.1'
p1493
asbasbasbag56
(g72
g58
NtRp1494
(dp1495
g61
(dp1496
sg70
g833
sg63
(lp1497
g56
(g77
g58
NtRp1498
(dp1499
g61
(dp1500
g81
g82
ssg70
g1494
sg63
(lp1501
S'server_software'
p1502
asbag56
(g77
g58
NtRp1503
(dp1504
g61
(dp1505
g88
g89
ssg70
g1494
sg63
(lp1506
S':'
asbag56
(g77
g58
NtRp1507
(dp1508
g61
(dp1509
sg70
g1494
sg63
(lp1510
g56
(g57
g58
NtRp1511
(dp1512
g61
(dp1513
g69
I4
ssg70
g1507
sg63
(lp1514
S'Rocket 1.2.4'
p1515
asbasbasbag56
(g72
g58
NtRp1516
(dp1517
g61
(dp1518
sg70
g833
sg63
(lp1519
g56
(g77
g58
NtRp1520
(dp1521
g61
(dp1522
g81
g82
ssg70
g1516
sg63
(lp1523
S'web2py_crontype'
p1524
asbag56
(g77
g58
NtRp1525
(dp1526
g61
(dp1527
g88
g89
ssg70
g1516
sg63
(lp1528
S':'
asbag56
(g77
g58
NtRp1529
(dp1530
g61
(dp1531
sg70
g1516
sg63
(lp1532
g56
(g57
g58
NtRp1533
(dp1534
g61
(dp1535
g69
I4
ssg70
g1529
sg63
(lp1536
S'hard'
p1537
asbasbasbag56
(g72
g58
NtRp1538
(dp1539
g61
(dp1540
sg70
g833
sg63
(lp1541
g56
(g77
g58
NtRp1542
(dp1543
g61
(dp1544
g81
g82
ssg70
g1538
sg63
(lp1545
S'web2py_path'
p1546
asbag56
(g77
g58
NtRp1547
(dp1548
g61
(dp1549
g88
g89
ssg70
g1538
sg63
(lp1550
S':'
asbag56
(g77
g58
NtRp1551
(dp1552
g61
(dp1553
sg70
g1538
sg63
(lp1554
g56
(g57
g58
NtRp1555
(dp1556
g61
(dp1557
g69
I4
ssg70
g1551
sg63
(lp1558
g880
asbasbasbag56
(g72
g58
NtRp1559
(dp1560
g61
(dp1561
sg70
g833
sg63
(lp1562
g56
(g77
g58
NtRp1563
(dp1564
g61
(dp1565
g81
g82
ssg70
g1559
sg63
(lp1566
S'web2py_version'
p1567
asbag56
(g77
g58
NtRp1568
(dp1569
g61
(dp1570
g88
g89
ssg70
g1559
sg63
(lp1571
S':'
asbag56
(g77
g58
NtRp1572
(dp1573
g61
(dp1574
sg70
g1559
sg63
(lp1575
g56
(g57
g58
NtRp1576
(dp1577
g61
(dp1578
g69
I4
ssg70
g1572
sg63
(lp1579
g56
(g65
g58
NtRp1580
(dp1581
g61
(dp1582
g69
I3
ssg70
Nsg63
(lp1583
g56
(g72
g58
NtRp1584
(dp1585
g61
(dp1586
sg70
g1580
sg63
(lp1587
g56
(g77
g58
NtRp1588
(dp1589
g61
(dp1590
sg70
g1584
sg63
(lp1591
g56
(g57
g58
NtRp1592
(dp1593
g61
(dp1594
g69
I3
ssg70
g1588
sg63
(lp1595
S'1'
asbasbasbag56
(g72
g58
NtRp1596
(dp1597
g61
(dp1598
sg70
g1580
sg63
(lp1599
g56
(g77
g58
NtRp1600
(dp1601
g61
(dp1602
sg70
g1596
sg63
(lp1603
g56
(g57
g58
NtRp1604
(dp1605
g61
(dp1606
g69
I3
ssg70
g1600
sg63
(lp1607
S'99'
p1608
asbasbasbag56
(g72
g58
NtRp1609
(dp1610
g61
(dp1611
sg70
g1580
sg63
(lp1612
g56
(g77
g58
NtRp1613
(dp1614
g61
(dp1615
sg70
g1609
sg63
(lp1616
g56
(g57
g58
NtRp1617
(dp1618
g61
(dp1619
g69
I3
ssg70
g1613
sg63
(lp1620
S'2'
asbasbasbag56
(g72
g58
NtRp1621
(dp1622
g61
(dp1623
sg70
g1580
sg63
(lp1624
g56
(g77
g58
NtRp1625
(dp1626
g61
(dp1627
sg70
g1621
sg63
(lp1628
g56
(g57
g58
NtRp1629
(dp1630
g61
(dp1631
g69
I3
ssg70
g1625
sg63
(lp1632
S'datetime.datetime(2011, 9, 26, 6, 55, 33)'
p1633
asbasbasbag56
(g72
g58
NtRp1634
(dp1635
g61
(dp1636
sg70
g1580
sg63
(lp1637
g56
(g77
g58
NtRp1638
(dp1639
g61
(dp1640
sg70
g1634
sg63
(lp1641
g56
(g57
g58
NtRp1642
(dp1643
g61
(dp1644
g69
I3
ssg70
g1638
sg63
(lp1645
S'stable'
p1646
asbasbasbasbasbasbasbag56
(g72
g58
NtRp1647
(dp1648
g61
(dp1649
sg70
g833
sg63
(lp1650
g56
(g77
g58
NtRp1651
(dp1652
g61
(dp1653
g81
g82
ssg70
g1647
sg63
(lp1654
S'wsgi_errors'
p1655
asbag56
(g77
g58
NtRp1656
(dp1657
g61
(dp1658
g88
g89
ssg70
g1647
sg63
(lp1659
S':'
asbag56
(g77
g58
NtRp1660
(dp1661
g61
(dp1662
sg70
g1647
sg63
(lp1663
g56
(g57
g58
NtRp1664
(dp1665
g61
(dp1666
g69
I4
ssg70
g1660
sg63
(lp1667
S"<open file '<stderr>', mode 'w' at 0x7f84db3ff270>"
p1668
asbasbasbag56
(g72
g58
NtRp1669
(dp1670
g61
(dp1671
sg70
g833
sg63
(lp1672
g56
(g77
g58
NtRp1673
(dp1674
g61
(dp1675
g81
g82
ssg70
g1669
sg63
(lp1676
S'wsgi_file_wrapper'
p1677
asbag56
(g77
g58
NtRp1678
(dp1679
g61
(dp1680
g88
g89
ssg70
g1669
sg63
(lp1681
S':'
asbag56
(g77
g58
NtRp1682
(dp1683
g61
(dp1684
sg70
g1669
sg63
(lp1685
g56
(g57
g58
NtRp1686
(dp1687
g61
(dp1688
g69
I4
ssg70
g1682
sg63
(lp1689
S'<class wsgiref.util.FileWrapper at 0x1b96d50>'
p1690
asbasbasbag56
(g72
g58
NtRp1691
(dp1692
g61
(dp1693
sg70
g833
sg63
(lp1694
g56
(g77
g58
NtRp1695
(dp1696
g61
(dp1697
g81
g82
ssg70
g1691
sg63
(lp1698
S'wsgi_input'
p1699
asbag56
(g77
g58
NtRp1700
(dp1701
g61
(dp1702
g88
g89
ssg70
g1691
sg63
(lp1703
S':'
asbag56
(g77
g58
NtRp1704
(dp1705
g61
(dp1706
sg70
g1691
sg63
(lp1707
g56
(g57
g58
NtRp1708
(dp1709
g61
(dp1710
g69
I4
ssg70
g1704
sg63
(lp1711
S'<socket._fileobject object at 0x2bb4950>'
p1712
asbasbasbag56
(g72
g58
NtRp1713
(dp1714
g61
(dp1715
sg70
g833
sg63
(lp1716
g56
(g77
g58
NtRp1717
(dp1718
g61
(dp1719
g81
g82
ssg70
g1713
sg63
(lp1720
S'wsgi_multiprocess'
p1721
asbag56
(g77
g58
NtRp1722
(dp1723
g61
(dp1724
g88
g89
ssg70
g1713
sg63
(lp1725
S':'
asbag56
(g77
g58
NtRp1726
(dp1727
g61
(dp1728
sg70
g1713
sg63
(lp1729
g56
(g57
g58
NtRp1730
(dp1731
g61
(dp1732
g69
I4
ssg70
g1726
sg63
(lp1733
g992
asbasbasbag56
(g72
g58
NtRp1734
(dp1735
g61
(dp1736
sg70
g833
sg63
(lp1737
g56
(g77
g58
NtRp1738
(dp1739
g61
(dp1740
g81
g82
ssg70
g1734
sg63
(lp1741
S'wsgi_multithread'
p1742
asbag56
(g77
g58
NtRp1743
(dp1744
g61
(dp1745
g88
g89
ssg70
g1734
sg63
(lp1746
S':'
asbag56
(g77
g58
NtRp1747
(dp1748
g61
(dp1749
sg70
g1734
sg63
(lp1750
g56
(g57
g58
NtRp1751
(dp1752
g61
(dp1753
g69
I4
ssg70
g1747
sg63
(lp1754
g99
asbasbasbag56
(g72
g58
NtRp1755
(dp1756
g61
(dp1757
sg70
g833
sg63
(lp1758
g56
(g77
g58
NtRp1759
(dp1760
g61
(dp1761
g81
g82
ssg70
g1755
sg63
(lp1762
S'wsgi_run_once'
p1763
asbag56
(g77
g58
NtRp1764
(dp1765
g61
(dp1766
g88
g89
ssg70
g1755
sg63
(lp1767
S':'
asbag56
(g77
g58
NtRp1768
(dp1769
g61
(dp1770
sg70
g1755
sg63
(lp1771
g56
(g57
g58
NtRp1772
(dp1773
g61
(dp1774
g69
I4
ssg70
g1768
sg63
(lp1775
g992
asbasbasbag56
(g72
g58
NtRp1776
(dp1777
g61
(dp1778
sg70
g833
sg63
(lp1779
g56
(g77
g58
NtRp1780
(dp1781
g61
(dp1782
g81
g82
ssg70
g1776
sg63
(lp1783
S'wsgi_url_scheme'
p1784
asbag56
(g77
g58
NtRp1785
(dp1786
g61
(dp1787
g88
g89
ssg70
g1776
sg63
(lp1788
S':'
asbag56
(g77
g58
NtRp1789
(dp1790
g61
(dp1791
sg70
g1776
sg63
(lp1792
g56
(g57
g58
NtRp1793
(dp1794
g61
(dp1795
g69
I4
ssg70
g1789
sg63
(lp1796
S'http'
p1797
asbasbasbag56
(g72
g58
NtRp1798
(dp1799
g61
(dp1800
sg70
g833
sg63
(lp1801
g56
(g77
g58
NtRp1802
(dp1803
g61
(dp1804
g81
g82
ssg70
g1798
sg63
(lp1805
S'wsgi_version'
p1806
asbag56
(g77
g58
NtRp1807
(dp1808
g61
(dp1809
g88
g89
ssg70
g1798
sg63
(lp1810
S':'
asbag56
(g77
g58
NtRp1811
(dp1812
g61
(dp1813
sg70
g1798
sg63
(lp1814
g56
(g57
g58
NtRp1815
(dp1816
g61
(dp1817
g69
I4
ssg70
g1811
sg63
(lp1818
g56
(g65
g58
NtRp1819
(dp1820
g61
(dp1821
g69
I3
ssg70
Nsg63
(lp1822
g56
(g72
g58
NtRp1823
(dp1824
g61
(dp1825
sg70
g1819
sg63
(lp1826
g56
(g77
g58
NtRp1827
(dp1828
g61
(dp1829
sg70
g1823
sg63
(lp1830
g56
(g57
g58
NtRp1831
(dp1832
g61
(dp1833
g69
I3
ssg70
g1827
sg63
(lp1834
S'1'
asbasbasbag56
(g72
g58
NtRp1835
(dp1836
g61
(dp1837
sg70
g1819
sg63
(lp1838
g56
(g77
g58
NtRp1839
(dp1840
g61
(dp1841
sg70
g1835
sg63
(lp1842
g56
(g57
g58
NtRp1843
(dp1844
g61
(dp1845
g69
I3
ssg70
g1839
sg63
(lp1846
S'0'
asbasbasbasbasbasbasbasbasbasbasbag56
(g72
g58
NtRp1847
(dp1848
g61
(dp1849
sg70
g66
sg63
(lp1850
g56
(g77
g58
NtRp1851
(dp1852
g61
(dp1853
g81
g82
ssg70
g1847
sg63
(lp1854
S'extension'
p1855
asbag56
(g77
g58
NtRp1856
(dp1857
g61
(dp1858
g88
g89
ssg70
g1847
sg63
(lp1859
S':'
asbag56
(g77
g58
NtRp1860
(dp1861
g61
(dp1862
sg70
g1847
sg63
(lp1863
g56
(g57
g58
NtRp1864
(dp1865
g61
(dp1866
g69
I5
ssg70
g1860
sg63
(lp1867
S'html'
p1868
asbasbasbag56
(g72
g58
NtRp1869
(dp1870
g61
(dp1871
sg70
g66
sg63
(lp1872
g56
(g77
g58
NtRp1873
(dp1874
g61
(dp1875
g81
g82
ssg70
g1869
sg63
(lp1876
S'folder'
p1877
asbag56
(g77
g58
NtRp1878
(dp1879
g61
(dp1880
g88
g89
ssg70
g1869
sg63
(lp1881
S':'
asbag56
(g77
g58
NtRp1882
(dp1883
g61
(dp1884
sg70
g1869
sg63
(lp1885
g56
(g57
g58
NtRp1886
(dp1887
g61
(dp1888
g69
I5
ssg70
g1882
sg63
(lp1889
S'/home/jose/DESARROLLO/web2py199/applications/streamlog/'
p1890
asbasbasbag56
(g72
g58
NtRp1891
(dp1892
g61
(dp1893
sg70
g66
sg63
(lp1894
g56
(g77
g58
NtRp1895
(dp1896
g61
(dp1897
g81
g82
ssg70
g1891
sg63
(lp1898
S'function'
p1899
asbag56
(g77
g58
NtRp1900
(dp1901
g61
(dp1902
g88
g89
ssg70
g1891
sg63
(lp1903
S':'
asbag56
(g77
g58
NtRp1904
(dp1905
g61
(dp1906
sg70
g1891
sg63
(lp1907
g56
(g57
g58
NtRp1908
(dp1909
g61
(dp1910
g69
I5
ssg70
g1904
sg63
(lp1911
S'getTypeTable'
p1912
asbasbasbag56
(g72
g58
NtRp1913
(dp1914
g61
(dp1915
sg70
g66
sg63
(lp1916
g56
(g77
g58
NtRp1917
(dp1918
g61
(dp1919
g81
g82
ssg70
g1913
sg63
(lp1920
S'get_vars'
p1921
asbag56
(g77
g58
NtRp1922
(dp1923
g61
(dp1924
g88
g89
ssg70
g1913
sg63
(lp1925
S':'
asbag56
(g77
g58
NtRp1926
(dp1927
g61
(dp1928
sg70
g1913
sg63
(lp1929
g56
(g57
g58
NtRp1930
(dp1931
g61
(dp1932
g69
I5
ssg70
g1926
sg63
(lp1933
g56
(g65
g58
NtRp1934
(dp1935
g61
(dp1936
g69
I4
ssg70
Nsg63
(lp1937
sbasbasbasbag56
(g72
g58
NtRp1938
(dp1939
g61
(dp1940
sg70
g66
sg63
(lp1941
g56
(g77
g58
NtRp1942
(dp1943
g61
(dp1944
g81
g82
ssg70
g1938
sg63
(lp1945
S'global_settings'
p1946
asbag56
(g77
g58
NtRp1947
(dp1948
g61
(dp1949
g88
g89
ssg70
g1938
sg63
(lp1950
S':'
asbag56
(g77
g58
NtRp1951
(dp1952
g61
(dp1953
sg70
g1938
sg63
(lp1954
g56
(g57
g58
NtRp1955
(dp1956
g61
(dp1957
g69
I5
ssg70
g1951
sg63
(lp1958
g56
(g65
g58
NtRp1959
(dp1960
g61
(dp1961
g69
I4
ssg70
Nsg63
(lp1962
g56
(g72
g58
NtRp1963
(dp1964
g61
(dp1965
sg70
g1959
sg63
(lp1966
g56
(g77
g58
NtRp1967
(dp1968
g61
(dp1969
g81
g82
ssg70
g1963
sg63
(lp1970
g845
asbag56
(g77
g58
NtRp1971
(dp1972
g61
(dp1973
g88
g89
ssg70
g1963
sg63
(lp1974
S':'
asbag56
(g77
g58
NtRp1975
(dp1976
g61
(dp1977
sg70
g1963
sg63
(lp1978
g56
(g57
g58
NtRp1979
(dp1980
g61
(dp1981
g69
I4
ssg70
g1975
sg63
(lp1982
S"set(['/home/jose/DESARROLLO/web2py199/applications/streamlog/', '/home/jose/DESARROLLO/web2py199/applications/admin/'])"
p1983
asbasbasbag56
(g72
g58
NtRp1984
(dp1985
g61
(dp1986
sg70
g1959
sg63
(lp1987
g56
(g77
g58
NtRp1988
(dp1989
g61
(dp1990
g81
g82
ssg70
g1984
sg63
(lp1991
g867
asbag56
(g77
g58
NtRp1992
(dp1993
g61
(dp1994
g88
g89
ssg70
g1984
sg63
(lp1995
S':'
asbag56
(g77
g58
NtRp1996
(dp1997
g61
(dp1998
sg70
g1984
sg63
(lp1999
g56
(g57
g58
NtRp2000
(dp2001
g61
(dp2002
g69
I4
ssg70
g1996
sg63
(lp2003
g880
asbasbasbag56
(g72
g58
NtRp2004
(dp2005
g61
(dp2006
sg70
g1959
sg63
(lp2007
g56
(g77
g58
NtRp2008
(dp2009
g61
(dp2010
g81
g82
ssg70
g2004
sg63
(lp2011
g889
asbag56
(g77
g58
NtRp2012
(dp2013
g61
(dp2014
g88
g89
ssg70
g2004
sg63
(lp2015
S':'
asbag56
(g77
g58
NtRp2016
(dp2017
g61
(dp2018
sg70
g2004
sg63
(lp2019
g56
(g57
g58
NtRp2020
(dp2021
g61
(dp2022
g69
I4
ssg70
g2016
sg63
(lp2023
g56
(g65
g58
NtRp2024
(dp2025
g61
(dp2026
g69
I3
ssg70
Nsg63
(lp2027
sbasbasbasbag56
(g72
g58
NtRp2028
(dp2029
g61
(dp2030
sg70
g1959
sg63
(lp2031
g56
(g77
g58
NtRp2032
(dp2033
g61
(dp2034
g81
g82
ssg70
g2028
sg63
(lp2035
g914
asbag56
(g77
g58
NtRp2036
(dp2037
g61
(dp2038
g88
g89
ssg70
g2028
sg63
(lp2039
S':'
asbag56
(g77
g58
NtRp2040
(dp2041
g61
(dp2042
sg70
g2028
sg63
(lp2043
g56
(g57
g58
NtRp2044
(dp2045
g61
(dp2046
g69
I4
ssg70
g2040
sg63
(lp2047
S"<Values at 0x1c79f80: {'verbose': False, 'ip': '127.0.0.1', 'shutdown_timeout': 5, 'taskbar': False, 'nocron': False, 'pid_filename': 'httpserver.pid', 'maxthreads': None, 'softcron': False, 'server_name': 'jose', 'bpython': False, 'nogui': False, 'port': 8000, 'extcron': False, 'debuglevel': 30, 'test': None, 'folder': '/home/jose/DESARROLLO/web2py199', 'config': '', 'import_models': False, 'winservice': '', 'shell': None, 'run': '', 'log_filename': 'httpserver.log', 'args': [''], 'ssl_ca_certificate': None, 'scheduler': None, 'profiler_filename': None, 'ssl_private_key': '', 'password': 't', 'request_queue_size': 5, 'ssl_certificate': '', 'cronjob': False, 'plain': False, 'quiet': False, 'interfaces': None, 'minthreads': None, 'timeout': 10, 'numthreads': None, 'nobanner': False}>"
p2048
asbasbasbag56
(g72
g58
NtRp2049
(dp2050
g61
(dp2051
sg70
g1959
sg63
(lp2052
g56
(g77
g58
NtRp2053
(dp2054
g61
(dp2055
g81
g82
ssg70
g2049
sg63
(lp2056
g957
asbag56
(g77
g58
NtRp2057
(dp2058
g61
(dp2059
g88
g89
ssg70
g2049
sg63
(lp2060
S':'
asbag56
(g77
g58
NtRp2061
(dp2062
g61
(dp2063
sg70
g2049
sg63
(lp2064
g56
(g57
g58
NtRp2065
(dp2066
g61
(dp2067
g69
I4
ssg70
g2061
sg63
(lp2068
S'set([])'
p2069
asbasbasbag56
(g72
g58
NtRp2070
(dp2071
g61
(dp2072
sg70
g1959
sg63
(lp2073
g56
(g77
g58
NtRp2074
(dp2075
g61
(dp2076
g81
g82
ssg70
g2070
sg63
(lp2077
g979
asbag56
(g77
g58
NtRp2078
(dp2079
g61
(dp2080
g88
g89
ssg70
g2070
sg63
(lp2081
S':'
asbag56
(g77
g58
NtRp2082
(dp2083
g61
(dp2084
sg70
g2070
sg63
(lp2085
g56
(g57
g58
NtRp2086
(dp2087
g61
(dp2088
g69
I4
ssg70
g2082
sg63
(lp2089
g992
asbasbasbag56
(g72
g58
NtRp2090
(dp2091
g61
(dp2092
sg70
g1959
sg63
(lp2093
g56
(g77
g58
NtRp2094
(dp2095
g61
(dp2096
g81
g82
ssg70
g2090
sg63
(lp2097
g1001
asbag56
(g77
g58
NtRp2098
(dp2099
g61
(dp2100
g88
g89
ssg70
g2090
sg63
(lp2101
S':'
asbag56
(g77
g58
NtRp2102
(dp2103
g61
(dp2104
sg70
g2090
sg63
(lp2105
g56
(g57
g58
NtRp2106
(dp2107
g61
(dp2108
g69
I4
ssg70
g2102
sg63
(lp2109
g1014
asbasbasbag56
(g72
g58
NtRp2110
(dp2111
g61
(dp2112
sg70
g1959
sg63
(lp2113
g56
(g77
g58
NtRp2114
(dp2115
g61
(dp2116
g81
g82
ssg70
g2110
sg63
(lp2117
g1286
asbag56
(g77
g58
NtRp2118
(dp2119
g61
(dp2120
g88
g89
ssg70
g2110
sg63
(lp2121
S':'
asbag56
(g77
g58
NtRp2122
(dp2123
g61
(dp2124
sg70
g2110
sg63
(lp2125
g56
(g57
g58
NtRp2126
(dp2127
g61
(dp2128
g69
I4
ssg70
g2122
sg63
(lp2129
g992
asbasbasbag56
(g72
g58
NtRp2130
(dp2131
g61
(dp2132
sg70
g1959
sg63
(lp2133
g56
(g77
g58
NtRp2134
(dp2135
g61
(dp2136
g81
g82
ssg70
g2130
sg63
(lp2137
g1524
asbag56
(g77
g58
NtRp2138
(dp2139
g61
(dp2140
g88
g89
ssg70
g2130
sg63
(lp2141
S':'
asbag56
(g77
g58
NtRp2142
(dp2143
g61
(dp2144
sg70
g2130
sg63
(lp2145
g56
(g57
g58
NtRp2146
(dp2147
g61
(dp2148
g69
I4
ssg70
g2142
sg63
(lp2149
g1537
asbasbasbag56
(g72
g58
NtRp2150
(dp2151
g61
(dp2152
sg70
g1959
sg63
(lp2153
g56
(g77
g58
NtRp2154
(dp2155
g61
(dp2156
g81
g82
ssg70
g2150
sg63
(lp2157
g1567
asbag56
(g77
g58
NtRp2158
(dp2159
g61
(dp2160
g88
g89
ssg70
g2150
sg63
(lp2161
S':'
asbag56
(g77
g58
NtRp2162
(dp2163
g61
(dp2164
sg70
g2150
sg63
(lp2165
g56
(g57
g58
NtRp2166
(dp2167
g61
(dp2168
g69
I4
ssg70
g2162
sg63
(lp2169
g56
(g65
g58
NtRp2170
(dp2171
g61
(dp2172
g69
I3
ssg70
Nsg63
(lp2173
g56
(g72
g58
NtRp2174
(dp2175
g61
(dp2176
sg70
g2170
sg63
(lp2177
g56
(g77
g58
NtRp2178
(dp2179
g61
(dp2180
sg70
g2174
sg63
(lp2181
g56
(g57
g58
NtRp2182
(dp2183
g61
(dp2184
g69
I3
ssg70
g2178
sg63
(lp2185
S'1'
asbasbasbag56
(g72
g58
NtRp2186
(dp2187
g61
(dp2188
sg70
g2170
sg63
(lp2189
g56
(g77
g58
NtRp2190
(dp2191
g61
(dp2192
sg70
g2186
sg63
(lp2193
g56
(g57
g58
NtRp2194
(dp2195
g61
(dp2196
g69
I3
ssg70
g2190
sg63
(lp2197
S'99'
p2198
asbasbasbag56
(g72
g58
NtRp2199
(dp2200
g61
(dp2201
sg70
g2170
sg63
(lp2202
g56
(g77
g58
NtRp2203
(dp2204
g61
(dp2205
sg70
g2199
sg63
(lp2206
g56
(g57
g58
NtRp2207
(dp2208
g61
(dp2209
g69
I3
ssg70
g2203
sg63
(lp2210
S'2'
asbasbasbag56
(g72
g58
NtRp2211
(dp2212
g61
(dp2213
sg70
g2170
sg63
(lp2214
g56
(g77
g58
NtRp2215
(dp2216
g61
(dp2217
sg70
g2211
sg63
(lp2218
g56
(g57
g58
NtRp2219
(dp2220
g61
(dp2221
g69
I3
ssg70
g2215
sg63
(lp2222
S'datetime.datetime(2011, 9, 26, 6, 55, 33)'
p2223
asbasbasbag56
(g72
g58
NtRp2224
(dp2225
g61
(dp2226
sg70
g2170
sg63
(lp2227
g56
(g77
g58
NtRp2228
(dp2229
g61
(dp2230
sg70
g2224
sg63
(lp2231
g56
(g57
g58
NtRp2232
(dp2233
g61
(dp2234
g69
I3
ssg70
g2228
sg63
(lp2235
g1646
asbasbasbasbasbasbasbasbasbasbasbag56
(g72
g58
NtRp2236
(dp2237
g61
(dp2238
sg70
g66
sg63
(lp2239
g56
(g77
g58
NtRp2240
(dp2241
g61
(dp2242
g81
g82
ssg70
g2236
sg63
(lp2243
S'is_https'
p2244
asbag56
(g77
g58
NtRp2245
(dp2246
g61
(dp2247
g88
g89
ssg70
g2236
sg63
(lp2248
S':'
asbag56
(g77
g58
NtRp2249
(dp2250
g61
(dp2251
sg70
g2236
sg63
(lp2252
g56
(g57
g58
NtRp2253
(dp2254
g61
(dp2255
g69
I5
ssg70
g2249
sg63
(lp2256
g992
asbasbasbag56
(g72
g58
NtRp2257
(dp2258
g61
(dp2259
sg70
g66
sg63
(lp2260
g56
(g77
g58
NtRp2261
(dp2262
g61
(dp2263
g81
g82
ssg70
g2257
sg63
(lp2264
S'is_local'
p2265
asbag56
(g77
g58
NtRp2266
(dp2267
g61
(dp2268
g88
g89
ssg70
g2257
sg63
(lp2269
S':'
asbag56
(g77
g58
NtRp2270
(dp2271
g61
(dp2272
sg70
g2257
sg63
(lp2273
g56
(g57
g58
NtRp2274
(dp2275
g61
(dp2276
g69
I5
ssg70
g2270
sg63
(lp2277
g99
asbasbasbag56
(g72
g58
NtRp2278
(dp2279
g61
(dp2280
sg70
g66
sg63
(lp2281
g56
(g77
g58
NtRp2282
(dp2283
g61
(dp2284
g81
g82
ssg70
g2278
sg63
(lp2285
S'is_restful'
p2286
asbag56
(g77
g58
NtRp2287
(dp2288
g61
(dp2289
g88
g89
ssg70
g2278
sg63
(lp2290
S':'
asbag56
(g77
g58
NtRp2291
(dp2292
g61
(dp2293
sg70
g2278
sg63
(lp2294
g56
(g57
g58
NtRp2295
(dp2296
g61
(dp2297
g69
I5
ssg70
g2291
sg63
(lp2298
g992
asbasbasbag56
(g72
g58
NtRp2299
(dp2300
g61
(dp2301
sg70
g66
sg63
(lp2302
g56
(g77
g58
NtRp2303
(dp2304
g61
(dp2305
g81
g82
ssg70
g2299
sg63
(lp2306
S'now'
p2307
asbag56
(g77
g58
NtRp2308
(dp2309
g61
(dp2310
g88
g89
ssg70
g2299
sg63
(lp2311
S':'
asbag56
(g77
g58
NtRp2312
(dp2313
g61
(dp2314
sg70
g2299
sg63
(lp2315
g56
(g57
g58
NtRp2316
(dp2317
g61
(dp2318
g69
I5
ssg70
g2312
sg63
(lp2319
S'datetime.datetime(2012, 5, 26, 20, 51, 21, 949293)'
p2320
asbasbasbag56
(g72
g58
NtRp2321
(dp2322
g61
(dp2323
sg70
g66
sg63
(lp2324
g56
(g77
g58
NtRp2325
(dp2326
g61
(dp2327
g81
g82
ssg70
g2321
sg63
(lp2328
S'post_vars'
p2329
asbag56
(g77
g58
NtRp2330
(dp2331
g61
(dp2332
g88
g89
ssg70
g2321
sg63
(lp2333
S':'
asbag56
(g77
g58
NtRp2334
(dp2335
g61
(dp2336
sg70
g2321
sg63
(lp2337
g56
(g57
g58
NtRp2338
(dp2339
g61
(dp2340
g69
I5
ssg70
g2334
sg63
(lp2341
g56
(g65
g58
NtRp2342
(dp2343
g61
(dp2344
g69
I4
ssg70
Nsg63
(lp2345
sbasbasbasbag56
(g72
g58
NtRp2346
(dp2347
g61
(dp2348
sg70
g66
sg63
(lp2349
g56
(g77
g58
NtRp2350
(dp2351
g61
(dp2352
g81
g82
ssg70
g2346
sg63
(lp2353
S'raw_args'
p2354
asbag56
(g77
g58
NtRp2355
(dp2356
g61
(dp2357
g88
g89
ssg70
g2346
sg63
(lp2358
S':'
asbag56
(g77
g58
NtRp2359
(dp2360
g61
(dp2361
sg70
g2346
sg63
(lp2362
g56
(g57
g58
NtRp2363
(dp2364
g61
(dp2365
g69
I5
ssg70
g2359
sg63
(lp2366
S'1'
asbasbasbag56
(g72
g58
NtRp2367
(dp2368
g61
(dp2369
sg70
g66
sg63
(lp2370
g56
(g77
g58
NtRp2371
(dp2372
g61
(dp2373
g81
g82
ssg70
g2367
sg63
(lp2374
S'url'
p2375
asbag56
(g77
g58
NtRp2376
(dp2377
g61
(dp2378
g88
g89
ssg70
g2367
sg63
(lp2379
S':'
asbag56
(g77
g58
NtRp2380
(dp2381
g61
(dp2382
sg70
g2367
sg63
(lp2383
g56
(g57
g58
NtRp2384
(dp2385
g61
(dp2386
g69
I5
ssg70
g2380
sg63
(lp2387
S'/streamlog/default/getTypeTable/1'
p2388
asbasbasbag56
(g72
g58
NtRp2389
(dp2390
g61
(dp2391
sg70
g66
sg63
(lp2392
g56
(g77
g58
NtRp2393
(dp2394
g61
(dp2395
g81
g82
ssg70
g2389
sg63
(lp2396
S'utcnow'
p2397
asbag56
(g77
g58
NtRp2398
(dp2399
g61
(dp2400
g88
g89
ssg70
g2389
sg63
(lp2401
S':'
asbag56
(g77
g58
NtRp2402
(dp2403
g61
(dp2404
sg70
g2389
sg63
(lp2405
g56
(g57
g58
NtRp2406
(dp2407
g61
(dp2408
g69
I5
ssg70
g2402
sg63
(lp2409
S'datetime.datetime(2012, 5, 26, 13, 51, 21, 949320)'
p2410
asbasbasbag56
(g72
g58
NtRp2411
(dp2412
g61
(dp2413
sg70
g66
sg63
(lp2414
g56
(g77
g58
NtRp2415
(dp2416
g61
(dp2417
g81
g82
ssg70
g2411
sg63
(lp2418
S'uuid'
p2419
asbag56
(g77
g58
NtRp2420
(dp2421
g61
(dp2422
g88
g89
ssg70
g2411
sg63
(lp2423
S':'
asbag56
(g77
g58
NtRp2424
(dp2425
g61
(dp2426
sg70
g2411
sg63
(lp2427
g56
(g57
g58
NtRp2428
(dp2429
g61
(dp2430
g69
I5
ssg70
g2424
sg63
(lp2431
S'streamlog/127.0.0.1.2012-05-26.20-51-21.16ac7531-08a8-4d69-932d-6ad90e390daa'
p2432
asbasbasbag56
(g72
g58
NtRp2433
(dp2434
g61
(dp2435
sg70
g66
sg63
(lp2436
g56
(g77
g58
NtRp2437
(dp2438
g61
(dp2439
g81
g82
ssg70
g2433
sg63
(lp2440
S'vars'
p2441
asbag56
(g77
g58
NtRp2442
(dp2443
g61
(dp2444
g88
g89
ssg70
g2433
sg63
(lp2445
S':'
asbag56
(g77
g58
NtRp2446
(dp2447
g61
(dp2448
sg70
g2433
sg63
(lp2449
g56
(g57
g58
NtRp2450
(dp2451
g61
(dp2452
g69
I5
ssg70
g2446
sg63
(lp2453
g56
(g65
g58
NtRp2454
(dp2455
g61
(dp2456
g69
I4
ssg70
Nsg63
(lp2457
sbasbasbasbag56
(g72
g58
NtRp2458
(dp2459
g61
(dp2460
sg70
g66
sg63
(lp2461
g56
(g77
g58
NtRp2462
(dp2463
g61
(dp2464
g81
g82
ssg70
g2458
sg63
(lp2465
S'wsgi'
p2466
asbag56
(g77
g58
NtRp2467
(dp2468
g61
(dp2469
g88
g89
ssg70
g2458
sg63
(lp2470
S':'
asbag56
(g77
g58
NtRp2471
(dp2472
g61
(dp2473
sg70
g2458
sg63
(lp2474
g56
(g57
g58
NtRp2475
(dp2476
g61
(dp2477
g69
I5
ssg70
g2471
sg63
(lp2478
g56
(g65
g58
NtRp2479
(dp2480
g61
(dp2481
g69
I4
ssg70
Nsg63
(lp2482
g56
(g72
g58
NtRp2483
(dp2484
g61
(dp2485
sg70
g2479
sg63
(lp2486
g56
(g77
g58
NtRp2487
(dp2488
g61
(dp2489
g81
g82
ssg70
g2483
sg63
(lp2490
S'environ'
p2491
asbag56
(g77
g58
NtRp2492
(dp2493
g61
(dp2494
g88
g89
ssg70
g2483
sg63
(lp2495
S':'
asbag56
(g77
g58
NtRp2496
(dp2497
g61
(dp2498
sg70
g2483
sg63
(lp2499
g56
(g57
g58
NtRp2500
(dp2501
g61
(dp2502
g69
I4
ssg70
g2496
sg63
(lp2503
g56
(g65
g58
NtRp2504
(dp2505
g61
(dp2506
g69
I3
ssg70
Nsg63
(lp2507
g56
(g72
g58
NtRp2508
(dp2509
g61
(dp2510
sg70
g2504
sg63
(lp2511
g56
(g77
g58
NtRp2512
(dp2513
g61
(dp2514
g81
g82
ssg70
g2508
sg63
(lp2515
S'CONTENT_LENGTH'
p2516
asbag56
(g77
g58
NtRp2517
(dp2518
g61
(dp2519
g88
g89
ssg70
g2508
sg63
(lp2520
S':'
asbag56
(g77
g58
NtRp2521
(dp2522
g61
(dp2523
sg70
g2508
sg63
(lp2524
g56
(g57
g58
NtRp2525
(dp2526
g61
(dp2527
g69
I3
ssg70
g2521
sg63
(lp2528
S'0'
asbasbasbag56
(g72
g58
NtRp2529
(dp2530
g61
(dp2531
sg70
g2504
sg63
(lp2532
g56
(g77
g58
NtRp2533
(dp2534
g61
(dp2535
g81
g82
ssg70
g2529
sg63
(lp2536
S'HTTP_ACCEPT'
p2537
asbag56
(g77
g58
NtRp2538
(dp2539
g61
(dp2540
g88
g89
ssg70
g2529
sg63
(lp2541
S':'
asbag56
(g77
g58
NtRp2542
(dp2543
g61
(dp2544
sg70
g2529
sg63
(lp2545
g56
(g57
g58
NtRp2546
(dp2547
g61
(dp2548
g69
I3
ssg70
g2542
sg63
(lp2549
g1036
asbasbasbag56
(g72
g58
NtRp2550
(dp2551
g61
(dp2552
sg70
g2504
sg63
(lp2553
g56
(g77
g58
NtRp2554
(dp2555
g61
(dp2556
g81
g82
ssg70
g2550
sg63
(lp2557
S'HTTP_ACCEPT_ENCODING'
p2558
asbag56
(g77
g58
NtRp2559
(dp2560
g61
(dp2561
g88
g89
ssg70
g2550
sg63
(lp2562
S':'
asbag56
(g77
g58
NtRp2563
(dp2564
g61
(dp2565
sg70
g2550
sg63
(lp2566
g56
(g57
g58
NtRp2567
(dp2568
g61
(dp2569
g69
I3
ssg70
g2563
sg63
(lp2570
g1058
asbasbasbag56
(g72
g58
NtRp2571
(dp2572
g61
(dp2573
sg70
g2504
sg63
(lp2574
g56
(g77
g58
NtRp2575
(dp2576
g61
(dp2577
g81
g82
ssg70
g2571
sg63
(lp2578
S'HTTP_ACCEPT_LANGUAGE'
p2579
asbag56
(g77
g58
NtRp2580
(dp2581
g61
(dp2582
g88
g89
ssg70
g2571
sg63
(lp2583
S':'
asbag56
(g77
g58
NtRp2584
(dp2585
g61
(dp2586
sg70
g2571
sg63
(lp2587
g56
(g57
g58
NtRp2588
(dp2589
g61
(dp2590
g69
I3
ssg70
g2584
sg63
(lp2591
g1080
asbasbasbag56
(g72
g58
NtRp2592
(dp2593
g61
(dp2594
sg70
g2504
sg63
(lp2595
g56
(g77
g58
NtRp2596
(dp2597
g61
(dp2598
g81
g82
ssg70
g2592
sg63
(lp2599
S'HTTP_CACHE_CONTROL'
p2600
asbag56
(g77
g58
NtRp2601
(dp2602
g61
(dp2603
g88
g89
ssg70
g2592
sg63
(lp2604
S':'
asbag56
(g77
g58
NtRp2605
(dp2606
g61
(dp2607
sg70
g2592
sg63
(lp2608
g56
(g57
g58
NtRp2609
(dp2610
g61
(dp2611
g69
I3
ssg70
g2605
sg63
(lp2612
g1102
asbasbasbag56
(g72
g58
NtRp2613
(dp2614
g61
(dp2615
sg70
g2504
sg63
(lp2616
g56
(g77
g58
NtRp2617
(dp2618
g61
(dp2619
g81
g82
ssg70
g2613
sg63
(lp2620
S'HTTP_CONNECTION'
p2621
asbag56
(g77
g58
NtRp2622
(dp2623
g61
(dp2624
g88
g89
ssg70
g2613
sg63
(lp2625
S':'
asbag56
(g77
g58
NtRp2626
(dp2627
g61
(dp2628
sg70
g2613
sg63
(lp2629
g56
(g57
g58
NtRp2630
(dp2631
g61
(dp2632
g69
I3
ssg70
g2626
sg63
(lp2633
g1124
asbasbasbag56
(g72
g58
NtRp2634
(dp2635
g61
(dp2636
sg70
g2504
sg63
(lp2637
g56
(g77
g58
NtRp2638
(dp2639
g61
(dp2640
g81
g82
ssg70
g2634
sg63
(lp2641
S'HTTP_CONTENT_LENGTH'
p2642
asbag56
(g77
g58
NtRp2643
(dp2644
g61
(dp2645
g88
g89
ssg70
g2634
sg63
(lp2646
S':'
asbag56
(g77
g58
NtRp2647
(dp2648
g61
(dp2649
sg70
g2634
sg63
(lp2650
g56
(g57
g58
NtRp2651
(dp2652
g61
(dp2653
g69
I3
ssg70
g2647
sg63
(lp2654
S'0'
asbasbasbag56
(g72
g58
NtRp2655
(dp2656
g61
(dp2657
sg70
g2504
sg63
(lp2658
g56
(g77
g58
NtRp2659
(dp2660
g61
(dp2661
g81
g82
ssg70
g2655
sg63
(lp2662
S'HTTP_COOKIE'
p2663
asbag56
(g77
g58
NtRp2664
(dp2665
g61
(dp2666
g88
g89
ssg70
g2655
sg63
(lp2667
S':'
asbag56
(g77
g58
NtRp2668
(dp2669
g61
(dp2670
sg70
g2655
sg63
(lp2671
g56
(g57
g58
NtRp2672
(dp2673
g61
(dp2674
g69
I3
ssg70
g2668
sg63
(lp2675
g1167
asbasbasbag56
(g72
g58
NtRp2676
(dp2677
g61
(dp2678
sg70
g2504
sg63
(lp2679
g56
(g77
g58
NtRp2680
(dp2681
g61
(dp2682
g81
g82
ssg70
g2676
sg63
(lp2683
S'HTTP_HOST'
p2684
asbag56
(g77
g58
NtRp2685
(dp2686
g61
(dp2687
g88
g89
ssg70
g2676
sg63
(lp2688
S':'
asbag56
(g77
g58
NtRp2689
(dp2690
g61
(dp2691
sg70
g2676
sg63
(lp2692
g56
(g57
g58
NtRp2693
(dp2694
g61
(dp2695
g69
I3
ssg70
g2689
sg63
(lp2696
g1189
asbasbasbag56
(g72
g58
NtRp2697
(dp2698
g61
(dp2699
sg70
g2504
sg63
(lp2700
g56
(g77
g58
NtRp2701
(dp2702
g61
(dp2703
g81
g82
ssg70
g2697
sg63
(lp2704
S'HTTP_PRAGMA'
p2705
asbag56
(g77
g58
NtRp2706
(dp2707
g61
(dp2708
g88
g89
ssg70
g2697
sg63
(lp2709
S':'
asbag56
(g77
g58
NtRp2710
(dp2711
g61
(dp2712
sg70
g2697
sg63
(lp2713
g56
(g57
g58
NtRp2714
(dp2715
g61
(dp2716
g69
I3
ssg70
g2710
sg63
(lp2717
g1211
asbasbasbag56
(g72
g58
NtRp2718
(dp2719
g61
(dp2720
sg70
g2504
sg63
(lp2721
g56
(g77
g58
NtRp2722
(dp2723
g61
(dp2724
g81
g82
ssg70
g2718
sg63
(lp2725
S'HTTP_REFERER'
p2726
asbag56
(g77
g58
NtRp2727
(dp2728
g61
(dp2729
g88
g89
ssg70
g2718
sg63
(lp2730
S':'
asbag56
(g77
g58
NtRp2731
(dp2732
g61
(dp2733
sg70
g2718
sg63
(lp2734
g56
(g57
g58
NtRp2735
(dp2736
g61
(dp2737
g69
I3
ssg70
g2731
sg63
(lp2738
g1233
asbasbasbag56
(g72
g58
NtRp2739
(dp2740
g61
(dp2741
sg70
g2504
sg63
(lp2742
g56
(g77
g58
NtRp2743
(dp2744
g61
(dp2745
g81
g82
ssg70
g2739
sg63
(lp2746
S'HTTP_USER_AGENT'
p2747
asbag56
(g77
g58
NtRp2748
(dp2749
g61
(dp2750
g88
g89
ssg70
g2739
sg63
(lp2751
S':'
asbag56
(g77
g58
NtRp2752
(dp2753
g61
(dp2754
sg70
g2739
sg63
(lp2755
g56
(g57
g58
NtRp2756
(dp2757
g61
(dp2758
g69
I3
ssg70
g2752
sg63
(lp2759
g1255
asbasbasbag56
(g72
g58
NtRp2760
(dp2761
g61
(dp2762
sg70
g2504
sg63
(lp2763
g56
(g77
g58
NtRp2764
(dp2765
g61
(dp2766
g81
g82
ssg70
g2760
sg63
(lp2767
S'HTTP_X_REQUESTED_WITH'
p2768
asbag56
(g77
g58
NtRp2769
(dp2770
g61
(dp2771
g88
g89
ssg70
g2760
sg63
(lp2772
S':'
asbag56
(g77
g58
NtRp2773
(dp2774
g61
(dp2775
sg70
g2760
sg63
(lp2776
g56
(g57
g58
NtRp2777
(dp2778
g61
(dp2779
g69
I3
ssg70
g2773
sg63
(lp2780
g1277
asbasbasbag56
(g72
g58
NtRp2781
(dp2782
g61
(dp2783
sg70
g2504
sg63
(lp2784
g56
(g77
g58
NtRp2785
(dp2786
g61
(dp2787
g81
g82
ssg70
g2781
sg63
(lp2788
S'PATH_INFO'
p2789
asbag56
(g77
g58
NtRp2790
(dp2791
g61
(dp2792
g88
g89
ssg70
g2781
sg63
(lp2793
S':'
asbag56
(g77
g58
NtRp2794
(dp2795
g61
(dp2796
sg70
g2781
sg63
(lp2797
g56
(g57
g58
NtRp2798
(dp2799
g61
(dp2800
g69
I3
ssg70
g2794
sg63
(lp2801
g1320
asbasbasbag56
(g72
g58
NtRp2802
(dp2803
g61
(dp2804
sg70
g2504
sg63
(lp2805
g56
(g77
g58
NtRp2806
(dp2807
g61
(dp2808
g81
g82
ssg70
g2802
sg63
(lp2809
S'QUERY_STRING'
p2810
asbag56
(g77
g58
NtRp2811
(dp2812
g61
(dp2813
g88
g89
ssg70
g2802
sg63
(lp2814
S':'
asbag56
(g77
g58
NtRp2815
(dp2816
g61
(dp2817
sg70
g2802
sg63
(lp2818
g56
(g57
g58
NtRp2819
(dp2820
g61
(dp2821
g69
I3
ssg70
g2815
sg63
(lp2822
S''
asbasbasbag56
(g72
g58
NtRp2823
(dp2824
g61
(dp2825
sg70
g2504
sg63
(lp2826
g56
(g77
g58
NtRp2827
(dp2828
g61
(dp2829
g81
g82
ssg70
g2823
sg63
(lp2830
S'REMOTE_ADDR'
p2831
asbag56
(g77
g58
NtRp2832
(dp2833
g61
(dp2834
g88
g89
ssg70
g2823
sg63
(lp2835
S':'
asbag56
(g77
g58
NtRp2836
(dp2837
g61
(dp2838
sg70
g2823
sg63
(lp2839
g56
(g57
g58
NtRp2840
(dp2841
g61
(dp2842
g69
I3
ssg70
g2836
sg63
(lp2843
g201
asbasbasbag56
(g72
g58
NtRp2844
(dp2845
g61
(dp2846
sg70
g2504
sg63
(lp2847
g56
(g77
g58
NtRp2848
(dp2849
g61
(dp2850
g81
g82
ssg70
g2844
sg63
(lp2851
S'REMOTE_PORT'
p2852
asbag56
(g77
g58
NtRp2853
(dp2854
g61
(dp2855
g88
g89
ssg70
g2844
sg63
(lp2856
S':'
asbag56
(g77
g58
NtRp2857
(dp2858
g61
(dp2859
sg70
g2844
sg63
(lp2860
g56
(g57
g58
NtRp2861
(dp2862
g61
(dp2863
g69
I3
ssg70
g2857
sg63
(lp2864
g1384
asbasbasbag56
(g72
g58
NtRp2865
(dp2866
g61
(dp2867
sg70
g2504
sg63
(lp2868
g56
(g77
g58
NtRp2869
(dp2870
g61
(dp2871
g81
g82
ssg70
g2865
sg63
(lp2872
S'REQUEST_METHOD'
p2873
asbag56
(g77
g58
NtRp2874
(dp2875
g61
(dp2876
g88
g89
ssg70
g2865
sg63
(lp2877
S':'
asbag56
(g77
g58
NtRp2878
(dp2879
g61
(dp2880
sg70
g2865
sg63
(lp2881
g56
(g57
g58
NtRp2882
(dp2883
g61
(dp2884
g69
I3
ssg70
g2878
sg63
(lp2885
g1406
asbasbasbag56
(g72
g58
NtRp2886
(dp2887
g61
(dp2888
sg70
g2504
sg63
(lp2889
g56
(g77
g58
NtRp2890
(dp2891
g61
(dp2892
g81
g82
ssg70
g2886
sg63
(lp2893
S'SCRIPT_NAME'
p2894
asbag56
(g77
g58
NtRp2895
(dp2896
g61
(dp2897
g88
g89
ssg70
g2886
sg63
(lp2898
S':'
asbag56
(g77
g58
NtRp2899
(dp2900
g61
(dp2901
sg70
g2886
sg63
(lp2902
g56
(g57
g58
NtRp2903
(dp2904
g61
(dp2905
g69
I3
ssg70
g2899
sg63
(lp2906
S''
asbasbasbag56
(g72
g58
NtRp2907
(dp2908
g61
(dp2909
sg70
g2504
sg63
(lp2910
g56
(g77
g58
NtRp2911
(dp2912
g61
(dp2913
g81
g82
ssg70
g2907
sg63
(lp2914
S'SERVER_NAME'
p2915
asbag56
(g77
g58
NtRp2916
(dp2917
g61
(dp2918
g88
g89
ssg70
g2907
sg63
(lp2919
S':'
asbag56
(g77
g58
NtRp2920
(dp2921
g61
(dp2922
sg70
g2907
sg63
(lp2923
g56
(g57
g58
NtRp2924
(dp2925
g61
(dp2926
g69
I3
ssg70
g2920
sg63
(lp2927
g1449
asbasbasbag56
(g72
g58
NtRp2928
(dp2929
g61
(dp2930
sg70
g2504
sg63
(lp2931
g56
(g77
g58
NtRp2932
(dp2933
g61
(dp2934
g81
g82
ssg70
g2928
sg63
(lp2935
S'SERVER_PORT'
p2936
asbag56
(g77
g58
NtRp2937
(dp2938
g61
(dp2939
g88
g89
ssg70
g2928
sg63
(lp2940
S':'
asbag56
(g77
g58
NtRp2941
(dp2942
g61
(dp2943
sg70
g2928
sg63
(lp2944
g56
(g57
g58
NtRp2945
(dp2946
g61
(dp2947
g69
I3
ssg70
g2941
sg63
(lp2948
g1471
asbasbasbag56
(g72
g58
NtRp2949
(dp2950
g61
(dp2951
sg70
g2504
sg63
(lp2952
g56
(g77
g58
NtRp2953
(dp2954
g61
(dp2955
g81
g82
ssg70
g2949
sg63
(lp2956
S'SERVER_PROTOCOL'
p2957
asbag56
(g77
g58
NtRp2958
(dp2959
g61
(dp2960
g88
g89
ssg70
g2949
sg63
(lp2961
S':'
asbag56
(g77
g58
NtRp2962
(dp2963
g61
(dp2964
sg70
g2949
sg63
(lp2965
g56
(g57
g58
NtRp2966
(dp2967
g61
(dp2968
g69
I3
ssg70
g2962
sg63
(lp2969
g1493
asbasbasbag56
(g72
g58
NtRp2970
(dp2971
g61
(dp2972
sg70
g2504
sg63
(lp2973
g56
(g77
g58
NtRp2974
(dp2975
g61
(dp2976
g81
g82
ssg70
g2970
sg63
(lp2977
S'SERVER_SOFTWARE'
p2978
asbag56
(g77
g58
NtRp2979
(dp2980
g61
(dp2981
g88
g89
ssg70
g2970
sg63
(lp2982
S':'
asbag56
(g77
g58
NtRp2983
(dp2984
g61
(dp2985
sg70
g2970
sg63
(lp2986
g56
(g57
g58
NtRp2987
(dp2988
g61
(dp2989
g69
I3
ssg70
g2983
sg63
(lp2990
g1515
asbasbasbag56
(g72
g58
NtRp2991
(dp2992
g61
(dp2993
sg70
g2504
sg63
(lp2994
g56
(g77
g58
NtRp2995
(dp2996
g61
(dp2997
g81
g82
ssg70
g2991
sg63
(lp2998
S'wsgi.errors'
p2999
asbag56
(g77
g58
NtRp3000
(dp3001
g61
(dp3002
g88
g89
ssg70
g2991
sg63
(lp3003
S':'
asbag56
(g77
g58
NtRp3004
(dp3005
g61
(dp3006
sg70
g2991
sg63
(lp3007
g56
(g57
g58
NtRp3008
(dp3009
g61
(dp3010
g69
I3
ssg70
g3004
sg63
(lp3011
S"<open file '<stderr>', mode 'w' at 0x7f84db3ff270>"
p3012
asbasbasbag56
(g72
g58
NtRp3013
(dp3014
g61
(dp3015
sg70
g2504
sg63
(lp3016
g56
(g77
g58
NtRp3017
(dp3018
g61
(dp3019
g81
g82
ssg70
g3013
sg63
(lp3020
S'wsgi.file_wrapper'
p3021
asbag56
(g77
g58
NtRp3022
(dp3023
g61
(dp3024
g88
g89
ssg70
g3013
sg63
(lp3025
S':'
asbag56
(g77
g58
NtRp3026
(dp3027
g61
(dp3028
sg70
g3013
sg63
(lp3029
g56
(g57
g58
NtRp3030
(dp3031
g61
(dp3032
g69
I3
ssg70
g3026
sg63
(lp3033
S'<class wsgiref.util.FileWrapper at 0x1b96d50>'
p3034
asbasbasbag56
(g72
g58
NtRp3035
(dp3036
g61
(dp3037
sg70
g2504
sg63
(lp3038
g56
(g77
g58
NtRp3039
(dp3040
g61
(dp3041
g81
g82
ssg70
g3035
sg63
(lp3042
S'wsgi.input'
p3043
asbag56
(g77
g58
NtRp3044
(dp3045
g61
(dp3046
g88
g89
ssg70
g3035
sg63
(lp3047
S':'
asbag56
(g77
g58
NtRp3048
(dp3049
g61
(dp3050
sg70
g3035
sg63
(lp3051
g56
(g57
g58
NtRp3052
(dp3053
g61
(dp3054
g69
I3
ssg70
g3048
sg63
(lp3055
S"<open file '<fdopen>', mode 'w+b' at 0x36da9c0>"
p3056
asbasbasbag56
(g72
g58
NtRp3057
(dp3058
g61
(dp3059
sg70
g2504
sg63
(lp3060
g56
(g77
g58
NtRp3061
(dp3062
g61
(dp3063
g81
g82
ssg70
g3057
sg63
(lp3064
S'wsgi.multiprocess'
p3065
asbag56
(g77
g58
NtRp3066
(dp3067
g61
(dp3068
g88
g89
ssg70
g3057
sg63
(lp3069
S':'
asbag56
(g77
g58
NtRp3070
(dp3071
g61
(dp3072
sg70
g3057
sg63
(lp3073
g56
(g57
g58
NtRp3074
(dp3075
g61
(dp3076
g69
I3
ssg70
g3070
sg63
(lp3077
g992
asbasbasbag56
(g72
g58
NtRp3078
(dp3079
g61
(dp3080
sg70
g2504
sg63
(lp3081
g56
(g77
g58
NtRp3082
(dp3083
g61
(dp3084
g81
g82
ssg70
g3078
sg63
(lp3085
S'wsgi.multithread'
p3086
asbag56
(g77
g58
NtRp3087
(dp3088
g61
(dp3089
g88
g89
ssg70
g3078
sg63
(lp3090
S':'
asbag56
(g77
g58
NtRp3091
(dp3092
g61
(dp3093
sg70
g3078
sg63
(lp3094
g56
(g57
g58
NtRp3095
(dp3096
g61
(dp3097
g69
I3
ssg70
g3091
sg63
(lp3098
g99
asbasbasbag56
(g72
g58
NtRp3099
(dp3100
g61
(dp3101
sg70
g2504
sg63
(lp3102
g56
(g77
g58
NtRp3103
(dp3104
g61
(dp3105
g81
g82
ssg70
g3099
sg63
(lp3106
S'wsgi.run_once'
p3107
asbag56
(g77
g58
NtRp3108
(dp3109
g61
(dp3110
g88
g89
ssg70
g3099
sg63
(lp3111
S':'
asbag56
(g77
g58
NtRp3112
(dp3113
g61
(dp3114
sg70
g3099
sg63
(lp3115
g56
(g57
g58
NtRp3116
(dp3117
g61
(dp3118
g69
I3
ssg70
g3112
sg63
(lp3119
g992
asbasbasbag56
(g72
g58
NtRp3120
(dp3121
g61
(dp3122
sg70
g2504
sg63
(lp3123
g56
(g77
g58
NtRp3124
(dp3125
g61
(dp3126
g81
g82
ssg70
g3120
sg63
(lp3127
S'wsgi.url_scheme'
p3128
asbag56
(g77
g58
NtRp3129
(dp3130
g61
(dp3131
g88
g89
ssg70
g3120
sg63
(lp3132
S':'
asbag56
(g77
g58
NtRp3133
(dp3134
g61
(dp3135
sg70
g3120
sg63
(lp3136
g56
(g57
g58
NtRp3137
(dp3138
g61
(dp3139
g69
I3
ssg70
g3133
sg63
(lp3140
g1797
asbasbasbag56
(g72
g58
NtRp3141
(dp3142
g61
(dp3143
sg70
g2504
sg63
(lp3144
g56
(g77
g58
NtRp3145
(dp3146
g61
(dp3147
g81
g82
ssg70
g3141
sg63
(lp3148
S'wsgi.version'
p3149
asbag56
(g77
g58
NtRp3150
(dp3151
g61
(dp3152
g88
g89
ssg70
g3141
sg63
(lp3153
S':'
asbag56
(g77
g58
NtRp3154
(dp3155
g61
(dp3156
sg70
g3141
sg63
(lp3157
g56
(g57
g58
NtRp3158
(dp3159
g61
(dp3160
g69
I3
ssg70
g3154
sg63
(lp3161
S'1'
asbasbasbasbasbasbasbasbasbasbasbasbasbsS'frames'
p3162
(lp3163
(dp3164
S'file'
p3165
S'/home/jose/DESARROLLO/web2py199/gluon/restricted.py'
p3166
sS'dump'
p3167
(dp3168
S'environment'
p3169
S"{'A': <class 'gluon.html.A'>, 'Auth': <class 'gluon.tools.Auth'>, 'B': <class 'gluon.html.B'>, 'BEAUTIFY': <class 'gluon.html.BEAUTIFY'>, 'BODY': <class 'gluon.html.BODY'>, 'BR': <class 'gluon.html.BR'>, 'BUTTON': <class 'gluon.html.BUTTON'>, 'CAT': <class 'gluon.html.CAT'>, 'CENTER': <class 'gluon.html.CENTER'>, 'CLEANUP': <class 'gluon.validators.CLEANUP'>, ...}"
p3170
sS'ccode'
p3171
S'<code object <module> at 0x362e630, file "/home/...tions/streamlog/controllers/default.py", line 14>'
p3172
ssS'lnum'
p3173
I194
sS'lines'
p3174
(dp3175
I192
S'        else:'
p3176
sI193
S'            ccode = compile2(code,layer)'
p3177
sI194
S'        exec ccode in environment'
p3178
sI195
S'    except HTTP:'
p3179
sI196
S'        raise'
p3180
sI197
S'    except Exception, error:'
p3181
sI198
S'        # XXX Show exception in Wing IDE if running in debugger'
p3182
sI189
S'    try:'
p3183
sI190
S'        if type(code) == types.CodeType:'
p3184
sI191
S'            ccode = code'
p3185
ssS'call'
p3186
S"(code='# -*- coding: utf-8 -*-\\n# this file is released ...)\\n\\nresponse._vars=response._caller(getTypeTable)\\n', environment={'A': <class 'gluon.html.A'>, 'Auth': <class 'gluon.tools.Auth'>, 'B': <class 'gluon.html.B'>, 'BEAUTIFY': <class 'gluon.html.BEAUTIFY'>, 'BODY': <class 'gluon.html.BODY'>, 'BR': <class 'gluon.html.BR'>, 'BUTTON': <class 'gluon.html.BUTTON'>, 'CAT': <class 'gluon.html.CAT'>, 'CENTER': <class 'gluon.html.CENTER'>, 'CLEANUP': <class 'gluon.validators.CLEANUP'>, ...}, layer='/home/jose/DESARROLLO/web2py199/applications/streamlog/controllers/default.py')"
p3187
sS'func'
p3188
S'restricted'
p3189
sa(dp3190
g3165
S'/home/jose/DESARROLLO/web2py199/applications/streamlog/controllers/default.py'
p3191
sg3167
(dp3192
sg3173
I156
sg3174
(dp3193
I145
S'    http://..../[app]/default/data/update/[table]/[id]'
p3194
sI146
S'    http://..../[app]/default/data/delete/[table]/[id]'
p3195
sI147
S'    http://..../[app]/default/data/select/[table]'
p3196
sI148
S'    http://..../[app]/default/data/search/[table]'
p3197
sI149
S'    but URLs bust be signed, i.e. linked with'
p3198
sI150
S"      A('table',_href=URL('data/tables',user_signature=True))"
p3199
sI151
S'    or with the signed load operator'
p3200
sI152
S"      LOAD('default','data.load',args='tables',ajax=True,user_signature=True)"
p3201
sI153
S'    """'
p3202
sI154
S'    return dict(form=crud())'
p3203
ssg3186
S'()'
p3204
sg3188
S'<module>'
p3205
sa(dp3206
g3165
S'/home/jose/DESARROLLO/web2py199/gluon/globals.py'
p3207
sg3167
(dp3208
S'self'
p3209
S'undefined'
p3210
sS'f'
S'<function getTypeTable>'
p3211
ssg3173
I149
sg3174
(dp3212
I144
S'        self.meta = Storage()      # used by web2py_ajax.html'
p3213
sI145
S'        self.menu = []             # used by the default view layout'
p3214
sI146
S'        self.files = []            # used by web2py_ajax.html'
p3215
sI147
S'        self.generic_patterns = [] # patterns to allow generic views'
p3216
sI148
S'        self._vars = None'
p3217
sI149
S'        self._caller = lambda f: f()'
p3218
sI150
S'        self._view_environment = None'
p3219
sI151
S'        self._custom_commit = None'
p3220
sI152
S'        self._custom_rollback = None'
p3221
sI153
S''
ssg3186
S'(f=<function getTypeTable>)'
p3222
sg3188
S'<lambda>'
p3223
sa(dp3224
g3165
S'/home/jose/DESARROLLO/web2py199/applications/streamlog/controllers/default.py'
p3225
sg3167
(dp3226
S'sys'
p3227
g3210
sS'id_log'
p3228
g3210
ssg3173
I43
sg3174
(dp3229
I38
S'def getTypeTable():'
p3230
sI39
S'    """'
p3231
sI40
S'    example action using the internationalization operator T and flash'
p3232
sI41
S'    rendered by views/default/index.html or views/generic.html'
p3233
sI42
S'    """'
p3234
sI43
S'    id_log=sys.arg[0]'
p3235
sI44
S'    print id_log'
p3236
sI45
S'    #type_table=db()'
p3237
sI46
S''
sI47
S'    table=\'<table cellpadding="0" cellspacing="0" border="0" class="display" id="tablelog"> \\'
p3238
ssg3186
S'()'
p3239
sg3188
S'getTypeTable'
p3240
sasS'pyver'
p3241
S'Python 2.7.2+: /usr/bin/python'
p3242
sS'session'
p3243
g56
(g57
g58
NtRp3244
(dp3245
g61
(dp3246
sg63
(lp3247
g56
(g65
g58
NtRp3248
(dp3249
g61
(dp3250
g69
I5
ssg70
Nsg63
(lp3251
g56
(g72
g58
NtRp3252
(dp3253
g61
(dp3254
sg70
g3248
sg63
(lp3255
g56
(g77
g58
NtRp3256
(dp3257
g61
(dp3258
g81
g82
ssg70
g3252
sg63
(lp3259
S'auth'
p3260
asbag56
(g77
g58
NtRp3261
(dp3262
g61
(dp3263
g88
g89
ssg70
g3252
sg63
(lp3264
S':'
asbag56
(g77
g58
NtRp3265
(dp3266
g61
(dp3267
sg70
g3252
sg63
(lp3268
g56
(g57
g58
NtRp3269
(dp3270
g61
(dp3271
g69
I5
ssg70
g3265
sg63
(lp3272
g56
(g65
g58
NtRp3273
(dp3274
g61
(dp3275
g69
I4
ssg70
Nsg63
(lp3276
g56
(g72
g58
NtRp3277
(dp3278
g61
(dp3279
sg70
g3273
sg63
(lp3280
g56
(g77
g58
NtRp3281
(dp3282
g61
(dp3283
g81
g82
ssg70
g3277
sg63
(lp3284
S'expiration'
p3285
asbag56
(g77
g58
NtRp3286
(dp3287
g61
(dp3288
g88
g89
ssg70
g3277
sg63
(lp3289
S':'
asbag56
(g77
g58
NtRp3290
(dp3291
g61
(dp3292
sg70
g3277
sg63
(lp3293
g56
(g57
g58
NtRp3294
(dp3295
g61
(dp3296
g69
I4
ssg70
g3290
sg63
(lp3297
S'2592000'
p3298
asbasbasbag56
(g72
g58
NtRp3299
(dp3300
g61
(dp3301
sg70
g3273
sg63
(lp3302
g56
(g77
g58
NtRp3303
(dp3304
g61
(dp3305
g81
g82
ssg70
g3299
sg63
(lp3306
S'hmac_key'
p3307
asbag56
(g77
g58
NtRp3308
(dp3309
g61
(dp3310
g88
g89
ssg70
g3299
sg63
(lp3311
S':'
asbag56
(g77
g58
NtRp3312
(dp3313
g61
(dp3314
sg70
g3299
sg63
(lp3315
g56
(g57
g58
NtRp3316
(dp3317
g61
(dp3318
g69
I4
ssg70
g3312
sg63
(lp3319
S'b954f0e8-95b3-42d2-829e-2e50e94d8454'
p3320
asbasbasbag56
(g72
g58
NtRp3321
(dp3322
g61
(dp3323
sg70
g3273
sg63
(lp3324
g56
(g77
g58
NtRp3325
(dp3326
g61
(dp3327
g81
g82
ssg70
g3321
sg63
(lp3328
S'last_visit'
p3329
asbag56
(g77
g58
NtRp3330
(dp3331
g61
(dp3332
g88
g89
ssg70
g3321
sg63
(lp3333
S':'
asbag56
(g77
g58
NtRp3334
(dp3335
g61
(dp3336
sg70
g3321
sg63
(lp3337
g56
(g57
g58
NtRp3338
(dp3339
g61
(dp3340
g69
I4
ssg70
g3334
sg63
(lp3341
S'datetime.datetime(2012, 5, 26, 18, 42, 33, 844375)'
p3342
asbasbasbag56
(g72
g58
NtRp3343
(dp3344
g61
(dp3345
sg70
g3273
sg63
(lp3346
g56
(g77
g58
NtRp3347
(dp3348
g61
(dp3349
g81
g82
ssg70
g3343
sg63
(lp3350
S'remember'
p3351
asbag56
(g77
g58
NtRp3352
(dp3353
g61
(dp3354
g88
g89
ssg70
g3343
sg63
(lp3355
S':'
asbag56
(g77
g58
NtRp3356
(dp3357
g61
(dp3358
sg70
g3343
sg63
(lp3359
g56
(g57
g58
NtRp3360
(dp3361
g61
(dp3362
g69
I4
ssg70
g3356
sg63
(lp3363
g992
asbasbasbag56
(g72
g58
NtRp3364
(dp3365
g61
(dp3366
sg70
g3273
sg63
(lp3367
g56
(g77
g58
NtRp3368
(dp3369
g61
(dp3370
g81
g82
ssg70
g3364
sg63
(lp3371
S'user'
p3372
asbag56
(g77
g58
NtRp3373
(dp3374
g61
(dp3375
g88
g89
ssg70
g3364
sg63
(lp3376
S':'
asbag56
(g77
g58
NtRp3377
(dp3378
g61
(dp3379
sg70
g3364
sg63
(lp3380
g56
(g57
g58
NtRp3381
(dp3382
g61
(dp3383
g69
I4
ssg70
g3377
sg63
(lp3384
g56
(g65
g58
NtRp3385
(dp3386
g61
(dp3387
g69
I3
ssg70
Nsg63
(lp3388
g56
(g72
g58
NtRp3389
(dp3390
g61
(dp3391
sg70
g3385
sg63
(lp3392
g56
(g77
g58
NtRp3393
(dp3394
g61
(dp3395
g81
g82
ssg70
g3389
sg63
(lp3396
S'email'
p3397
asbag56
(g77
g58
NtRp3398
(dp3399
g61
(dp3400
g88
g89
ssg70
g3389
sg63
(lp3401
S':'
asbag56
(g77
g58
NtRp3402
(dp3403
g61
(dp3404
sg70
g3389
sg63
(lp3405
g56
(g57
g58
NtRp3406
(dp3407
g61
(dp3408
g69
I3
ssg70
g3402
sg63
(lp3409
S'josedesoto@gmail.com'
p3410
asbasbasbag56
(g72
g58
NtRp3411
(dp3412
g61
(dp3413
sg70
g3385
sg63
(lp3414
g56
(g77
g58
NtRp3415
(dp3416
g61
(dp3417
g81
g82
ssg70
g3411
sg63
(lp3418
S'first_name'
p3419
asbag56
(g77
g58
NtRp3420
(dp3421
g61
(dp3422
g88
g89
ssg70
g3411
sg63
(lp3423
S':'
asbag56
(g77
g58
NtRp3424
(dp3425
g61
(dp3426
sg70
g3411
sg63
(lp3427
g56
(g57
g58
NtRp3428
(dp3429
g61
(dp3430
g69
I3
ssg70
g3424
sg63
(lp3431
S'jose'
p3432
asbasbasbag56
(g72
g58
NtRp3433
(dp3434
g61
(dp3435
sg70
g3385
sg63
(lp3436
g56
(g77
g58
NtRp3437
(dp3438
g61
(dp3439
g81
g82
ssg70
g3433
sg63
(lp3440
S'id'
p3441
asbag56
(g77
g58
NtRp3442
(dp3443
g61
(dp3444
g88
g89
ssg70
g3433
sg63
(lp3445
S':'
asbag56
(g77
g58
NtRp3446
(dp3447
g61
(dp3448
sg70
g3433
sg63
(lp3449
g56
(g57
g58
NtRp3450
(dp3451
g61
(dp3452
g69
I3
ssg70
g3446
sg63
(lp3453
S'1'
asbasbasbag56
(g72
g58
NtRp3454
(dp3455
g61
(dp3456
sg70
g3385
sg63
(lp3457
g56
(g77
g58
NtRp3458
(dp3459
g61
(dp3460
g81
g82
ssg70
g3454
sg63
(lp3461
S'last_name'
p3462
asbag56
(g77
g58
NtRp3463
(dp3464
g61
(dp3465
g88
g89
ssg70
g3454
sg63
(lp3466
S':'
asbag56
(g77
g58
NtRp3467
(dp3468
g61
(dp3469
sg70
g3454
sg63
(lp3470
g56
(g57
g58
NtRp3471
(dp3472
g61
(dp3473
g69
I3
ssg70
g3467
sg63
(lp3474
S'jose'
p3475
asbasbasbag56
(g72
g58
NtRp3476
(dp3477
g61
(dp3478
sg70
g3385
sg63
(lp3479
g56
(g77
g58
NtRp3480
(dp3481
g61
(dp3482
g81
g82
ssg70
g3476
sg63
(lp3483
S'password'
p3484
asbag56
(g77
g58
NtRp3485
(dp3486
g61
(dp3487
g88
g89
ssg70
g3476
sg63
(lp3488
S':'
asbag56
(g77
g58
NtRp3489
(dp3490
g61
(dp3491
sg70
g3476
sg63
(lp3492
g56
(g57
g58
NtRp3493
(dp3494
g61
(dp3495
g69
I3
ssg70
g3489
sg63
(lp3496
S'2b32eaa2baa0c63b755a4cde1e4dda83'
p3497
asbasbasbag56
(g72
g58
NtRp3498
(dp3499
g61
(dp3500
sg70
g3385
sg63
(lp3501
g56
(g77
g58
NtRp3502
(dp3503
g61
(dp3504
g81
g82
ssg70
g3498
sg63
(lp3505
S'registration_key'
p3506
asbag56
(g77
g58
NtRp3507
(dp3508
g61
(dp3509
g88
g89
ssg70
g3498
sg63
(lp3510
S':'
asbag56
(g77
g58
NtRp3511
(dp3512
g61
(dp3513
sg70
g3498
sg63
(lp3514
g56
(g57
g58
NtRp3515
(dp3516
g61
(dp3517
g69
I3
ssg70
g3511
sg63
(lp3518
S''
asbasbasbag56
(g72
g58
NtRp3519
(dp3520
g61
(dp3521
sg70
g3385
sg63
(lp3522
g56
(g77
g58
NtRp3523
(dp3524
g61
(dp3525
g81
g82
ssg70
g3519
sg63
(lp3526
S'reset_password_key'
p3527
asbag56
(g77
g58
NtRp3528
(dp3529
g61
(dp3530
g88
g89
ssg70
g3519
sg63
(lp3531
S':'
asbag56
(g77
g58
NtRp3532
(dp3533
g61
(dp3534
sg70
g3519
sg63
(lp3535
g56
(g57
g58
NtRp3536
(dp3537
g61
(dp3538
g69
I3
ssg70
g3532
sg63
(lp3539
S''
asbasbasbasbasbasbasbasbasbasbasbag56
(g72
g58
NtRp3540
(dp3541
g61
(dp3542
sg70
g3248
sg63
(lp3543
g56
(g77
g58
NtRp3544
(dp3545
g61
(dp3546
g81
g82
ssg70
g3540
sg63
(lp3547
S'last_query'
p3548
asbag56
(g77
g58
NtRp3549
(dp3550
g61
(dp3551
g88
g89
ssg70
g3540
sg63
(lp3552
S':'
asbag56
(g77
g58
NtRp3553
(dp3554
g61
(dp3555
sg70
g3540
sg63
(lp3556
g56
(g57
g58
NtRp3557
(dp3558
g61
(dp3559
g69
I5
ssg70
g3553
sg63
(lp3560
S'((db.t_project.user==me)&(db.t_server.project==db.t_project.id)&(db.t_log.server==db.t_server.id))'
p3561
asbasbasbasbasbsS'etype'
p3562
S"<type 'exceptions.NameError'>"
p3563
sS'date'
p3564
S'Sat May 26 20:51:21 2012'
p3565
sS'response'
p3566
g56
(g57
g58
NtRp3567
(dp3568
g61
(dp3569
sg63
(lp3570
g56
(g65
g58
NtRp3571
(dp3572
g61
(dp3573
g69
I5
ssg70
Nsg63
(lp3574
g56
(g72
g58
NtRp3575
(dp3576
g61
(dp3577
sg70
g3571
sg63
(lp3578
g56
(g77
g58
NtRp3579
(dp3580
g61
(dp3581
g81
g82
ssg70
g3575
sg63
(lp3582
g166
asbag56
(g77
g58
NtRp3583
(dp3584
g61
(dp3585
g88
g89
ssg70
g3575
sg63
(lp3586
S':'
asbag56
(g77
g58
NtRp3587
(dp3588
g61
(dp3589
sg70
g3575
sg63
(lp3590
g56
(g57
g58
NtRp3591
(dp3592
g61
(dp3593
g69
I5
ssg70
g3587
sg63
(lp3594
S'<cStringIO.StringO object at 0x1e66f10>'
p3595
asbasbasbag56
(g72
g58
NtRp3596
(dp3597
g61
(dp3598
sg70
g3571
sg63
(lp3599
g56
(g77
g58
NtRp3600
(dp3601
g61
(dp3602
g81
g82
ssg70
g3596
sg63
(lp3603
g232
asbag56
(g77
g58
NtRp3604
(dp3605
g61
(dp3606
g88
g89
ssg70
g3596
sg63
(lp3607
S':'
asbag56
(g77
g58
NtRp3608
(dp3609
g61
(dp3610
sg70
g3596
sg63
(lp3611
g56
(g57
g58
NtRp3612
(dp3613
g61
(dp3614
g69
I5
ssg70
g3608
sg63
(lp3615
g56
(g65
g58
NtRp3616
(dp3617
g61
(dp3618
g69
I4
ssg70
Nsg63
(lp3619
g56
(g72
g58
NtRp3620
(dp3621
g61
(dp3622
sg70
g3616
sg63
(lp3623
g56
(g77
g58
NtRp3624
(dp3625
g61
(dp3626
g81
g82
ssg70
g3620
sg63
(lp3627
S'session_id_streamlog'
p3628
asbag56
(g77
g58
NtRp3629
(dp3630
g61
(dp3631
g88
g89
ssg70
g3620
sg63
(lp3632
S':'
asbag56
(g77
g58
NtRp3633
(dp3634
g61
(dp3635
sg70
g3620
sg63
(lp3636
g56
(g57
g58
NtRp3637
(dp3638
g61
(dp3639
g69
I4
ssg70
g3633
sg63
(lp3640
g56
(g65
g58
NtRp3641
(dp3642
g61
(dp3643
g69
I3
ssg70
Nsg63
(lp3644
g56
(g72
g58
NtRp3645
(dp3646
g61
(dp3647
sg70
g3641
sg63
(lp3648
g56
(g77
g58
NtRp3649
(dp3650
g61
(dp3651
g81
g82
ssg70
g3645
sg63
(lp3652
g282
asbag56
(g77
g58
NtRp3653
(dp3654
g61
(dp3655
g88
g89
ssg70
g3645
sg63
(lp3656
S':'
asbag56
(g77
g58
NtRp3657
(dp3658
g61
(dp3659
sg70
g3645
sg63
(lp3660
g56
(g57
g58
NtRp3661
(dp3662
g61
(dp3663
g69
I3
ssg70
g3657
sg63
(lp3664
S''
asbasbasbag56
(g72
g58
NtRp3665
(dp3666
g61
(dp3667
sg70
g3641
sg63
(lp3668
g56
(g77
g58
NtRp3669
(dp3670
g61
(dp3671
g81
g82
ssg70
g3665
sg63
(lp3672
g303
asbag56
(g77
g58
NtRp3673
(dp3674
g61
(dp3675
g88
g89
ssg70
g3665
sg63
(lp3676
S':'
asbag56
(g77
g58
NtRp3677
(dp3678
g61
(dp3679
sg70
g3665
sg63
(lp3680
g56
(g57
g58
NtRp3681
(dp3682
g61
(dp3683
g69
I3
ssg70
g3677
sg63
(lp3684
S''
asbasbasbag56
(g72
g58
NtRp3685
(dp3686
g61
(dp3687
sg70
g3641
sg63
(lp3688
g56
(g77
g58
NtRp3689
(dp3690
g61
(dp3691
g81
g82
ssg70
g3685
sg63
(lp3692
g324
asbag56
(g77
g58
NtRp3693
(dp3694
g61
(dp3695
g88
g89
ssg70
g3685
sg63
(lp3696
S':'
asbag56
(g77
g58
NtRp3697
(dp3698
g61
(dp3699
sg70
g3685
sg63
(lp3700
g56
(g57
g58
NtRp3701
(dp3702
g61
(dp3703
g69
I3
ssg70
g3697
sg63
(lp3704
S''
asbasbasbag56
(g72
g58
NtRp3705
(dp3706
g61
(dp3707
sg70
g3641
sg63
(lp3708
g56
(g77
g58
NtRp3709
(dp3710
g61
(dp3711
g81
g82
ssg70
g3705
sg63
(lp3712
g345
asbag56
(g77
g58
NtRp3713
(dp3714
g61
(dp3715
g88
g89
ssg70
g3705
sg63
(lp3716
S':'
asbag56
(g77
g58
NtRp3717
(dp3718
g61
(dp3719
sg70
g3705
sg63
(lp3720
g56
(g57
g58
NtRp3721
(dp3722
g61
(dp3723
g69
I3
ssg70
g3717
sg63
(lp3724
S''
asbasbasbag56
(g72
g58
NtRp3725
(dp3726
g61
(dp3727
sg70
g3641
sg63
(lp3728
g56
(g77
g58
NtRp3729
(dp3730
g61
(dp3731
g81
g82
ssg70
g3725
sg63
(lp3732
g366
asbag56
(g77
g58
NtRp3733
(dp3734
g61
(dp3735
g88
g89
ssg70
g3725
sg63
(lp3736
S':'
asbag56
(g77
g58
NtRp3737
(dp3738
g61
(dp3739
sg70
g3725
sg63
(lp3740
g56
(g57
g58
NtRp3741
(dp3742
g61
(dp3743
g69
I3
ssg70
g3737
sg63
(lp3744
S''
asbasbasbag56
(g72
g58
NtRp3745
(dp3746
g61
(dp3747
sg70
g3641
sg63
(lp3748
g56
(g77
g58
NtRp3749
(dp3750
g61
(dp3751
g81
g82
ssg70
g3745
sg63
(lp3752
g387
asbag56
(g77
g58
NtRp3753
(dp3754
g61
(dp3755
g88
g89
ssg70
g3745
sg63
(lp3756
S':'
asbag56
(g77
g58
NtRp3757
(dp3758
g61
(dp3759
sg70
g3745
sg63
(lp3760
g56
(g57
g58
NtRp3761
(dp3762
g61
(dp3763
g69
I3
ssg70
g3757
sg63
(lp3764
S'/'
asbasbasbag56
(g72
g58
NtRp3765
(dp3766
g61
(dp3767
sg70
g3641
sg63
(lp3768
g56
(g77
g58
NtRp3769
(dp3770
g61
(dp3771
g81
g82
ssg70
g3765
sg63
(lp3772
g408
asbag56
(g77
g58
NtRp3773
(dp3774
g61
(dp3775
g88
g89
ssg70
g3765
sg63
(lp3776
S':'
asbag56
(g77
g58
NtRp3777
(dp3778
g61
(dp3779
sg70
g3765
sg63
(lp3780
g56
(g57
g58
NtRp3781
(dp3782
g61
(dp3783
g69
I3
ssg70
g3777
sg63
(lp3784
S''
asbasbasbag56
(g72
g58
NtRp3785
(dp3786
g61
(dp3787
sg70
g3641
sg63
(lp3788
g56
(g77
g58
NtRp3789
(dp3790
g61
(dp3791
g81
g82
ssg70
g3785
sg63
(lp3792
g429
asbag56
(g77
g58
NtRp3793
(dp3794
g61
(dp3795
g88
g89
ssg70
g3785
sg63
(lp3796
S':'
asbag56
(g77
g58
NtRp3797
(dp3798
g61
(dp3799
sg70
g3785
sg63
(lp3800
g56
(g57
g58
NtRp3801
(dp3802
g61
(dp3803
g69
I3
ssg70
g3797
sg63
(lp3804
S''
asbasbasbasbasbasbasbasbasbasbasbag56
(g72
g58
NtRp3805
(dp3806
g61
(dp3807
sg70
g3571
sg63
(lp3808
g56
(g77
g58
NtRp3809
(dp3810
g61
(dp3811
g81
g82
ssg70
g3805
sg63
(lp3812
S'files'
p3813
asbag56
(g77
g58
NtRp3814
(dp3815
g61
(dp3816
g88
g89
ssg70
g3805
sg63
(lp3817
S':'
asbag56
(g77
g58
NtRp3818
(dp3819
g61
(dp3820
sg70
g3805
sg63
(lp3821
g56
(g57
g58
NtRp3822
(dp3823
g61
(dp3824
g69
I5
ssg70
g3818
sg63
(lp3825
g56
(g65
g58
NtRp3826
(dp3827
g61
(dp3828
g69
I4
ssg70
Nsg63
(lp3829
sbasbasbasbag56
(g72
g58
NtRp3830
(dp3831
g61
(dp3832
sg70
g3571
sg63
(lp3833
g56
(g77
g58
NtRp3834
(dp3835
g61
(dp3836
g81
g82
ssg70
g3830
sg63
(lp3837
S'flash'
p3838
asbag56
(g77
g58
NtRp3839
(dp3840
g61
(dp3841
g88
g89
ssg70
g3830
sg63
(lp3842
S':'
asbag56
(g77
g58
NtRp3843
(dp3844
g61
(dp3845
sg70
g3830
sg63
(lp3846
g56
(g57
g58
NtRp3847
(dp3848
g61
(dp3849
g69
I5
ssg70
g3843
sg63
(lp3850
S''
asbasbasbag56
(g72
g58
NtRp3851
(dp3852
g61
(dp3853
sg70
g3571
sg63
(lp3854
g56
(g77
g58
NtRp3855
(dp3856
g61
(dp3857
g81
g82
ssg70
g3851
sg63
(lp3858
S'generic_patterns'
p3859
asbag56
(g77
g58
NtRp3860
(dp3861
g61
(dp3862
g88
g89
ssg70
g3851
sg63
(lp3863
S':'
asbag56
(g77
g58
NtRp3864
(dp3865
g61
(dp3866
sg70
g3851
sg63
(lp3867
g56
(g57
g58
NtRp3868
(dp3869
g61
(dp3870
g69
I5
ssg70
g3864
sg63
(lp3871
g56
(g65
g58
NtRp3872
(dp3873
g61
(dp3874
g69
I4
ssg70
Nsg63
(lp3875
g56
(g72
g58
NtRp3876
(dp3877
g61
(dp3878
sg70
g3872
sg63
(lp3879
g56
(g77
g58
NtRp3880
(dp3881
g61
(dp3882
sg70
g3876
sg63
(lp3883
g56
(g57
g58
NtRp3884
(dp3885
g61
(dp3886
g69
I4
ssg70
g3880
sg63
(lp3887
S'*'
asbasbasbasbasbasbasbag56
(g72
g58
NtRp3888
(dp3889
g61
(dp3890
sg70
g3571
sg63
(lp3891
g56
(g77
g58
NtRp3892
(dp3893
g61
(dp3894
g81
g82
ssg70
g3888
sg63
(lp3895
S'headers'
p3896
asbag56
(g77
g58
NtRp3897
(dp3898
g61
(dp3899
g88
g89
ssg70
g3888
sg63
(lp3900
S':'
asbag56
(g77
g58
NtRp3901
(dp3902
g61
(dp3903
sg70
g3888
sg63
(lp3904
g56
(g57
g58
NtRp3905
(dp3906
g61
(dp3907
g69
I5
ssg70
g3901
sg63
(lp3908
g56
(g65
g58
NtRp3909
(dp3910
g61
(dp3911
g69
I4
ssg70
Nsg63
(lp3912
g56
(g72
g58
NtRp3913
(dp3914
g61
(dp3915
sg70
g3909
sg63
(lp3916
g56
(g77
g58
NtRp3917
(dp3918
g61
(dp3919
g81
g82
ssg70
g3913
sg63
(lp3920
S'Cache-Control'
p3921
asbag56
(g77
g58
NtRp3922
(dp3923
g61
(dp3924
g88
g89
ssg70
g3913
sg63
(lp3925
S':'
asbag56
(g77
g58
NtRp3926
(dp3927
g61
(dp3928
sg70
g3913
sg63
(lp3929
g56
(g57
g58
NtRp3930
(dp3931
g61
(dp3932
g69
I4
ssg70
g3926
sg63
(lp3933
S'no-store, no-cache, must-revalidate, post-check=0, pre-check=0'
p3934
asbasbasbag56
(g72
g58
NtRp3935
(dp3936
g61
(dp3937
sg70
g3909
sg63
(lp3938
g56
(g77
g58
NtRp3939
(dp3940
g61
(dp3941
g81
g82
ssg70
g3935
sg63
(lp3942
S'Content-Type'
p3943
asbag56
(g77
g58
NtRp3944
(dp3945
g61
(dp3946
g88
g89
ssg70
g3935
sg63
(lp3947
S':'
asbag56
(g77
g58
NtRp3948
(dp3949
g61
(dp3950
sg70
g3935
sg63
(lp3951
g56
(g57
g58
NtRp3952
(dp3953
g61
(dp3954
g69
I4
ssg70
g3948
sg63
(lp3955
S'text/html; charset=utf-8'
p3956
asbasbasbag56
(g72
g58
NtRp3957
(dp3958
g61
(dp3959
sg70
g3909
sg63
(lp3960
g56
(g77
g58
NtRp3961
(dp3962
g61
(dp3963
g81
g82
ssg70
g3957
sg63
(lp3964
S'Expires'
p3965
asbag56
(g77
g58
NtRp3966
(dp3967
g61
(dp3968
g88
g89
ssg70
g3957
sg63
(lp3969
S':'
asbag56
(g77
g58
NtRp3970
(dp3971
g61
(dp3972
sg70
g3957
sg63
(lp3973
g56
(g57
g58
NtRp3974
(dp3975
g61
(dp3976
g69
I4
ssg70
g3970
sg63
(lp3977
S'Sat, 26 May 2012 13:51:21 GMT'
p3978
asbasbasbag56
(g72
g58
NtRp3979
(dp3980
g61
(dp3981
sg70
g3909
sg63
(lp3982
g56
(g77
g58
NtRp3983
(dp3984
g61
(dp3985
g81
g82
ssg70
g3979
sg63
(lp3986
S'Pragma'
p3987
asbag56
(g77
g58
NtRp3988
(dp3989
g61
(dp3990
g88
g89
ssg70
g3979
sg63
(lp3991
S':'
asbag56
(g77
g58
NtRp3992
(dp3993
g61
(dp3994
sg70
g3979
sg63
(lp3995
g56
(g57
g58
NtRp3996
(dp3997
g61
(dp3998
g69
I4
ssg70
g3992
sg63
(lp3999
S'no-cache'
p4000
asbasbasbag56
(g72
g58
NtRp4001
(dp4002
g61
(dp4003
sg70
g3909
sg63
(lp4004
g56
(g77
g58
NtRp4005
(dp4006
g61
(dp4007
g81
g82
ssg70
g4001
sg63
(lp4008
S'X-Powered-By'
p4009
asbag56
(g77
g58
NtRp4010
(dp4011
g61
(dp4012
g88
g89
ssg70
g4001
sg63
(lp4013
S':'
asbag56
(g77
g58
NtRp4014
(dp4015
g61
(dp4016
sg70
g4001
sg63
(lp4017
g56
(g57
g58
NtRp4018
(dp4019
g61
(dp4020
g69
I4
ssg70
g4014
sg63
(lp4021
S'web2py'
p4022
asbasbasbasbasbasbasbag56
(g72
g58
NtRp4023
(dp4024
g61
(dp4025
sg70
g3571
sg63
(lp4026
g56
(g77
g58
NtRp4027
(dp4028
g61
(dp4029
g81
g82
ssg70
g4023
sg63
(lp4030
S'menu'
p4031
asbag56
(g77
g58
NtRp4032
(dp4033
g61
(dp4034
g88
g89
ssg70
g4023
sg63
(lp4035
S':'
asbag56
(g77
g58
NtRp4036
(dp4037
g61
(dp4038
sg70
g4023
sg63
(lp4039
g56
(g57
g58
NtRp4040
(dp4041
g61
(dp4042
g69
I5
ssg70
g4036
sg63
(lp4043
g56
(g65
g58
NtRp4044
(dp4045
g61
(dp4046
g69
I4
ssg70
Nsg63
(lp4047
g56
(g72
g58
NtRp4048
(dp4049
g61
(dp4050
sg70
g4044
sg63
(lp4051
g56
(g77
g58
NtRp4052
(dp4053
g61
(dp4054
sg70
g4048
sg63
(lp4055
g56
(g57
g58
NtRp4056
(dp4057
g61
(dp4058
g69
I4
ssg70
g4052
sg63
(lp4059
g56
(g65
g58
NtRp4060
(dp4061
g61
(dp4062
g69
I3
ssg70
Nsg63
(lp4063
g56
(g72
g58
NtRp4064
(dp4065
g61
(dp4066
sg70
g4060
sg63
(lp4067
g56
(g77
g58
NtRp4068
(dp4069
g61
(dp4070
sg70
g4064
sg63
(lp4071
g56
(g57
g58
NtRp4072
(dp4073
g61
(dp4074
g69
I3
ssg70
g4068
sg63
(lp4075
cgluon.languages
lazyT_unpickle
p4076
(S's\n\x00\x00\x00Clear Page'
tRp4077
asbasbasbag56
(g72
g58
NtRp4078
(dp4079
g61
(dp4080
sg70
g4060
sg63
(lp4081
g56
(g77
g58
NtRp4082
(dp4083
g61
(dp4084
sg70
g4078
sg63
(lp4085
g56
(g57
g58
NtRp4086
(dp4087
g61
(dp4088
g69
I3
ssg70
g4082
sg63
(lp4089
g992
asbasbasbag56
(g72
g58
NtRp4090
(dp4091
g61
(dp4092
sg70
g4060
sg63
(lp4093
g56
(g77
g58
NtRp4094
(dp4095
g61
(dp4096
sg70
g4090
sg63
(lp4097
g56
(g57
g58
NtRp4098
(dp4099
g61
(dp4100
g69
I3
ssg70
g4094
sg63
(lp4101
S'/streamlog/default/index'
p4102
asbasbasbag56
(g72
g58
NtRp4103
(dp4104
g61
(dp4105
sg70
g4060
sg63
(lp4106
g56
(g77
g58
NtRp4107
(dp4108
g61
(dp4109
sg70
g4103
sg63
(lp4110
g56
(g57
g58
NtRp4111
(dp4112
g61
(dp4113
g69
I3
ssg70
g4107
sg63
(lp4114
g56
(g65
g58
NtRp4115
(dp4116
g61
(dp4117
g69
I2
ssg70
Nsg63
(lp4118
sbasbasbasbasbasbasbasbag56
(g72
g58
NtRp4119
(dp4120
g61
(dp4121
sg70
g4044
sg63
(lp4122
g56
(g77
g58
NtRp4123
(dp4124
g61
(dp4125
sg70
g4119
sg63
(lp4126
g56
(g57
g58
NtRp4127
(dp4128
g61
(dp4129
g69
I4
ssg70
g4123
sg63
(lp4130
g56
(g65
g58
NtRp4131
(dp4132
g61
(dp4133
g69
I3
ssg70
Nsg63
(lp4134
g56
(g72
g58
NtRp4135
(dp4136
g61
(dp4137
sg70
g4131
sg63
(lp4138
g56
(g77
g58
NtRp4139
(dp4140
g61
(dp4141
sg70
g4135
sg63
(lp4142
g56
(g57
g58
NtRp4143
(dp4144
g61
(dp4145
g69
I3
ssg70
g4139
sg63
(lp4146
g4076
(S't\x06\x00\x00\x00Manage'
tRp4147
asbasbasbag56
(g72
g58
NtRp4148
(dp4149
g61
(dp4150
sg70
g4131
sg63
(lp4151
g56
(g77
g58
NtRp4152
(dp4153
g61
(dp4154
sg70
g4148
sg63
(lp4155
g56
(g57
g58
NtRp4156
(dp4157
g61
(dp4158
g69
I3
ssg70
g4152
sg63
(lp4159
g992
asbasbasbag56
(g72
g58
NtRp4160
(dp4161
g61
(dp4162
sg70
g4131
sg63
(lp4163
g56
(g77
g58
NtRp4164
(dp4165
g61
(dp4166
sg70
g4160
sg63
(lp4167
g56
(g57
g58
NtRp4168
(dp4169
g61
(dp4170
g69
I3
ssg70
g4164
sg63
(lp4171
S'None'
p4172
asbasbasbag56
(g72
g58
NtRp4173
(dp4174
g61
(dp4175
sg70
g4131
sg63
(lp4176
g56
(g77
g58
NtRp4177
(dp4178
g61
(dp4179
sg70
g4173
sg63
(lp4180
g56
(g57
g58
NtRp4181
(dp4182
g61
(dp4183
g69
I3
ssg70
g4177
sg63
(lp4184
g56
(g65
g58
NtRp4185
(dp4186
g61
(dp4187
g69
I2
ssg70
Nsg63
(lp4188
g56
(g72
g58
NtRp4189
(dp4190
g61
(dp4191
sg70
g4185
sg63
(lp4192
g56
(g77
g58
NtRp4193
(dp4194
g61
(dp4195
sg70
g4189
sg63
(lp4196
g56
(g57
g58
NtRp4197
(dp4198
g61
(dp4199
g69
I2
ssg70
g4193
sg63
(lp4200
g56
(g65
g58
NtRp4201
(dp4202
g61
(dp4203
g69
I1
ssg70
Nsg63
(lp4204
g56
(g72
g58
NtRp4205
(dp4206
g61
(dp4207
sg70
g4201
sg63
(lp4208
g56
(g77
g58
NtRp4209
(dp4210
g61
(dp4211
sg70
g4205
sg63
(lp4212
g56
(g57
g58
NtRp4213
(dp4214
g61
(dp4215
g69
I1
ssg70
g4209
sg63
(lp4216
g4076
(S't\x04\x00\x00\x00Logs'
tRp4217
asbasbasbag56
(g72
g58
NtRp4218
(dp4219
g61
(dp4220
sg70
g4201
sg63
(lp4221
g56
(g77
g58
NtRp4222
(dp4223
g61
(dp4224
sg70
g4218
sg63
(lp4225
g56
(g57
g58
NtRp4226
(dp4227
g61
(dp4228
g69
I1
ssg70
g4222
sg63
(lp4229
I00
asbasbasbag56
(g72
g58
NtRp4230
(dp4231
g61
(dp4232
sg70
g4201
sg63
(lp4233
g56
(g77
g58
NtRp4234
(dp4235
g61
(dp4236
sg70
g4230
sg63
(lp4237
g56
(g57
g58
NtRp4238
(dp4239
g61
(dp4240
g69
I1
ssg70
g4234
sg63
(lp4241
S'/streamlog/default/log_manage'
p4242
asbasbasbag56
(g72
g58
NtRp4243
(dp4244
g61
(dp4245
sg70
g4201
sg63
(lp4246
g56
(g77
g58
NtRp4247
(dp4248
g61
(dp4249
sg70
g4243
sg63
(lp4250
g56
(g57
g58
NtRp4251
(dp4252
g61
(dp4253
g69
I1
ssg70
g4247
sg63
(lp4254
(lp4255
asbasbasbasbasbasbasbag56
(g72
g58
NtRp4256
(dp4257
g61
(dp4258
sg70
g4185
sg63
(lp4259
g56
(g77
g58
NtRp4260
(dp4261
g61
(dp4262
sg70
g4256
sg63
(lp4263
g56
(g57
g58
NtRp4264
(dp4265
g61
(dp4266
g69
I2
ssg70
g4260
sg63
(lp4267
g56
(g65
g58
NtRp4268
(dp4269
g61
(dp4270
g69
I1
ssg70
Nsg63
(lp4271
g56
(g72
g58
NtRp4272
(dp4273
g61
(dp4274
sg70
g4268
sg63
(lp4275
g56
(g77
g58
NtRp4276
(dp4277
g61
(dp4278
sg70
g4272
sg63
(lp4279
g56
(g57
g58
NtRp4280
(dp4281
g61
(dp4282
g69
I1
ssg70
g4276
sg63
(lp4283
g4076
(S't\x07\x00\x00\x00Servers'
tRp4284
asbasbasbag56
(g72
g58
NtRp4285
(dp4286
g61
(dp4287
sg70
g4268
sg63
(lp4288
g56
(g77
g58
NtRp4289
(dp4290
g61
(dp4291
sg70
g4285
sg63
(lp4292
g56
(g57
g58
NtRp4293
(dp4294
g61
(dp4295
g69
I1
ssg70
g4289
sg63
(lp4296
I00
asbasbasbag56
(g72
g58
NtRp4297
(dp4298
g61
(dp4299
sg70
g4268
sg63
(lp4300
g56
(g77
g58
NtRp4301
(dp4302
g61
(dp4303
sg70
g4297
sg63
(lp4304
g56
(g57
g58
NtRp4305
(dp4306
g61
(dp4307
g69
I1
ssg70
g4301
sg63
(lp4308
S'/streamlog/default/server_manage'
p4309
asbasbasbag56
(g72
g58
NtRp4310
(dp4311
g61
(dp4312
sg70
g4268
sg63
(lp4313
g56
(g77
g58
NtRp4314
(dp4315
g61
(dp4316
sg70
g4310
sg63
(lp4317
g56
(g57
g58
NtRp4318
(dp4319
g61
(dp4320
g69
I1
ssg70
g4314
sg63
(lp4321
(lp4322
asbasbasbasbasbasbasbag56
(g72
g58
NtRp4323
(dp4324
g61
(dp4325
sg70
g4185
sg63
(lp4326
g56
(g77
g58
NtRp4327
(dp4328
g61
(dp4329
sg70
g4323
sg63
(lp4330
g56
(g57
g58
NtRp4331
(dp4332
g61
(dp4333
g69
I2
ssg70
g4327
sg63
(lp4334
g56
(g65
g58
NtRp4335
(dp4336
g61
(dp4337
g69
I1
ssg70
Nsg63
(lp4338
g56
(g72
g58
NtRp4339
(dp4340
g61
(dp4341
sg70
g4335
sg63
(lp4342
g56
(g77
g58
NtRp4343
(dp4344
g61
(dp4345
sg70
g4339
sg63
(lp4346
g56
(g57
g58
NtRp4347
(dp4348
g61
(dp4349
g69
I1
ssg70
g4343
sg63
(lp4350
g4076
(S't\x08\x00\x00\x00Projects'
tRp4351
asbasbasbag56
(g72
g58
NtRp4352
(dp4353
g61
(dp4354
sg70
g4335
sg63
(lp4355
g56
(g77
g58
NtRp4356
(dp4357
g61
(dp4358
sg70
g4352
sg63
(lp4359
g56
(g57
g58
NtRp4360
(dp4361
g61
(dp4362
g69
I1
ssg70
g4356
sg63
(lp4363
I00
asbasbasbag56
(g72
g58
NtRp4364
(dp4365
g61
(dp4366
sg70
g4335
sg63
(lp4367
g56
(g77
g58
NtRp4368
(dp4369
g61
(dp4370
sg70
g4364
sg63
(lp4371
g56
(g57
g58
NtRp4372
(dp4373
g61
(dp4374
g69
I1
ssg70
g4368
sg63
(lp4375
S'/streamlog/default/project_manage'
p4376
asbasbasbag56
(g72
g58
NtRp4377
(dp4378
g61
(dp4379
sg70
g4335
sg63
(lp4380
g56
(g77
g58
NtRp4381
(dp4382
g61
(dp4383
sg70
g4377
sg63
(lp4384
g56
(g57
g58
NtRp4385
(dp4386
g61
(dp4387
g69
I1
ssg70
g4381
sg63
(lp4388
(lp4389
asbasbasbasbasbasbasbag56
(g72
g58
NtRp4390
(dp4391
g61
(dp4392
sg70
g4185
sg63
(lp4393
g56
(g77
g58
NtRp4394
(dp4395
g61
(dp4396
sg70
g4390
sg63
(lp4397
g56
(g57
g58
NtRp4398
(dp4399
g61
(dp4400
g69
I2
ssg70
g4394
sg63
(lp4401
g56
(g65
g58
NtRp4402
(dp4403
g61
(dp4404
g69
I1
ssg70
Nsg63
(lp4405
g56
(g72
g58
NtRp4406
(dp4407
g61
(dp4408
sg70
g4402
sg63
(lp4409
g56
(g77
g58
NtRp4410
(dp4411
g61
(dp4412
sg70
g4406
sg63
(lp4413
g56
(g57
g58
NtRp4414
(dp4415
g61
(dp4416
g69
I1
ssg70
g4410
sg63
(lp4417
g4076
(S's\t\x00\x00\x00Type Logs'
tRp4418
asbasbasbag56
(g72
g58
NtRp4419
(dp4420
g61
(dp4421
sg70
g4402
sg63
(lp4422
g56
(g77
g58
NtRp4423
(dp4424
g61
(dp4425
sg70
g4419
sg63
(lp4426
g56
(g57
g58
NtRp4427
(dp4428
g61
(dp4429
g69
I1
ssg70
g4423
sg63
(lp4430
I00
asbasbasbag56
(g72
g58
NtRp4431
(dp4432
g61
(dp4433
sg70
g4402
sg63
(lp4434
g56
(g77
g58
NtRp4435
(dp4436
g61
(dp4437
sg70
g4431
sg63
(lp4438
g56
(g57
g58
NtRp4439
(dp4440
g61
(dp4441
g69
I1
ssg70
g4435
sg63
(lp4442
S'/streamlog/default/type_log_manage'
p4443
asbasbasbag56
(g72
g58
NtRp4444
(dp4445
g61
(dp4446
sg70
g4402
sg63
(lp4447
g56
(g77
g58
NtRp4448
(dp4449
g61
(dp4450
sg70
g4444
sg63
(lp4451
g56
(g57
g58
NtRp4452
(dp4453
g61
(dp4454
g69
I1
ssg70
g4448
sg63
(lp4455
(lp4456
asbasbasbasbasbasbasbasbasbasbasbasbasbasbasbasbasbasbasbag56
(g72
g58
NtRp4457
(dp4458
g61
(dp4459
sg70
g3571
sg63
(lp4460
g56
(g77
g58
NtRp4461
(dp4462
g61
(dp4463
g81
g82
ssg70
g4457
sg63
(lp4464
S'meta'
p4465
asbag56
(g77
g58
NtRp4466
(dp4467
g61
(dp4468
g88
g89
ssg70
g4457
sg63
(lp4469
S':'
asbag56
(g77
g58
NtRp4470
(dp4471
g61
(dp4472
sg70
g4457
sg63
(lp4473
g56
(g57
g58
NtRp4474
(dp4475
g61
(dp4476
g69
I5
ssg70
g4470
sg63
(lp4477
g56
(g65
g58
NtRp4478
(dp4479
g61
(dp4480
g69
I4
ssg70
Nsg63
(lp4481
g56
(g72
g58
NtRp4482
(dp4483
g61
(dp4484
sg70
g4478
sg63
(lp4485
g56
(g77
g58
NtRp4486
(dp4487
g61
(dp4488
g81
g82
ssg70
g4482
sg63
(lp4489
S'author'
p4490
asbag56
(g77
g58
NtRp4491
(dp4492
g61
(dp4493
g88
g89
ssg70
g4482
sg63
(lp4494
S':'
asbag56
(g77
g58
NtRp4495
(dp4496
g61
(dp4497
sg70
g4482
sg63
(lp4498
g56
(g57
g58
NtRp4499
(dp4500
g61
(dp4501
g69
I4
ssg70
g4495
sg63
(lp4502
S'Jose de Soto <josedesoto@gmail.com>'
p4503
asbasbasbag56
(g72
g58
NtRp4504
(dp4505
g61
(dp4506
sg70
g4478
sg63
(lp4507
g56
(g77
g58
NtRp4508
(dp4509
g61
(dp4510
g81
g82
ssg70
g4504
sg63
(lp4511
S'copyright'
p4512
asbag56
(g77
g58
NtRp4513
(dp4514
g61
(dp4515
g88
g89
ssg70
g4504
sg63
(lp4516
S':'
asbag56
(g77
g58
NtRp4517
(dp4518
g61
(dp4519
sg70
g4504
sg63
(lp4520
g56
(g57
g58
NtRp4521
(dp4522
g61
(dp4523
g69
I4
ssg70
g4517
sg63
(lp4524
S'Copyright 2011'
p4525
asbasbasbag56
(g72
g58
NtRp4526
(dp4527
g61
(dp4528
sg70
g4478
sg63
(lp4529
g56
(g77
g58
NtRp4530
(dp4531
g61
(dp4532
g81
g82
ssg70
g4526
sg63
(lp4533
S'description'
p4534
asbag56
(g77
g58
NtRp4535
(dp4536
g61
(dp4537
g88
g89
ssg70
g4526
sg63
(lp4538
S':'
asbag56
(g77
g58
NtRp4539
(dp4540
g61
(dp4541
sg70
g4526
sg63
(lp4542
g56
(g57
g58
NtRp4543
(dp4544
g61
(dp4545
g69
I4
ssg70
g4539
sg63
(lp4546
S'a cool new app'
p4547
asbasbasbag56
(g72
g58
NtRp4548
(dp4549
g61
(dp4550
sg70
g4478
sg63
(lp4551
g56
(g77
g58
NtRp4552
(dp4553
g61
(dp4554
g81
g82
ssg70
g4548
sg63
(lp4555
S'generator'
p4556
asbag56
(g77
g58
NtRp4557
(dp4558
g61
(dp4559
g88
g89
ssg70
g4548
sg63
(lp4560
S':'
asbag56
(g77
g58
NtRp4561
(dp4562
g61
(dp4563
sg70
g4548
sg63
(lp4564
g56
(g57
g58
NtRp4565
(dp4566
g61
(dp4567
g69
I4
ssg70
g4561
sg63
(lp4568
S'Web2py Web Framework'
p4569
asbasbasbag56
(g72
g58
NtRp4570
(dp4571
g61
(dp4572
sg70
g4478
sg63
(lp4573
g56
(g77
g58
NtRp4574
(dp4575
g61
(dp4576
g81
g82
ssg70
g4570
sg63
(lp4577
S'keywords'
p4578
asbag56
(g77
g58
NtRp4579
(dp4580
g61
(dp4581
g88
g89
ssg70
g4570
sg63
(lp4582
S':'
asbag56
(g77
g58
NtRp4583
(dp4584
g61
(dp4585
sg70
g4570
sg63
(lp4586
g56
(g57
g58
NtRp4587
(dp4588
g61
(dp4589
g69
I4
ssg70
g4583
sg63
(lp4590
S'web2py, python, framework'
p4591
asbasbasbasbasbasbasbag56
(g72
g58
NtRp4592
(dp4593
g61
(dp4594
sg70
g3571
sg63
(lp4595
g56
(g77
g58
NtRp4596
(dp4597
g61
(dp4598
g81
g82
ssg70
g4592
sg63
(lp4599
S'postprocessing'
p4600
asbag56
(g77
g58
NtRp4601
(dp4602
g61
(dp4603
g88
g89
ssg70
g4592
sg63
(lp4604
S':'
asbag56
(g77
g58
NtRp4605
(dp4606
g61
(dp4607
sg70
g4592
sg63
(lp4608
g56
(g57
g58
NtRp4609
(dp4610
g61
(dp4611
g69
I5
ssg70
g4605
sg63
(lp4612
g56
(g65
g58
NtRp4613
(dp4614
g61
(dp4615
g69
I4
ssg70
Nsg63
(lp4616
sbasbasbasbag56
(g72
g58
NtRp4617
(dp4618
g61
(dp4619
sg70
g3571
sg63
(lp4620
g56
(g77
g58
NtRp4621
(dp4622
g61
(dp4623
g81
g82
ssg70
g4617
sg63
(lp4624
S'session_file'
p4625
asbag56
(g77
g58
NtRp4626
(dp4627
g61
(dp4628
g88
g89
ssg70
g4617
sg63
(lp4629
S':'
asbag56
(g77
g58
NtRp4630
(dp4631
g61
(dp4632
sg70
g4617
sg63
(lp4633
g56
(g57
g58
NtRp4634
(dp4635
g61
(dp4636
g69
I5
ssg70
g4630
sg63
(lp4637
S"<open file '/home/jose/DESARROLLO/web2py199/applications/streamlog/sessions/127.0.0.1-610b0c7d-3f6f-4500-a76a-b095fb30f7fd', mode 'rb+' at 0x220b8a0>"
p4638
asbasbasbag56
(g72
g58
NtRp4639
(dp4640
g61
(dp4641
sg70
g3571
sg63
(lp4642
g56
(g77
g58
NtRp4643
(dp4644
g61
(dp4645
g81
g82
ssg70
g4639
sg63
(lp4646
S'session_filename'
p4647
asbag56
(g77
g58
NtRp4648
(dp4649
g61
(dp4650
g88
g89
ssg70
g4639
sg63
(lp4651
S':'
asbag56
(g77
g58
NtRp4652
(dp4653
g61
(dp4654
sg70
g4639
sg63
(lp4655
g56
(g57
g58
NtRp4656
(dp4657
g61
(dp4658
g69
I5
ssg70
g4652
sg63
(lp4659
S'/home/jose/DESARROLLO/web2py199/applications/streamlog/sessions/127.0.0.1-610b0c7d-3f6f-4500-a76a-b095fb30f7fd'
p4660
asbasbasbag56
(g72
g58
NtRp4661
(dp4662
g61
(dp4663
sg70
g3571
sg63
(lp4664
g56
(g77
g58
NtRp4665
(dp4666
g61
(dp4667
g81
g82
ssg70
g4661
sg63
(lp4668
S'session_id'
p4669
asbag56
(g77
g58
NtRp4670
(dp4671
g61
(dp4672
g88
g89
ssg70
g4661
sg63
(lp4673
S':'
asbag56
(g77
g58
NtRp4674
(dp4675
g61
(dp4676
sg70
g4661
sg63
(lp4677
g56
(g57
g58
NtRp4678
(dp4679
g61
(dp4680
g69
I5
ssg70
g4674
sg63
(lp4681
S'127.0.0.1-610b0c7d-3f6f-4500-a76a-b095fb30f7fd'
p4682
asbasbasbag56
(g72
g58
NtRp4683
(dp4684
g61
(dp4685
sg70
g3571
sg63
(lp4686
g56
(g77
g58
NtRp4687
(dp4688
g61
(dp4689
g81
g82
ssg70
g4683
sg63
(lp4690
S'session_id_name'
p4691
asbag56
(g77
g58
NtRp4692
(dp4693
g61
(dp4694
g88
g89
ssg70
g4683
sg63
(lp4695
S':'
asbag56
(g77
g58
NtRp4696
(dp4697
g61
(dp4698
sg70
g4683
sg63
(lp4699
g56
(g57
g58
NtRp4700
(dp4701
g61
(dp4702
g69
I5
ssg70
g4696
sg63
(lp4703
g3628
asbasbasbag56
(g72
g58
NtRp4704
(dp4705
g61
(dp4706
sg70
g3571
sg63
(lp4707
g56
(g77
g58
NtRp4708
(dp4709
g61
(dp4710
g81
g82
ssg70
g4704
sg63
(lp4711
S'session_locked'
p4712
asbag56
(g77
g58
NtRp4713
(dp4714
g61
(dp4715
g88
g89
ssg70
g4704
sg63
(lp4716
S':'
asbag56
(g77
g58
NtRp4717
(dp4718
g61
(dp4719
sg70
g4704
sg63
(lp4720
g56
(g57
g58
NtRp4721
(dp4722
g61
(dp4723
g69
I5
ssg70
g4717
sg63
(lp4724
g99
asbasbasbag56
(g72
g58
NtRp4725
(dp4726
g61
(dp4727
sg70
g3571
sg63
(lp4728
g56
(g77
g58
NtRp4729
(dp4730
g61
(dp4731
g81
g82
ssg70
g4725
sg63
(lp4732
S'session_new'
p4733
asbag56
(g77
g58
NtRp4734
(dp4735
g61
(dp4736
g88
g89
ssg70
g4725
sg63
(lp4737
S':'
asbag56
(g77
g58
NtRp4738
(dp4739
g61
(dp4740
sg70
g4725
sg63
(lp4741
g56
(g57
g58
NtRp4742
(dp4743
g61
(dp4744
g69
I5
ssg70
g4738
sg63
(lp4745
g992
asbasbasbag56
(g72
g58
NtRp4746
(dp4747
g61
(dp4748
sg70
g3571
sg63
(lp4749
g56
(g77
g58
NtRp4750
(dp4751
g61
(dp4752
g81
g82
ssg70
g4746
sg63
(lp4753
S'status'
p4754
asbag56
(g77
g58
NtRp4755
(dp4756
g61
(dp4757
g88
g89
ssg70
g4746
sg63
(lp4758
S':'
asbag56
(g77
g58
NtRp4759
(dp4760
g61
(dp4761
sg70
g4746
sg63
(lp4762
g56
(g57
g58
NtRp4763
(dp4764
g61
(dp4765
g69
I5
ssg70
g4759
sg63
(lp4766
S'200'
p4767
asbasbasbag56
(g72
g58
NtRp4768
(dp4769
g61
(dp4770
sg70
g3571
sg63
(lp4771
g56
(g77
g58
NtRp4772
(dp4773
g61
(dp4774
g81
g82
ssg70
g4768
sg63
(lp4775
S'subtitle'
p4776
asbag56
(g77
g58
NtRp4777
(dp4778
g61
(dp4779
g88
g89
ssg70
g4768
sg63
(lp4780
S':'
asbag56
(g77
g58
NtRp4781
(dp4782
g61
(dp4783
sg70
g4768
sg63
(lp4784
g56
(g57
g58
NtRp4785
(dp4786
g61
(dp4787
g69
I5
ssg70
g4781
sg63
(lp4788
g4076
(S's\x12\x00\x00\x00Stream Log Client!'
tRp4789
asbasbasbag56
(g72
g58
NtRp4790
(dp4791
g61
(dp4792
sg70
g3571
sg63
(lp4793
g56
(g77
g58
NtRp4794
(dp4795
g61
(dp4796
g81
g82
ssg70
g4790
sg63
(lp4797
S'title'
p4798
asbag56
(g77
g58
NtRp4799
(dp4800
g61
(dp4801
g88
g89
ssg70
g4790
sg63
(lp4802
S':'
asbag56
(g77
g58
NtRp4803
(dp4804
g61
(dp4805
sg70
g4790
sg63
(lp4806
g56
(g57
g58
NtRp4807
(dp4808
g61
(dp4809
g69
I5
ssg70
g4803
sg63
(lp4810
g121
asbasbasbag56
(g72
g58
NtRp4811
(dp4812
g61
(dp4813
sg70
g3571
sg63
(lp4814
g56
(g77
g58
NtRp4815
(dp4816
g61
(dp4817
g81
g82
ssg70
g4811
sg63
(lp4818
g2419
asbag56
(g77
g58
NtRp4819
(dp4820
g61
(dp4821
g88
g89
ssg70
g4811
sg63
(lp4822
S':'
asbag56
(g77
g58
NtRp4823
(dp4824
g61
(dp4825
sg70
g4811
sg63
(lp4826
g56
(g57
g58
NtRp4827
(dp4828
g61
(dp4829
g69
I5
ssg70
g4823
sg63
(lp4830
g2432
asbasbasbag56
(g72
g58
NtRp4831
(dp4832
g61
(dp4833
sg70
g3571
sg63
(lp4834
g56
(g77
g58
NtRp4835
(dp4836
g61
(dp4837
g81
g82
ssg70
g4831
sg63
(lp4838
S'view'
p4839
asbag56
(g77
g58
NtRp4840
(dp4841
g61
(dp4842
g88
g89
ssg70
g4831
sg63
(lp4843
S':'
asbag56
(g77
g58
NtRp4844
(dp4845
g61
(dp4846
sg70
g4831
sg63
(lp4847
g56
(g57
g58
NtRp4848
(dp4849
g61
(dp4850
g69
I5
ssg70
g4844
sg63
(lp4851
S'default/getTypeTable.html'
p4852
asbasbasbasbasbsS'locals'
p4853
(dp4854
ssS'traceback'
p4855
S'Traceback (most recent call last):\n  File "/home/jose/DESARROLLO/web2py199/gluon/restricted.py", line 194, in restricted\n    exec ccode in environment\n  File "/home/jose/DESARROLLO/web2py199/applications/streamlog/controllers/default.py", line 156, in <module>\n  File "/home/jose/DESARROLLO/web2py199/gluon/globals.py", line 149, in <lambda>\n    self._caller = lambda f: f()\n  File "/home/jose/DESARROLLO/web2py199/applications/streamlog/controllers/default.py", line 43, in getTypeTable\n    id_log=sys.arg[0]\nNameError: global name \'sys\' is not defined\n'
p4856
s.