(dp1
S'output'
p2
S''
sS'layer'
p3
S'/home/jose/DESARROLLO/web2py199/applications/streamlog/controllers/default.py'
p4
sS'code'
p5
S'# -*- coding: utf-8 -*-\n# this file is released under public domain and you can use without limitations\n\n#########################################################################\n## This is a samples controller\n## - index is the default action of any application\n## - user is required for authentication and authorization\n## - download is for downloading files uploaded in the db (does streaming)\n## - call exposes all registered services (none by default)\n#########################################################################\n\n\n\ndef index():\n    """\n    example action using the internationalization operator T and flash\n    rendered by views/default/index.html or views/generic.html\n    """\n    links = [lambda row:  INPUT(_type=\'button\',_value=\'START STREAM\', _onclick=\'createStream(\'+str(row.id)+\')\')]\n    form=SQLFORM.grid(db.t_log, selectable=False, csv=False,create=False, deletable=False, editable=False, links=links, user_signature=False)\n    return dict(message=T(\'Hello World2\'), form=form)\n\n@service.json\ndef getConnectionData():\n\t\n\treturn ([\'bar\': (\'baz\', None, 1.0, 2)])\n\ndef choose_log():\n    """\n    example action using the internationalization operator T and flash\n    rendered by views/default/index.html or views/generic.html\n    """\n    \n    \n    return dict(message="log")\n\n\ndef type_table():\n    """\n    example action using the internationalization operator T and flash\n    rendered by views/default/index.html or views/generic.html\n    """\n    \n    table=\'<table cellpadding="0" cellspacing="0" border="0" class="display" id="tablelog"> \\\n    <thead> \\\n        <tr> \\\n            <th>IP</th> \\\n            <th>hyphen</th> \\\n            <th>userid</th> \\\n            <th>Time Request</th> \\\n        <th>Request Time</th> \\\n        <th>Status Code</th> \\\n        <th>Size Object</th> \\\n        </tr>\\\n    </thead> \\\n    <tfoot> \\\n        <tr> \\\n            <th>IP</th> \\\n            <th>hyphen</th> \\\n            <th>userid</th>\\\n            <th>Time Request</th> \\\n        <th>Request Time</th> \\\n        <th>Status Code</th> \\\n        <th>Size Object</th> \\\n        </tr>  \\\n    </tfoot>  \\\n        <tbody> \\\n        </tbody> \\\n    </table>\'\n    \n    return table\n\n\ndef user():\n    """\n    exposes:\n    http://..../[app]/default/user/login\n    http://..../[app]/default/user/logout\n    http://..../[app]/default/user/register\n    http://..../[app]/default/user/profile\n    http://..../[app]/default/user/retrieve_password\n    http://..../[app]/default/user/change_password\n    use @auth.requires_login()\n        @auth.requires_membership(\'group name\')\n        @auth.requires_permission(\'read\',\'table name\',record_id)\n    to decorate functions that need access control\n    """\n    return dict(form=auth())\n\ndef error():\n    return dict()\n\n\ndef project_manage():\n    \n    form = SQLFORM.smartgrid(db.t_project)\n    return locals()\n\n\n\ndef server_manage():\n\n    form=SQLFORM.grid(db.t_server)\n    return locals()\n\ndef log_manage():\n \n    #form = SQLFORM.smartgrid(db.t_log,constraints=dict(t_log=query), selectable=True,searchable=False, csv=False,showbuttontext=True,onupdate=auth.archive)\n    #form = SQLFORM.smartgrid(db.t_log)\n    form=SQLFORM.grid(db.t_log)\n    return locals()\n\ndef type_log_manage():\n\n    form=SQLFORM.grid(db.t_type_log)\n    return locals()\n\ndef download():\n    """\n    allows downloading of uploaded files\n    http://..../[app]/default/download/[filename]\n    """\n    return response.download(request,db)\n\n\ndef call():\n    """\n    exposes services. for example:\n    http://..../[app]/default/call/jsonrpc\n    decorate with @services.jsonrpc the functions to expose\n    supports xml, json, xmlrpc, jsonrpc, amfrpc, rss, csv\n    """\n    return service()\n\n\n@auth.requires_signature()\ndef data():\n    """\n    http://..../[app]/default/data/tables\n    http://..../[app]/default/data/create/[table]\n    http://..../[app]/default/data/read/[table]/[id]\n    http://..../[app]/default/data/update/[table]/[id]\n    http://..../[app]/default/data/delete/[table]/[id]\n    http://..../[app]/default/data/select/[table]\n    http://..../[app]/default/data/search/[table]\n    but URLs bust be signed, i.e. linked with\n      A(\'table\',_href=URL(\'data/tables\',user_signature=True))\n    or with the signed load operator\n      LOAD(\'default\',\'data.load\',args=\'tables\',ajax=True,user_signature=True)\n    """\n    return dict(form=crud())\n\nresponse._vars=response._caller(getConnectionData)\n'
p6
sS'snapshot'
p7
(dp8
S'exception'
p9
(dp10
S'__getslice__'
p11
S"<method-wrapper '__getslice__' of exceptions.SyntaxError object>"
p12
sS'text'
p13
S'"\\treturn ([\'bar\': (\'baz\', None, 1.0, 2)])\\n"'
p14
sS'__str__'
p15
S"<method-wrapper '__str__' of exceptions.SyntaxError object>"
p16
sS'__reduce__'
p17
S'<built-in method __reduce__ of exceptions.SyntaxError object>'
p18
sS'__dict__'
p19
S'{}'
p20
sS'__sizeof__'
p21
S'<built-in method __sizeof__ of exceptions.SyntaxError object>'
p22
sS'__init__'
p23
S"<method-wrapper '__init__' of exceptions.SyntaxError object>"
p24
sS'__setattr__'
p25
S"<method-wrapper '__setattr__' of exceptions.SyntaxError object>"
p26
sS'__reduce_ex__'
p27
S'<built-in method __reduce_ex__ of exceptions.SyntaxError object>'
p28
sS'__new__'
p29
S'<built-in method __new__ of type object>'
p30
sS'__format__'
p31
S'<built-in method __format__ of exceptions.SyntaxError object>'
p32
sS'__class__'
p33
S"<type 'exceptions.SyntaxError'>"
p34
sS'filename'
p35
S"'/home/jose/DESARROLLO/web2py199/applications/streamlog/controllers/default.py'"
p36
sS'lineno'
p37
S'26'
p38
sS'msg'
p39
S"'invalid syntax'"
p40
sS'__doc__'
p41
S"'Invalid syntax.'"
p42
sS'__getitem__'
p43
S"<method-wrapper '__getitem__' of exceptions.SyntaxError object>"
p44
sS'__setstate__'
p45
S'<built-in method __setstate__ of exceptions.SyntaxError object>'
p46
sS'__getattribute__'
p47
S"<method-wrapper '__getattribute__' of exceptions.SyntaxError object>"
p48
sS'print_file_and_line'
p49
S'None'
p50
sS'args'
p51
S'(\'invalid syntax\', (\'/home/jose/DESARROLLO/web2py199/applications/streamlog/controllers/default.py\', 26, 16, "\\treturn ([\'bar\': (\'baz\', None, 1.0, 2)])\\n"))'
p52
sS'__subclasshook__'
p53
S'<built-in method __subclasshook__ of type object>'
p54
sS'offset'
p55
S'16'
p56
sS'__unicode__'
p57
S'<built-in method __unicode__ of exceptions.SyntaxError object>'
p58
sS'__delattr__'
p59
S"<method-wrapper '__delattr__' of exceptions.SyntaxError object>"
p60
sS'__repr__'
p61
S"<method-wrapper '__repr__' of exceptions.SyntaxError object>"
p62
sS'__hash__'
p63
S"<method-wrapper '__hash__' of exceptions.SyntaxError object>"
p64
ssS'evalue'
p65
S'invalid syntax (default.py, line 26)'
p66
sS'request'
p67
ccopy_reg
_reconstructor
p68
(cgluon.html
BEAUTIFY
p69
c__builtin__
object
p70
NtRp71
(dp72
S'attributes'
p73
(dp74
sS'components'
p75
(lp76
g68
(cgluon.html
TABLE
p77
g70
NtRp78
(dp79
g73
(dp80
S'level'
p81
I5
ssS'parent'
p82
Nsg75
(lp83
g68
(cgluon.html
TR
p84
g70
NtRp85
(dp86
g73
(dp87
sg82
g78
sg75
(lp88
g68
(cgluon.html
TD
p89
g70
NtRp90
(dp91
g73
(dp92
S'_style'
p93
S'font-weight:bold;'
p94
ssg82
g85
sg75
(lp95
S'ajax'
p96
asbag68
(g89
g70
NtRp97
(dp98
g73
(dp99
S'_valign'
p100
S'top'
p101
ssg82
g85
sg75
(lp102
S':'
asbag68
(g89
g70
NtRp103
(dp104
g73
(dp105
sg82
g85
sg75
(lp106
g68
(g69
g70
NtRp107
(dp108
g73
(dp109
g81
I5
ssg82
g103
sg75
(lp110
S'False'
p111
asbasbasbag68
(g84
g70
NtRp112
(dp113
g73
(dp114
sg82
g78
sg75
(lp115
g68
(g89
g70
NtRp116
(dp117
g73
(dp118
g93
g94
ssg82
g112
sg75
(lp119
S'application'
p120
asbag68
(g89
g70
NtRp121
(dp122
g73
(dp123
g100
g101
ssg82
g112
sg75
(lp124
S':'
asbag68
(g89
g70
NtRp125
(dp126
g73
(dp127
sg82
g112
sg75
(lp128
g68
(g69
g70
NtRp129
(dp130
g73
(dp131
g81
I5
ssg82
g125
sg75
(lp132
S'streamlog'
p133
asbasbasbag68
(g84
g70
NtRp134
(dp135
g73
(dp136
sg82
g78
sg75
(lp137
g68
(g89
g70
NtRp138
(dp139
g73
(dp140
g93
g94
ssg82
g134
sg75
(lp141
g51
asbag68
(g89
g70
NtRp142
(dp143
g73
(dp144
g100
g101
ssg82
g134
sg75
(lp145
S':'
asbag68
(g89
g70
NtRp146
(dp147
g73
(dp148
sg82
g134
sg75
(lp149
g68
(g69
g70
NtRp150
(dp151
g73
(dp152
g81
I5
ssg82
g146
sg75
(lp153
g68
(g77
g70
NtRp154
(dp155
g73
(dp156
g81
I4
ssg82
Nsg75
(lp157
sbasbasbasbag68
(g84
g70
NtRp158
(dp159
g73
(dp160
sg82
g78
sg75
(lp161
g68
(g89
g70
NtRp162
(dp163
g73
(dp164
g93
g94
ssg82
g158
sg75
(lp165
S'body'
p166
asbag68
(g89
g70
NtRp167
(dp168
g73
(dp169
g100
g101
ssg82
g158
sg75
(lp170
S':'
asbag68
(g89
g70
NtRp171
(dp172
g73
(dp173
sg82
g158
sg75
(lp174
g68
(g69
g70
NtRp175
(dp176
g73
(dp177
g81
I5
ssg82
g171
sg75
(lp178
S'<cStringIO.StringO object at 0x3efba08>'
p179
asbasbasbag68
(g84
g70
NtRp180
(dp181
g73
(dp182
sg82
g78
sg75
(lp183
g68
(g89
g70
NtRp184
(dp185
g73
(dp186
g93
g94
ssg82
g180
sg75
(lp187
S'client'
p188
asbag68
(g89
g70
NtRp189
(dp190
g73
(dp191
g100
g101
ssg82
g180
sg75
(lp192
S':'
asbag68
(g89
g70
NtRp193
(dp194
g73
(dp195
sg82
g180
sg75
(lp196
g68
(g69
g70
NtRp197
(dp198
g73
(dp199
g81
I5
ssg82
g193
sg75
(lp200
S'127.0.0.1'
p201
asbasbasbag68
(g84
g70
NtRp202
(dp203
g73
(dp204
sg82
g78
sg75
(lp205
g68
(g89
g70
NtRp206
(dp207
g73
(dp208
g93
g94
ssg82
g202
sg75
(lp209
S'controller'
p210
asbag68
(g89
g70
NtRp211
(dp212
g73
(dp213
g100
g101
ssg82
g202
sg75
(lp214
S':'
asbag68
(g89
g70
NtRp215
(dp216
g73
(dp217
sg82
g202
sg75
(lp218
g68
(g69
g70
NtRp219
(dp220
g73
(dp221
g81
I5
ssg82
g215
sg75
(lp222
S'default'
p223
asbasbasbag68
(g84
g70
NtRp224
(dp225
g73
(dp226
sg82
g78
sg75
(lp227
g68
(g89
g70
NtRp228
(dp229
g73
(dp230
g93
g94
ssg82
g224
sg75
(lp231
S'cookies'
p232
asbag68
(g89
g70
NtRp233
(dp234
g73
(dp235
g100
g101
ssg82
g224
sg75
(lp236
S':'
asbag68
(g89
g70
NtRp237
(dp238
g73
(dp239
sg82
g224
sg75
(lp240
g68
(g69
g70
NtRp241
(dp242
g73
(dp243
g81
I5
ssg82
g237
sg75
(lp244
g68
(g77
g70
NtRp245
(dp246
g73
(dp247
g81
I4
ssg82
Nsg75
(lp248
g68
(g84
g70
NtRp249
(dp250
g73
(dp251
sg82
g245
sg75
(lp252
g68
(g89
g70
NtRp253
(dp254
g73
(dp255
g93
g94
ssg82
g249
sg75
(lp256
S'session_id_admin'
p257
asbag68
(g89
g70
NtRp258
(dp259
g73
(dp260
g100
g101
ssg82
g249
sg75
(lp261
S':'
asbag68
(g89
g70
NtRp262
(dp263
g73
(dp264
sg82
g249
sg75
(lp265
g68
(g69
g70
NtRp266
(dp267
g73
(dp268
g81
I4
ssg82
g262
sg75
(lp269
g68
(g77
g70
NtRp270
(dp271
g73
(dp272
g81
I3
ssg82
Nsg75
(lp273
g68
(g84
g70
NtRp274
(dp275
g73
(dp276
sg82
g270
sg75
(lp277
g68
(g89
g70
NtRp278
(dp279
g73
(dp280
g93
g94
ssg82
g274
sg75
(lp281
S'comment'
p282
asbag68
(g89
g70
NtRp283
(dp284
g73
(dp285
g100
g101
ssg82
g274
sg75
(lp286
S':'
asbag68
(g89
g70
NtRp287
(dp288
g73
(dp289
sg82
g274
sg75
(lp290
g68
(g69
g70
NtRp291
(dp292
g73
(dp293
g81
I3
ssg82
g287
sg75
(lp294
S''
asbasbasbag68
(g84
g70
NtRp295
(dp296
g73
(dp297
sg82
g270
sg75
(lp298
g68
(g89
g70
NtRp299
(dp300
g73
(dp301
g93
g94
ssg82
g295
sg75
(lp302
S'domain'
p303
asbag68
(g89
g70
NtRp304
(dp305
g73
(dp306
g100
g101
ssg82
g295
sg75
(lp307
S':'
asbag68
(g89
g70
NtRp308
(dp309
g73
(dp310
sg82
g295
sg75
(lp311
g68
(g69
g70
NtRp312
(dp313
g73
(dp314
g81
I3
ssg82
g308
sg75
(lp315
S''
asbasbasbag68
(g84
g70
NtRp316
(dp317
g73
(dp318
sg82
g270
sg75
(lp319
g68
(g89
g70
NtRp320
(dp321
g73
(dp322
g93
g94
ssg82
g316
sg75
(lp323
S'expires'
p324
asbag68
(g89
g70
NtRp325
(dp326
g73
(dp327
g100
g101
ssg82
g316
sg75
(lp328
S':'
asbag68
(g89
g70
NtRp329
(dp330
g73
(dp331
sg82
g316
sg75
(lp332
g68
(g69
g70
NtRp333
(dp334
g73
(dp335
g81
I3
ssg82
g329
sg75
(lp336
S''
asbasbasbag68
(g84
g70
NtRp337
(dp338
g73
(dp339
sg82
g270
sg75
(lp340
g68
(g89
g70
NtRp341
(dp342
g73
(dp343
g93
g94
ssg82
g337
sg75
(lp344
S'httponly'
p345
asbag68
(g89
g70
NtRp346
(dp347
g73
(dp348
g100
g101
ssg82
g337
sg75
(lp349
S':'
asbag68
(g89
g70
NtRp350
(dp351
g73
(dp352
sg82
g337
sg75
(lp353
g68
(g69
g70
NtRp354
(dp355
g73
(dp356
g81
I3
ssg82
g350
sg75
(lp357
S''
asbasbasbag68
(g84
g70
NtRp358
(dp359
g73
(dp360
sg82
g270
sg75
(lp361
g68
(g89
g70
NtRp362
(dp363
g73
(dp364
g93
g94
ssg82
g358
sg75
(lp365
S'max-age'
p366
asbag68
(g89
g70
NtRp367
(dp368
g73
(dp369
g100
g101
ssg82
g358
sg75
(lp370
S':'
asbag68
(g89
g70
NtRp371
(dp372
g73
(dp373
sg82
g358
sg75
(lp374
g68
(g69
g70
NtRp375
(dp376
g73
(dp377
g81
I3
ssg82
g371
sg75
(lp378
S''
asbasbasbag68
(g84
g70
NtRp379
(dp380
g73
(dp381
sg82
g270
sg75
(lp382
g68
(g89
g70
NtRp383
(dp384
g73
(dp385
g93
g94
ssg82
g379
sg75
(lp386
S'path'
p387
asbag68
(g89
g70
NtRp388
(dp389
g73
(dp390
g100
g101
ssg82
g379
sg75
(lp391
S':'
asbag68
(g89
g70
NtRp392
(dp393
g73
(dp394
sg82
g379
sg75
(lp395
g68
(g69
g70
NtRp396
(dp397
g73
(dp398
g81
I3
ssg82
g392
sg75
(lp399
S''
asbasbasbag68
(g84
g70
NtRp400
(dp401
g73
(dp402
sg82
g270
sg75
(lp403
g68
(g89
g70
NtRp404
(dp405
g73
(dp406
g93
g94
ssg82
g400
sg75
(lp407
S'secure'
p408
asbag68
(g89
g70
NtRp409
(dp410
g73
(dp411
g100
g101
ssg82
g400
sg75
(lp412
S':'
asbag68
(g89
g70
NtRp413
(dp414
g73
(dp415
sg82
g400
sg75
(lp416
g68
(g69
g70
NtRp417
(dp418
g73
(dp419
g81
I3
ssg82
g413
sg75
(lp420
S''
asbasbasbag68
(g84
g70
NtRp421
(dp422
g73
(dp423
sg82
g270
sg75
(lp424
g68
(g89
g70
NtRp425
(dp426
g73
(dp427
g93
g94
ssg82
g421
sg75
(lp428
S'version'
p429
asbag68
(g89
g70
NtRp430
(dp431
g73
(dp432
g100
g101
ssg82
g421
sg75
(lp433
S':'
asbag68
(g89
g70
NtRp434
(dp435
g73
(dp436
sg82
g421
sg75
(lp437
g68
(g69
g70
NtRp438
(dp439
g73
(dp440
g81
I3
ssg82
g434
sg75
(lp441
S''
asbasbasbasbasbasbasbag68
(g84
g70
NtRp442
(dp443
g73
(dp444
sg82
g245
sg75
(lp445
g68
(g89
g70
NtRp446
(dp447
g73
(dp448
g93
g94
ssg82
g442
sg75
(lp449
S'session_id_streamlog'
p450
asbag68
(g89
g70
NtRp451
(dp452
g73
(dp453
g100
g101
ssg82
g442
sg75
(lp454
S':'
asbag68
(g89
g70
NtRp455
(dp456
g73
(dp457
sg82
g442
sg75
(lp458
g68
(g69
g70
NtRp459
(dp460
g73
(dp461
g81
I4
ssg82
g455
sg75
(lp462
g68
(g77
g70
NtRp463
(dp464
g73
(dp465
g81
I3
ssg82
Nsg75
(lp466
g68
(g84
g70
NtRp467
(dp468
g73
(dp469
sg82
g463
sg75
(lp470
g68
(g89
g70
NtRp471
(dp472
g73
(dp473
g93
g94
ssg82
g467
sg75
(lp474
g282
asbag68
(g89
g70
NtRp475
(dp476
g73
(dp477
g100
g101
ssg82
g467
sg75
(lp478
S':'
asbag68
(g89
g70
NtRp479
(dp480
g73
(dp481
sg82
g467
sg75
(lp482
g68
(g69
g70
NtRp483
(dp484
g73
(dp485
g81
I3
ssg82
g479
sg75
(lp486
S''
asbasbasbag68
(g84
g70
NtRp487
(dp488
g73
(dp489
sg82
g463
sg75
(lp490
g68
(g89
g70
NtRp491
(dp492
g73
(dp493
g93
g94
ssg82
g487
sg75
(lp494
g303
asbag68
(g89
g70
NtRp495
(dp496
g73
(dp497
g100
g101
ssg82
g487
sg75
(lp498
S':'
asbag68
(g89
g70
NtRp499
(dp500
g73
(dp501
sg82
g487
sg75
(lp502
g68
(g69
g70
NtRp503
(dp504
g73
(dp505
g81
I3
ssg82
g499
sg75
(lp506
S''
asbasbasbag68
(g84
g70
NtRp507
(dp508
g73
(dp509
sg82
g463
sg75
(lp510
g68
(g89
g70
NtRp511
(dp512
g73
(dp513
g93
g94
ssg82
g507
sg75
(lp514
g324
asbag68
(g89
g70
NtRp515
(dp516
g73
(dp517
g100
g101
ssg82
g507
sg75
(lp518
S':'
asbag68
(g89
g70
NtRp519
(dp520
g73
(dp521
sg82
g507
sg75
(lp522
g68
(g69
g70
NtRp523
(dp524
g73
(dp525
g81
I3
ssg82
g519
sg75
(lp526
S''
asbasbasbag68
(g84
g70
NtRp527
(dp528
g73
(dp529
sg82
g463
sg75
(lp530
g68
(g89
g70
NtRp531
(dp532
g73
(dp533
g93
g94
ssg82
g527
sg75
(lp534
g345
asbag68
(g89
g70
NtRp535
(dp536
g73
(dp537
g100
g101
ssg82
g527
sg75
(lp538
S':'
asbag68
(g89
g70
NtRp539
(dp540
g73
(dp541
sg82
g527
sg75
(lp542
g68
(g69
g70
NtRp543
(dp544
g73
(dp545
g81
I3
ssg82
g539
sg75
(lp546
S''
asbasbasbag68
(g84
g70
NtRp547
(dp548
g73
(dp549
sg82
g463
sg75
(lp550
g68
(g89
g70
NtRp551
(dp552
g73
(dp553
g93
g94
ssg82
g547
sg75
(lp554
g366
asbag68
(g89
g70
NtRp555
(dp556
g73
(dp557
g100
g101
ssg82
g547
sg75
(lp558
S':'
asbag68
(g89
g70
NtRp559
(dp560
g73
(dp561
sg82
g547
sg75
(lp562
g68
(g69
g70
NtRp563
(dp564
g73
(dp565
g81
I3
ssg82
g559
sg75
(lp566
S''
asbasbasbag68
(g84
g70
NtRp567
(dp568
g73
(dp569
sg82
g463
sg75
(lp570
g68
(g89
g70
NtRp571
(dp572
g73
(dp573
g93
g94
ssg82
g567
sg75
(lp574
g387
asbag68
(g89
g70
NtRp575
(dp576
g73
(dp577
g100
g101
ssg82
g567
sg75
(lp578
S':'
asbag68
(g89
g70
NtRp579
(dp580
g73
(dp581
sg82
g567
sg75
(lp582
g68
(g69
g70
NtRp583
(dp584
g73
(dp585
g81
I3
ssg82
g579
sg75
(lp586
S''
asbasbasbag68
(g84
g70
NtRp587
(dp588
g73
(dp589
sg82
g463
sg75
(lp590
g68
(g89
g70
NtRp591
(dp592
g73
(dp593
g93
g94
ssg82
g587
sg75
(lp594
g408
asbag68
(g89
g70
NtRp595
(dp596
g73
(dp597
g100
g101
ssg82
g587
sg75
(lp598
S':'
asbag68
(g89
g70
NtRp599
(dp600
g73
(dp601
sg82
g587
sg75
(lp602
g68
(g69
g70
NtRp603
(dp604
g73
(dp605
g81
I3
ssg82
g599
sg75
(lp606
S''
asbasbasbag68
(g84
g70
NtRp607
(dp608
g73
(dp609
sg82
g463
sg75
(lp610
g68
(g89
g70
NtRp611
(dp612
g73
(dp613
g93
g94
ssg82
g607
sg75
(lp614
g429
asbag68
(g89
g70
NtRp615
(dp616
g73
(dp617
g100
g101
ssg82
g607
sg75
(lp618
S':'
asbag68
(g89
g70
NtRp619
(dp620
g73
(dp621
sg82
g607
sg75
(lp622
g68
(g69
g70
NtRp623
(dp624
g73
(dp625
g81
I3
ssg82
g619
sg75
(lp626
S''
asbasbasbasbasbasbasbag68
(g84
g70
NtRp627
(dp628
g73
(dp629
sg82
g245
sg75
(lp630
g68
(g89
g70
NtRp631
(dp632
g73
(dp633
g93
g94
ssg82
g627
sg75
(lp634
S'session_id_test3'
p635
asbag68
(g89
g70
NtRp636
(dp637
g73
(dp638
g100
g101
ssg82
g627
sg75
(lp639
S':'
asbag68
(g89
g70
NtRp640
(dp641
g73
(dp642
sg82
g627
sg75
(lp643
g68
(g69
g70
NtRp644
(dp645
g73
(dp646
g81
I4
ssg82
g640
sg75
(lp647
g68
(g77
g70
NtRp648
(dp649
g73
(dp650
g81
I3
ssg82
Nsg75
(lp651
g68
(g84
g70
NtRp652
(dp653
g73
(dp654
sg82
g648
sg75
(lp655
g68
(g89
g70
NtRp656
(dp657
g73
(dp658
g93
g94
ssg82
g652
sg75
(lp659
g282
asbag68
(g89
g70
NtRp660
(dp661
g73
(dp662
g100
g101
ssg82
g652
sg75
(lp663
S':'
asbag68
(g89
g70
NtRp664
(dp665
g73
(dp666
sg82
g652
sg75
(lp667
g68
(g69
g70
NtRp668
(dp669
g73
(dp670
g81
I3
ssg82
g664
sg75
(lp671
S''
asbasbasbag68
(g84
g70
NtRp672
(dp673
g73
(dp674
sg82
g648
sg75
(lp675
g68
(g89
g70
NtRp676
(dp677
g73
(dp678
g93
g94
ssg82
g672
sg75
(lp679
g303
asbag68
(g89
g70
NtRp680
(dp681
g73
(dp682
g100
g101
ssg82
g672
sg75
(lp683
S':'
asbag68
(g89
g70
NtRp684
(dp685
g73
(dp686
sg82
g672
sg75
(lp687
g68
(g69
g70
NtRp688
(dp689
g73
(dp690
g81
I3
ssg82
g684
sg75
(lp691
S''
asbasbasbag68
(g84
g70
NtRp692
(dp693
g73
(dp694
sg82
g648
sg75
(lp695
g68
(g89
g70
NtRp696
(dp697
g73
(dp698
g93
g94
ssg82
g692
sg75
(lp699
g324
asbag68
(g89
g70
NtRp700
(dp701
g73
(dp702
g100
g101
ssg82
g692
sg75
(lp703
S':'
asbag68
(g89
g70
NtRp704
(dp705
g73
(dp706
sg82
g692
sg75
(lp707
g68
(g69
g70
NtRp708
(dp709
g73
(dp710
g81
I3
ssg82
g704
sg75
(lp711
S''
asbasbasbag68
(g84
g70
NtRp712
(dp713
g73
(dp714
sg82
g648
sg75
(lp715
g68
(g89
g70
NtRp716
(dp717
g73
(dp718
g93
g94
ssg82
g712
sg75
(lp719
g345
asbag68
(g89
g70
NtRp720
(dp721
g73
(dp722
g100
g101
ssg82
g712
sg75
(lp723
S':'
asbag68
(g89
g70
NtRp724
(dp725
g73
(dp726
sg82
g712
sg75
(lp727
g68
(g69
g70
NtRp728
(dp729
g73
(dp730
g81
I3
ssg82
g724
sg75
(lp731
S''
asbasbasbag68
(g84
g70
NtRp732
(dp733
g73
(dp734
sg82
g648
sg75
(lp735
g68
(g89
g70
NtRp736
(dp737
g73
(dp738
g93
g94
ssg82
g732
sg75
(lp739
g366
asbag68
(g89
g70
NtRp740
(dp741
g73
(dp742
g100
g101
ssg82
g732
sg75
(lp743
S':'
asbag68
(g89
g70
NtRp744
(dp745
g73
(dp746
sg82
g732
sg75
(lp747
g68
(g69
g70
NtRp748
(dp749
g73
(dp750
g81
I3
ssg82
g744
sg75
(lp751
S''
asbasbasbag68
(g84
g70
NtRp752
(dp753
g73
(dp754
sg82
g648
sg75
(lp755
g68
(g89
g70
NtRp756
(dp757
g73
(dp758
g93
g94
ssg82
g752
sg75
(lp759
g387
asbag68
(g89
g70
NtRp760
(dp761
g73
(dp762
g100
g101
ssg82
g752
sg75
(lp763
S':'
asbag68
(g89
g70
NtRp764
(dp765
g73
(dp766
sg82
g752
sg75
(lp767
g68
(g69
g70
NtRp768
(dp769
g73
(dp770
g81
I3
ssg82
g764
sg75
(lp771
S''
asbasbasbag68
(g84
g70
NtRp772
(dp773
g73
(dp774
sg82
g648
sg75
(lp775
g68
(g89
g70
NtRp776
(dp777
g73
(dp778
g93
g94
ssg82
g772
sg75
(lp779
g408
asbag68
(g89
g70
NtRp780
(dp781
g73
(dp782
g100
g101
ssg82
g772
sg75
(lp783
S':'
asbag68
(g89
g70
NtRp784
(dp785
g73
(dp786
sg82
g772
sg75
(lp787
g68
(g69
g70
NtRp788
(dp789
g73
(dp790
g81
I3
ssg82
g784
sg75
(lp791
S''
asbasbasbag68
(g84
g70
NtRp792
(dp793
g73
(dp794
sg82
g648
sg75
(lp795
g68
(g89
g70
NtRp796
(dp797
g73
(dp798
g93
g94
ssg82
g792
sg75
(lp799
g429
asbag68
(g89
g70
NtRp800
(dp801
g73
(dp802
g100
g101
ssg82
g792
sg75
(lp803
S':'
asbag68
(g89
g70
NtRp804
(dp805
g73
(dp806
sg82
g792
sg75
(lp807
g68
(g69
g70
NtRp808
(dp809
g73
(dp810
g81
I3
ssg82
g804
sg75
(lp811
S''
asbasbasbasbasbasbasbasbasbasbasbag68
(g84
g70
NtRp812
(dp813
g73
(dp814
sg82
g78
sg75
(lp815
g68
(g89
g70
NtRp816
(dp817
g73
(dp818
g93
g94
ssg82
g812
sg75
(lp819
S'env'
p820
asbag68
(g89
g70
NtRp821
(dp822
g73
(dp823
g100
g101
ssg82
g812
sg75
(lp824
S':'
asbag68
(g89
g70
NtRp825
(dp826
g73
(dp827
sg82
g812
sg75
(lp828
g68
(g69
g70
NtRp829
(dp830
g73
(dp831
g81
I5
ssg82
g825
sg75
(lp832
g68
(g77
g70
NtRp833
(dp834
g73
(dp835
g81
I4
ssg82
Nsg75
(lp836
g68
(g84
g70
NtRp837
(dp838
g73
(dp839
sg82
g833
sg75
(lp840
g68
(g89
g70
NtRp841
(dp842
g73
(dp843
g93
g94
ssg82
g837
sg75
(lp844
S'app_folders'
p845
asbag68
(g89
g70
NtRp846
(dp847
g73
(dp848
g100
g101
ssg82
g837
sg75
(lp849
S':'
asbag68
(g89
g70
NtRp850
(dp851
g73
(dp852
sg82
g837
sg75
(lp853
g68
(g69
g70
NtRp854
(dp855
g73
(dp856
g81
I4
ssg82
g850
sg75
(lp857
S"set(['/home/jose/DESARROLLO/web2py199/applications/streamlog/', '/home/jose/DESARROLLO/web2py199/applications/admin/'])"
p858
asbasbasbag68
(g84
g70
NtRp859
(dp860
g73
(dp861
sg82
g833
sg75
(lp862
g68
(g89
g70
NtRp863
(dp864
g73
(dp865
g93
g94
ssg82
g859
sg75
(lp866
S'applications_parent'
p867
asbag68
(g89
g70
NtRp868
(dp869
g73
(dp870
g100
g101
ssg82
g859
sg75
(lp871
S':'
asbag68
(g89
g70
NtRp872
(dp873
g73
(dp874
sg82
g859
sg75
(lp875
g68
(g69
g70
NtRp876
(dp877
g73
(dp878
g81
I4
ssg82
g872
sg75
(lp879
S'/home/jose/DESARROLLO/web2py199'
p880
asbasbasbag68
(g84
g70
NtRp881
(dp882
g73
(dp883
sg82
g833
sg75
(lp884
g68
(g89
g70
NtRp885
(dp886
g73
(dp887
g93
g94
ssg82
g881
sg75
(lp888
S'cmd_args'
p889
asbag68
(g89
g70
NtRp890
(dp891
g73
(dp892
g100
g101
ssg82
g881
sg75
(lp893
S':'
asbag68
(g89
g70
NtRp894
(dp895
g73
(dp896
sg82
g881
sg75
(lp897
g68
(g69
g70
NtRp898
(dp899
g73
(dp900
g81
I4
ssg82
g894
sg75
(lp901
g68
(g77
g70
NtRp902
(dp903
g73
(dp904
g81
I3
ssg82
Nsg75
(lp905
sbasbasbasbag68
(g84
g70
NtRp906
(dp907
g73
(dp908
sg82
g833
sg75
(lp909
g68
(g89
g70
NtRp910
(dp911
g73
(dp912
g93
g94
ssg82
g906
sg75
(lp913
S'cmd_options'
p914
asbag68
(g89
g70
NtRp915
(dp916
g73
(dp917
g100
g101
ssg82
g906
sg75
(lp918
S':'
asbag68
(g89
g70
NtRp919
(dp920
g73
(dp921
sg82
g906
sg75
(lp922
g68
(g69
g70
NtRp923
(dp924
g73
(dp925
g81
I4
ssg82
g919
sg75
(lp926
S"<Values at 0x1c79f80: {'verbose': False, 'ip': '127.0.0.1', 'shutdown_timeout': 5, 'taskbar': False, 'nocron': False, 'pid_filename': 'httpserver.pid', 'maxthreads': None, 'softcron': False, 'server_name': 'jose', 'bpython': False, 'nogui': False, 'port': 8000, 'extcron': False, 'debuglevel': 30, 'test': None, 'folder': '/home/jose/DESARROLLO/web2py199', 'config': '', 'import_models': False, 'winservice': '', 'shell': None, 'run': '', 'log_filename': 'httpserver.log', 'args': [''], 'ssl_ca_certificate': None, 'scheduler': None, 'profiler_filename': None, 'ssl_private_key': '', 'password': 't', 'request_queue_size': 5, 'ssl_certificate': '', 'cronjob': False, 'plain': False, 'quiet': False, 'interfaces': None, 'minthreads': None, 'timeout': 10, 'numthreads': None, 'nobanner': False}>"
p927
asbasbasbag68
(g84
g70
NtRp928
(dp929
g73
(dp930
sg82
g833
sg75
(lp931
g68
(g89
g70
NtRp932
(dp933
g73
(dp934
g93
g94
ssg82
g928
sg75
(lp935
S'db_sessions'
p936
asbag68
(g89
g70
NtRp937
(dp938
g73
(dp939
g100
g101
ssg82
g928
sg75
(lp940
S':'
asbag68
(g89
g70
NtRp941
(dp942
g73
(dp943
sg82
g928
sg75
(lp944
g68
(g69
g70
NtRp945
(dp946
g73
(dp947
g81
I4
ssg82
g941
sg75
(lp948
S'set([])'
p949
asbasbasbag68
(g84
g70
NtRp950
(dp951
g73
(dp952
sg82
g833
sg75
(lp953
g68
(g89
g70
NtRp954
(dp955
g73
(dp956
g93
g94
ssg82
g950
sg75
(lp957
S'debugging'
p958
asbag68
(g89
g70
NtRp959
(dp960
g73
(dp961
g100
g101
ssg82
g950
sg75
(lp962
S':'
asbag68
(g89
g70
NtRp963
(dp964
g73
(dp965
sg82
g950
sg75
(lp966
g68
(g69
g70
NtRp967
(dp968
g73
(dp969
g81
I4
ssg82
g963
sg75
(lp970
g111
asbasbasbag68
(g84
g70
NtRp971
(dp972
g73
(dp973
sg82
g833
sg75
(lp974
g68
(g89
g70
NtRp975
(dp976
g73
(dp977
g93
g94
ssg82
g971
sg75
(lp978
S'gluon_parent'
p979
asbag68
(g89
g70
NtRp980
(dp981
g73
(dp982
g100
g101
ssg82
g971
sg75
(lp983
S':'
asbag68
(g89
g70
NtRp984
(dp985
g73
(dp986
sg82
g971
sg75
(lp987
g68
(g69
g70
NtRp988
(dp989
g73
(dp990
g81
I4
ssg82
g984
sg75
(lp991
S'/home/jose/DESARROLLO/web2py199'
p992
asbasbasbag68
(g84
g70
NtRp993
(dp994
g73
(dp995
sg82
g833
sg75
(lp996
g68
(g89
g70
NtRp997
(dp998
g73
(dp999
g93
g94
ssg82
g993
sg75
(lp1000
S'http_accept'
p1001
asbag68
(g89
g70
NtRp1002
(dp1003
g73
(dp1004
g100
g101
ssg82
g993
sg75
(lp1005
S':'
asbag68
(g89
g70
NtRp1006
(dp1007
g73
(dp1008
sg82
g993
sg75
(lp1009
g68
(g69
g70
NtRp1010
(dp1011
g73
(dp1012
g81
I4
ssg82
g1006
sg75
(lp1013
S'text/html,application/xhtml+xml,application/xml;q=0.9,*/*;q=0.8'
p1014
asbasbasbag68
(g84
g70
NtRp1015
(dp1016
g73
(dp1017
sg82
g833
sg75
(lp1018
g68
(g89
g70
NtRp1019
(dp1020
g73
(dp1021
g93
g94
ssg82
g1015
sg75
(lp1022
S'http_accept_encoding'
p1023
asbag68
(g89
g70
NtRp1024
(dp1025
g73
(dp1026
g100
g101
ssg82
g1015
sg75
(lp1027
S':'
asbag68
(g89
g70
NtRp1028
(dp1029
g73
(dp1030
sg82
g1015
sg75
(lp1031
g68
(g69
g70
NtRp1032
(dp1033
g73
(dp1034
g81
I4
ssg82
g1028
sg75
(lp1035
S'gzip, deflate'
p1036
asbasbasbag68
(g84
g70
NtRp1037
(dp1038
g73
(dp1039
sg82
g833
sg75
(lp1040
g68
(g89
g70
NtRp1041
(dp1042
g73
(dp1043
g93
g94
ssg82
g1037
sg75
(lp1044
S'http_accept_language'
p1045
asbag68
(g89
g70
NtRp1046
(dp1047
g73
(dp1048
g100
g101
ssg82
g1037
sg75
(lp1049
S':'
asbag68
(g89
g70
NtRp1050
(dp1051
g73
(dp1052
sg82
g1037
sg75
(lp1053
g68
(g69
g70
NtRp1054
(dp1055
g73
(dp1056
g81
I4
ssg82
g1050
sg75
(lp1057
S'en-us,en;q=0.5'
p1058
asbasbasbag68
(g84
g70
NtRp1059
(dp1060
g73
(dp1061
sg82
g833
sg75
(lp1062
g68
(g89
g70
NtRp1063
(dp1064
g73
(dp1065
g93
g94
ssg82
g1059
sg75
(lp1066
S'http_cache_control'
p1067
asbag68
(g89
g70
NtRp1068
(dp1069
g73
(dp1070
g100
g101
ssg82
g1059
sg75
(lp1071
S':'
asbag68
(g89
g70
NtRp1072
(dp1073
g73
(dp1074
sg82
g1059
sg75
(lp1075
g68
(g69
g70
NtRp1076
(dp1077
g73
(dp1078
g81
I4
ssg82
g1072
sg75
(lp1079
S'max-age=0'
p1080
asbasbasbag68
(g84
g70
NtRp1081
(dp1082
g73
(dp1083
sg82
g833
sg75
(lp1084
g68
(g89
g70
NtRp1085
(dp1086
g73
(dp1087
g93
g94
ssg82
g1081
sg75
(lp1088
S'http_connection'
p1089
asbag68
(g89
g70
NtRp1090
(dp1091
g73
(dp1092
g100
g101
ssg82
g1081
sg75
(lp1093
S':'
asbag68
(g89
g70
NtRp1094
(dp1095
g73
(dp1096
sg82
g1081
sg75
(lp1097
g68
(g69
g70
NtRp1098
(dp1099
g73
(dp1100
g81
I4
ssg82
g1094
sg75
(lp1101
S'keep-alive'
p1102
asbasbasbag68
(g84
g70
NtRp1103
(dp1104
g73
(dp1105
sg82
g833
sg75
(lp1106
g68
(g89
g70
NtRp1107
(dp1108
g73
(dp1109
g93
g94
ssg82
g1103
sg75
(lp1110
S'http_cookie'
p1111
asbag68
(g89
g70
NtRp1112
(dp1113
g73
(dp1114
g100
g101
ssg82
g1103
sg75
(lp1115
S':'
asbag68
(g89
g70
NtRp1116
(dp1117
g73
(dp1118
sg82
g1103
sg75
(lp1119
g68
(g69
g70
NtRp1120
(dp1121
g73
(dp1122
g81
I4
ssg82
g1116
sg75
(lp1123
S'session_id_streamlog=127.0.0.1-610b0c7d-3f6f-4500-a76a-b095fb30f7fd; session_id_admin=127.0.0.1-8f69464e-4a83-4875-ad25-00cf5c7e8e11; session_id_test3=127.0.0.1-380e7b29-b635-4690-b9ca-812870d6a061'
p1124
asbasbasbag68
(g84
g70
NtRp1125
(dp1126
g73
(dp1127
sg82
g833
sg75
(lp1128
g68
(g89
g70
NtRp1129
(dp1130
g73
(dp1131
g93
g94
ssg82
g1125
sg75
(lp1132
S'http_host'
p1133
asbag68
(g89
g70
NtRp1134
(dp1135
g73
(dp1136
g100
g101
ssg82
g1125
sg75
(lp1137
S':'
asbag68
(g89
g70
NtRp1138
(dp1139
g73
(dp1140
sg82
g1125
sg75
(lp1141
g68
(g69
g70
NtRp1142
(dp1143
g73
(dp1144
g81
I4
ssg82
g1138
sg75
(lp1145
S'localhost:8000'
p1146
asbasbasbag68
(g84
g70
NtRp1147
(dp1148
g73
(dp1149
sg82
g833
sg75
(lp1150
g68
(g89
g70
NtRp1151
(dp1152
g73
(dp1153
g93
g94
ssg82
g1147
sg75
(lp1154
S'http_user_agent'
p1155
asbag68
(g89
g70
NtRp1156
(dp1157
g73
(dp1158
g100
g101
ssg82
g1147
sg75
(lp1159
S':'
asbag68
(g89
g70
NtRp1160
(dp1161
g73
(dp1162
sg82
g1147
sg75
(lp1163
g68
(g69
g70
NtRp1164
(dp1165
g73
(dp1166
g81
I4
ssg82
g1160
sg75
(lp1167
S'Mozilla/5.0 (X11; Ubuntu; Linux x86_64; rv:12.0) Gecko/20100101 Firefox/12.0'
p1168
asbasbasbag68
(g84
g70
NtRp1169
(dp1170
g73
(dp1171
sg82
g833
sg75
(lp1172
g68
(g89
g70
NtRp1173
(dp1174
g73
(dp1175
g93
g94
ssg82
g1169
sg75
(lp1176
S'is_jython'
p1177
asbag68
(g89
g70
NtRp1178
(dp1179
g73
(dp1180
g100
g101
ssg82
g1169
sg75
(lp1181
S':'
asbag68
(g89
g70
NtRp1182
(dp1183
g73
(dp1184
sg82
g1169
sg75
(lp1185
g68
(g69
g70
NtRp1186
(dp1187
g73
(dp1188
g81
I4
ssg82
g1182
sg75
(lp1189
g111
asbasbasbag68
(g84
g70
NtRp1190
(dp1191
g73
(dp1192
sg82
g833
sg75
(lp1193
g68
(g89
g70
NtRp1194
(dp1195
g73
(dp1196
g93
g94
ssg82
g1190
sg75
(lp1197
S'path_info'
p1198
asbag68
(g89
g70
NtRp1199
(dp1200
g73
(dp1201
g100
g101
ssg82
g1190
sg75
(lp1202
S':'
asbag68
(g89
g70
NtRp1203
(dp1204
g73
(dp1205
sg82
g1190
sg75
(lp1206
g68
(g69
g70
NtRp1207
(dp1208
g73
(dp1209
g81
I4
ssg82
g1203
sg75
(lp1210
S'/streamlog/default/getConnectionData/'
p1211
asbasbasbag68
(g84
g70
NtRp1212
(dp1213
g73
(dp1214
sg82
g833
sg75
(lp1215
g68
(g89
g70
NtRp1216
(dp1217
g73
(dp1218
g93
g94
ssg82
g1212
sg75
(lp1219
S'query_string'
p1220
asbag68
(g89
g70
NtRp1221
(dp1222
g73
(dp1223
g100
g101
ssg82
g1212
sg75
(lp1224
S':'
asbag68
(g89
g70
NtRp1225
(dp1226
g73
(dp1227
sg82
g1212
sg75
(lp1228
g68
(g69
g70
NtRp1229
(dp1230
g73
(dp1231
g81
I4
ssg82
g1225
sg75
(lp1232
S''
asbasbasbag68
(g84
g70
NtRp1233
(dp1234
g73
(dp1235
sg82
g833
sg75
(lp1236
g68
(g89
g70
NtRp1237
(dp1238
g73
(dp1239
g93
g94
ssg82
g1233
sg75
(lp1240
S'remote_addr'
p1241
asbag68
(g89
g70
NtRp1242
(dp1243
g73
(dp1244
g100
g101
ssg82
g1233
sg75
(lp1245
S':'
asbag68
(g89
g70
NtRp1246
(dp1247
g73
(dp1248
sg82
g1233
sg75
(lp1249
g68
(g69
g70
NtRp1250
(dp1251
g73
(dp1252
g81
I4
ssg82
g1246
sg75
(lp1253
g201
asbasbasbag68
(g84
g70
NtRp1254
(dp1255
g73
(dp1256
sg82
g833
sg75
(lp1257
g68
(g89
g70
NtRp1258
(dp1259
g73
(dp1260
g93
g94
ssg82
g1254
sg75
(lp1261
S'remote_port'
p1262
asbag68
(g89
g70
NtRp1263
(dp1264
g73
(dp1265
g100
g101
ssg82
g1254
sg75
(lp1266
S':'
asbag68
(g89
g70
NtRp1267
(dp1268
g73
(dp1269
sg82
g1254
sg75
(lp1270
g68
(g69
g70
NtRp1271
(dp1272
g73
(dp1273
g81
I4
ssg82
g1267
sg75
(lp1274
S'35551'
p1275
asbasbasbag68
(g84
g70
NtRp1276
(dp1277
g73
(dp1278
sg82
g833
sg75
(lp1279
g68
(g89
g70
NtRp1280
(dp1281
g73
(dp1282
g93
g94
ssg82
g1276
sg75
(lp1283
S'request_method'
p1284
asbag68
(g89
g70
NtRp1285
(dp1286
g73
(dp1287
g100
g101
ssg82
g1276
sg75
(lp1288
S':'
asbag68
(g89
g70
NtRp1289
(dp1290
g73
(dp1291
sg82
g1276
sg75
(lp1292
g68
(g69
g70
NtRp1293
(dp1294
g73
(dp1295
g81
I4
ssg82
g1289
sg75
(lp1296
S'GET'
p1297
asbasbasbag68
(g84
g70
NtRp1298
(dp1299
g73
(dp1300
sg82
g833
sg75
(lp1301
g68
(g89
g70
NtRp1302
(dp1303
g73
(dp1304
g93
g94
ssg82
g1298
sg75
(lp1305
S'script_name'
p1306
asbag68
(g89
g70
NtRp1307
(dp1308
g73
(dp1309
g100
g101
ssg82
g1298
sg75
(lp1310
S':'
asbag68
(g89
g70
NtRp1311
(dp1312
g73
(dp1313
sg82
g1298
sg75
(lp1314
g68
(g69
g70
NtRp1315
(dp1316
g73
(dp1317
g81
I4
ssg82
g1311
sg75
(lp1318
S''
asbasbasbag68
(g84
g70
NtRp1319
(dp1320
g73
(dp1321
sg82
g833
sg75
(lp1322
g68
(g89
g70
NtRp1323
(dp1324
g73
(dp1325
g93
g94
ssg82
g1319
sg75
(lp1326
S'server_name'
p1327
asbag68
(g89
g70
NtRp1328
(dp1329
g73
(dp1330
g100
g101
ssg82
g1319
sg75
(lp1331
S':'
asbag68
(g89
g70
NtRp1332
(dp1333
g73
(dp1334
sg82
g1319
sg75
(lp1335
g68
(g69
g70
NtRp1336
(dp1337
g73
(dp1338
g81
I4
ssg82
g1332
sg75
(lp1339
S'jose'
p1340
asbasbasbag68
(g84
g70
NtRp1341
(dp1342
g73
(dp1343
sg82
g833
sg75
(lp1344
g68
(g89
g70
NtRp1345
(dp1346
g73
(dp1347
g93
g94
ssg82
g1341
sg75
(lp1348
S'server_port'
p1349
asbag68
(g89
g70
NtRp1350
(dp1351
g73
(dp1352
g100
g101
ssg82
g1341
sg75
(lp1353
S':'
asbag68
(g89
g70
NtRp1354
(dp1355
g73
(dp1356
sg82
g1341
sg75
(lp1357
g68
(g69
g70
NtRp1358
(dp1359
g73
(dp1360
g81
I4
ssg82
g1354
sg75
(lp1361
S'8000'
p1362
asbasbasbag68
(g84
g70
NtRp1363
(dp1364
g73
(dp1365
sg82
g833
sg75
(lp1366
g68
(g89
g70
NtRp1367
(dp1368
g73
(dp1369
g93
g94
ssg82
g1363
sg75
(lp1370
S'server_protocol'
p1371
asbag68
(g89
g70
NtRp1372
(dp1373
g73
(dp1374
g100
g101
ssg82
g1363
sg75
(lp1375
S':'
asbag68
(g89
g70
NtRp1376
(dp1377
g73
(dp1378
sg82
g1363
sg75
(lp1379
g68
(g69
g70
NtRp1380
(dp1381
g73
(dp1382
g81
I4
ssg82
g1376
sg75
(lp1383
S'HTTP/1.1'
p1384
asbasbasbag68
(g84
g70
NtRp1385
(dp1386
g73
(dp1387
sg82
g833
sg75
(lp1388
g68
(g89
g70
NtRp1389
(dp1390
g73
(dp1391
g93
g94
ssg82
g1385
sg75
(lp1392
S'server_software'
p1393
asbag68
(g89
g70
NtRp1394
(dp1395
g73
(dp1396
g100
g101
ssg82
g1385
sg75
(lp1397
S':'
asbag68
(g89
g70
NtRp1398
(dp1399
g73
(dp1400
sg82
g1385
sg75
(lp1401
g68
(g69
g70
NtRp1402
(dp1403
g73
(dp1404
g81
I4
ssg82
g1398
sg75
(lp1405
S'Rocket 1.2.4'
p1406
asbasbasbag68
(g84
g70
NtRp1407
(dp1408
g73
(dp1409
sg82
g833
sg75
(lp1410
g68
(g89
g70
NtRp1411
(dp1412
g73
(dp1413
g93
g94
ssg82
g1407
sg75
(lp1414
S'web2py_crontype'
p1415
asbag68
(g89
g70
NtRp1416
(dp1417
g73
(dp1418
g100
g101
ssg82
g1407
sg75
(lp1419
S':'
asbag68
(g89
g70
NtRp1420
(dp1421
g73
(dp1422
sg82
g1407
sg75
(lp1423
g68
(g69
g70
NtRp1424
(dp1425
g73
(dp1426
g81
I4
ssg82
g1420
sg75
(lp1427
S'hard'
p1428
asbasbasbag68
(g84
g70
NtRp1429
(dp1430
g73
(dp1431
sg82
g833
sg75
(lp1432
g68
(g89
g70
NtRp1433
(dp1434
g73
(dp1435
g93
g94
ssg82
g1429
sg75
(lp1436
S'web2py_path'
p1437
asbag68
(g89
g70
NtRp1438
(dp1439
g73
(dp1440
g100
g101
ssg82
g1429
sg75
(lp1441
S':'
asbag68
(g89
g70
NtRp1442
(dp1443
g73
(dp1444
sg82
g1429
sg75
(lp1445
g68
(g69
g70
NtRp1446
(dp1447
g73
(dp1448
g81
I4
ssg82
g1442
sg75
(lp1449
g880
asbasbasbag68
(g84
g70
NtRp1450
(dp1451
g73
(dp1452
sg82
g833
sg75
(lp1453
g68
(g89
g70
NtRp1454
(dp1455
g73
(dp1456
g93
g94
ssg82
g1450
sg75
(lp1457
S'web2py_version'
p1458
asbag68
(g89
g70
NtRp1459
(dp1460
g73
(dp1461
g100
g101
ssg82
g1450
sg75
(lp1462
S':'
asbag68
(g89
g70
NtRp1463
(dp1464
g73
(dp1465
sg82
g1450
sg75
(lp1466
g68
(g69
g70
NtRp1467
(dp1468
g73
(dp1469
g81
I4
ssg82
g1463
sg75
(lp1470
g68
(g77
g70
NtRp1471
(dp1472
g73
(dp1473
g81
I3
ssg82
Nsg75
(lp1474
g68
(g84
g70
NtRp1475
(dp1476
g73
(dp1477
sg82
g1471
sg75
(lp1478
g68
(g89
g70
NtRp1479
(dp1480
g73
(dp1481
sg82
g1475
sg75
(lp1482
g68
(g69
g70
NtRp1483
(dp1484
g73
(dp1485
g81
I3
ssg82
g1479
sg75
(lp1486
S'1'
asbasbasbag68
(g84
g70
NtRp1487
(dp1488
g73
(dp1489
sg82
g1471
sg75
(lp1490
g68
(g89
g70
NtRp1491
(dp1492
g73
(dp1493
sg82
g1487
sg75
(lp1494
g68
(g69
g70
NtRp1495
(dp1496
g73
(dp1497
g81
I3
ssg82
g1491
sg75
(lp1498
S'99'
p1499
asbasbasbag68
(g84
g70
NtRp1500
(dp1501
g73
(dp1502
sg82
g1471
sg75
(lp1503
g68
(g89
g70
NtRp1504
(dp1505
g73
(dp1506
sg82
g1500
sg75
(lp1507
g68
(g69
g70
NtRp1508
(dp1509
g73
(dp1510
g81
I3
ssg82
g1504
sg75
(lp1511
S'2'
asbasbasbag68
(g84
g70
NtRp1512
(dp1513
g73
(dp1514
sg82
g1471
sg75
(lp1515
g68
(g89
g70
NtRp1516
(dp1517
g73
(dp1518
sg82
g1512
sg75
(lp1519
g68
(g69
g70
NtRp1520
(dp1521
g73
(dp1522
g81
I3
ssg82
g1516
sg75
(lp1523
S'datetime.datetime(2011, 9, 26, 6, 55, 33)'
p1524
asbasbasbag68
(g84
g70
NtRp1525
(dp1526
g73
(dp1527
sg82
g1471
sg75
(lp1528
g68
(g89
g70
NtRp1529
(dp1530
g73
(dp1531
sg82
g1525
sg75
(lp1532
g68
(g69
g70
NtRp1533
(dp1534
g73
(dp1535
g81
I3
ssg82
g1529
sg75
(lp1536
S'stable'
p1537
asbasbasbasbasbasbasbag68
(g84
g70
NtRp1538
(dp1539
g73
(dp1540
sg82
g833
sg75
(lp1541
g68
(g89
g70
NtRp1542
(dp1543
g73
(dp1544
g93
g94
ssg82
g1538
sg75
(lp1545
S'wsgi_errors'
p1546
asbag68
(g89
g70
NtRp1547
(dp1548
g73
(dp1549
g100
g101
ssg82
g1538
sg75
(lp1550
S':'
asbag68
(g89
g70
NtRp1551
(dp1552
g73
(dp1553
sg82
g1538
sg75
(lp1554
g68
(g69
g70
NtRp1555
(dp1556
g73
(dp1557
g81
I4
ssg82
g1551
sg75
(lp1558
S"<open file '<stderr>', mode 'w' at 0x7f84db3ff270>"
p1559
asbasbasbag68
(g84
g70
NtRp1560
(dp1561
g73
(dp1562
sg82
g833
sg75
(lp1563
g68
(g89
g70
NtRp1564
(dp1565
g73
(dp1566
g93
g94
ssg82
g1560
sg75
(lp1567
S'wsgi_file_wrapper'
p1568
asbag68
(g89
g70
NtRp1569
(dp1570
g73
(dp1571
g100
g101
ssg82
g1560
sg75
(lp1572
S':'
asbag68
(g89
g70
NtRp1573
(dp1574
g73
(dp1575
sg82
g1560
sg75
(lp1576
g68
(g69
g70
NtRp1577
(dp1578
g73
(dp1579
g81
I4
ssg82
g1573
sg75
(lp1580
S'<class wsgiref.util.FileWrapper at 0x1b96d50>'
p1581
asbasbasbag68
(g84
g70
NtRp1582
(dp1583
g73
(dp1584
sg82
g833
sg75
(lp1585
g68
(g89
g70
NtRp1586
(dp1587
g73
(dp1588
g93
g94
ssg82
g1582
sg75
(lp1589
S'wsgi_input'
p1590
asbag68
(g89
g70
NtRp1591
(dp1592
g73
(dp1593
g100
g101
ssg82
g1582
sg75
(lp1594
S':'
asbag68
(g89
g70
NtRp1595
(dp1596
g73
(dp1597
sg82
g1582
sg75
(lp1598
g68
(g69
g70
NtRp1599
(dp1600
g73
(dp1601
g81
I4
ssg82
g1595
sg75
(lp1602
S'<socket._fileobject object at 0x3f160d0>'
p1603
asbasbasbag68
(g84
g70
NtRp1604
(dp1605
g73
(dp1606
sg82
g833
sg75
(lp1607
g68
(g89
g70
NtRp1608
(dp1609
g73
(dp1610
g93
g94
ssg82
g1604
sg75
(lp1611
S'wsgi_multiprocess'
p1612
asbag68
(g89
g70
NtRp1613
(dp1614
g73
(dp1615
g100
g101
ssg82
g1604
sg75
(lp1616
S':'
asbag68
(g89
g70
NtRp1617
(dp1618
g73
(dp1619
sg82
g1604
sg75
(lp1620
g68
(g69
g70
NtRp1621
(dp1622
g73
(dp1623
g81
I4
ssg82
g1617
sg75
(lp1624
g111
asbasbasbag68
(g84
g70
NtRp1625
(dp1626
g73
(dp1627
sg82
g833
sg75
(lp1628
g68
(g89
g70
NtRp1629
(dp1630
g73
(dp1631
g93
g94
ssg82
g1625
sg75
(lp1632
S'wsgi_multithread'
p1633
asbag68
(g89
g70
NtRp1634
(dp1635
g73
(dp1636
g100
g101
ssg82
g1625
sg75
(lp1637
S':'
asbag68
(g89
g70
NtRp1638
(dp1639
g73
(dp1640
sg82
g1625
sg75
(lp1641
g68
(g69
g70
NtRp1642
(dp1643
g73
(dp1644
g81
I4
ssg82
g1638
sg75
(lp1645
S'True'
p1646
asbasbasbag68
(g84
g70
NtRp1647
(dp1648
g73
(dp1649
sg82
g833
sg75
(lp1650
g68
(g89
g70
NtRp1651
(dp1652
g73
(dp1653
g93
g94
ssg82
g1647
sg75
(lp1654
S'wsgi_run_once'
p1655
asbag68
(g89
g70
NtRp1656
(dp1657
g73
(dp1658
g100
g101
ssg82
g1647
sg75
(lp1659
S':'
asbag68
(g89
g70
NtRp1660
(dp1661
g73
(dp1662
sg82
g1647
sg75
(lp1663
g68
(g69
g70
NtRp1664
(dp1665
g73
(dp1666
g81
I4
ssg82
g1660
sg75
(lp1667
g111
asbasbasbag68
(g84
g70
NtRp1668
(dp1669
g73
(dp1670
sg82
g833
sg75
(lp1671
g68
(g89
g70
NtRp1672
(dp1673
g73
(dp1674
g93
g94
ssg82
g1668
sg75
(lp1675
S'wsgi_url_scheme'
p1676
asbag68
(g89
g70
NtRp1677
(dp1678
g73
(dp1679
g100
g101
ssg82
g1668
sg75
(lp1680
S':'
asbag68
(g89
g70
NtRp1681
(dp1682
g73
(dp1683
sg82
g1668
sg75
(lp1684
g68
(g69
g70
NtRp1685
(dp1686
g73
(dp1687
g81
I4
ssg82
g1681
sg75
(lp1688
S'http'
p1689
asbasbasbag68
(g84
g70
NtRp1690
(dp1691
g73
(dp1692
sg82
g833
sg75
(lp1693
g68
(g89
g70
NtRp1694
(dp1695
g73
(dp1696
g93
g94
ssg82
g1690
sg75
(lp1697
S'wsgi_version'
p1698
asbag68
(g89
g70
NtRp1699
(dp1700
g73
(dp1701
g100
g101
ssg82
g1690
sg75
(lp1702
S':'
asbag68
(g89
g70
NtRp1703
(dp1704
g73
(dp1705
sg82
g1690
sg75
(lp1706
g68
(g69
g70
NtRp1707
(dp1708
g73
(dp1709
g81
I4
ssg82
g1703
sg75
(lp1710
g68
(g77
g70
NtRp1711
(dp1712
g73
(dp1713
g81
I3
ssg82
Nsg75
(lp1714
g68
(g84
g70
NtRp1715
(dp1716
g73
(dp1717
sg82
g1711
sg75
(lp1718
g68
(g89
g70
NtRp1719
(dp1720
g73
(dp1721
sg82
g1715
sg75
(lp1722
g68
(g69
g70
NtRp1723
(dp1724
g73
(dp1725
g81
I3
ssg82
g1719
sg75
(lp1726
S'1'
asbasbasbag68
(g84
g70
NtRp1727
(dp1728
g73
(dp1729
sg82
g1711
sg75
(lp1730
g68
(g89
g70
NtRp1731
(dp1732
g73
(dp1733
sg82
g1727
sg75
(lp1734
g68
(g69
g70
NtRp1735
(dp1736
g73
(dp1737
g81
I3
ssg82
g1731
sg75
(lp1738
S'0'
asbasbasbasbasbasbasbasbasbasbasbag68
(g84
g70
NtRp1739
(dp1740
g73
(dp1741
sg82
g78
sg75
(lp1742
g68
(g89
g70
NtRp1743
(dp1744
g73
(dp1745
g93
g94
ssg82
g1739
sg75
(lp1746
S'extension'
p1747
asbag68
(g89
g70
NtRp1748
(dp1749
g73
(dp1750
g100
g101
ssg82
g1739
sg75
(lp1751
S':'
asbag68
(g89
g70
NtRp1752
(dp1753
g73
(dp1754
sg82
g1739
sg75
(lp1755
g68
(g69
g70
NtRp1756
(dp1757
g73
(dp1758
g81
I5
ssg82
g1752
sg75
(lp1759
S'html'
p1760
asbasbasbag68
(g84
g70
NtRp1761
(dp1762
g73
(dp1763
sg82
g78
sg75
(lp1764
g68
(g89
g70
NtRp1765
(dp1766
g73
(dp1767
g93
g94
ssg82
g1761
sg75
(lp1768
S'folder'
p1769
asbag68
(g89
g70
NtRp1770
(dp1771
g73
(dp1772
g100
g101
ssg82
g1761
sg75
(lp1773
S':'
asbag68
(g89
g70
NtRp1774
(dp1775
g73
(dp1776
sg82
g1761
sg75
(lp1777
g68
(g69
g70
NtRp1778
(dp1779
g73
(dp1780
g81
I5
ssg82
g1774
sg75
(lp1781
S'/home/jose/DESARROLLO/web2py199/applications/streamlog/'
p1782
asbasbasbag68
(g84
g70
NtRp1783
(dp1784
g73
(dp1785
sg82
g78
sg75
(lp1786
g68
(g89
g70
NtRp1787
(dp1788
g73
(dp1789
g93
g94
ssg82
g1783
sg75
(lp1790
S'function'
p1791
asbag68
(g89
g70
NtRp1792
(dp1793
g73
(dp1794
g100
g101
ssg82
g1783
sg75
(lp1795
S':'
asbag68
(g89
g70
NtRp1796
(dp1797
g73
(dp1798
sg82
g1783
sg75
(lp1799
g68
(g69
g70
NtRp1800
(dp1801
g73
(dp1802
g81
I5
ssg82
g1796
sg75
(lp1803
S'getConnectionData'
p1804
asbasbasbag68
(g84
g70
NtRp1805
(dp1806
g73
(dp1807
sg82
g78
sg75
(lp1808
g68
(g89
g70
NtRp1809
(dp1810
g73
(dp1811
g93
g94
ssg82
g1805
sg75
(lp1812
S'get_vars'
p1813
asbag68
(g89
g70
NtRp1814
(dp1815
g73
(dp1816
g100
g101
ssg82
g1805
sg75
(lp1817
S':'
asbag68
(g89
g70
NtRp1818
(dp1819
g73
(dp1820
sg82
g1805
sg75
(lp1821
g68
(g69
g70
NtRp1822
(dp1823
g73
(dp1824
g81
I5
ssg82
g1818
sg75
(lp1825
g68
(g77
g70
NtRp1826
(dp1827
g73
(dp1828
g81
I4
ssg82
Nsg75
(lp1829
sbasbasbasbag68
(g84
g70
NtRp1830
(dp1831
g73
(dp1832
sg82
g78
sg75
(lp1833
g68
(g89
g70
NtRp1834
(dp1835
g73
(dp1836
g93
g94
ssg82
g1830
sg75
(lp1837
S'global_settings'
p1838
asbag68
(g89
g70
NtRp1839
(dp1840
g73
(dp1841
g100
g101
ssg82
g1830
sg75
(lp1842
S':'
asbag68
(g89
g70
NtRp1843
(dp1844
g73
(dp1845
sg82
g1830
sg75
(lp1846
g68
(g69
g70
NtRp1847
(dp1848
g73
(dp1849
g81
I5
ssg82
g1843
sg75
(lp1850
g68
(g77
g70
NtRp1851
(dp1852
g73
(dp1853
g81
I4
ssg82
Nsg75
(lp1854
g68
(g84
g70
NtRp1855
(dp1856
g73
(dp1857
sg82
g1851
sg75
(lp1858
g68
(g89
g70
NtRp1859
(dp1860
g73
(dp1861
g93
g94
ssg82
g1855
sg75
(lp1862
g845
asbag68
(g89
g70
NtRp1863
(dp1864
g73
(dp1865
g100
g101
ssg82
g1855
sg75
(lp1866
S':'
asbag68
(g89
g70
NtRp1867
(dp1868
g73
(dp1869
sg82
g1855
sg75
(lp1870
g68
(g69
g70
NtRp1871
(dp1872
g73
(dp1873
g81
I4
ssg82
g1867
sg75
(lp1874
S"set(['/home/jose/DESARROLLO/web2py199/applications/streamlog/', '/home/jose/DESARROLLO/web2py199/applications/admin/'])"
p1875
asbasbasbag68
(g84
g70
NtRp1876
(dp1877
g73
(dp1878
sg82
g1851
sg75
(lp1879
g68
(g89
g70
NtRp1880
(dp1881
g73
(dp1882
g93
g94
ssg82
g1876
sg75
(lp1883
g867
asbag68
(g89
g70
NtRp1884
(dp1885
g73
(dp1886
g100
g101
ssg82
g1876
sg75
(lp1887
S':'
asbag68
(g89
g70
NtRp1888
(dp1889
g73
(dp1890
sg82
g1876
sg75
(lp1891
g68
(g69
g70
NtRp1892
(dp1893
g73
(dp1894
g81
I4
ssg82
g1888
sg75
(lp1895
g880
asbasbasbag68
(g84
g70
NtRp1896
(dp1897
g73
(dp1898
sg82
g1851
sg75
(lp1899
g68
(g89
g70
NtRp1900
(dp1901
g73
(dp1902
g93
g94
ssg82
g1896
sg75
(lp1903
g889
asbag68
(g89
g70
NtRp1904
(dp1905
g73
(dp1906
g100
g101
ssg82
g1896
sg75
(lp1907
S':'
asbag68
(g89
g70
NtRp1908
(dp1909
g73
(dp1910
sg82
g1896
sg75
(lp1911
g68
(g69
g70
NtRp1912
(dp1913
g73
(dp1914
g81
I4
ssg82
g1908
sg75
(lp1915
g68
(g77
g70
NtRp1916
(dp1917
g73
(dp1918
g81
I3
ssg82
Nsg75
(lp1919
sbasbasbasbag68
(g84
g70
NtRp1920
(dp1921
g73
(dp1922
sg82
g1851
sg75
(lp1923
g68
(g89
g70
NtRp1924
(dp1925
g73
(dp1926
g93
g94
ssg82
g1920
sg75
(lp1927
g914
asbag68
(g89
g70
NtRp1928
(dp1929
g73
(dp1930
g100
g101
ssg82
g1920
sg75
(lp1931
S':'
asbag68
(g89
g70
NtRp1932
(dp1933
g73
(dp1934
sg82
g1920
sg75
(lp1935
g68
(g69
g70
NtRp1936
(dp1937
g73
(dp1938
g81
I4
ssg82
g1932
sg75
(lp1939
S"<Values at 0x1c79f80: {'verbose': False, 'ip': '127.0.0.1', 'shutdown_timeout': 5, 'taskbar': False, 'nocron': False, 'pid_filename': 'httpserver.pid', 'maxthreads': None, 'softcron': False, 'server_name': 'jose', 'bpython': False, 'nogui': False, 'port': 8000, 'extcron': False, 'debuglevel': 30, 'test': None, 'folder': '/home/jose/DESARROLLO/web2py199', 'config': '', 'import_models': False, 'winservice': '', 'shell': None, 'run': '', 'log_filename': 'httpserver.log', 'args': [''], 'ssl_ca_certificate': None, 'scheduler': None, 'profiler_filename': None, 'ssl_private_key': '', 'password': 't', 'request_queue_size': 5, 'ssl_certificate': '', 'cronjob': False, 'plain': False, 'quiet': False, 'interfaces': None, 'minthreads': None, 'timeout': 10, 'numthreads': None, 'nobanner': False}>"
p1940
asbasbasbag68
(g84
g70
NtRp1941
(dp1942
g73
(dp1943
sg82
g1851
sg75
(lp1944
g68
(g89
g70
NtRp1945
(dp1946
g73
(dp1947
g93
g94
ssg82
g1941
sg75
(lp1948
g936
asbag68
(g89
g70
NtRp1949
(dp1950
g73
(dp1951
g100
g101
ssg82
g1941
sg75
(lp1952
S':'
asbag68
(g89
g70
NtRp1953
(dp1954
g73
(dp1955
sg82
g1941
sg75
(lp1956
g68
(g69
g70
NtRp1957
(dp1958
g73
(dp1959
g81
I4
ssg82
g1953
sg75
(lp1960
S'set([])'
p1961
asbasbasbag68
(g84
g70
NtRp1962
(dp1963
g73
(dp1964
sg82
g1851
sg75
(lp1965
g68
(g89
g70
NtRp1966
(dp1967
g73
(dp1968
g93
g94
ssg82
g1962
sg75
(lp1969
g958
asbag68
(g89
g70
NtRp1970
(dp1971
g73
(dp1972
g100
g101
ssg82
g1962
sg75
(lp1973
S':'
asbag68
(g89
g70
NtRp1974
(dp1975
g73
(dp1976
sg82
g1962
sg75
(lp1977
g68
(g69
g70
NtRp1978
(dp1979
g73
(dp1980
g81
I4
ssg82
g1974
sg75
(lp1981
g111
asbasbasbag68
(g84
g70
NtRp1982
(dp1983
g73
(dp1984
sg82
g1851
sg75
(lp1985
g68
(g89
g70
NtRp1986
(dp1987
g73
(dp1988
g93
g94
ssg82
g1982
sg75
(lp1989
g979
asbag68
(g89
g70
NtRp1990
(dp1991
g73
(dp1992
g100
g101
ssg82
g1982
sg75
(lp1993
S':'
asbag68
(g89
g70
NtRp1994
(dp1995
g73
(dp1996
sg82
g1982
sg75
(lp1997
g68
(g69
g70
NtRp1998
(dp1999
g73
(dp2000
g81
I4
ssg82
g1994
sg75
(lp2001
g992
asbasbasbag68
(g84
g70
NtRp2002
(dp2003
g73
(dp2004
sg82
g1851
sg75
(lp2005
g68
(g89
g70
NtRp2006
(dp2007
g73
(dp2008
g93
g94
ssg82
g2002
sg75
(lp2009
g1177
asbag68
(g89
g70
NtRp2010
(dp2011
g73
(dp2012
g100
g101
ssg82
g2002
sg75
(lp2013
S':'
asbag68
(g89
g70
NtRp2014
(dp2015
g73
(dp2016
sg82
g2002
sg75
(lp2017
g68
(g69
g70
NtRp2018
(dp2019
g73
(dp2020
g81
I4
ssg82
g2014
sg75
(lp2021
g111
asbasbasbag68
(g84
g70
NtRp2022
(dp2023
g73
(dp2024
sg82
g1851
sg75
(lp2025
g68
(g89
g70
NtRp2026
(dp2027
g73
(dp2028
g93
g94
ssg82
g2022
sg75
(lp2029
g1415
asbag68
(g89
g70
NtRp2030
(dp2031
g73
(dp2032
g100
g101
ssg82
g2022
sg75
(lp2033
S':'
asbag68
(g89
g70
NtRp2034
(dp2035
g73
(dp2036
sg82
g2022
sg75
(lp2037
g68
(g69
g70
NtRp2038
(dp2039
g73
(dp2040
g81
I4
ssg82
g2034
sg75
(lp2041
g1428
asbasbasbag68
(g84
g70
NtRp2042
(dp2043
g73
(dp2044
sg82
g1851
sg75
(lp2045
g68
(g89
g70
NtRp2046
(dp2047
g73
(dp2048
g93
g94
ssg82
g2042
sg75
(lp2049
g1458
asbag68
(g89
g70
NtRp2050
(dp2051
g73
(dp2052
g100
g101
ssg82
g2042
sg75
(lp2053
S':'
asbag68
(g89
g70
NtRp2054
(dp2055
g73
(dp2056
sg82
g2042
sg75
(lp2057
g68
(g69
g70
NtRp2058
(dp2059
g73
(dp2060
g81
I4
ssg82
g2054
sg75
(lp2061
g68
(g77
g70
NtRp2062
(dp2063
g73
(dp2064
g81
I3
ssg82
Nsg75
(lp2065
g68
(g84
g70
NtRp2066
(dp2067
g73
(dp2068
sg82
g2062
sg75
(lp2069
g68
(g89
g70
NtRp2070
(dp2071
g73
(dp2072
sg82
g2066
sg75
(lp2073
g68
(g69
g70
NtRp2074
(dp2075
g73
(dp2076
g81
I3
ssg82
g2070
sg75
(lp2077
S'1'
asbasbasbag68
(g84
g70
NtRp2078
(dp2079
g73
(dp2080
sg82
g2062
sg75
(lp2081
g68
(g89
g70
NtRp2082
(dp2083
g73
(dp2084
sg82
g2078
sg75
(lp2085
g68
(g69
g70
NtRp2086
(dp2087
g73
(dp2088
g81
I3
ssg82
g2082
sg75
(lp2089
S'99'
p2090
asbasbasbag68
(g84
g70
NtRp2091
(dp2092
g73
(dp2093
sg82
g2062
sg75
(lp2094
g68
(g89
g70
NtRp2095
(dp2096
g73
(dp2097
sg82
g2091
sg75
(lp2098
g68
(g69
g70
NtRp2099
(dp2100
g73
(dp2101
g81
I3
ssg82
g2095
sg75
(lp2102
S'2'
asbasbasbag68
(g84
g70
NtRp2103
(dp2104
g73
(dp2105
sg82
g2062
sg75
(lp2106
g68
(g89
g70
NtRp2107
(dp2108
g73
(dp2109
sg82
g2103
sg75
(lp2110
g68
(g69
g70
NtRp2111
(dp2112
g73
(dp2113
g81
I3
ssg82
g2107
sg75
(lp2114
S'datetime.datetime(2011, 9, 26, 6, 55, 33)'
p2115
asbasbasbag68
(g84
g70
NtRp2116
(dp2117
g73
(dp2118
sg82
g2062
sg75
(lp2119
g68
(g89
g70
NtRp2120
(dp2121
g73
(dp2122
sg82
g2116
sg75
(lp2123
g68
(g69
g70
NtRp2124
(dp2125
g73
(dp2126
g81
I3
ssg82
g2120
sg75
(lp2127
g1537
asbasbasbasbasbasbasbasbasbasbasbag68
(g84
g70
NtRp2128
(dp2129
g73
(dp2130
sg82
g78
sg75
(lp2131
g68
(g89
g70
NtRp2132
(dp2133
g73
(dp2134
g93
g94
ssg82
g2128
sg75
(lp2135
S'is_https'
p2136
asbag68
(g89
g70
NtRp2137
(dp2138
g73
(dp2139
g100
g101
ssg82
g2128
sg75
(lp2140
S':'
asbag68
(g89
g70
NtRp2141
(dp2142
g73
(dp2143
sg82
g2128
sg75
(lp2144
g68
(g69
g70
NtRp2145
(dp2146
g73
(dp2147
g81
I5
ssg82
g2141
sg75
(lp2148
g111
asbasbasbag68
(g84
g70
NtRp2149
(dp2150
g73
(dp2151
sg82
g78
sg75
(lp2152
g68
(g89
g70
NtRp2153
(dp2154
g73
(dp2155
g93
g94
ssg82
g2149
sg75
(lp2156
S'is_local'
p2157
asbag68
(g89
g70
NtRp2158
(dp2159
g73
(dp2160
g100
g101
ssg82
g2149
sg75
(lp2161
S':'
asbag68
(g89
g70
NtRp2162
(dp2163
g73
(dp2164
sg82
g2149
sg75
(lp2165
g68
(g69
g70
NtRp2166
(dp2167
g73
(dp2168
g81
I5
ssg82
g2162
sg75
(lp2169
g1646
asbasbasbag68
(g84
g70
NtRp2170
(dp2171
g73
(dp2172
sg82
g78
sg75
(lp2173
g68
(g89
g70
NtRp2174
(dp2175
g73
(dp2176
g93
g94
ssg82
g2170
sg75
(lp2177
S'is_restful'
p2178
asbag68
(g89
g70
NtRp2179
(dp2180
g73
(dp2181
g100
g101
ssg82
g2170
sg75
(lp2182
S':'
asbag68
(g89
g70
NtRp2183
(dp2184
g73
(dp2185
sg82
g2170
sg75
(lp2186
g68
(g69
g70
NtRp2187
(dp2188
g73
(dp2189
g81
I5
ssg82
g2183
sg75
(lp2190
g111
asbasbasbag68
(g84
g70
NtRp2191
(dp2192
g73
(dp2193
sg82
g78
sg75
(lp2194
g68
(g89
g70
NtRp2195
(dp2196
g73
(dp2197
g93
g94
ssg82
g2191
sg75
(lp2198
S'now'
p2199
asbag68
(g89
g70
NtRp2200
(dp2201
g73
(dp2202
g100
g101
ssg82
g2191
sg75
(lp2203
S':'
asbag68
(g89
g70
NtRp2204
(dp2205
g73
(dp2206
sg82
g2191
sg75
(lp2207
g68
(g69
g70
NtRp2208
(dp2209
g73
(dp2210
g81
I5
ssg82
g2204
sg75
(lp2211
S'datetime.datetime(2012, 5, 26, 19, 57, 16, 524993)'
p2212
asbasbasbag68
(g84
g70
NtRp2213
(dp2214
g73
(dp2215
sg82
g78
sg75
(lp2216
g68
(g89
g70
NtRp2217
(dp2218
g73
(dp2219
g93
g94
ssg82
g2213
sg75
(lp2220
S'post_vars'
p2221
asbag68
(g89
g70
NtRp2222
(dp2223
g73
(dp2224
g100
g101
ssg82
g2213
sg75
(lp2225
S':'
asbag68
(g89
g70
NtRp2226
(dp2227
g73
(dp2228
sg82
g2213
sg75
(lp2229
g68
(g69
g70
NtRp2230
(dp2231
g73
(dp2232
g81
I5
ssg82
g2226
sg75
(lp2233
g68
(g77
g70
NtRp2234
(dp2235
g73
(dp2236
g81
I4
ssg82
Nsg75
(lp2237
sbasbasbasbag68
(g84
g70
NtRp2238
(dp2239
g73
(dp2240
sg82
g78
sg75
(lp2241
g68
(g89
g70
NtRp2242
(dp2243
g73
(dp2244
g93
g94
ssg82
g2238
sg75
(lp2245
S'raw_args'
p2246
asbag68
(g89
g70
NtRp2247
(dp2248
g73
(dp2249
g100
g101
ssg82
g2238
sg75
(lp2250
S':'
asbag68
(g89
g70
NtRp2251
(dp2252
g73
(dp2253
sg82
g2238
sg75
(lp2254
g68
(g69
g70
NtRp2255
(dp2256
g73
(dp2257
g81
I5
ssg82
g2251
sg75
(lp2258
S''
asbasbasbag68
(g84
g70
NtRp2259
(dp2260
g73
(dp2261
sg82
g78
sg75
(lp2262
g68
(g89
g70
NtRp2263
(dp2264
g73
(dp2265
g93
g94
ssg82
g2259
sg75
(lp2266
S'url'
p2267
asbag68
(g89
g70
NtRp2268
(dp2269
g73
(dp2270
g100
g101
ssg82
g2259
sg75
(lp2271
S':'
asbag68
(g89
g70
NtRp2272
(dp2273
g73
(dp2274
sg82
g2259
sg75
(lp2275
g68
(g69
g70
NtRp2276
(dp2277
g73
(dp2278
g81
I5
ssg82
g2272
sg75
(lp2279
S'/streamlog/default/getConnectionData'
p2280
asbasbasbag68
(g84
g70
NtRp2281
(dp2282
g73
(dp2283
sg82
g78
sg75
(lp2284
g68
(g89
g70
NtRp2285
(dp2286
g73
(dp2287
g93
g94
ssg82
g2281
sg75
(lp2288
S'utcnow'
p2289
asbag68
(g89
g70
NtRp2290
(dp2291
g73
(dp2292
g100
g101
ssg82
g2281
sg75
(lp2293
S':'
asbag68
(g89
g70
NtRp2294
(dp2295
g73
(dp2296
sg82
g2281
sg75
(lp2297
g68
(g69
g70
NtRp2298
(dp2299
g73
(dp2300
g81
I5
ssg82
g2294
sg75
(lp2301
S'datetime.datetime(2012, 5, 26, 12, 57, 16, 525017)'
p2302
asbasbasbag68
(g84
g70
NtRp2303
(dp2304
g73
(dp2305
sg82
g78
sg75
(lp2306
g68
(g89
g70
NtRp2307
(dp2308
g73
(dp2309
g93
g94
ssg82
g2303
sg75
(lp2310
S'uuid'
p2311
asbag68
(g89
g70
NtRp2312
(dp2313
g73
(dp2314
g100
g101
ssg82
g2303
sg75
(lp2315
S':'
asbag68
(g89
g70
NtRp2316
(dp2317
g73
(dp2318
sg82
g2303
sg75
(lp2319
g68
(g69
g70
NtRp2320
(dp2321
g73
(dp2322
g81
I5
ssg82
g2316
sg75
(lp2323
S'streamlog/127.0.0.1.2012-05-26.19-57-16.dd8b57dc-0cc4-47de-b1f9-505a51826293'
p2324
asbasbasbag68
(g84
g70
NtRp2325
(dp2326
g73
(dp2327
sg82
g78
sg75
(lp2328
g68
(g89
g70
NtRp2329
(dp2330
g73
(dp2331
g93
g94
ssg82
g2325
sg75
(lp2332
S'vars'
p2333
asbag68
(g89
g70
NtRp2334
(dp2335
g73
(dp2336
g100
g101
ssg82
g2325
sg75
(lp2337
S':'
asbag68
(g89
g70
NtRp2338
(dp2339
g73
(dp2340
sg82
g2325
sg75
(lp2341
g68
(g69
g70
NtRp2342
(dp2343
g73
(dp2344
g81
I5
ssg82
g2338
sg75
(lp2345
g68
(g77
g70
NtRp2346
(dp2347
g73
(dp2348
g81
I4
ssg82
Nsg75
(lp2349
sbasbasbasbag68
(g84
g70
NtRp2350
(dp2351
g73
(dp2352
sg82
g78
sg75
(lp2353
g68
(g89
g70
NtRp2354
(dp2355
g73
(dp2356
g93
g94
ssg82
g2350
sg75
(lp2357
S'wsgi'
p2358
asbag68
(g89
g70
NtRp2359
(dp2360
g73
(dp2361
g100
g101
ssg82
g2350
sg75
(lp2362
S':'
asbag68
(g89
g70
NtRp2363
(dp2364
g73
(dp2365
sg82
g2350
sg75
(lp2366
g68
(g69
g70
NtRp2367
(dp2368
g73
(dp2369
g81
I5
ssg82
g2363
sg75
(lp2370
g68
(g77
g70
NtRp2371
(dp2372
g73
(dp2373
g81
I4
ssg82
Nsg75
(lp2374
g68
(g84
g70
NtRp2375
(dp2376
g73
(dp2377
sg82
g2371
sg75
(lp2378
g68
(g89
g70
NtRp2379
(dp2380
g73
(dp2381
g93
g94
ssg82
g2375
sg75
(lp2382
S'environ'
p2383
asbag68
(g89
g70
NtRp2384
(dp2385
g73
(dp2386
g100
g101
ssg82
g2375
sg75
(lp2387
S':'
asbag68
(g89
g70
NtRp2388
(dp2389
g73
(dp2390
sg82
g2375
sg75
(lp2391
g68
(g69
g70
NtRp2392
(dp2393
g73
(dp2394
g81
I4
ssg82
g2388
sg75
(lp2395
g68
(g77
g70
NtRp2396
(dp2397
g73
(dp2398
g81
I3
ssg82
Nsg75
(lp2399
g68
(g84
g70
NtRp2400
(dp2401
g73
(dp2402
sg82
g2396
sg75
(lp2403
g68
(g89
g70
NtRp2404
(dp2405
g73
(dp2406
g93
g94
ssg82
g2400
sg75
(lp2407
S'HTTP_ACCEPT'
p2408
asbag68
(g89
g70
NtRp2409
(dp2410
g73
(dp2411
g100
g101
ssg82
g2400
sg75
(lp2412
S':'
asbag68
(g89
g70
NtRp2413
(dp2414
g73
(dp2415
sg82
g2400
sg75
(lp2416
g68
(g69
g70
NtRp2417
(dp2418
g73
(dp2419
g81
I3
ssg82
g2413
sg75
(lp2420
g1014
asbasbasbag68
(g84
g70
NtRp2421
(dp2422
g73
(dp2423
sg82
g2396
sg75
(lp2424
g68
(g89
g70
NtRp2425
(dp2426
g73
(dp2427
g93
g94
ssg82
g2421
sg75
(lp2428
S'HTTP_ACCEPT_ENCODING'
p2429
asbag68
(g89
g70
NtRp2430
(dp2431
g73
(dp2432
g100
g101
ssg82
g2421
sg75
(lp2433
S':'
asbag68
(g89
g70
NtRp2434
(dp2435
g73
(dp2436
sg82
g2421
sg75
(lp2437
g68
(g69
g70
NtRp2438
(dp2439
g73
(dp2440
g81
I3
ssg82
g2434
sg75
(lp2441
g1036
asbasbasbag68
(g84
g70
NtRp2442
(dp2443
g73
(dp2444
sg82
g2396
sg75
(lp2445
g68
(g89
g70
NtRp2446
(dp2447
g73
(dp2448
g93
g94
ssg82
g2442
sg75
(lp2449
S'HTTP_ACCEPT_LANGUAGE'
p2450
asbag68
(g89
g70
NtRp2451
(dp2452
g73
(dp2453
g100
g101
ssg82
g2442
sg75
(lp2454
S':'
asbag68
(g89
g70
NtRp2455
(dp2456
g73
(dp2457
sg82
g2442
sg75
(lp2458
g68
(g69
g70
NtRp2459
(dp2460
g73
(dp2461
g81
I3
ssg82
g2455
sg75
(lp2462
g1058
asbasbasbag68
(g84
g70
NtRp2463
(dp2464
g73
(dp2465
sg82
g2396
sg75
(lp2466
g68
(g89
g70
NtRp2467
(dp2468
g73
(dp2469
g93
g94
ssg82
g2463
sg75
(lp2470
S'HTTP_CACHE_CONTROL'
p2471
asbag68
(g89
g70
NtRp2472
(dp2473
g73
(dp2474
g100
g101
ssg82
g2463
sg75
(lp2475
S':'
asbag68
(g89
g70
NtRp2476
(dp2477
g73
(dp2478
sg82
g2463
sg75
(lp2479
g68
(g69
g70
NtRp2480
(dp2481
g73
(dp2482
g81
I3
ssg82
g2476
sg75
(lp2483
g1080
asbasbasbag68
(g84
g70
NtRp2484
(dp2485
g73
(dp2486
sg82
g2396
sg75
(lp2487
g68
(g89
g70
NtRp2488
(dp2489
g73
(dp2490
g93
g94
ssg82
g2484
sg75
(lp2491
S'HTTP_CONNECTION'
p2492
asbag68
(g89
g70
NtRp2493
(dp2494
g73
(dp2495
g100
g101
ssg82
g2484
sg75
(lp2496
S':'
asbag68
(g89
g70
NtRp2497
(dp2498
g73
(dp2499
sg82
g2484
sg75
(lp2500
g68
(g69
g70
NtRp2501
(dp2502
g73
(dp2503
g81
I3
ssg82
g2497
sg75
(lp2504
g1102
asbasbasbag68
(g84
g70
NtRp2505
(dp2506
g73
(dp2507
sg82
g2396
sg75
(lp2508
g68
(g89
g70
NtRp2509
(dp2510
g73
(dp2511
g93
g94
ssg82
g2505
sg75
(lp2512
S'HTTP_COOKIE'
p2513
asbag68
(g89
g70
NtRp2514
(dp2515
g73
(dp2516
g100
g101
ssg82
g2505
sg75
(lp2517
S':'
asbag68
(g89
g70
NtRp2518
(dp2519
g73
(dp2520
sg82
g2505
sg75
(lp2521
g68
(g69
g70
NtRp2522
(dp2523
g73
(dp2524
g81
I3
ssg82
g2518
sg75
(lp2525
g1124
asbasbasbag68
(g84
g70
NtRp2526
(dp2527
g73
(dp2528
sg82
g2396
sg75
(lp2529
g68
(g89
g70
NtRp2530
(dp2531
g73
(dp2532
g93
g94
ssg82
g2526
sg75
(lp2533
S'HTTP_HOST'
p2534
asbag68
(g89
g70
NtRp2535
(dp2536
g73
(dp2537
g100
g101
ssg82
g2526
sg75
(lp2538
S':'
asbag68
(g89
g70
NtRp2539
(dp2540
g73
(dp2541
sg82
g2526
sg75
(lp2542
g68
(g69
g70
NtRp2543
(dp2544
g73
(dp2545
g81
I3
ssg82
g2539
sg75
(lp2546
g1146
asbasbasbag68
(g84
g70
NtRp2547
(dp2548
g73
(dp2549
sg82
g2396
sg75
(lp2550
g68
(g89
g70
NtRp2551
(dp2552
g73
(dp2553
g93
g94
ssg82
g2547
sg75
(lp2554
S'HTTP_USER_AGENT'
p2555
asbag68
(g89
g70
NtRp2556
(dp2557
g73
(dp2558
g100
g101
ssg82
g2547
sg75
(lp2559
S':'
asbag68
(g89
g70
NtRp2560
(dp2561
g73
(dp2562
sg82
g2547
sg75
(lp2563
g68
(g69
g70
NtRp2564
(dp2565
g73
(dp2566
g81
I3
ssg82
g2560
sg75
(lp2567
g1168
asbasbasbag68
(g84
g70
NtRp2568
(dp2569
g73
(dp2570
sg82
g2396
sg75
(lp2571
g68
(g89
g70
NtRp2572
(dp2573
g73
(dp2574
g93
g94
ssg82
g2568
sg75
(lp2575
S'PATH_INFO'
p2576
asbag68
(g89
g70
NtRp2577
(dp2578
g73
(dp2579
g100
g101
ssg82
g2568
sg75
(lp2580
S':'
asbag68
(g89
g70
NtRp2581
(dp2582
g73
(dp2583
sg82
g2568
sg75
(lp2584
g68
(g69
g70
NtRp2585
(dp2586
g73
(dp2587
g81
I3
ssg82
g2581
sg75
(lp2588
g1211
asbasbasbag68
(g84
g70
NtRp2589
(dp2590
g73
(dp2591
sg82
g2396
sg75
(lp2592
g68
(g89
g70
NtRp2593
(dp2594
g73
(dp2595
g93
g94
ssg82
g2589
sg75
(lp2596
S'QUERY_STRING'
p2597
asbag68
(g89
g70
NtRp2598
(dp2599
g73
(dp2600
g100
g101
ssg82
g2589
sg75
(lp2601
S':'
asbag68
(g89
g70
NtRp2602
(dp2603
g73
(dp2604
sg82
g2589
sg75
(lp2605
g68
(g69
g70
NtRp2606
(dp2607
g73
(dp2608
g81
I3
ssg82
g2602
sg75
(lp2609
S''
asbasbasbag68
(g84
g70
NtRp2610
(dp2611
g73
(dp2612
sg82
g2396
sg75
(lp2613
g68
(g89
g70
NtRp2614
(dp2615
g73
(dp2616
g93
g94
ssg82
g2610
sg75
(lp2617
S'REMOTE_ADDR'
p2618
asbag68
(g89
g70
NtRp2619
(dp2620
g73
(dp2621
g100
g101
ssg82
g2610
sg75
(lp2622
S':'
asbag68
(g89
g70
NtRp2623
(dp2624
g73
(dp2625
sg82
g2610
sg75
(lp2626
g68
(g69
g70
NtRp2627
(dp2628
g73
(dp2629
g81
I3
ssg82
g2623
sg75
(lp2630
g201
asbasbasbag68
(g84
g70
NtRp2631
(dp2632
g73
(dp2633
sg82
g2396
sg75
(lp2634
g68
(g89
g70
NtRp2635
(dp2636
g73
(dp2637
g93
g94
ssg82
g2631
sg75
(lp2638
S'REMOTE_PORT'
p2639
asbag68
(g89
g70
NtRp2640
(dp2641
g73
(dp2642
g100
g101
ssg82
g2631
sg75
(lp2643
S':'
asbag68
(g89
g70
NtRp2644
(dp2645
g73
(dp2646
sg82
g2631
sg75
(lp2647
g68
(g69
g70
NtRp2648
(dp2649
g73
(dp2650
g81
I3
ssg82
g2644
sg75
(lp2651
g1275
asbasbasbag68
(g84
g70
NtRp2652
(dp2653
g73
(dp2654
sg82
g2396
sg75
(lp2655
g68
(g89
g70
NtRp2656
(dp2657
g73
(dp2658
g93
g94
ssg82
g2652
sg75
(lp2659
S'REQUEST_METHOD'
p2660
asbag68
(g89
g70
NtRp2661
(dp2662
g73
(dp2663
g100
g101
ssg82
g2652
sg75
(lp2664
S':'
asbag68
(g89
g70
NtRp2665
(dp2666
g73
(dp2667
sg82
g2652
sg75
(lp2668
g68
(g69
g70
NtRp2669
(dp2670
g73
(dp2671
g81
I3
ssg82
g2665
sg75
(lp2672
g1297
asbasbasbag68
(g84
g70
NtRp2673
(dp2674
g73
(dp2675
sg82
g2396
sg75
(lp2676
g68
(g89
g70
NtRp2677
(dp2678
g73
(dp2679
g93
g94
ssg82
g2673
sg75
(lp2680
S'SCRIPT_NAME'
p2681
asbag68
(g89
g70
NtRp2682
(dp2683
g73
(dp2684
g100
g101
ssg82
g2673
sg75
(lp2685
S':'
asbag68
(g89
g70
NtRp2686
(dp2687
g73
(dp2688
sg82
g2673
sg75
(lp2689
g68
(g69
g70
NtRp2690
(dp2691
g73
(dp2692
g81
I3
ssg82
g2686
sg75
(lp2693
S''
asbasbasbag68
(g84
g70
NtRp2694
(dp2695
g73
(dp2696
sg82
g2396
sg75
(lp2697
g68
(g89
g70
NtRp2698
(dp2699
g73
(dp2700
g93
g94
ssg82
g2694
sg75
(lp2701
S'SERVER_NAME'
p2702
asbag68
(g89
g70
NtRp2703
(dp2704
g73
(dp2705
g100
g101
ssg82
g2694
sg75
(lp2706
S':'
asbag68
(g89
g70
NtRp2707
(dp2708
g73
(dp2709
sg82
g2694
sg75
(lp2710
g68
(g69
g70
NtRp2711
(dp2712
g73
(dp2713
g81
I3
ssg82
g2707
sg75
(lp2714
g1340
asbasbasbag68
(g84
g70
NtRp2715
(dp2716
g73
(dp2717
sg82
g2396
sg75
(lp2718
g68
(g89
g70
NtRp2719
(dp2720
g73
(dp2721
g93
g94
ssg82
g2715
sg75
(lp2722
S'SERVER_PORT'
p2723
asbag68
(g89
g70
NtRp2724
(dp2725
g73
(dp2726
g100
g101
ssg82
g2715
sg75
(lp2727
S':'
asbag68
(g89
g70
NtRp2728
(dp2729
g73
(dp2730
sg82
g2715
sg75
(lp2731
g68
(g69
g70
NtRp2732
(dp2733
g73
(dp2734
g81
I3
ssg82
g2728
sg75
(lp2735
g1362
asbasbasbag68
(g84
g70
NtRp2736
(dp2737
g73
(dp2738
sg82
g2396
sg75
(lp2739
g68
(g89
g70
NtRp2740
(dp2741
g73
(dp2742
g93
g94
ssg82
g2736
sg75
(lp2743
S'SERVER_PROTOCOL'
p2744
asbag68
(g89
g70
NtRp2745
(dp2746
g73
(dp2747
g100
g101
ssg82
g2736
sg75
(lp2748
S':'
asbag68
(g89
g70
NtRp2749
(dp2750
g73
(dp2751
sg82
g2736
sg75
(lp2752
g68
(g69
g70
NtRp2753
(dp2754
g73
(dp2755
g81
I3
ssg82
g2749
sg75
(lp2756
g1384
asbasbasbag68
(g84
g70
NtRp2757
(dp2758
g73
(dp2759
sg82
g2396
sg75
(lp2760
g68
(g89
g70
NtRp2761
(dp2762
g73
(dp2763
g93
g94
ssg82
g2757
sg75
(lp2764
S'SERVER_SOFTWARE'
p2765
asbag68
(g89
g70
NtRp2766
(dp2767
g73
(dp2768
g100
g101
ssg82
g2757
sg75
(lp2769
S':'
asbag68
(g89
g70
NtRp2770
(dp2771
g73
(dp2772
sg82
g2757
sg75
(lp2773
g68
(g69
g70
NtRp2774
(dp2775
g73
(dp2776
g81
I3
ssg82
g2770
sg75
(lp2777
g1406
asbasbasbag68
(g84
g70
NtRp2778
(dp2779
g73
(dp2780
sg82
g2396
sg75
(lp2781
g68
(g89
g70
NtRp2782
(dp2783
g73
(dp2784
g93
g94
ssg82
g2778
sg75
(lp2785
S'wsgi.errors'
p2786
asbag68
(g89
g70
NtRp2787
(dp2788
g73
(dp2789
g100
g101
ssg82
g2778
sg75
(lp2790
S':'
asbag68
(g89
g70
NtRp2791
(dp2792
g73
(dp2793
sg82
g2778
sg75
(lp2794
g68
(g69
g70
NtRp2795
(dp2796
g73
(dp2797
g81
I3
ssg82
g2791
sg75
(lp2798
S"<open file '<stderr>', mode 'w' at 0x7f84db3ff270>"
p2799
asbasbasbag68
(g84
g70
NtRp2800
(dp2801
g73
(dp2802
sg82
g2396
sg75
(lp2803
g68
(g89
g70
NtRp2804
(dp2805
g73
(dp2806
g93
g94
ssg82
g2800
sg75
(lp2807
S'wsgi.file_wrapper'
p2808
asbag68
(g89
g70
NtRp2809
(dp2810
g73
(dp2811
g100
g101
ssg82
g2800
sg75
(lp2812
S':'
asbag68
(g89
g70
NtRp2813
(dp2814
g73
(dp2815
sg82
g2800
sg75
(lp2816
g68
(g69
g70
NtRp2817
(dp2818
g73
(dp2819
g81
I3
ssg82
g2813
sg75
(lp2820
S'<class wsgiref.util.FileWrapper at 0x1b96d50>'
p2821
asbasbasbag68
(g84
g70
NtRp2822
(dp2823
g73
(dp2824
sg82
g2396
sg75
(lp2825
g68
(g89
g70
NtRp2826
(dp2827
g73
(dp2828
g93
g94
ssg82
g2822
sg75
(lp2829
S'wsgi.input'
p2830
asbag68
(g89
g70
NtRp2831
(dp2832
g73
(dp2833
g100
g101
ssg82
g2822
sg75
(lp2834
S':'
asbag68
(g89
g70
NtRp2835
(dp2836
g73
(dp2837
sg82
g2822
sg75
(lp2838
g68
(g69
g70
NtRp2839
(dp2840
g73
(dp2841
g81
I3
ssg82
g2835
sg75
(lp2842
S'<cStringIO.StringO object at 0x3efba08>'
p2843
asbasbasbag68
(g84
g70
NtRp2844
(dp2845
g73
(dp2846
sg82
g2396
sg75
(lp2847
g68
(g89
g70
NtRp2848
(dp2849
g73
(dp2850
g93
g94
ssg82
g2844
sg75
(lp2851
S'wsgi.multiprocess'
p2852
asbag68
(g89
g70
NtRp2853
(dp2854
g73
(dp2855
g100
g101
ssg82
g2844
sg75
(lp2856
S':'
asbag68
(g89
g70
NtRp2857
(dp2858
g73
(dp2859
sg82
g2844
sg75
(lp2860
g68
(g69
g70
NtRp2861
(dp2862
g73
(dp2863
g81
I3
ssg82
g2857
sg75
(lp2864
g111
asbasbasbag68
(g84
g70
NtRp2865
(dp2866
g73
(dp2867
sg82
g2396
sg75
(lp2868
g68
(g89
g70
NtRp2869
(dp2870
g73
(dp2871
g93
g94
ssg82
g2865
sg75
(lp2872
S'wsgi.multithread'
p2873
asbag68
(g89
g70
NtRp2874
(dp2875
g73
(dp2876
g100
g101
ssg82
g2865
sg75
(lp2877
S':'
asbag68
(g89
g70
NtRp2878
(dp2879
g73
(dp2880
sg82
g2865
sg75
(lp2881
g68
(g69
g70
NtRp2882
(dp2883
g73
(dp2884
g81
I3
ssg82
g2878
sg75
(lp2885
g1646
asbasbasbag68
(g84
g70
NtRp2886
(dp2887
g73
(dp2888
sg82
g2396
sg75
(lp2889
g68
(g89
g70
NtRp2890
(dp2891
g73
(dp2892
g93
g94
ssg82
g2886
sg75
(lp2893
S'wsgi.run_once'
p2894
asbag68
(g89
g70
NtRp2895
(dp2896
g73
(dp2897
g100
g101
ssg82
g2886
sg75
(lp2898
S':'
asbag68
(g89
g70
NtRp2899
(dp2900
g73
(dp2901
sg82
g2886
sg75
(lp2902
g68
(g69
g70
NtRp2903
(dp2904
g73
(dp2905
g81
I3
ssg82
g2899
sg75
(lp2906
g111
asbasbasbag68
(g84
g70
NtRp2907
(dp2908
g73
(dp2909
sg82
g2396
sg75
(lp2910
g68
(g89
g70
NtRp2911
(dp2912
g73
(dp2913
g93
g94
ssg82
g2907
sg75
(lp2914
S'wsgi.url_scheme'
p2915
asbag68
(g89
g70
NtRp2916
(dp2917
g73
(dp2918
g100
g101
ssg82
g2907
sg75
(lp2919
S':'
asbag68
(g89
g70
NtRp2920
(dp2921
g73
(dp2922
sg82
g2907
sg75
(lp2923
g68
(g69
g70
NtRp2924
(dp2925
g73
(dp2926
g81
I3
ssg82
g2920
sg75
(lp2927
g1689
asbasbasbag68
(g84
g70
NtRp2928
(dp2929
g73
(dp2930
sg82
g2396
sg75
(lp2931
g68
(g89
g70
NtRp2932
(dp2933
g73
(dp2934
g93
g94
ssg82
g2928
sg75
(lp2935
S'wsgi.version'
p2936
asbag68
(g89
g70
NtRp2937
(dp2938
g73
(dp2939
g100
g101
ssg82
g2928
sg75
(lp2940
S':'
asbag68
(g89
g70
NtRp2941
(dp2942
g73
(dp2943
sg82
g2928
sg75
(lp2944
g68
(g69
g70
NtRp2945
(dp2946
g73
(dp2947
g81
I3
ssg82
g2941
sg75
(lp2948
S'1'
asbasbasbasbasbasbasbasbasbasbasbasbasbsS'frames'
p2949
(lp2950
(dp2951
S'file'
p2952
S'/home/jose/DESARROLLO/web2py199/gluon/restricted.py'
p2953
sS'dump'
p2954
(dp2955
S'code'
p2956
S"'# -*- coding: utf-8 -*-\\n# this file is released ...sponse._vars=response._caller(getConnectionData)\\n'"
p2957
sS'layer'
p2958
S"'/home/jose/DESARROLLO/web2py199/applications/streamlog/controllers/default.py'"
p2959
sS'global compile2'
p2960
S'<function compile2>'
p2961
sS'ccode'
p2962
S'undefined'
p2963
ssS'lnum'
p2964
I193
sS'lines'
p2965
(dp2966
I192
S'        else:'
p2967
sI193
S'            ccode = compile2(code,layer)'
p2968
sI194
S'        exec ccode in environment'
p2969
sI195
S'    except HTTP:'
p2970
sI196
S'        raise'
p2971
sI197
S'    except Exception, error:'
p2972
sI188
S"    environment['__file__'] = layer"
p2973
sI189
S'    try:'
p2974
sI190
S'        if type(code) == types.CodeType:'
p2975
sI191
S'            ccode = code'
p2976
ssS'call'
p2977
S"(code='# -*- coding: utf-8 -*-\\n# this file is released ...sponse._vars=response._caller(getConnectionData)\\n', environment={'A': <class 'gluon.html.A'>, 'Auth': <class 'gluon.tools.Auth'>, 'B': <class 'gluon.html.B'>, 'BEAUTIFY': <class 'gluon.html.BEAUTIFY'>, 'BODY': <class 'gluon.html.BODY'>, 'BR': <class 'gluon.html.BR'>, 'BUTTON': <class 'gluon.html.BUTTON'>, 'CAT': <class 'gluon.html.CAT'>, 'CENTER': <class 'gluon.html.CENTER'>, 'CLEANUP': <class 'gluon.validators.CLEANUP'>, ...}, layer='/home/jose/DESARROLLO/web2py199/applications/streamlog/controllers/default.py')"
p2978
sS'func'
p2979
S'restricted'
p2980
sa(dp2981
g2952
S'/home/jose/DESARROLLO/web2py199/gluon/restricted.py'
p2982
sg2954
(dp2983
S'builtincompile'
p2984
S'<built-in function compile>'
p2985
sS'code'
p2986
S"'# -*- coding: utf-8 -*-\\n# this file is released ...sponse._vars=response._caller(getConnectionData)\\n'"
p2987
sS'code.rstrip'
p2988
S'<built-in method rstrip of str object>'
p2989
sS').replace'
p2990
g2963
sS'layer'
p2991
S"'/home/jose/DESARROLLO/web2py199/applications/streamlog/controllers/default.py'"
p2992
ssg2964
I179
sg2965
(dp2993
I174
S''
sI175
S'def compile2(code,layer):'
p2994
sI176
S'    """'
p2995
sI177
S"    The +'\\n' is necessary else compile fails when code ends in a comment."
p2996
sI178
S'    """'
p2997
sI179
S"    return compile(code.rstrip().replace('\\r\\n','\\n')+'\\n', layer, 'exec')"
p2998
sI180
S''
sI181
S"def restricted(code, environment=None, layer='Unknown'):"
p2999
sI182
S'    """'
p3000
sI183
S'    runs code in environment and returns the output. if an exception occurs'
p3001
ssg2977
S"(code='# -*- coding: utf-8 -*-\\n# this file is released ...sponse._vars=response._caller(getConnectionData)\\n', layer='/home/jose/DESARROLLO/web2py199/applications/streamlog/controllers/default.py')"
p3002
sg2979
S'compile2'
p3003
sasS'pyver'
p3004
S'Python 2.7.2+: /usr/bin/python'
p3005
sS'session'
p3006
g68
(g69
g70
NtRp3007
(dp3008
g73
(dp3009
sg75
(lp3010
g68
(g77
g70
NtRp3011
(dp3012
g73
(dp3013
g81
I5
ssg82
Nsg75
(lp3014
g68
(g84
g70
NtRp3015
(dp3016
g73
(dp3017
sg82
g3011
sg75
(lp3018
g68
(g89
g70
NtRp3019
(dp3020
g73
(dp3021
g93
g94
ssg82
g3015
sg75
(lp3022
S'auth'
p3023
asbag68
(g89
g70
NtRp3024
(dp3025
g73
(dp3026
g100
g101
ssg82
g3015
sg75
(lp3027
S':'
asbag68
(g89
g70
NtRp3028
(dp3029
g73
(dp3030
sg82
g3015
sg75
(lp3031
g68
(g69
g70
NtRp3032
(dp3033
g73
(dp3034
g81
I5
ssg82
g3028
sg75
(lp3035
g68
(g77
g70
NtRp3036
(dp3037
g73
(dp3038
g81
I4
ssg82
Nsg75
(lp3039
g68
(g84
g70
NtRp3040
(dp3041
g73
(dp3042
sg82
g3036
sg75
(lp3043
g68
(g89
g70
NtRp3044
(dp3045
g73
(dp3046
g93
g94
ssg82
g3040
sg75
(lp3047
S'expiration'
p3048
asbag68
(g89
g70
NtRp3049
(dp3050
g73
(dp3051
g100
g101
ssg82
g3040
sg75
(lp3052
S':'
asbag68
(g89
g70
NtRp3053
(dp3054
g73
(dp3055
sg82
g3040
sg75
(lp3056
g68
(g69
g70
NtRp3057
(dp3058
g73
(dp3059
g81
I4
ssg82
g3053
sg75
(lp3060
S'2592000'
p3061
asbasbasbag68
(g84
g70
NtRp3062
(dp3063
g73
(dp3064
sg82
g3036
sg75
(lp3065
g68
(g89
g70
NtRp3066
(dp3067
g73
(dp3068
g93
g94
ssg82
g3062
sg75
(lp3069
S'hmac_key'
p3070
asbag68
(g89
g70
NtRp3071
(dp3072
g73
(dp3073
g100
g101
ssg82
g3062
sg75
(lp3074
S':'
asbag68
(g89
g70
NtRp3075
(dp3076
g73
(dp3077
sg82
g3062
sg75
(lp3078
g68
(g69
g70
NtRp3079
(dp3080
g73
(dp3081
g81
I4
ssg82
g3075
sg75
(lp3082
S'b954f0e8-95b3-42d2-829e-2e50e94d8454'
p3083
asbasbasbag68
(g84
g70
NtRp3084
(dp3085
g73
(dp3086
sg82
g3036
sg75
(lp3087
g68
(g89
g70
NtRp3088
(dp3089
g73
(dp3090
g93
g94
ssg82
g3084
sg75
(lp3091
S'last_visit'
p3092
asbag68
(g89
g70
NtRp3093
(dp3094
g73
(dp3095
g100
g101
ssg82
g3084
sg75
(lp3096
S':'
asbag68
(g89
g70
NtRp3097
(dp3098
g73
(dp3099
sg82
g3084
sg75
(lp3100
g68
(g69
g70
NtRp3101
(dp3102
g73
(dp3103
g81
I4
ssg82
g3097
sg75
(lp3104
S'datetime.datetime(2012, 5, 26, 18, 42, 33, 844375)'
p3105
asbasbasbag68
(g84
g70
NtRp3106
(dp3107
g73
(dp3108
sg82
g3036
sg75
(lp3109
g68
(g89
g70
NtRp3110
(dp3111
g73
(dp3112
g93
g94
ssg82
g3106
sg75
(lp3113
S'remember'
p3114
asbag68
(g89
g70
NtRp3115
(dp3116
g73
(dp3117
g100
g101
ssg82
g3106
sg75
(lp3118
S':'
asbag68
(g89
g70
NtRp3119
(dp3120
g73
(dp3121
sg82
g3106
sg75
(lp3122
g68
(g69
g70
NtRp3123
(dp3124
g73
(dp3125
g81
I4
ssg82
g3119
sg75
(lp3126
g111
asbasbasbag68
(g84
g70
NtRp3127
(dp3128
g73
(dp3129
sg82
g3036
sg75
(lp3130
g68
(g89
g70
NtRp3131
(dp3132
g73
(dp3133
g93
g94
ssg82
g3127
sg75
(lp3134
S'user'
p3135
asbag68
(g89
g70
NtRp3136
(dp3137
g73
(dp3138
g100
g101
ssg82
g3127
sg75
(lp3139
S':'
asbag68
(g89
g70
NtRp3140
(dp3141
g73
(dp3142
sg82
g3127
sg75
(lp3143
g68
(g69
g70
NtRp3144
(dp3145
g73
(dp3146
g81
I4
ssg82
g3140
sg75
(lp3147
g68
(g77
g70
NtRp3148
(dp3149
g73
(dp3150
g81
I3
ssg82
Nsg75
(lp3151
g68
(g84
g70
NtRp3152
(dp3153
g73
(dp3154
sg82
g3148
sg75
(lp3155
g68
(g89
g70
NtRp3156
(dp3157
g73
(dp3158
g93
g94
ssg82
g3152
sg75
(lp3159
S'email'
p3160
asbag68
(g89
g70
NtRp3161
(dp3162
g73
(dp3163
g100
g101
ssg82
g3152
sg75
(lp3164
S':'
asbag68
(g89
g70
NtRp3165
(dp3166
g73
(dp3167
sg82
g3152
sg75
(lp3168
g68
(g69
g70
NtRp3169
(dp3170
g73
(dp3171
g81
I3
ssg82
g3165
sg75
(lp3172
S'josedesoto@gmail.com'
p3173
asbasbasbag68
(g84
g70
NtRp3174
(dp3175
g73
(dp3176
sg82
g3148
sg75
(lp3177
g68
(g89
g70
NtRp3178
(dp3179
g73
(dp3180
g93
g94
ssg82
g3174
sg75
(lp3181
S'first_name'
p3182
asbag68
(g89
g70
NtRp3183
(dp3184
g73
(dp3185
g100
g101
ssg82
g3174
sg75
(lp3186
S':'
asbag68
(g89
g70
NtRp3187
(dp3188
g73
(dp3189
sg82
g3174
sg75
(lp3190
g68
(g69
g70
NtRp3191
(dp3192
g73
(dp3193
g81
I3
ssg82
g3187
sg75
(lp3194
S'jose'
p3195
asbasbasbag68
(g84
g70
NtRp3196
(dp3197
g73
(dp3198
sg82
g3148
sg75
(lp3199
g68
(g89
g70
NtRp3200
(dp3201
g73
(dp3202
g93
g94
ssg82
g3196
sg75
(lp3203
S'id'
p3204
asbag68
(g89
g70
NtRp3205
(dp3206
g73
(dp3207
g100
g101
ssg82
g3196
sg75
(lp3208
S':'
asbag68
(g89
g70
NtRp3209
(dp3210
g73
(dp3211
sg82
g3196
sg75
(lp3212
g68
(g69
g70
NtRp3213
(dp3214
g73
(dp3215
g81
I3
ssg82
g3209
sg75
(lp3216
S'1'
asbasbasbag68
(g84
g70
NtRp3217
(dp3218
g73
(dp3219
sg82
g3148
sg75
(lp3220
g68
(g89
g70
NtRp3221
(dp3222
g73
(dp3223
g93
g94
ssg82
g3217
sg75
(lp3224
S'last_name'
p3225
asbag68
(g89
g70
NtRp3226
(dp3227
g73
(dp3228
g100
g101
ssg82
g3217
sg75
(lp3229
S':'
asbag68
(g89
g70
NtRp3230
(dp3231
g73
(dp3232
sg82
g3217
sg75
(lp3233
g68
(g69
g70
NtRp3234
(dp3235
g73
(dp3236
g81
I3
ssg82
g3230
sg75
(lp3237
S'jose'
p3238
asbasbasbag68
(g84
g70
NtRp3239
(dp3240
g73
(dp3241
sg82
g3148
sg75
(lp3242
g68
(g89
g70
NtRp3243
(dp3244
g73
(dp3245
g93
g94
ssg82
g3239
sg75
(lp3246
S'password'
p3247
asbag68
(g89
g70
NtRp3248
(dp3249
g73
(dp3250
g100
g101
ssg82
g3239
sg75
(lp3251
S':'
asbag68
(g89
g70
NtRp3252
(dp3253
g73
(dp3254
sg82
g3239
sg75
(lp3255
g68
(g69
g70
NtRp3256
(dp3257
g73
(dp3258
g81
I3
ssg82
g3252
sg75
(lp3259
S'2b32eaa2baa0c63b755a4cde1e4dda83'
p3260
asbasbasbag68
(g84
g70
NtRp3261
(dp3262
g73
(dp3263
sg82
g3148
sg75
(lp3264
g68
(g89
g70
NtRp3265
(dp3266
g73
(dp3267
g93
g94
ssg82
g3261
sg75
(lp3268
S'registration_key'
p3269
asbag68
(g89
g70
NtRp3270
(dp3271
g73
(dp3272
g100
g101
ssg82
g3261
sg75
(lp3273
S':'
asbag68
(g89
g70
NtRp3274
(dp3275
g73
(dp3276
sg82
g3261
sg75
(lp3277
g68
(g69
g70
NtRp3278
(dp3279
g73
(dp3280
g81
I3
ssg82
g3274
sg75
(lp3281
S''
asbasbasbag68
(g84
g70
NtRp3282
(dp3283
g73
(dp3284
sg82
g3148
sg75
(lp3285
g68
(g89
g70
NtRp3286
(dp3287
g73
(dp3288
g93
g94
ssg82
g3282
sg75
(lp3289
S'reset_password_key'
p3290
asbag68
(g89
g70
NtRp3291
(dp3292
g73
(dp3293
g100
g101
ssg82
g3282
sg75
(lp3294
S':'
asbag68
(g89
g70
NtRp3295
(dp3296
g73
(dp3297
sg82
g3282
sg75
(lp3298
g68
(g69
g70
NtRp3299
(dp3300
g73
(dp3301
g81
I3
ssg82
g3295
sg75
(lp3302
S''
asbasbasbasbasbasbasbasbasbasbasbag68
(g84
g70
NtRp3303
(dp3304
g73
(dp3305
sg82
g3011
sg75
(lp3306
g68
(g89
g70
NtRp3307
(dp3308
g73
(dp3309
g93
g94
ssg82
g3303
sg75
(lp3310
S'last_query'
p3311
asbag68
(g89
g70
NtRp3312
(dp3313
g73
(dp3314
g100
g101
ssg82
g3303
sg75
(lp3315
S':'
asbag68
(g89
g70
NtRp3316
(dp3317
g73
(dp3318
sg82
g3303
sg75
(lp3319
g68
(g69
g70
NtRp3320
(dp3321
g73
(dp3322
g81
I5
ssg82
g3316
sg75
(lp3323
S'((db.t_project.user==me)&(db.t_server.project==db.t_project.id)&(db.t_log.server==db.t_server.id))'
p3324
asbasbasbasbasbsS'etype'
p3325
S"<type 'exceptions.SyntaxError'>"
p3326
sS'date'
p3327
S'Sat May 26 19:57:16 2012'
p3328
sS'response'
p3329
g68
(g69
g70
NtRp3330
(dp3331
g73
(dp3332
sg75
(lp3333
g68
(g77
g70
NtRp3334
(dp3335
g73
(dp3336
g81
I5
ssg82
Nsg75
(lp3337
g68
(g84
g70
NtRp3338
(dp3339
g73
(dp3340
sg82
g3334
sg75
(lp3341
g68
(g89
g70
NtRp3342
(dp3343
g73
(dp3344
g93
g94
ssg82
g3338
sg75
(lp3345
g166
asbag68
(g89
g70
NtRp3346
(dp3347
g73
(dp3348
g100
g101
ssg82
g3338
sg75
(lp3349
S':'
asbag68
(g89
g70
NtRp3350
(dp3351
g73
(dp3352
sg82
g3338
sg75
(lp3353
g68
(g69
g70
NtRp3354
(dp3355
g73
(dp3356
g81
I5
ssg82
g3350
sg75
(lp3357
S'<cStringIO.StringO object at 0x3efbab0>'
p3358
asbasbasbag68
(g84
g70
NtRp3359
(dp3360
g73
(dp3361
sg82
g3334
sg75
(lp3362
g68
(g89
g70
NtRp3363
(dp3364
g73
(dp3365
g93
g94
ssg82
g3359
sg75
(lp3366
g232
asbag68
(g89
g70
NtRp3367
(dp3368
g73
(dp3369
g100
g101
ssg82
g3359
sg75
(lp3370
S':'
asbag68
(g89
g70
NtRp3371
(dp3372
g73
(dp3373
sg82
g3359
sg75
(lp3374
g68
(g69
g70
NtRp3375
(dp3376
g73
(dp3377
g81
I5
ssg82
g3371
sg75
(lp3378
g68
(g77
g70
NtRp3379
(dp3380
g73
(dp3381
g81
I4
ssg82
Nsg75
(lp3382
g68
(g84
g70
NtRp3383
(dp3384
g73
(dp3385
sg82
g3379
sg75
(lp3386
g68
(g89
g70
NtRp3387
(dp3388
g73
(dp3389
g93
g94
ssg82
g3383
sg75
(lp3390
S'session_id_streamlog'
p3391
asbag68
(g89
g70
NtRp3392
(dp3393
g73
(dp3394
g100
g101
ssg82
g3383
sg75
(lp3395
S':'
asbag68
(g89
g70
NtRp3396
(dp3397
g73
(dp3398
sg82
g3383
sg75
(lp3399
g68
(g69
g70
NtRp3400
(dp3401
g73
(dp3402
g81
I4
ssg82
g3396
sg75
(lp3403
g68
(g77
g70
NtRp3404
(dp3405
g73
(dp3406
g81
I3
ssg82
Nsg75
(lp3407
g68
(g84
g70
NtRp3408
(dp3409
g73
(dp3410
sg82
g3404
sg75
(lp3411
g68
(g89
g70
NtRp3412
(dp3413
g73
(dp3414
g93
g94
ssg82
g3408
sg75
(lp3415
g282
asbag68
(g89
g70
NtRp3416
(dp3417
g73
(dp3418
g100
g101
ssg82
g3408
sg75
(lp3419
S':'
asbag68
(g89
g70
NtRp3420
(dp3421
g73
(dp3422
sg82
g3408
sg75
(lp3423
g68
(g69
g70
NtRp3424
(dp3425
g73
(dp3426
g81
I3
ssg82
g3420
sg75
(lp3427
S''
asbasbasbag68
(g84
g70
NtRp3428
(dp3429
g73
(dp3430
sg82
g3404
sg75
(lp3431
g68
(g89
g70
NtRp3432
(dp3433
g73
(dp3434
g93
g94
ssg82
g3428
sg75
(lp3435
g303
asbag68
(g89
g70
NtRp3436
(dp3437
g73
(dp3438
g100
g101
ssg82
g3428
sg75
(lp3439
S':'
asbag68
(g89
g70
NtRp3440
(dp3441
g73
(dp3442
sg82
g3428
sg75
(lp3443
g68
(g69
g70
NtRp3444
(dp3445
g73
(dp3446
g81
I3
ssg82
g3440
sg75
(lp3447
S''
asbasbasbag68
(g84
g70
NtRp3448
(dp3449
g73
(dp3450
sg82
g3404
sg75
(lp3451
g68
(g89
g70
NtRp3452
(dp3453
g73
(dp3454
g93
g94
ssg82
g3448
sg75
(lp3455
g324
asbag68
(g89
g70
NtRp3456
(dp3457
g73
(dp3458
g100
g101
ssg82
g3448
sg75
(lp3459
S':'
asbag68
(g89
g70
NtRp3460
(dp3461
g73
(dp3462
sg82
g3448
sg75
(lp3463
g68
(g69
g70
NtRp3464
(dp3465
g73
(dp3466
g81
I3
ssg82
g3460
sg75
(lp3467
S''
asbasbasbag68
(g84
g70
NtRp3468
(dp3469
g73
(dp3470
sg82
g3404
sg75
(lp3471
g68
(g89
g70
NtRp3472
(dp3473
g73
(dp3474
g93
g94
ssg82
g3468
sg75
(lp3475
g345
asbag68
(g89
g70
NtRp3476
(dp3477
g73
(dp3478
g100
g101
ssg82
g3468
sg75
(lp3479
S':'
asbag68
(g89
g70
NtRp3480
(dp3481
g73
(dp3482
sg82
g3468
sg75
(lp3483
g68
(g69
g70
NtRp3484
(dp3485
g73
(dp3486
g81
I3
ssg82
g3480
sg75
(lp3487
S''
asbasbasbag68
(g84
g70
NtRp3488
(dp3489
g73
(dp3490
sg82
g3404
sg75
(lp3491
g68
(g89
g70
NtRp3492
(dp3493
g73
(dp3494
g93
g94
ssg82
g3488
sg75
(lp3495
g366
asbag68
(g89
g70
NtRp3496
(dp3497
g73
(dp3498
g100
g101
ssg82
g3488
sg75
(lp3499
S':'
asbag68
(g89
g70
NtRp3500
(dp3501
g73
(dp3502
sg82
g3488
sg75
(lp3503
g68
(g69
g70
NtRp3504
(dp3505
g73
(dp3506
g81
I3
ssg82
g3500
sg75
(lp3507
S''
asbasbasbag68
(g84
g70
NtRp3508
(dp3509
g73
(dp3510
sg82
g3404
sg75
(lp3511
g68
(g89
g70
NtRp3512
(dp3513
g73
(dp3514
g93
g94
ssg82
g3508
sg75
(lp3515
g387
asbag68
(g89
g70
NtRp3516
(dp3517
g73
(dp3518
g100
g101
ssg82
g3508
sg75
(lp3519
S':'
asbag68
(g89
g70
NtRp3520
(dp3521
g73
(dp3522
sg82
g3508
sg75
(lp3523
g68
(g69
g70
NtRp3524
(dp3525
g73
(dp3526
g81
I3
ssg82
g3520
sg75
(lp3527
S'/'
asbasbasbag68
(g84
g70
NtRp3528
(dp3529
g73
(dp3530
sg82
g3404
sg75
(lp3531
g68
(g89
g70
NtRp3532
(dp3533
g73
(dp3534
g93
g94
ssg82
g3528
sg75
(lp3535
g408
asbag68
(g89
g70
NtRp3536
(dp3537
g73
(dp3538
g100
g101
ssg82
g3528
sg75
(lp3539
S':'
asbag68
(g89
g70
NtRp3540
(dp3541
g73
(dp3542
sg82
g3528
sg75
(lp3543
g68
(g69
g70
NtRp3544
(dp3545
g73
(dp3546
g81
I3
ssg82
g3540
sg75
(lp3547
S''
asbasbasbag68
(g84
g70
NtRp3548
(dp3549
g73
(dp3550
sg82
g3404
sg75
(lp3551
g68
(g89
g70
NtRp3552
(dp3553
g73
(dp3554
g93
g94
ssg82
g3548
sg75
(lp3555
g429
asbag68
(g89
g70
NtRp3556
(dp3557
g73
(dp3558
g100
g101
ssg82
g3548
sg75
(lp3559
S':'
asbag68
(g89
g70
NtRp3560
(dp3561
g73
(dp3562
sg82
g3548
sg75
(lp3563
g68
(g69
g70
NtRp3564
(dp3565
g73
(dp3566
g81
I3
ssg82
g3560
sg75
(lp3567
S''
asbasbasbasbasbasbasbasbasbasbasbag68
(g84
g70
NtRp3568
(dp3569
g73
(dp3570
sg82
g3334
sg75
(lp3571
g68
(g89
g70
NtRp3572
(dp3573
g73
(dp3574
g93
g94
ssg82
g3568
sg75
(lp3575
S'files'
p3576
asbag68
(g89
g70
NtRp3577
(dp3578
g73
(dp3579
g100
g101
ssg82
g3568
sg75
(lp3580
S':'
asbag68
(g89
g70
NtRp3581
(dp3582
g73
(dp3583
sg82
g3568
sg75
(lp3584
g68
(g69
g70
NtRp3585
(dp3586
g73
(dp3587
g81
I5
ssg82
g3581
sg75
(lp3588
g68
(g77
g70
NtRp3589
(dp3590
g73
(dp3591
g81
I4
ssg82
Nsg75
(lp3592
sbasbasbasbag68
(g84
g70
NtRp3593
(dp3594
g73
(dp3595
sg82
g3334
sg75
(lp3596
g68
(g89
g70
NtRp3597
(dp3598
g73
(dp3599
g93
g94
ssg82
g3593
sg75
(lp3600
S'flash'
p3601
asbag68
(g89
g70
NtRp3602
(dp3603
g73
(dp3604
g100
g101
ssg82
g3593
sg75
(lp3605
S':'
asbag68
(g89
g70
NtRp3606
(dp3607
g73
(dp3608
sg82
g3593
sg75
(lp3609
g68
(g69
g70
NtRp3610
(dp3611
g73
(dp3612
g81
I5
ssg82
g3606
sg75
(lp3613
S''
asbasbasbag68
(g84
g70
NtRp3614
(dp3615
g73
(dp3616
sg82
g3334
sg75
(lp3617
g68
(g89
g70
NtRp3618
(dp3619
g73
(dp3620
g93
g94
ssg82
g3614
sg75
(lp3621
S'generic_patterns'
p3622
asbag68
(g89
g70
NtRp3623
(dp3624
g73
(dp3625
g100
g101
ssg82
g3614
sg75
(lp3626
S':'
asbag68
(g89
g70
NtRp3627
(dp3628
g73
(dp3629
sg82
g3614
sg75
(lp3630
g68
(g69
g70
NtRp3631
(dp3632
g73
(dp3633
g81
I5
ssg82
g3627
sg75
(lp3634
g68
(g77
g70
NtRp3635
(dp3636
g73
(dp3637
g81
I4
ssg82
Nsg75
(lp3638
g68
(g84
g70
NtRp3639
(dp3640
g73
(dp3641
sg82
g3635
sg75
(lp3642
g68
(g89
g70
NtRp3643
(dp3644
g73
(dp3645
sg82
g3639
sg75
(lp3646
g68
(g69
g70
NtRp3647
(dp3648
g73
(dp3649
g81
I4
ssg82
g3643
sg75
(lp3650
S'*'
asbasbasbasbasbasbasbag68
(g84
g70
NtRp3651
(dp3652
g73
(dp3653
sg82
g3334
sg75
(lp3654
g68
(g89
g70
NtRp3655
(dp3656
g73
(dp3657
g93
g94
ssg82
g3651
sg75
(lp3658
S'headers'
p3659
asbag68
(g89
g70
NtRp3660
(dp3661
g73
(dp3662
g100
g101
ssg82
g3651
sg75
(lp3663
S':'
asbag68
(g89
g70
NtRp3664
(dp3665
g73
(dp3666
sg82
g3651
sg75
(lp3667
g68
(g69
g70
NtRp3668
(dp3669
g73
(dp3670
g81
I5
ssg82
g3664
sg75
(lp3671
g68
(g77
g70
NtRp3672
(dp3673
g73
(dp3674
g81
I4
ssg82
Nsg75
(lp3675
g68
(g84
g70
NtRp3676
(dp3677
g73
(dp3678
sg82
g3672
sg75
(lp3679
g68
(g89
g70
NtRp3680
(dp3681
g73
(dp3682
g93
g94
ssg82
g3676
sg75
(lp3683
S'Cache-Control'
p3684
asbag68
(g89
g70
NtRp3685
(dp3686
g73
(dp3687
g100
g101
ssg82
g3676
sg75
(lp3688
S':'
asbag68
(g89
g70
NtRp3689
(dp3690
g73
(dp3691
sg82
g3676
sg75
(lp3692
g68
(g69
g70
NtRp3693
(dp3694
g73
(dp3695
g81
I4
ssg82
g3689
sg75
(lp3696
S'no-store, no-cache, must-revalidate, post-check=0, pre-check=0'
p3697
asbasbasbag68
(g84
g70
NtRp3698
(dp3699
g73
(dp3700
sg82
g3672
sg75
(lp3701
g68
(g89
g70
NtRp3702
(dp3703
g73
(dp3704
g93
g94
ssg82
g3698
sg75
(lp3705
S'Content-Type'
p3706
asbag68
(g89
g70
NtRp3707
(dp3708
g73
(dp3709
g100
g101
ssg82
g3698
sg75
(lp3710
S':'
asbag68
(g89
g70
NtRp3711
(dp3712
g73
(dp3713
sg82
g3698
sg75
(lp3714
g68
(g69
g70
NtRp3715
(dp3716
g73
(dp3717
g81
I4
ssg82
g3711
sg75
(lp3718
S'text/html; charset=utf-8'
p3719
asbasbasbag68
(g84
g70
NtRp3720
(dp3721
g73
(dp3722
sg82
g3672
sg75
(lp3723
g68
(g89
g70
NtRp3724
(dp3725
g73
(dp3726
g93
g94
ssg82
g3720
sg75
(lp3727
S'Expires'
p3728
asbag68
(g89
g70
NtRp3729
(dp3730
g73
(dp3731
g100
g101
ssg82
g3720
sg75
(lp3732
S':'
asbag68
(g89
g70
NtRp3733
(dp3734
g73
(dp3735
sg82
g3720
sg75
(lp3736
g68
(g69
g70
NtRp3737
(dp3738
g73
(dp3739
g81
I4
ssg82
g3733
sg75
(lp3740
S'Sat, 26 May 2012 12:57:16 GMT'
p3741
asbasbasbag68
(g84
g70
NtRp3742
(dp3743
g73
(dp3744
sg82
g3672
sg75
(lp3745
g68
(g89
g70
NtRp3746
(dp3747
g73
(dp3748
g93
g94
ssg82
g3742
sg75
(lp3749
S'Pragma'
p3750
asbag68
(g89
g70
NtRp3751
(dp3752
g73
(dp3753
g100
g101
ssg82
g3742
sg75
(lp3754
S':'
asbag68
(g89
g70
NtRp3755
(dp3756
g73
(dp3757
sg82
g3742
sg75
(lp3758
g68
(g69
g70
NtRp3759
(dp3760
g73
(dp3761
g81
I4
ssg82
g3755
sg75
(lp3762
S'no-cache'
p3763
asbasbasbag68
(g84
g70
NtRp3764
(dp3765
g73
(dp3766
sg82
g3672
sg75
(lp3767
g68
(g89
g70
NtRp3768
(dp3769
g73
(dp3770
g93
g94
ssg82
g3764
sg75
(lp3771
S'X-Powered-By'
p3772
asbag68
(g89
g70
NtRp3773
(dp3774
g73
(dp3775
g100
g101
ssg82
g3764
sg75
(lp3776
S':'
asbag68
(g89
g70
NtRp3777
(dp3778
g73
(dp3779
sg82
g3764
sg75
(lp3780
g68
(g69
g70
NtRp3781
(dp3782
g73
(dp3783
g81
I4
ssg82
g3777
sg75
(lp3784
S'web2py'
p3785
asbasbasbasbasbasbasbag68
(g84
g70
NtRp3786
(dp3787
g73
(dp3788
sg82
g3334
sg75
(lp3789
g68
(g89
g70
NtRp3790
(dp3791
g73
(dp3792
g93
g94
ssg82
g3786
sg75
(lp3793
S'menu'
p3794
asbag68
(g89
g70
NtRp3795
(dp3796
g73
(dp3797
g100
g101
ssg82
g3786
sg75
(lp3798
S':'
asbag68
(g89
g70
NtRp3799
(dp3800
g73
(dp3801
sg82
g3786
sg75
(lp3802
g68
(g69
g70
NtRp3803
(dp3804
g73
(dp3805
g81
I5
ssg82
g3799
sg75
(lp3806
g68
(g77
g70
NtRp3807
(dp3808
g73
(dp3809
g81
I4
ssg82
Nsg75
(lp3810
g68
(g84
g70
NtRp3811
(dp3812
g73
(dp3813
sg82
g3807
sg75
(lp3814
g68
(g89
g70
NtRp3815
(dp3816
g73
(dp3817
sg82
g3811
sg75
(lp3818
g68
(g69
g70
NtRp3819
(dp3820
g73
(dp3821
g81
I4
ssg82
g3815
sg75
(lp3822
g68
(g77
g70
NtRp3823
(dp3824
g73
(dp3825
g81
I3
ssg82
Nsg75
(lp3826
g68
(g84
g70
NtRp3827
(dp3828
g73
(dp3829
sg82
g3823
sg75
(lp3830
g68
(g89
g70
NtRp3831
(dp3832
g73
(dp3833
sg82
g3827
sg75
(lp3834
g68
(g69
g70
NtRp3835
(dp3836
g73
(dp3837
g81
I3
ssg82
g3831
sg75
(lp3838
cgluon.languages
lazyT_unpickle
p3839
(S's\n\x00\x00\x00Clear Page'
tRp3840
asbasbasbag68
(g84
g70
NtRp3841
(dp3842
g73
(dp3843
sg82
g3823
sg75
(lp3844
g68
(g89
g70
NtRp3845
(dp3846
g73
(dp3847
sg82
g3841
sg75
(lp3848
g68
(g69
g70
NtRp3849
(dp3850
g73
(dp3851
g81
I3
ssg82
g3845
sg75
(lp3852
g111
asbasbasbag68
(g84
g70
NtRp3853
(dp3854
g73
(dp3855
sg82
g3823
sg75
(lp3856
g68
(g89
g70
NtRp3857
(dp3858
g73
(dp3859
sg82
g3853
sg75
(lp3860
g68
(g69
g70
NtRp3861
(dp3862
g73
(dp3863
g81
I3
ssg82
g3857
sg75
(lp3864
S'/streamlog/default/index'
p3865
asbasbasbag68
(g84
g70
NtRp3866
(dp3867
g73
(dp3868
sg82
g3823
sg75
(lp3869
g68
(g89
g70
NtRp3870
(dp3871
g73
(dp3872
sg82
g3866
sg75
(lp3873
g68
(g69
g70
NtRp3874
(dp3875
g73
(dp3876
g81
I3
ssg82
g3870
sg75
(lp3877
g68
(g77
g70
NtRp3878
(dp3879
g73
(dp3880
g81
I2
ssg82
Nsg75
(lp3881
sbasbasbasbasbasbasbasbag68
(g84
g70
NtRp3882
(dp3883
g73
(dp3884
sg82
g3807
sg75
(lp3885
g68
(g89
g70
NtRp3886
(dp3887
g73
(dp3888
sg82
g3882
sg75
(lp3889
g68
(g69
g70
NtRp3890
(dp3891
g73
(dp3892
g81
I4
ssg82
g3886
sg75
(lp3893
g68
(g77
g70
NtRp3894
(dp3895
g73
(dp3896
g81
I3
ssg82
Nsg75
(lp3897
g68
(g84
g70
NtRp3898
(dp3899
g73
(dp3900
sg82
g3894
sg75
(lp3901
g68
(g89
g70
NtRp3902
(dp3903
g73
(dp3904
sg82
g3898
sg75
(lp3905
g68
(g69
g70
NtRp3906
(dp3907
g73
(dp3908
g81
I3
ssg82
g3902
sg75
(lp3909
g3839
(S't\x06\x00\x00\x00Manage'
tRp3910
asbasbasbag68
(g84
g70
NtRp3911
(dp3912
g73
(dp3913
sg82
g3894
sg75
(lp3914
g68
(g89
g70
NtRp3915
(dp3916
g73
(dp3917
sg82
g3911
sg75
(lp3918
g68
(g69
g70
NtRp3919
(dp3920
g73
(dp3921
g81
I3
ssg82
g3915
sg75
(lp3922
g111
asbasbasbag68
(g84
g70
NtRp3923
(dp3924
g73
(dp3925
sg82
g3894
sg75
(lp3926
g68
(g89
g70
NtRp3927
(dp3928
g73
(dp3929
sg82
g3923
sg75
(lp3930
g68
(g69
g70
NtRp3931
(dp3932
g73
(dp3933
g81
I3
ssg82
g3927
sg75
(lp3934
S'None'
p3935
asbasbasbag68
(g84
g70
NtRp3936
(dp3937
g73
(dp3938
sg82
g3894
sg75
(lp3939
g68
(g89
g70
NtRp3940
(dp3941
g73
(dp3942
sg82
g3936
sg75
(lp3943
g68
(g69
g70
NtRp3944
(dp3945
g73
(dp3946
g81
I3
ssg82
g3940
sg75
(lp3947
g68
(g77
g70
NtRp3948
(dp3949
g73
(dp3950
g81
I2
ssg82
Nsg75
(lp3951
g68
(g84
g70
NtRp3952
(dp3953
g73
(dp3954
sg82
g3948
sg75
(lp3955
g68
(g89
g70
NtRp3956
(dp3957
g73
(dp3958
sg82
g3952
sg75
(lp3959
g68
(g69
g70
NtRp3960
(dp3961
g73
(dp3962
g81
I2
ssg82
g3956
sg75
(lp3963
g68
(g77
g70
NtRp3964
(dp3965
g73
(dp3966
g81
I1
ssg82
Nsg75
(lp3967
g68
(g84
g70
NtRp3968
(dp3969
g73
(dp3970
sg82
g3964
sg75
(lp3971
g68
(g89
g70
NtRp3972
(dp3973
g73
(dp3974
sg82
g3968
sg75
(lp3975
g68
(g69
g70
NtRp3976
(dp3977
g73
(dp3978
g81
I1
ssg82
g3972
sg75
(lp3979
g3839
(S't\x04\x00\x00\x00Logs'
tRp3980
asbasbasbag68
(g84
g70
NtRp3981
(dp3982
g73
(dp3983
sg82
g3964
sg75
(lp3984
g68
(g89
g70
NtRp3985
(dp3986
g73
(dp3987
sg82
g3981
sg75
(lp3988
g68
(g69
g70
NtRp3989
(dp3990
g73
(dp3991
g81
I1
ssg82
g3985
sg75
(lp3992
I00
asbasbasbag68
(g84
g70
NtRp3993
(dp3994
g73
(dp3995
sg82
g3964
sg75
(lp3996
g68
(g89
g70
NtRp3997
(dp3998
g73
(dp3999
sg82
g3993
sg75
(lp4000
g68
(g69
g70
NtRp4001
(dp4002
g73
(dp4003
g81
I1
ssg82
g3997
sg75
(lp4004
S'/streamlog/default/log_manage'
p4005
asbasbasbag68
(g84
g70
NtRp4006
(dp4007
g73
(dp4008
sg82
g3964
sg75
(lp4009
g68
(g89
g70
NtRp4010
(dp4011
g73
(dp4012
sg82
g4006
sg75
(lp4013
g68
(g69
g70
NtRp4014
(dp4015
g73
(dp4016
g81
I1
ssg82
g4010
sg75
(lp4017
(lp4018
asbasbasbasbasbasbasbag68
(g84
g70
NtRp4019
(dp4020
g73
(dp4021
sg82
g3948
sg75
(lp4022
g68
(g89
g70
NtRp4023
(dp4024
g73
(dp4025
sg82
g4019
sg75
(lp4026
g68
(g69
g70
NtRp4027
(dp4028
g73
(dp4029
g81
I2
ssg82
g4023
sg75
(lp4030
g68
(g77
g70
NtRp4031
(dp4032
g73
(dp4033
g81
I1
ssg82
Nsg75
(lp4034
g68
(g84
g70
NtRp4035
(dp4036
g73
(dp4037
sg82
g4031
sg75
(lp4038
g68
(g89
g70
NtRp4039
(dp4040
g73
(dp4041
sg82
g4035
sg75
(lp4042
g68
(g69
g70
NtRp4043
(dp4044
g73
(dp4045
g81
I1
ssg82
g4039
sg75
(lp4046
g3839
(S't\x07\x00\x00\x00Servers'
tRp4047
asbasbasbag68
(g84
g70
NtRp4048
(dp4049
g73
(dp4050
sg82
g4031
sg75
(lp4051
g68
(g89
g70
NtRp4052
(dp4053
g73
(dp4054
sg82
g4048
sg75
(lp4055
g68
(g69
g70
NtRp4056
(dp4057
g73
(dp4058
g81
I1
ssg82
g4052
sg75
(lp4059
I00
asbasbasbag68
(g84
g70
NtRp4060
(dp4061
g73
(dp4062
sg82
g4031
sg75
(lp4063
g68
(g89
g70
NtRp4064
(dp4065
g73
(dp4066
sg82
g4060
sg75
(lp4067
g68
(g69
g70
NtRp4068
(dp4069
g73
(dp4070
g81
I1
ssg82
g4064
sg75
(lp4071
S'/streamlog/default/server_manage'
p4072
asbasbasbag68
(g84
g70
NtRp4073
(dp4074
g73
(dp4075
sg82
g4031
sg75
(lp4076
g68
(g89
g70
NtRp4077
(dp4078
g73
(dp4079
sg82
g4073
sg75
(lp4080
g68
(g69
g70
NtRp4081
(dp4082
g73
(dp4083
g81
I1
ssg82
g4077
sg75
(lp4084
(lp4085
asbasbasbasbasbasbasbag68
(g84
g70
NtRp4086
(dp4087
g73
(dp4088
sg82
g3948
sg75
(lp4089
g68
(g89
g70
NtRp4090
(dp4091
g73
(dp4092
sg82
g4086
sg75
(lp4093
g68
(g69
g70
NtRp4094
(dp4095
g73
(dp4096
g81
I2
ssg82
g4090
sg75
(lp4097
g68
(g77
g70
NtRp4098
(dp4099
g73
(dp4100
g81
I1
ssg82
Nsg75
(lp4101
g68
(g84
g70
NtRp4102
(dp4103
g73
(dp4104
sg82
g4098
sg75
(lp4105
g68
(g89
g70
NtRp4106
(dp4107
g73
(dp4108
sg82
g4102
sg75
(lp4109
g68
(g69
g70
NtRp4110
(dp4111
g73
(dp4112
g81
I1
ssg82
g4106
sg75
(lp4113
g3839
(S't\x08\x00\x00\x00Projects'
tRp4114
asbasbasbag68
(g84
g70
NtRp4115
(dp4116
g73
(dp4117
sg82
g4098
sg75
(lp4118
g68
(g89
g70
NtRp4119
(dp4120
g73
(dp4121
sg82
g4115
sg75
(lp4122
g68
(g69
g70
NtRp4123
(dp4124
g73
(dp4125
g81
I1
ssg82
g4119
sg75
(lp4126
I00
asbasbasbag68
(g84
g70
NtRp4127
(dp4128
g73
(dp4129
sg82
g4098
sg75
(lp4130
g68
(g89
g70
NtRp4131
(dp4132
g73
(dp4133
sg82
g4127
sg75
(lp4134
g68
(g69
g70
NtRp4135
(dp4136
g73
(dp4137
g81
I1
ssg82
g4131
sg75
(lp4138
S'/streamlog/default/project_manage'
p4139
asbasbasbag68
(g84
g70
NtRp4140
(dp4141
g73
(dp4142
sg82
g4098
sg75
(lp4143
g68
(g89
g70
NtRp4144
(dp4145
g73
(dp4146
sg82
g4140
sg75
(lp4147
g68
(g69
g70
NtRp4148
(dp4149
g73
(dp4150
g81
I1
ssg82
g4144
sg75
(lp4151
(lp4152
asbasbasbasbasbasbasbag68
(g84
g70
NtRp4153
(dp4154
g73
(dp4155
sg82
g3948
sg75
(lp4156
g68
(g89
g70
NtRp4157
(dp4158
g73
(dp4159
sg82
g4153
sg75
(lp4160
g68
(g69
g70
NtRp4161
(dp4162
g73
(dp4163
g81
I2
ssg82
g4157
sg75
(lp4164
g68
(g77
g70
NtRp4165
(dp4166
g73
(dp4167
g81
I1
ssg82
Nsg75
(lp4168
g68
(g84
g70
NtRp4169
(dp4170
g73
(dp4171
sg82
g4165
sg75
(lp4172
g68
(g89
g70
NtRp4173
(dp4174
g73
(dp4175
sg82
g4169
sg75
(lp4176
g68
(g69
g70
NtRp4177
(dp4178
g73
(dp4179
g81
I1
ssg82
g4173
sg75
(lp4180
g3839
(S's\t\x00\x00\x00Type Logs'
tRp4181
asbasbasbag68
(g84
g70
NtRp4182
(dp4183
g73
(dp4184
sg82
g4165
sg75
(lp4185
g68
(g89
g70
NtRp4186
(dp4187
g73
(dp4188
sg82
g4182
sg75
(lp4189
g68
(g69
g70
NtRp4190
(dp4191
g73
(dp4192
g81
I1
ssg82
g4186
sg75
(lp4193
I00
asbasbasbag68
(g84
g70
NtRp4194
(dp4195
g73
(dp4196
sg82
g4165
sg75
(lp4197
g68
(g89
g70
NtRp4198
(dp4199
g73
(dp4200
sg82
g4194
sg75
(lp4201
g68
(g69
g70
NtRp4202
(dp4203
g73
(dp4204
g81
I1
ssg82
g4198
sg75
(lp4205
S'/streamlog/default/type_log_manage'
p4206
asbasbasbag68
(g84
g70
NtRp4207
(dp4208
g73
(dp4209
sg82
g4165
sg75
(lp4210
g68
(g89
g70
NtRp4211
(dp4212
g73
(dp4213
sg82
g4207
sg75
(lp4214
g68
(g69
g70
NtRp4215
(dp4216
g73
(dp4217
g81
I1
ssg82
g4211
sg75
(lp4218
(lp4219
asbasbasbasbasbasbasbasbasbasbasbasbasbasbasbasbasbasbasbag68
(g84
g70
NtRp4220
(dp4221
g73
(dp4222
sg82
g3334
sg75
(lp4223
g68
(g89
g70
NtRp4224
(dp4225
g73
(dp4226
g93
g94
ssg82
g4220
sg75
(lp4227
S'meta'
p4228
asbag68
(g89
g70
NtRp4229
(dp4230
g73
(dp4231
g100
g101
ssg82
g4220
sg75
(lp4232
S':'
asbag68
(g89
g70
NtRp4233
(dp4234
g73
(dp4235
sg82
g4220
sg75
(lp4236
g68
(g69
g70
NtRp4237
(dp4238
g73
(dp4239
g81
I5
ssg82
g4233
sg75
(lp4240
g68
(g77
g70
NtRp4241
(dp4242
g73
(dp4243
g81
I4
ssg82
Nsg75
(lp4244
g68
(g84
g70
NtRp4245
(dp4246
g73
(dp4247
sg82
g4241
sg75
(lp4248
g68
(g89
g70
NtRp4249
(dp4250
g73
(dp4251
g93
g94
ssg82
g4245
sg75
(lp4252
S'author'
p4253
asbag68
(g89
g70
NtRp4254
(dp4255
g73
(dp4256
g100
g101
ssg82
g4245
sg75
(lp4257
S':'
asbag68
(g89
g70
NtRp4258
(dp4259
g73
(dp4260
sg82
g4245
sg75
(lp4261
g68
(g69
g70
NtRp4262
(dp4263
g73
(dp4264
g81
I4
ssg82
g4258
sg75
(lp4265
S'Jose de Soto <josedesoto@gmail.com>'
p4266
asbasbasbag68
(g84
g70
NtRp4267
(dp4268
g73
(dp4269
sg82
g4241
sg75
(lp4270
g68
(g89
g70
NtRp4271
(dp4272
g73
(dp4273
g93
g94
ssg82
g4267
sg75
(lp4274
S'copyright'
p4275
asbag68
(g89
g70
NtRp4276
(dp4277
g73
(dp4278
g100
g101
ssg82
g4267
sg75
(lp4279
S':'
asbag68
(g89
g70
NtRp4280
(dp4281
g73
(dp4282
sg82
g4267
sg75
(lp4283
g68
(g69
g70
NtRp4284
(dp4285
g73
(dp4286
g81
I4
ssg82
g4280
sg75
(lp4287
S'Copyright 2011'
p4288
asbasbasbag68
(g84
g70
NtRp4289
(dp4290
g73
(dp4291
sg82
g4241
sg75
(lp4292
g68
(g89
g70
NtRp4293
(dp4294
g73
(dp4295
g93
g94
ssg82
g4289
sg75
(lp4296
S'description'
p4297
asbag68
(g89
g70
NtRp4298
(dp4299
g73
(dp4300
g100
g101
ssg82
g4289
sg75
(lp4301
S':'
asbag68
(g89
g70
NtRp4302
(dp4303
g73
(dp4304
sg82
g4289
sg75
(lp4305
g68
(g69
g70
NtRp4306
(dp4307
g73
(dp4308
g81
I4
ssg82
g4302
sg75
(lp4309
S'a cool new app'
p4310
asbasbasbag68
(g84
g70
NtRp4311
(dp4312
g73
(dp4313
sg82
g4241
sg75
(lp4314
g68
(g89
g70
NtRp4315
(dp4316
g73
(dp4317
g93
g94
ssg82
g4311
sg75
(lp4318
S'generator'
p4319
asbag68
(g89
g70
NtRp4320
(dp4321
g73
(dp4322
g100
g101
ssg82
g4311
sg75
(lp4323
S':'
asbag68
(g89
g70
NtRp4324
(dp4325
g73
(dp4326
sg82
g4311
sg75
(lp4327
g68
(g69
g70
NtRp4328
(dp4329
g73
(dp4330
g81
I4
ssg82
g4324
sg75
(lp4331
S'Web2py Web Framework'
p4332
asbasbasbag68
(g84
g70
NtRp4333
(dp4334
g73
(dp4335
sg82
g4241
sg75
(lp4336
g68
(g89
g70
NtRp4337
(dp4338
g73
(dp4339
g93
g94
ssg82
g4333
sg75
(lp4340
S'keywords'
p4341
asbag68
(g89
g70
NtRp4342
(dp4343
g73
(dp4344
g100
g101
ssg82
g4333
sg75
(lp4345
S':'
asbag68
(g89
g70
NtRp4346
(dp4347
g73
(dp4348
sg82
g4333
sg75
(lp4349
g68
(g69
g70
NtRp4350
(dp4351
g73
(dp4352
g81
I4
ssg82
g4346
sg75
(lp4353
S'web2py, python, framework'
p4354
asbasbasbasbasbasbasbag68
(g84
g70
NtRp4355
(dp4356
g73
(dp4357
sg82
g3334
sg75
(lp4358
g68
(g89
g70
NtRp4359
(dp4360
g73
(dp4361
g93
g94
ssg82
g4355
sg75
(lp4362
S'postprocessing'
p4363
asbag68
(g89
g70
NtRp4364
(dp4365
g73
(dp4366
g100
g101
ssg82
g4355
sg75
(lp4367
S':'
asbag68
(g89
g70
NtRp4368
(dp4369
g73
(dp4370
sg82
g4355
sg75
(lp4371
g68
(g69
g70
NtRp4372
(dp4373
g73
(dp4374
g81
I5
ssg82
g4368
sg75
(lp4375
g68
(g77
g70
NtRp4376
(dp4377
g73
(dp4378
g81
I4
ssg82
Nsg75
(lp4379
sbasbasbasbag68
(g84
g70
NtRp4380
(dp4381
g73
(dp4382
sg82
g3334
sg75
(lp4383
g68
(g89
g70
NtRp4384
(dp4385
g73
(dp4386
g93
g94
ssg82
g4380
sg75
(lp4387
S'session_file'
p4388
asbag68
(g89
g70
NtRp4389
(dp4390
g73
(dp4391
g100
g101
ssg82
g4380
sg75
(lp4392
S':'
asbag68
(g89
g70
NtRp4393
(dp4394
g73
(dp4395
sg82
g4380
sg75
(lp4396
g68
(g69
g70
NtRp4397
(dp4398
g73
(dp4399
g81
I5
ssg82
g4393
sg75
(lp4400
S"<open file '/home/jose/DESARROLLO/web2py199/applications/streamlog/sessions/127.0.0.1-610b0c7d-3f6f-4500-a76a-b095fb30f7fd', mode 'rb+' at 0x2ab6300>"
p4401
asbasbasbag68
(g84
g70
NtRp4402
(dp4403
g73
(dp4404
sg82
g3334
sg75
(lp4405
g68
(g89
g70
NtRp4406
(dp4407
g73
(dp4408
g93
g94
ssg82
g4402
sg75
(lp4409
S'session_filename'
p4410
asbag68
(g89
g70
NtRp4411
(dp4412
g73
(dp4413
g100
g101
ssg82
g4402
sg75
(lp4414
S':'
asbag68
(g89
g70
NtRp4415
(dp4416
g73
(dp4417
sg82
g4402
sg75
(lp4418
g68
(g69
g70
NtRp4419
(dp4420
g73
(dp4421
g81
I5
ssg82
g4415
sg75
(lp4422
S'/home/jose/DESARROLLO/web2py199/applications/streamlog/sessions/127.0.0.1-610b0c7d-3f6f-4500-a76a-b095fb30f7fd'
p4423
asbasbasbag68
(g84
g70
NtRp4424
(dp4425
g73
(dp4426
sg82
g3334
sg75
(lp4427
g68
(g89
g70
NtRp4428
(dp4429
g73
(dp4430
g93
g94
ssg82
g4424
sg75
(lp4431
S'session_id'
p4432
asbag68
(g89
g70
NtRp4433
(dp4434
g73
(dp4435
g100
g101
ssg82
g4424
sg75
(lp4436
S':'
asbag68
(g89
g70
NtRp4437
(dp4438
g73
(dp4439
sg82
g4424
sg75
(lp4440
g68
(g69
g70
NtRp4441
(dp4442
g73
(dp4443
g81
I5
ssg82
g4437
sg75
(lp4444
S'127.0.0.1-610b0c7d-3f6f-4500-a76a-b095fb30f7fd'
p4445
asbasbasbag68
(g84
g70
NtRp4446
(dp4447
g73
(dp4448
sg82
g3334
sg75
(lp4449
g68
(g89
g70
NtRp4450
(dp4451
g73
(dp4452
g93
g94
ssg82
g4446
sg75
(lp4453
S'session_id_name'
p4454
asbag68
(g89
g70
NtRp4455
(dp4456
g73
(dp4457
g100
g101
ssg82
g4446
sg75
(lp4458
S':'
asbag68
(g89
g70
NtRp4459
(dp4460
g73
(dp4461
sg82
g4446
sg75
(lp4462
g68
(g69
g70
NtRp4463
(dp4464
g73
(dp4465
g81
I5
ssg82
g4459
sg75
(lp4466
g3391
asbasbasbag68
(g84
g70
NtRp4467
(dp4468
g73
(dp4469
sg82
g3334
sg75
(lp4470
g68
(g89
g70
NtRp4471
(dp4472
g73
(dp4473
g93
g94
ssg82
g4467
sg75
(lp4474
S'session_locked'
p4475
asbag68
(g89
g70
NtRp4476
(dp4477
g73
(dp4478
g100
g101
ssg82
g4467
sg75
(lp4479
S':'
asbag68
(g89
g70
NtRp4480
(dp4481
g73
(dp4482
sg82
g4467
sg75
(lp4483
g68
(g69
g70
NtRp4484
(dp4485
g73
(dp4486
g81
I5
ssg82
g4480
sg75
(lp4487
g1646
asbasbasbag68
(g84
g70
NtRp4488
(dp4489
g73
(dp4490
sg82
g3334
sg75
(lp4491
g68
(g89
g70
NtRp4492
(dp4493
g73
(dp4494
g93
g94
ssg82
g4488
sg75
(lp4495
S'session_new'
p4496
asbag68
(g89
g70
NtRp4497
(dp4498
g73
(dp4499
g100
g101
ssg82
g4488
sg75
(lp4500
S':'
asbag68
(g89
g70
NtRp4501
(dp4502
g73
(dp4503
sg82
g4488
sg75
(lp4504
g68
(g69
g70
NtRp4505
(dp4506
g73
(dp4507
g81
I5
ssg82
g4501
sg75
(lp4508
g111
asbasbasbag68
(g84
g70
NtRp4509
(dp4510
g73
(dp4511
sg82
g3334
sg75
(lp4512
g68
(g89
g70
NtRp4513
(dp4514
g73
(dp4515
g93
g94
ssg82
g4509
sg75
(lp4516
S'status'
p4517
asbag68
(g89
g70
NtRp4518
(dp4519
g73
(dp4520
g100
g101
ssg82
g4509
sg75
(lp4521
S':'
asbag68
(g89
g70
NtRp4522
(dp4523
g73
(dp4524
sg82
g4509
sg75
(lp4525
g68
(g69
g70
NtRp4526
(dp4527
g73
(dp4528
g81
I5
ssg82
g4522
sg75
(lp4529
S'200'
p4530
asbasbasbag68
(g84
g70
NtRp4531
(dp4532
g73
(dp4533
sg82
g3334
sg75
(lp4534
g68
(g89
g70
NtRp4535
(dp4536
g73
(dp4537
g93
g94
ssg82
g4531
sg75
(lp4538
S'subtitle'
p4539
asbag68
(g89
g70
NtRp4540
(dp4541
g73
(dp4542
g100
g101
ssg82
g4531
sg75
(lp4543
S':'
asbag68
(g89
g70
NtRp4544
(dp4545
g73
(dp4546
sg82
g4531
sg75
(lp4547
g68
(g69
g70
NtRp4548
(dp4549
g73
(dp4550
g81
I5
ssg82
g4544
sg75
(lp4551
g3839
(S's\x12\x00\x00\x00Stream Log Client!'
tRp4552
asbasbasbag68
(g84
g70
NtRp4553
(dp4554
g73
(dp4555
sg82
g3334
sg75
(lp4556
g68
(g89
g70
NtRp4557
(dp4558
g73
(dp4559
g93
g94
ssg82
g4553
sg75
(lp4560
S'title'
p4561
asbag68
(g89
g70
NtRp4562
(dp4563
g73
(dp4564
g100
g101
ssg82
g4553
sg75
(lp4565
S':'
asbag68
(g89
g70
NtRp4566
(dp4567
g73
(dp4568
sg82
g4553
sg75
(lp4569
g68
(g69
g70
NtRp4570
(dp4571
g73
(dp4572
g81
I5
ssg82
g4566
sg75
(lp4573
g133
asbasbasbag68
(g84
g70
NtRp4574
(dp4575
g73
(dp4576
sg82
g3334
sg75
(lp4577
g68
(g89
g70
NtRp4578
(dp4579
g73
(dp4580
g93
g94
ssg82
g4574
sg75
(lp4581
g2311
asbag68
(g89
g70
NtRp4582
(dp4583
g73
(dp4584
g100
g101
ssg82
g4574
sg75
(lp4585
S':'
asbag68
(g89
g70
NtRp4586
(dp4587
g73
(dp4588
sg82
g4574
sg75
(lp4589
g68
(g69
g70
NtRp4590
(dp4591
g73
(dp4592
g81
I5
ssg82
g4586
sg75
(lp4593
g2324
asbasbasbag68
(g84
g70
NtRp4594
(dp4595
g73
(dp4596
sg82
g3334
sg75
(lp4597
g68
(g89
g70
NtRp4598
(dp4599
g73
(dp4600
g93
g94
ssg82
g4594
sg75
(lp4601
S'view'
p4602
asbag68
(g89
g70
NtRp4603
(dp4604
g73
(dp4605
g100
g101
ssg82
g4594
sg75
(lp4606
S':'
asbag68
(g89
g70
NtRp4607
(dp4608
g73
(dp4609
sg82
g4594
sg75
(lp4610
g68
(g69
g70
NtRp4611
(dp4612
g73
(dp4613
g81
I5
ssg82
g4607
sg75
(lp4614
S'default/getConnectionData.html'
p4615
asbasbasbasbasbsS'locals'
p4616
(dp4617
g3
S"'/home/jose/DESARROLLO/web2py199/applications/streamlog/controllers/default.py'"
p4618
sg5
S"'# -*- coding: utf-8 -*-\\n# this file is released ...sponse._vars=response._caller(getConnectionData)\\n'"
p4619
sssS'traceback'
p4620
S'Traceback (most recent call last):\n  File "/home/jose/DESARROLLO/web2py199/gluon/restricted.py", line 193, in restricted\n    ccode = compile2(code,layer)\n  File "/home/jose/DESARROLLO/web2py199/gluon/restricted.py", line 179, in compile2\n    return compile(code.rstrip().replace(\'\\r\\n\',\'\\n\')+\'\\n\', layer, \'exec\')\n  File "/home/jose/DESARROLLO/web2py199/applications/streamlog/controllers/default.py", line 26\n    return ([\'bar\': (\'baz\', None, 1.0, 2)])\n                  ^\nSyntaxError: invalid syntax\n'
p4621
s.