(dp1
S'output'
p2
S''
sS'layer'
p3
S'/home/jose/DESARROLLO/web2py199/applications/streamlog/controllers/default.py'
p4
sS'code'
p5
S'# -*- coding: utf-8 -*-\n# this file is released under public domain and you can use without limitations\n\n#########################################################################\n## This is a samples controller\n## - index is the default action of any application\n## - user is required for authentication and authorization\n## - download is for downloading files uploaded in the db (does streaming)\n## - call exposes all registered services (none by default)\n#########################################################################\n\n\n\ndef index():\n    """\n    example action using the internationalization operator T and flash\n    rendered by views/default/index.html or views/generic.html\n    """\n    links = [lambda row:  INPUT(_type=\'button\',_value=\'START STREAM\', _onclick=\'createStream(\'+str(row.id)+\')\')]\n    form=SQLFORM.grid(db.t_log, selectable=False, csv=False,create=False, deletable=False, editable=False, links=links, user_signature=False)\n    return dict(message=T(\'Hello World2\'), form=form)\n\n@service.json\ndef getConnectionData():\n\t\n\treturn response.json({"connection": [{\'name_log\': \'xhtml\',\'IP\': \'127.0.0.1\',\'port\': \'8888\'}]})\n\ndef choose_log():\n    """\n    example action using the internationalization operator T and flash\n    rendered by views/default/index.html or views/generic.html\n    """\n    \n    \n    return dict(message="log")\n\n\ndef getTypeTable():\n    """\n    example action using the internationalization operator T and flash\n    rendered by views/default/index.html or views/generic.html\n    """\n    id_log=request.args[0]\n    type_table=db(db.t_log.id==id_log)&(db.t_log.type_log==db.t_type_log.id)).select(db.t_type_log.html_table)\n    for row in type_table:\n        print row.html_table\n        \n\n    table=\'<table cellpadding="0" cellspacing="0" border="0" class="display" id="tablelog"> \\\n    <thead> \\\n        <tr> \\\n            <th>IP</th> \\\n            <th>hyphen</th> \\\n            <th>userid</th> \\\n            <th>Time Request</th> \\\n        <th>Request Time</th> \\\n        <th>Status Code</th> \\\n        <th>Size Object</th> \\\n        </tr>\\\n    </thead> \\\n    <tfoot> \\\n        <tr> \\\n            <th>IP</th> \\\n            <th>hyphen</th> \\\n            <th>userid</th>\\\n            <th>Time Request</th> \\\n        <th>Request Time</th> \\\n        <th>Status Code</th> \\\n        <th>Size Object</th> \\\n        </tr>  \\\n    </tfoot>  \\\n        <tbody> \\\n        </tbody> \\\n    </table>\'\n    \n    return table\n\n\ndef user():\n    """\n    exposes:\n    http://..../[app]/default/user/login\n    http://..../[app]/default/user/logout\n    http://..../[app]/default/user/register\n    http://..../[app]/default/user/profile\n    http://..../[app]/default/user/retrieve_password\n    http://..../[app]/default/user/change_password\n    use @auth.requires_login()\n        @auth.requires_membership(\'group name\')\n        @auth.requires_permission(\'read\',\'table name\',record_id)\n    to decorate functions that need access control\n    """\n    return dict(form=auth())\n\ndef error():\n    return dict()\n\n\ndef project_manage():\n    \n    form = SQLFORM.smartgrid(db.t_project)\n    return locals()\n\n\n\ndef server_manage():\n\n    form=SQLFORM.grid(db.t_server)\n    return locals()\n\ndef log_manage():\n \n    #form = SQLFORM.smartgrid(db.t_log,constraints=dict(t_log=query), selectable=True,searchable=False, csv=False,showbuttontext=True,onupdate=auth.archive)\n    #form = SQLFORM.smartgrid(db.t_log)\n    form=SQLFORM.grid(db.t_log)\n    return locals()\n\ndef type_log_manage():\n\n    form=SQLFORM.grid(db.t_type_log)\n    return locals()\n\ndef download():\n    """\n    allows downloading of uploaded files\n    http://..../[app]/default/download/[filename]\n    """\n    return response.download(request,db)\n\n\ndef call():\n    """\n    exposes services. for example:\n    http://..../[app]/default/call/jsonrpc\n    decorate with @services.jsonrpc the functions to expose\n    supports xml, json, xmlrpc, jsonrpc, amfrpc, rss, csv\n    """\n    return service()\n\n\n@auth.requires_signature()\ndef data():\n    """\n    http://..../[app]/default/data/tables\n    http://..../[app]/default/data/create/[table]\n    http://..../[app]/default/data/read/[table]/[id]\n    http://..../[app]/default/data/update/[table]/[id]\n    http://..../[app]/default/data/delete/[table]/[id]\n    http://..../[app]/default/data/select/[table]\n    http://..../[app]/default/data/search/[table]\n    but URLs bust be signed, i.e. linked with\n      A(\'table\',_href=URL(\'data/tables\',user_signature=True))\n    or with the signed load operator\n      LOAD(\'default\',\'data.load\',args=\'tables\',ajax=True,user_signature=True)\n    """\n    return dict(form=crud())\n\nresponse._vars=response._caller(getTypeTable)\n'
p6
sS'snapshot'
p7
(dp8
S'exception'
p9
(dp10
S'__getslice__'
p11
S"<method-wrapper '__getslice__' of exceptions.SyntaxError object>"
p12
sS'text'
p13
S"'    type_table=db(db.t_log.id==id_log)&(db.t_log...t_type_log.id)).select(db.t_type_log.html_table)\\n'"
p14
sS'__str__'
p15
S"<method-wrapper '__str__' of exceptions.SyntaxError object>"
p16
sS'__reduce__'
p17
S'<built-in method __reduce__ of exceptions.SyntaxError object>'
p18
sS'__dict__'
p19
S'{}'
p20
sS'__sizeof__'
p21
S'<built-in method __sizeof__ of exceptions.SyntaxError object>'
p22
sS'__init__'
p23
S"<method-wrapper '__init__' of exceptions.SyntaxError object>"
p24
sS'__setattr__'
p25
S"<method-wrapper '__setattr__' of exceptions.SyntaxError object>"
p26
sS'__reduce_ex__'
p27
S'<built-in method __reduce_ex__ of exceptions.SyntaxError object>'
p28
sS'__new__'
p29
S'<built-in method __new__ of type object>'
p30
sS'__format__'
p31
S'<built-in method __format__ of exceptions.SyntaxError object>'
p32
sS'__class__'
p33
S"<type 'exceptions.SyntaxError'>"
p34
sS'filename'
p35
S"'/home/jose/DESARROLLO/web2py199/applications/streamlog/controllers/default.py'"
p36
sS'lineno'
p37
S'44'
p38
sS'msg'
p39
S"'invalid syntax'"
p40
sS'__doc__'
p41
S"'Invalid syntax.'"
p42
sS'__getitem__'
p43
S"<method-wrapper '__getitem__' of exceptions.SyntaxError object>"
p44
sS'__setstate__'
p45
S'<built-in method __setstate__ of exceptions.SyntaxError object>'
p46
sS'__getattribute__'
p47
S"<method-wrapper '__getattribute__' of exceptions.SyntaxError object>"
p48
sS'print_file_and_line'
p49
S'None'
p50
sS'args'
p51
S"('invalid syntax', ('/home/jose/DESARROLLO/web2py199/applications/streamlog/controllers/default.py', 44, 77, '    type_table=db(db.t_log.id==id_log)&(db.t_log...t_type_log.id)).select(db.t_type_log.html_table)\\n'))"
p52
sS'__subclasshook__'
p53
S'<built-in method __subclasshook__ of type object>'
p54
sS'offset'
p55
S'77'
p56
sS'__unicode__'
p57
S'<built-in method __unicode__ of exceptions.SyntaxError object>'
p58
sS'__delattr__'
p59
S"<method-wrapper '__delattr__' of exceptions.SyntaxError object>"
p60
sS'__repr__'
p61
S"<method-wrapper '__repr__' of exceptions.SyntaxError object>"
p62
sS'__hash__'
p63
S"<method-wrapper '__hash__' of exceptions.SyntaxError object>"
p64
ssS'evalue'
p65
S'invalid syntax (default.py, line 44)'
p66
sS'request'
p67
ccopy_reg
_reconstructor
p68
(cgluon.html
BEAUTIFY
p69
c__builtin__
object
p70
NtRp71
(dp72
S'attributes'
p73
(dp74
sS'components'
p75
(lp76
g68
(cgluon.html
TABLE
p77
g70
NtRp78
(dp79
g73
(dp80
S'level'
p81
I5
ssS'parent'
p82
Nsg75
(lp83
g68
(cgluon.html
TR
p84
g70
NtRp85
(dp86
g73
(dp87
sg82
g78
sg75
(lp88
g68
(cgluon.html
TD
p89
g70
NtRp90
(dp91
g73
(dp92
S'_style'
p93
S'font-weight:bold;'
p94
ssg82
g85
sg75
(lp95
S'ajax'
p96
asbag68
(g89
g70
NtRp97
(dp98
g73
(dp99
S'_valign'
p100
S'top'
p101
ssg82
g85
sg75
(lp102
S':'
asbag68
(g89
g70
NtRp103
(dp104
g73
(dp105
sg82
g85
sg75
(lp106
g68
(g69
g70
NtRp107
(dp108
g73
(dp109
g81
I5
ssg82
g103
sg75
(lp110
S'False'
p111
asbasbasbag68
(g84
g70
NtRp112
(dp113
g73
(dp114
sg82
g78
sg75
(lp115
g68
(g89
g70
NtRp116
(dp117
g73
(dp118
g93
g94
ssg82
g112
sg75
(lp119
S'application'
p120
asbag68
(g89
g70
NtRp121
(dp122
g73
(dp123
g100
g101
ssg82
g112
sg75
(lp124
S':'
asbag68
(g89
g70
NtRp125
(dp126
g73
(dp127
sg82
g112
sg75
(lp128
g68
(g69
g70
NtRp129
(dp130
g73
(dp131
g81
I5
ssg82
g125
sg75
(lp132
S'streamlog'
p133
asbasbasbag68
(g84
g70
NtRp134
(dp135
g73
(dp136
sg82
g78
sg75
(lp137
g68
(g89
g70
NtRp138
(dp139
g73
(dp140
g93
g94
ssg82
g134
sg75
(lp141
g51
asbag68
(g89
g70
NtRp142
(dp143
g73
(dp144
g100
g101
ssg82
g134
sg75
(lp145
S':'
asbag68
(g89
g70
NtRp146
(dp147
g73
(dp148
sg82
g134
sg75
(lp149
g68
(g69
g70
NtRp150
(dp151
g73
(dp152
g81
I5
ssg82
g146
sg75
(lp153
g68
(g77
g70
NtRp154
(dp155
g73
(dp156
g81
I4
ssg82
Nsg75
(lp157
g68
(g84
g70
NtRp158
(dp159
g73
(dp160
sg82
g154
sg75
(lp161
g68
(g89
g70
NtRp162
(dp163
g73
(dp164
sg82
g158
sg75
(lp165
g68
(g69
g70
NtRp166
(dp167
g73
(dp168
g81
I4
ssg82
g162
sg75
(lp169
S'2'
asbasbasbasbasbasbasbag68
(g84
g70
NtRp170
(dp171
g73
(dp172
sg82
g78
sg75
(lp173
g68
(g89
g70
NtRp174
(dp175
g73
(dp176
g93
g94
ssg82
g170
sg75
(lp177
S'body'
p178
asbag68
(g89
g70
NtRp179
(dp180
g73
(dp181
g100
g101
ssg82
g170
sg75
(lp182
S':'
asbag68
(g89
g70
NtRp183
(dp184
g73
(dp185
sg82
g170
sg75
(lp186
g68
(g69
g70
NtRp187
(dp188
g73
(dp189
g81
I5
ssg82
g183
sg75
(lp190
S'<cStringIO.StringO object at 0x29e35a8>'
p191
asbasbasbag68
(g84
g70
NtRp192
(dp193
g73
(dp194
sg82
g78
sg75
(lp195
g68
(g89
g70
NtRp196
(dp197
g73
(dp198
g93
g94
ssg82
g192
sg75
(lp199
S'client'
p200
asbag68
(g89
g70
NtRp201
(dp202
g73
(dp203
g100
g101
ssg82
g192
sg75
(lp204
S':'
asbag68
(g89
g70
NtRp205
(dp206
g73
(dp207
sg82
g192
sg75
(lp208
g68
(g69
g70
NtRp209
(dp210
g73
(dp211
g81
I5
ssg82
g205
sg75
(lp212
S'127.0.0.1'
p213
asbasbasbag68
(g84
g70
NtRp214
(dp215
g73
(dp216
sg82
g78
sg75
(lp217
g68
(g89
g70
NtRp218
(dp219
g73
(dp220
g93
g94
ssg82
g214
sg75
(lp221
S'controller'
p222
asbag68
(g89
g70
NtRp223
(dp224
g73
(dp225
g100
g101
ssg82
g214
sg75
(lp226
S':'
asbag68
(g89
g70
NtRp227
(dp228
g73
(dp229
sg82
g214
sg75
(lp230
g68
(g69
g70
NtRp231
(dp232
g73
(dp233
g81
I5
ssg82
g227
sg75
(lp234
S'default'
p235
asbasbasbag68
(g84
g70
NtRp236
(dp237
g73
(dp238
sg82
g78
sg75
(lp239
g68
(g89
g70
NtRp240
(dp241
g73
(dp242
g93
g94
ssg82
g236
sg75
(lp243
S'cookies'
p244
asbag68
(g89
g70
NtRp245
(dp246
g73
(dp247
g100
g101
ssg82
g236
sg75
(lp248
S':'
asbag68
(g89
g70
NtRp249
(dp250
g73
(dp251
sg82
g236
sg75
(lp252
g68
(g69
g70
NtRp253
(dp254
g73
(dp255
g81
I5
ssg82
g249
sg75
(lp256
g68
(g77
g70
NtRp257
(dp258
g73
(dp259
g81
I4
ssg82
Nsg75
(lp260
g68
(g84
g70
NtRp261
(dp262
g73
(dp263
sg82
g257
sg75
(lp264
g68
(g89
g70
NtRp265
(dp266
g73
(dp267
g93
g94
ssg82
g261
sg75
(lp268
S'session_id_admin'
p269
asbag68
(g89
g70
NtRp270
(dp271
g73
(dp272
g100
g101
ssg82
g261
sg75
(lp273
S':'
asbag68
(g89
g70
NtRp274
(dp275
g73
(dp276
sg82
g261
sg75
(lp277
g68
(g69
g70
NtRp278
(dp279
g73
(dp280
g81
I4
ssg82
g274
sg75
(lp281
g68
(g77
g70
NtRp282
(dp283
g73
(dp284
g81
I3
ssg82
Nsg75
(lp285
g68
(g84
g70
NtRp286
(dp287
g73
(dp288
sg82
g282
sg75
(lp289
g68
(g89
g70
NtRp290
(dp291
g73
(dp292
g93
g94
ssg82
g286
sg75
(lp293
S'comment'
p294
asbag68
(g89
g70
NtRp295
(dp296
g73
(dp297
g100
g101
ssg82
g286
sg75
(lp298
S':'
asbag68
(g89
g70
NtRp299
(dp300
g73
(dp301
sg82
g286
sg75
(lp302
g68
(g69
g70
NtRp303
(dp304
g73
(dp305
g81
I3
ssg82
g299
sg75
(lp306
S''
asbasbasbag68
(g84
g70
NtRp307
(dp308
g73
(dp309
sg82
g282
sg75
(lp310
g68
(g89
g70
NtRp311
(dp312
g73
(dp313
g93
g94
ssg82
g307
sg75
(lp314
S'domain'
p315
asbag68
(g89
g70
NtRp316
(dp317
g73
(dp318
g100
g101
ssg82
g307
sg75
(lp319
S':'
asbag68
(g89
g70
NtRp320
(dp321
g73
(dp322
sg82
g307
sg75
(lp323
g68
(g69
g70
NtRp324
(dp325
g73
(dp326
g81
I3
ssg82
g320
sg75
(lp327
S''
asbasbasbag68
(g84
g70
NtRp328
(dp329
g73
(dp330
sg82
g282
sg75
(lp331
g68
(g89
g70
NtRp332
(dp333
g73
(dp334
g93
g94
ssg82
g328
sg75
(lp335
S'expires'
p336
asbag68
(g89
g70
NtRp337
(dp338
g73
(dp339
g100
g101
ssg82
g328
sg75
(lp340
S':'
asbag68
(g89
g70
NtRp341
(dp342
g73
(dp343
sg82
g328
sg75
(lp344
g68
(g69
g70
NtRp345
(dp346
g73
(dp347
g81
I3
ssg82
g341
sg75
(lp348
S''
asbasbasbag68
(g84
g70
NtRp349
(dp350
g73
(dp351
sg82
g282
sg75
(lp352
g68
(g89
g70
NtRp353
(dp354
g73
(dp355
g93
g94
ssg82
g349
sg75
(lp356
S'httponly'
p357
asbag68
(g89
g70
NtRp358
(dp359
g73
(dp360
g100
g101
ssg82
g349
sg75
(lp361
S':'
asbag68
(g89
g70
NtRp362
(dp363
g73
(dp364
sg82
g349
sg75
(lp365
g68
(g69
g70
NtRp366
(dp367
g73
(dp368
g81
I3
ssg82
g362
sg75
(lp369
S''
asbasbasbag68
(g84
g70
NtRp370
(dp371
g73
(dp372
sg82
g282
sg75
(lp373
g68
(g89
g70
NtRp374
(dp375
g73
(dp376
g93
g94
ssg82
g370
sg75
(lp377
S'max-age'
p378
asbag68
(g89
g70
NtRp379
(dp380
g73
(dp381
g100
g101
ssg82
g370
sg75
(lp382
S':'
asbag68
(g89
g70
NtRp383
(dp384
g73
(dp385
sg82
g370
sg75
(lp386
g68
(g69
g70
NtRp387
(dp388
g73
(dp389
g81
I3
ssg82
g383
sg75
(lp390
S''
asbasbasbag68
(g84
g70
NtRp391
(dp392
g73
(dp393
sg82
g282
sg75
(lp394
g68
(g89
g70
NtRp395
(dp396
g73
(dp397
g93
g94
ssg82
g391
sg75
(lp398
S'path'
p399
asbag68
(g89
g70
NtRp400
(dp401
g73
(dp402
g100
g101
ssg82
g391
sg75
(lp403
S':'
asbag68
(g89
g70
NtRp404
(dp405
g73
(dp406
sg82
g391
sg75
(lp407
g68
(g69
g70
NtRp408
(dp409
g73
(dp410
g81
I3
ssg82
g404
sg75
(lp411
S''
asbasbasbag68
(g84
g70
NtRp412
(dp413
g73
(dp414
sg82
g282
sg75
(lp415
g68
(g89
g70
NtRp416
(dp417
g73
(dp418
g93
g94
ssg82
g412
sg75
(lp419
S'secure'
p420
asbag68
(g89
g70
NtRp421
(dp422
g73
(dp423
g100
g101
ssg82
g412
sg75
(lp424
S':'
asbag68
(g89
g70
NtRp425
(dp426
g73
(dp427
sg82
g412
sg75
(lp428
g68
(g69
g70
NtRp429
(dp430
g73
(dp431
g81
I3
ssg82
g425
sg75
(lp432
S''
asbasbasbag68
(g84
g70
NtRp433
(dp434
g73
(dp435
sg82
g282
sg75
(lp436
g68
(g89
g70
NtRp437
(dp438
g73
(dp439
g93
g94
ssg82
g433
sg75
(lp440
S'version'
p441
asbag68
(g89
g70
NtRp442
(dp443
g73
(dp444
g100
g101
ssg82
g433
sg75
(lp445
S':'
asbag68
(g89
g70
NtRp446
(dp447
g73
(dp448
sg82
g433
sg75
(lp449
g68
(g69
g70
NtRp450
(dp451
g73
(dp452
g81
I3
ssg82
g446
sg75
(lp453
S''
asbasbasbasbasbasbasbag68
(g84
g70
NtRp454
(dp455
g73
(dp456
sg82
g257
sg75
(lp457
g68
(g89
g70
NtRp458
(dp459
g73
(dp460
g93
g94
ssg82
g454
sg75
(lp461
S'session_id_streamlog'
p462
asbag68
(g89
g70
NtRp463
(dp464
g73
(dp465
g100
g101
ssg82
g454
sg75
(lp466
S':'
asbag68
(g89
g70
NtRp467
(dp468
g73
(dp469
sg82
g454
sg75
(lp470
g68
(g69
g70
NtRp471
(dp472
g73
(dp473
g81
I4
ssg82
g467
sg75
(lp474
g68
(g77
g70
NtRp475
(dp476
g73
(dp477
g81
I3
ssg82
Nsg75
(lp478
g68
(g84
g70
NtRp479
(dp480
g73
(dp481
sg82
g475
sg75
(lp482
g68
(g89
g70
NtRp483
(dp484
g73
(dp485
g93
g94
ssg82
g479
sg75
(lp486
g294
asbag68
(g89
g70
NtRp487
(dp488
g73
(dp489
g100
g101
ssg82
g479
sg75
(lp490
S':'
asbag68
(g89
g70
NtRp491
(dp492
g73
(dp493
sg82
g479
sg75
(lp494
g68
(g69
g70
NtRp495
(dp496
g73
(dp497
g81
I3
ssg82
g491
sg75
(lp498
S''
asbasbasbag68
(g84
g70
NtRp499
(dp500
g73
(dp501
sg82
g475
sg75
(lp502
g68
(g89
g70
NtRp503
(dp504
g73
(dp505
g93
g94
ssg82
g499
sg75
(lp506
g315
asbag68
(g89
g70
NtRp507
(dp508
g73
(dp509
g100
g101
ssg82
g499
sg75
(lp510
S':'
asbag68
(g89
g70
NtRp511
(dp512
g73
(dp513
sg82
g499
sg75
(lp514
g68
(g69
g70
NtRp515
(dp516
g73
(dp517
g81
I3
ssg82
g511
sg75
(lp518
S''
asbasbasbag68
(g84
g70
NtRp519
(dp520
g73
(dp521
sg82
g475
sg75
(lp522
g68
(g89
g70
NtRp523
(dp524
g73
(dp525
g93
g94
ssg82
g519
sg75
(lp526
g336
asbag68
(g89
g70
NtRp527
(dp528
g73
(dp529
g100
g101
ssg82
g519
sg75
(lp530
S':'
asbag68
(g89
g70
NtRp531
(dp532
g73
(dp533
sg82
g519
sg75
(lp534
g68
(g69
g70
NtRp535
(dp536
g73
(dp537
g81
I3
ssg82
g531
sg75
(lp538
S''
asbasbasbag68
(g84
g70
NtRp539
(dp540
g73
(dp541
sg82
g475
sg75
(lp542
g68
(g89
g70
NtRp543
(dp544
g73
(dp545
g93
g94
ssg82
g539
sg75
(lp546
g357
asbag68
(g89
g70
NtRp547
(dp548
g73
(dp549
g100
g101
ssg82
g539
sg75
(lp550
S':'
asbag68
(g89
g70
NtRp551
(dp552
g73
(dp553
sg82
g539
sg75
(lp554
g68
(g69
g70
NtRp555
(dp556
g73
(dp557
g81
I3
ssg82
g551
sg75
(lp558
S''
asbasbasbag68
(g84
g70
NtRp559
(dp560
g73
(dp561
sg82
g475
sg75
(lp562
g68
(g89
g70
NtRp563
(dp564
g73
(dp565
g93
g94
ssg82
g559
sg75
(lp566
g378
asbag68
(g89
g70
NtRp567
(dp568
g73
(dp569
g100
g101
ssg82
g559
sg75
(lp570
S':'
asbag68
(g89
g70
NtRp571
(dp572
g73
(dp573
sg82
g559
sg75
(lp574
g68
(g69
g70
NtRp575
(dp576
g73
(dp577
g81
I3
ssg82
g571
sg75
(lp578
S''
asbasbasbag68
(g84
g70
NtRp579
(dp580
g73
(dp581
sg82
g475
sg75
(lp582
g68
(g89
g70
NtRp583
(dp584
g73
(dp585
g93
g94
ssg82
g579
sg75
(lp586
g399
asbag68
(g89
g70
NtRp587
(dp588
g73
(dp589
g100
g101
ssg82
g579
sg75
(lp590
S':'
asbag68
(g89
g70
NtRp591
(dp592
g73
(dp593
sg82
g579
sg75
(lp594
g68
(g69
g70
NtRp595
(dp596
g73
(dp597
g81
I3
ssg82
g591
sg75
(lp598
S''
asbasbasbag68
(g84
g70
NtRp599
(dp600
g73
(dp601
sg82
g475
sg75
(lp602
g68
(g89
g70
NtRp603
(dp604
g73
(dp605
g93
g94
ssg82
g599
sg75
(lp606
g420
asbag68
(g89
g70
NtRp607
(dp608
g73
(dp609
g100
g101
ssg82
g599
sg75
(lp610
S':'
asbag68
(g89
g70
NtRp611
(dp612
g73
(dp613
sg82
g599
sg75
(lp614
g68
(g69
g70
NtRp615
(dp616
g73
(dp617
g81
I3
ssg82
g611
sg75
(lp618
S''
asbasbasbag68
(g84
g70
NtRp619
(dp620
g73
(dp621
sg82
g475
sg75
(lp622
g68
(g89
g70
NtRp623
(dp624
g73
(dp625
g93
g94
ssg82
g619
sg75
(lp626
g441
asbag68
(g89
g70
NtRp627
(dp628
g73
(dp629
g100
g101
ssg82
g619
sg75
(lp630
S':'
asbag68
(g89
g70
NtRp631
(dp632
g73
(dp633
sg82
g619
sg75
(lp634
g68
(g69
g70
NtRp635
(dp636
g73
(dp637
g81
I3
ssg82
g631
sg75
(lp638
S''
asbasbasbasbasbasbasbag68
(g84
g70
NtRp639
(dp640
g73
(dp641
sg82
g257
sg75
(lp642
g68
(g89
g70
NtRp643
(dp644
g73
(dp645
g93
g94
ssg82
g639
sg75
(lp646
S'session_id_test3'
p647
asbag68
(g89
g70
NtRp648
(dp649
g73
(dp650
g100
g101
ssg82
g639
sg75
(lp651
S':'
asbag68
(g89
g70
NtRp652
(dp653
g73
(dp654
sg82
g639
sg75
(lp655
g68
(g69
g70
NtRp656
(dp657
g73
(dp658
g81
I4
ssg82
g652
sg75
(lp659
g68
(g77
g70
NtRp660
(dp661
g73
(dp662
g81
I3
ssg82
Nsg75
(lp663
g68
(g84
g70
NtRp664
(dp665
g73
(dp666
sg82
g660
sg75
(lp667
g68
(g89
g70
NtRp668
(dp669
g73
(dp670
g93
g94
ssg82
g664
sg75
(lp671
g294
asbag68
(g89
g70
NtRp672
(dp673
g73
(dp674
g100
g101
ssg82
g664
sg75
(lp675
S':'
asbag68
(g89
g70
NtRp676
(dp677
g73
(dp678
sg82
g664
sg75
(lp679
g68
(g69
g70
NtRp680
(dp681
g73
(dp682
g81
I3
ssg82
g676
sg75
(lp683
S''
asbasbasbag68
(g84
g70
NtRp684
(dp685
g73
(dp686
sg82
g660
sg75
(lp687
g68
(g89
g70
NtRp688
(dp689
g73
(dp690
g93
g94
ssg82
g684
sg75
(lp691
g315
asbag68
(g89
g70
NtRp692
(dp693
g73
(dp694
g100
g101
ssg82
g684
sg75
(lp695
S':'
asbag68
(g89
g70
NtRp696
(dp697
g73
(dp698
sg82
g684
sg75
(lp699
g68
(g69
g70
NtRp700
(dp701
g73
(dp702
g81
I3
ssg82
g696
sg75
(lp703
S''
asbasbasbag68
(g84
g70
NtRp704
(dp705
g73
(dp706
sg82
g660
sg75
(lp707
g68
(g89
g70
NtRp708
(dp709
g73
(dp710
g93
g94
ssg82
g704
sg75
(lp711
g336
asbag68
(g89
g70
NtRp712
(dp713
g73
(dp714
g100
g101
ssg82
g704
sg75
(lp715
S':'
asbag68
(g89
g70
NtRp716
(dp717
g73
(dp718
sg82
g704
sg75
(lp719
g68
(g69
g70
NtRp720
(dp721
g73
(dp722
g81
I3
ssg82
g716
sg75
(lp723
S''
asbasbasbag68
(g84
g70
NtRp724
(dp725
g73
(dp726
sg82
g660
sg75
(lp727
g68
(g89
g70
NtRp728
(dp729
g73
(dp730
g93
g94
ssg82
g724
sg75
(lp731
g357
asbag68
(g89
g70
NtRp732
(dp733
g73
(dp734
g100
g101
ssg82
g724
sg75
(lp735
S':'
asbag68
(g89
g70
NtRp736
(dp737
g73
(dp738
sg82
g724
sg75
(lp739
g68
(g69
g70
NtRp740
(dp741
g73
(dp742
g81
I3
ssg82
g736
sg75
(lp743
S''
asbasbasbag68
(g84
g70
NtRp744
(dp745
g73
(dp746
sg82
g660
sg75
(lp747
g68
(g89
g70
NtRp748
(dp749
g73
(dp750
g93
g94
ssg82
g744
sg75
(lp751
g378
asbag68
(g89
g70
NtRp752
(dp753
g73
(dp754
g100
g101
ssg82
g744
sg75
(lp755
S':'
asbag68
(g89
g70
NtRp756
(dp757
g73
(dp758
sg82
g744
sg75
(lp759
g68
(g69
g70
NtRp760
(dp761
g73
(dp762
g81
I3
ssg82
g756
sg75
(lp763
S''
asbasbasbag68
(g84
g70
NtRp764
(dp765
g73
(dp766
sg82
g660
sg75
(lp767
g68
(g89
g70
NtRp768
(dp769
g73
(dp770
g93
g94
ssg82
g764
sg75
(lp771
g399
asbag68
(g89
g70
NtRp772
(dp773
g73
(dp774
g100
g101
ssg82
g764
sg75
(lp775
S':'
asbag68
(g89
g70
NtRp776
(dp777
g73
(dp778
sg82
g764
sg75
(lp779
g68
(g69
g70
NtRp780
(dp781
g73
(dp782
g81
I3
ssg82
g776
sg75
(lp783
S''
asbasbasbag68
(g84
g70
NtRp784
(dp785
g73
(dp786
sg82
g660
sg75
(lp787
g68
(g89
g70
NtRp788
(dp789
g73
(dp790
g93
g94
ssg82
g784
sg75
(lp791
g420
asbag68
(g89
g70
NtRp792
(dp793
g73
(dp794
g100
g101
ssg82
g784
sg75
(lp795
S':'
asbag68
(g89
g70
NtRp796
(dp797
g73
(dp798
sg82
g784
sg75
(lp799
g68
(g69
g70
NtRp800
(dp801
g73
(dp802
g81
I3
ssg82
g796
sg75
(lp803
S''
asbasbasbag68
(g84
g70
NtRp804
(dp805
g73
(dp806
sg82
g660
sg75
(lp807
g68
(g89
g70
NtRp808
(dp809
g73
(dp810
g93
g94
ssg82
g804
sg75
(lp811
g441
asbag68
(g89
g70
NtRp812
(dp813
g73
(dp814
g100
g101
ssg82
g804
sg75
(lp815
S':'
asbag68
(g89
g70
NtRp816
(dp817
g73
(dp818
sg82
g804
sg75
(lp819
g68
(g69
g70
NtRp820
(dp821
g73
(dp822
g81
I3
ssg82
g816
sg75
(lp823
S''
asbasbasbasbasbasbasbasbasbasbasbag68
(g84
g70
NtRp824
(dp825
g73
(dp826
sg82
g78
sg75
(lp827
g68
(g89
g70
NtRp828
(dp829
g73
(dp830
g93
g94
ssg82
g824
sg75
(lp831
S'env'
p832
asbag68
(g89
g70
NtRp833
(dp834
g73
(dp835
g100
g101
ssg82
g824
sg75
(lp836
S':'
asbag68
(g89
g70
NtRp837
(dp838
g73
(dp839
sg82
g824
sg75
(lp840
g68
(g69
g70
NtRp841
(dp842
g73
(dp843
g81
I5
ssg82
g837
sg75
(lp844
g68
(g77
g70
NtRp845
(dp846
g73
(dp847
g81
I4
ssg82
Nsg75
(lp848
g68
(g84
g70
NtRp849
(dp850
g73
(dp851
sg82
g845
sg75
(lp852
g68
(g89
g70
NtRp853
(dp854
g73
(dp855
g93
g94
ssg82
g849
sg75
(lp856
S'app_folders'
p857
asbag68
(g89
g70
NtRp858
(dp859
g73
(dp860
g100
g101
ssg82
g849
sg75
(lp861
S':'
asbag68
(g89
g70
NtRp862
(dp863
g73
(dp864
sg82
g849
sg75
(lp865
g68
(g69
g70
NtRp866
(dp867
g73
(dp868
g81
I4
ssg82
g862
sg75
(lp869
S"set(['/home/jose/DESARROLLO/web2py199/applications/streamlog/', '/home/jose/DESARROLLO/web2py199/applications/admin/'])"
p870
asbasbasbag68
(g84
g70
NtRp871
(dp872
g73
(dp873
sg82
g845
sg75
(lp874
g68
(g89
g70
NtRp875
(dp876
g73
(dp877
g93
g94
ssg82
g871
sg75
(lp878
S'applications_parent'
p879
asbag68
(g89
g70
NtRp880
(dp881
g73
(dp882
g100
g101
ssg82
g871
sg75
(lp883
S':'
asbag68
(g89
g70
NtRp884
(dp885
g73
(dp886
sg82
g871
sg75
(lp887
g68
(g69
g70
NtRp888
(dp889
g73
(dp890
g81
I4
ssg82
g884
sg75
(lp891
S'/home/jose/DESARROLLO/web2py199'
p892
asbasbasbag68
(g84
g70
NtRp893
(dp894
g73
(dp895
sg82
g845
sg75
(lp896
g68
(g89
g70
NtRp897
(dp898
g73
(dp899
g93
g94
ssg82
g893
sg75
(lp900
S'cmd_args'
p901
asbag68
(g89
g70
NtRp902
(dp903
g73
(dp904
g100
g101
ssg82
g893
sg75
(lp905
S':'
asbag68
(g89
g70
NtRp906
(dp907
g73
(dp908
sg82
g893
sg75
(lp909
g68
(g69
g70
NtRp910
(dp911
g73
(dp912
g81
I4
ssg82
g906
sg75
(lp913
g68
(g77
g70
NtRp914
(dp915
g73
(dp916
g81
I3
ssg82
Nsg75
(lp917
sbasbasbasbag68
(g84
g70
NtRp918
(dp919
g73
(dp920
sg82
g845
sg75
(lp921
g68
(g89
g70
NtRp922
(dp923
g73
(dp924
g93
g94
ssg82
g918
sg75
(lp925
S'cmd_options'
p926
asbag68
(g89
g70
NtRp927
(dp928
g73
(dp929
g100
g101
ssg82
g918
sg75
(lp930
S':'
asbag68
(g89
g70
NtRp931
(dp932
g73
(dp933
sg82
g918
sg75
(lp934
g68
(g69
g70
NtRp935
(dp936
g73
(dp937
g81
I4
ssg82
g931
sg75
(lp938
S"<Values at 0x1c79f80: {'verbose': False, 'ip': '127.0.0.1', 'shutdown_timeout': 5, 'taskbar': False, 'nocron': False, 'pid_filename': 'httpserver.pid', 'maxthreads': None, 'softcron': False, 'server_name': 'jose', 'bpython': False, 'nogui': False, 'port': 8000, 'extcron': False, 'debuglevel': 30, 'test': None, 'folder': '/home/jose/DESARROLLO/web2py199', 'config': '', 'import_models': False, 'winservice': '', 'shell': None, 'run': '', 'log_filename': 'httpserver.log', 'args': [''], 'ssl_ca_certificate': None, 'scheduler': None, 'profiler_filename': None, 'ssl_private_key': '', 'password': 't', 'request_queue_size': 5, 'ssl_certificate': '', 'cronjob': False, 'plain': False, 'quiet': False, 'interfaces': None, 'minthreads': None, 'timeout': 10, 'numthreads': None, 'nobanner': False}>"
p939
asbasbasbag68
(g84
g70
NtRp940
(dp941
g73
(dp942
sg82
g845
sg75
(lp943
g68
(g89
g70
NtRp944
(dp945
g73
(dp946
g93
g94
ssg82
g940
sg75
(lp947
S'db_sessions'
p948
asbag68
(g89
g70
NtRp949
(dp950
g73
(dp951
g100
g101
ssg82
g940
sg75
(lp952
S':'
asbag68
(g89
g70
NtRp953
(dp954
g73
(dp955
sg82
g940
sg75
(lp956
g68
(g69
g70
NtRp957
(dp958
g73
(dp959
g81
I4
ssg82
g953
sg75
(lp960
S'set([])'
p961
asbasbasbag68
(g84
g70
NtRp962
(dp963
g73
(dp964
sg82
g845
sg75
(lp965
g68
(g89
g70
NtRp966
(dp967
g73
(dp968
g93
g94
ssg82
g962
sg75
(lp969
S'debugging'
p970
asbag68
(g89
g70
NtRp971
(dp972
g73
(dp973
g100
g101
ssg82
g962
sg75
(lp974
S':'
asbag68
(g89
g70
NtRp975
(dp976
g73
(dp977
sg82
g962
sg75
(lp978
g68
(g69
g70
NtRp979
(dp980
g73
(dp981
g81
I4
ssg82
g975
sg75
(lp982
g111
asbasbasbag68
(g84
g70
NtRp983
(dp984
g73
(dp985
sg82
g845
sg75
(lp986
g68
(g89
g70
NtRp987
(dp988
g73
(dp989
g93
g94
ssg82
g983
sg75
(lp990
S'gluon_parent'
p991
asbag68
(g89
g70
NtRp992
(dp993
g73
(dp994
g100
g101
ssg82
g983
sg75
(lp995
S':'
asbag68
(g89
g70
NtRp996
(dp997
g73
(dp998
sg82
g983
sg75
(lp999
g68
(g69
g70
NtRp1000
(dp1001
g73
(dp1002
g81
I4
ssg82
g996
sg75
(lp1003
S'/home/jose/DESARROLLO/web2py199'
p1004
asbasbasbag68
(g84
g70
NtRp1005
(dp1006
g73
(dp1007
sg82
g845
sg75
(lp1008
g68
(g89
g70
NtRp1009
(dp1010
g73
(dp1011
g93
g94
ssg82
g1005
sg75
(lp1012
S'http_accept'
p1013
asbag68
(g89
g70
NtRp1014
(dp1015
g73
(dp1016
g100
g101
ssg82
g1005
sg75
(lp1017
S':'
asbag68
(g89
g70
NtRp1018
(dp1019
g73
(dp1020
sg82
g1005
sg75
(lp1021
g68
(g69
g70
NtRp1022
(dp1023
g73
(dp1024
g81
I4
ssg82
g1018
sg75
(lp1025
S'text/html,application/xhtml+xml,application/xml;q=0.9,*/*;q=0.8'
p1026
asbasbasbag68
(g84
g70
NtRp1027
(dp1028
g73
(dp1029
sg82
g845
sg75
(lp1030
g68
(g89
g70
NtRp1031
(dp1032
g73
(dp1033
g93
g94
ssg82
g1027
sg75
(lp1034
S'http_accept_encoding'
p1035
asbag68
(g89
g70
NtRp1036
(dp1037
g73
(dp1038
g100
g101
ssg82
g1027
sg75
(lp1039
S':'
asbag68
(g89
g70
NtRp1040
(dp1041
g73
(dp1042
sg82
g1027
sg75
(lp1043
g68
(g69
g70
NtRp1044
(dp1045
g73
(dp1046
g81
I4
ssg82
g1040
sg75
(lp1047
S'gzip, deflate'
p1048
asbasbasbag68
(g84
g70
NtRp1049
(dp1050
g73
(dp1051
sg82
g845
sg75
(lp1052
g68
(g89
g70
NtRp1053
(dp1054
g73
(dp1055
g93
g94
ssg82
g1049
sg75
(lp1056
S'http_accept_language'
p1057
asbag68
(g89
g70
NtRp1058
(dp1059
g73
(dp1060
g100
g101
ssg82
g1049
sg75
(lp1061
S':'
asbag68
(g89
g70
NtRp1062
(dp1063
g73
(dp1064
sg82
g1049
sg75
(lp1065
g68
(g69
g70
NtRp1066
(dp1067
g73
(dp1068
g81
I4
ssg82
g1062
sg75
(lp1069
S'en-us,en;q=0.5'
p1070
asbasbasbag68
(g84
g70
NtRp1071
(dp1072
g73
(dp1073
sg82
g845
sg75
(lp1074
g68
(g89
g70
NtRp1075
(dp1076
g73
(dp1077
g93
g94
ssg82
g1071
sg75
(lp1078
S'http_cache_control'
p1079
asbag68
(g89
g70
NtRp1080
(dp1081
g73
(dp1082
g100
g101
ssg82
g1071
sg75
(lp1083
S':'
asbag68
(g89
g70
NtRp1084
(dp1085
g73
(dp1086
sg82
g1071
sg75
(lp1087
g68
(g69
g70
NtRp1088
(dp1089
g73
(dp1090
g81
I4
ssg82
g1084
sg75
(lp1091
S'max-age=0'
p1092
asbasbasbag68
(g84
g70
NtRp1093
(dp1094
g73
(dp1095
sg82
g845
sg75
(lp1096
g68
(g89
g70
NtRp1097
(dp1098
g73
(dp1099
g93
g94
ssg82
g1093
sg75
(lp1100
S'http_connection'
p1101
asbag68
(g89
g70
NtRp1102
(dp1103
g73
(dp1104
g100
g101
ssg82
g1093
sg75
(lp1105
S':'
asbag68
(g89
g70
NtRp1106
(dp1107
g73
(dp1108
sg82
g1093
sg75
(lp1109
g68
(g69
g70
NtRp1110
(dp1111
g73
(dp1112
g81
I4
ssg82
g1106
sg75
(lp1113
S'keep-alive'
p1114
asbasbasbag68
(g84
g70
NtRp1115
(dp1116
g73
(dp1117
sg82
g845
sg75
(lp1118
g68
(g89
g70
NtRp1119
(dp1120
g73
(dp1121
g93
g94
ssg82
g1115
sg75
(lp1122
S'http_cookie'
p1123
asbag68
(g89
g70
NtRp1124
(dp1125
g73
(dp1126
g100
g101
ssg82
g1115
sg75
(lp1127
S':'
asbag68
(g89
g70
NtRp1128
(dp1129
g73
(dp1130
sg82
g1115
sg75
(lp1131
g68
(g69
g70
NtRp1132
(dp1133
g73
(dp1134
g81
I4
ssg82
g1128
sg75
(lp1135
S'session_id_streamlog=127.0.0.1-610b0c7d-3f6f-4500-a76a-b095fb30f7fd; session_id_admin=127.0.0.1-8f69464e-4a83-4875-ad25-00cf5c7e8e11; session_id_test3=127.0.0.1-380e7b29-b635-4690-b9ca-812870d6a061'
p1136
asbasbasbag68
(g84
g70
NtRp1137
(dp1138
g73
(dp1139
sg82
g845
sg75
(lp1140
g68
(g89
g70
NtRp1141
(dp1142
g73
(dp1143
g93
g94
ssg82
g1137
sg75
(lp1144
S'http_host'
p1145
asbag68
(g89
g70
NtRp1146
(dp1147
g73
(dp1148
g100
g101
ssg82
g1137
sg75
(lp1149
S':'
asbag68
(g89
g70
NtRp1150
(dp1151
g73
(dp1152
sg82
g1137
sg75
(lp1153
g68
(g69
g70
NtRp1154
(dp1155
g73
(dp1156
g81
I4
ssg82
g1150
sg75
(lp1157
S'localhost:8000'
p1158
asbasbasbag68
(g84
g70
NtRp1159
(dp1160
g73
(dp1161
sg82
g845
sg75
(lp1162
g68
(g89
g70
NtRp1163
(dp1164
g73
(dp1165
g93
g94
ssg82
g1159
sg75
(lp1166
S'http_user_agent'
p1167
asbag68
(g89
g70
NtRp1168
(dp1169
g73
(dp1170
g100
g101
ssg82
g1159
sg75
(lp1171
S':'
asbag68
(g89
g70
NtRp1172
(dp1173
g73
(dp1174
sg82
g1159
sg75
(lp1175
g68
(g69
g70
NtRp1176
(dp1177
g73
(dp1178
g81
I4
ssg82
g1172
sg75
(lp1179
S'Mozilla/5.0 (X11; Ubuntu; Linux x86_64; rv:12.0) Gecko/20100101 Firefox/12.0'
p1180
asbasbasbag68
(g84
g70
NtRp1181
(dp1182
g73
(dp1183
sg82
g845
sg75
(lp1184
g68
(g89
g70
NtRp1185
(dp1186
g73
(dp1187
g93
g94
ssg82
g1181
sg75
(lp1188
S'is_jython'
p1189
asbag68
(g89
g70
NtRp1190
(dp1191
g73
(dp1192
g100
g101
ssg82
g1181
sg75
(lp1193
S':'
asbag68
(g89
g70
NtRp1194
(dp1195
g73
(dp1196
sg82
g1181
sg75
(lp1197
g68
(g69
g70
NtRp1198
(dp1199
g73
(dp1200
g81
I4
ssg82
g1194
sg75
(lp1201
g111
asbasbasbag68
(g84
g70
NtRp1202
(dp1203
g73
(dp1204
sg82
g845
sg75
(lp1205
g68
(g89
g70
NtRp1206
(dp1207
g73
(dp1208
g93
g94
ssg82
g1202
sg75
(lp1209
S'path_info'
p1210
asbag68
(g89
g70
NtRp1211
(dp1212
g73
(dp1213
g100
g101
ssg82
g1202
sg75
(lp1214
S':'
asbag68
(g89
g70
NtRp1215
(dp1216
g73
(dp1217
sg82
g1202
sg75
(lp1218
g68
(g69
g70
NtRp1219
(dp1220
g73
(dp1221
g81
I4
ssg82
g1215
sg75
(lp1222
S'/streamlog/default/getTypeTable/2'
p1223
asbasbasbag68
(g84
g70
NtRp1224
(dp1225
g73
(dp1226
sg82
g845
sg75
(lp1227
g68
(g89
g70
NtRp1228
(dp1229
g73
(dp1230
g93
g94
ssg82
g1224
sg75
(lp1231
S'query_string'
p1232
asbag68
(g89
g70
NtRp1233
(dp1234
g73
(dp1235
g100
g101
ssg82
g1224
sg75
(lp1236
S':'
asbag68
(g89
g70
NtRp1237
(dp1238
g73
(dp1239
sg82
g1224
sg75
(lp1240
g68
(g69
g70
NtRp1241
(dp1242
g73
(dp1243
g81
I4
ssg82
g1237
sg75
(lp1244
S''
asbasbasbag68
(g84
g70
NtRp1245
(dp1246
g73
(dp1247
sg82
g845
sg75
(lp1248
g68
(g89
g70
NtRp1249
(dp1250
g73
(dp1251
g93
g94
ssg82
g1245
sg75
(lp1252
S'remote_addr'
p1253
asbag68
(g89
g70
NtRp1254
(dp1255
g73
(dp1256
g100
g101
ssg82
g1245
sg75
(lp1257
S':'
asbag68
(g89
g70
NtRp1258
(dp1259
g73
(dp1260
sg82
g1245
sg75
(lp1261
g68
(g69
g70
NtRp1262
(dp1263
g73
(dp1264
g81
I4
ssg82
g1258
sg75
(lp1265
g213
asbasbasbag68
(g84
g70
NtRp1266
(dp1267
g73
(dp1268
sg82
g845
sg75
(lp1269
g68
(g89
g70
NtRp1270
(dp1271
g73
(dp1272
g93
g94
ssg82
g1266
sg75
(lp1273
S'remote_port'
p1274
asbag68
(g89
g70
NtRp1275
(dp1276
g73
(dp1277
g100
g101
ssg82
g1266
sg75
(lp1278
S':'
asbag68
(g89
g70
NtRp1279
(dp1280
g73
(dp1281
sg82
g1266
sg75
(lp1282
g68
(g69
g70
NtRp1283
(dp1284
g73
(dp1285
g81
I4
ssg82
g1279
sg75
(lp1286
S'36166'
p1287
asbasbasbag68
(g84
g70
NtRp1288
(dp1289
g73
(dp1290
sg82
g845
sg75
(lp1291
g68
(g89
g70
NtRp1292
(dp1293
g73
(dp1294
g93
g94
ssg82
g1288
sg75
(lp1295
S'request_method'
p1296
asbag68
(g89
g70
NtRp1297
(dp1298
g73
(dp1299
g100
g101
ssg82
g1288
sg75
(lp1300
S':'
asbag68
(g89
g70
NtRp1301
(dp1302
g73
(dp1303
sg82
g1288
sg75
(lp1304
g68
(g69
g70
NtRp1305
(dp1306
g73
(dp1307
g81
I4
ssg82
g1301
sg75
(lp1308
S'GET'
p1309
asbasbasbag68
(g84
g70
NtRp1310
(dp1311
g73
(dp1312
sg82
g845
sg75
(lp1313
g68
(g89
g70
NtRp1314
(dp1315
g73
(dp1316
g93
g94
ssg82
g1310
sg75
(lp1317
S'script_name'
p1318
asbag68
(g89
g70
NtRp1319
(dp1320
g73
(dp1321
g100
g101
ssg82
g1310
sg75
(lp1322
S':'
asbag68
(g89
g70
NtRp1323
(dp1324
g73
(dp1325
sg82
g1310
sg75
(lp1326
g68
(g69
g70
NtRp1327
(dp1328
g73
(dp1329
g81
I4
ssg82
g1323
sg75
(lp1330
S''
asbasbasbag68
(g84
g70
NtRp1331
(dp1332
g73
(dp1333
sg82
g845
sg75
(lp1334
g68
(g89
g70
NtRp1335
(dp1336
g73
(dp1337
g93
g94
ssg82
g1331
sg75
(lp1338
S'server_name'
p1339
asbag68
(g89
g70
NtRp1340
(dp1341
g73
(dp1342
g100
g101
ssg82
g1331
sg75
(lp1343
S':'
asbag68
(g89
g70
NtRp1344
(dp1345
g73
(dp1346
sg82
g1331
sg75
(lp1347
g68
(g69
g70
NtRp1348
(dp1349
g73
(dp1350
g81
I4
ssg82
g1344
sg75
(lp1351
S'jose'
p1352
asbasbasbag68
(g84
g70
NtRp1353
(dp1354
g73
(dp1355
sg82
g845
sg75
(lp1356
g68
(g89
g70
NtRp1357
(dp1358
g73
(dp1359
g93
g94
ssg82
g1353
sg75
(lp1360
S'server_port'
p1361
asbag68
(g89
g70
NtRp1362
(dp1363
g73
(dp1364
g100
g101
ssg82
g1353
sg75
(lp1365
S':'
asbag68
(g89
g70
NtRp1366
(dp1367
g73
(dp1368
sg82
g1353
sg75
(lp1369
g68
(g69
g70
NtRp1370
(dp1371
g73
(dp1372
g81
I4
ssg82
g1366
sg75
(lp1373
S'8000'
p1374
asbasbasbag68
(g84
g70
NtRp1375
(dp1376
g73
(dp1377
sg82
g845
sg75
(lp1378
g68
(g89
g70
NtRp1379
(dp1380
g73
(dp1381
g93
g94
ssg82
g1375
sg75
(lp1382
S'server_protocol'
p1383
asbag68
(g89
g70
NtRp1384
(dp1385
g73
(dp1386
g100
g101
ssg82
g1375
sg75
(lp1387
S':'
asbag68
(g89
g70
NtRp1388
(dp1389
g73
(dp1390
sg82
g1375
sg75
(lp1391
g68
(g69
g70
NtRp1392
(dp1393
g73
(dp1394
g81
I4
ssg82
g1388
sg75
(lp1395
S'HTTP/1.1'
p1396
asbasbasbag68
(g84
g70
NtRp1397
(dp1398
g73
(dp1399
sg82
g845
sg75
(lp1400
g68
(g89
g70
NtRp1401
(dp1402
g73
(dp1403
g93
g94
ssg82
g1397
sg75
(lp1404
S'server_software'
p1405
asbag68
(g89
g70
NtRp1406
(dp1407
g73
(dp1408
g100
g101
ssg82
g1397
sg75
(lp1409
S':'
asbag68
(g89
g70
NtRp1410
(dp1411
g73
(dp1412
sg82
g1397
sg75
(lp1413
g68
(g69
g70
NtRp1414
(dp1415
g73
(dp1416
g81
I4
ssg82
g1410
sg75
(lp1417
S'Rocket 1.2.4'
p1418
asbasbasbag68
(g84
g70
NtRp1419
(dp1420
g73
(dp1421
sg82
g845
sg75
(lp1422
g68
(g89
g70
NtRp1423
(dp1424
g73
(dp1425
g93
g94
ssg82
g1419
sg75
(lp1426
S'web2py_crontype'
p1427
asbag68
(g89
g70
NtRp1428
(dp1429
g73
(dp1430
g100
g101
ssg82
g1419
sg75
(lp1431
S':'
asbag68
(g89
g70
NtRp1432
(dp1433
g73
(dp1434
sg82
g1419
sg75
(lp1435
g68
(g69
g70
NtRp1436
(dp1437
g73
(dp1438
g81
I4
ssg82
g1432
sg75
(lp1439
S'hard'
p1440
asbasbasbag68
(g84
g70
NtRp1441
(dp1442
g73
(dp1443
sg82
g845
sg75
(lp1444
g68
(g89
g70
NtRp1445
(dp1446
g73
(dp1447
g93
g94
ssg82
g1441
sg75
(lp1448
S'web2py_path'
p1449
asbag68
(g89
g70
NtRp1450
(dp1451
g73
(dp1452
g100
g101
ssg82
g1441
sg75
(lp1453
S':'
asbag68
(g89
g70
NtRp1454
(dp1455
g73
(dp1456
sg82
g1441
sg75
(lp1457
g68
(g69
g70
NtRp1458
(dp1459
g73
(dp1460
g81
I4
ssg82
g1454
sg75
(lp1461
g892
asbasbasbag68
(g84
g70
NtRp1462
(dp1463
g73
(dp1464
sg82
g845
sg75
(lp1465
g68
(g89
g70
NtRp1466
(dp1467
g73
(dp1468
g93
g94
ssg82
g1462
sg75
(lp1469
S'web2py_version'
p1470
asbag68
(g89
g70
NtRp1471
(dp1472
g73
(dp1473
g100
g101
ssg82
g1462
sg75
(lp1474
S':'
asbag68
(g89
g70
NtRp1475
(dp1476
g73
(dp1477
sg82
g1462
sg75
(lp1478
g68
(g69
g70
NtRp1479
(dp1480
g73
(dp1481
g81
I4
ssg82
g1475
sg75
(lp1482
g68
(g77
g70
NtRp1483
(dp1484
g73
(dp1485
g81
I3
ssg82
Nsg75
(lp1486
g68
(g84
g70
NtRp1487
(dp1488
g73
(dp1489
sg82
g1483
sg75
(lp1490
g68
(g89
g70
NtRp1491
(dp1492
g73
(dp1493
sg82
g1487
sg75
(lp1494
g68
(g69
g70
NtRp1495
(dp1496
g73
(dp1497
g81
I3
ssg82
g1491
sg75
(lp1498
S'1'
asbasbasbag68
(g84
g70
NtRp1499
(dp1500
g73
(dp1501
sg82
g1483
sg75
(lp1502
g68
(g89
g70
NtRp1503
(dp1504
g73
(dp1505
sg82
g1499
sg75
(lp1506
g68
(g69
g70
NtRp1507
(dp1508
g73
(dp1509
g81
I3
ssg82
g1503
sg75
(lp1510
S'99'
p1511
asbasbasbag68
(g84
g70
NtRp1512
(dp1513
g73
(dp1514
sg82
g1483
sg75
(lp1515
g68
(g89
g70
NtRp1516
(dp1517
g73
(dp1518
sg82
g1512
sg75
(lp1519
g68
(g69
g70
NtRp1520
(dp1521
g73
(dp1522
g81
I3
ssg82
g1516
sg75
(lp1523
S'2'
asbasbasbag68
(g84
g70
NtRp1524
(dp1525
g73
(dp1526
sg82
g1483
sg75
(lp1527
g68
(g89
g70
NtRp1528
(dp1529
g73
(dp1530
sg82
g1524
sg75
(lp1531
g68
(g69
g70
NtRp1532
(dp1533
g73
(dp1534
g81
I3
ssg82
g1528
sg75
(lp1535
S'datetime.datetime(2011, 9, 26, 6, 55, 33)'
p1536
asbasbasbag68
(g84
g70
NtRp1537
(dp1538
g73
(dp1539
sg82
g1483
sg75
(lp1540
g68
(g89
g70
NtRp1541
(dp1542
g73
(dp1543
sg82
g1537
sg75
(lp1544
g68
(g69
g70
NtRp1545
(dp1546
g73
(dp1547
g81
I3
ssg82
g1541
sg75
(lp1548
S'stable'
p1549
asbasbasbasbasbasbasbag68
(g84
g70
NtRp1550
(dp1551
g73
(dp1552
sg82
g845
sg75
(lp1553
g68
(g89
g70
NtRp1554
(dp1555
g73
(dp1556
g93
g94
ssg82
g1550
sg75
(lp1557
S'wsgi_errors'
p1558
asbag68
(g89
g70
NtRp1559
(dp1560
g73
(dp1561
g100
g101
ssg82
g1550
sg75
(lp1562
S':'
asbag68
(g89
g70
NtRp1563
(dp1564
g73
(dp1565
sg82
g1550
sg75
(lp1566
g68
(g69
g70
NtRp1567
(dp1568
g73
(dp1569
g81
I4
ssg82
g1563
sg75
(lp1570
S"<open file '<stderr>', mode 'w' at 0x7f84db3ff270>"
p1571
asbasbasbag68
(g84
g70
NtRp1572
(dp1573
g73
(dp1574
sg82
g845
sg75
(lp1575
g68
(g89
g70
NtRp1576
(dp1577
g73
(dp1578
g93
g94
ssg82
g1572
sg75
(lp1579
S'wsgi_file_wrapper'
p1580
asbag68
(g89
g70
NtRp1581
(dp1582
g73
(dp1583
g100
g101
ssg82
g1572
sg75
(lp1584
S':'
asbag68
(g89
g70
NtRp1585
(dp1586
g73
(dp1587
sg82
g1572
sg75
(lp1588
g68
(g69
g70
NtRp1589
(dp1590
g73
(dp1591
g81
I4
ssg82
g1585
sg75
(lp1592
S'<class wsgiref.util.FileWrapper at 0x1b96d50>'
p1593
asbasbasbag68
(g84
g70
NtRp1594
(dp1595
g73
(dp1596
sg82
g845
sg75
(lp1597
g68
(g89
g70
NtRp1598
(dp1599
g73
(dp1600
g93
g94
ssg82
g1594
sg75
(lp1601
S'wsgi_input'
p1602
asbag68
(g89
g70
NtRp1603
(dp1604
g73
(dp1605
g100
g101
ssg82
g1594
sg75
(lp1606
S':'
asbag68
(g89
g70
NtRp1607
(dp1608
g73
(dp1609
sg82
g1594
sg75
(lp1610
g68
(g69
g70
NtRp1611
(dp1612
g73
(dp1613
g81
I4
ssg82
g1607
sg75
(lp1614
S'<socket._fileobject object at 0x2aac950>'
p1615
asbasbasbag68
(g84
g70
NtRp1616
(dp1617
g73
(dp1618
sg82
g845
sg75
(lp1619
g68
(g89
g70
NtRp1620
(dp1621
g73
(dp1622
g93
g94
ssg82
g1616
sg75
(lp1623
S'wsgi_multiprocess'
p1624
asbag68
(g89
g70
NtRp1625
(dp1626
g73
(dp1627
g100
g101
ssg82
g1616
sg75
(lp1628
S':'
asbag68
(g89
g70
NtRp1629
(dp1630
g73
(dp1631
sg82
g1616
sg75
(lp1632
g68
(g69
g70
NtRp1633
(dp1634
g73
(dp1635
g81
I4
ssg82
g1629
sg75
(lp1636
g111
asbasbasbag68
(g84
g70
NtRp1637
(dp1638
g73
(dp1639
sg82
g845
sg75
(lp1640
g68
(g89
g70
NtRp1641
(dp1642
g73
(dp1643
g93
g94
ssg82
g1637
sg75
(lp1644
S'wsgi_multithread'
p1645
asbag68
(g89
g70
NtRp1646
(dp1647
g73
(dp1648
g100
g101
ssg82
g1637
sg75
(lp1649
S':'
asbag68
(g89
g70
NtRp1650
(dp1651
g73
(dp1652
sg82
g1637
sg75
(lp1653
g68
(g69
g70
NtRp1654
(dp1655
g73
(dp1656
g81
I4
ssg82
g1650
sg75
(lp1657
S'True'
p1658
asbasbasbag68
(g84
g70
NtRp1659
(dp1660
g73
(dp1661
sg82
g845
sg75
(lp1662
g68
(g89
g70
NtRp1663
(dp1664
g73
(dp1665
g93
g94
ssg82
g1659
sg75
(lp1666
S'wsgi_run_once'
p1667
asbag68
(g89
g70
NtRp1668
(dp1669
g73
(dp1670
g100
g101
ssg82
g1659
sg75
(lp1671
S':'
asbag68
(g89
g70
NtRp1672
(dp1673
g73
(dp1674
sg82
g1659
sg75
(lp1675
g68
(g69
g70
NtRp1676
(dp1677
g73
(dp1678
g81
I4
ssg82
g1672
sg75
(lp1679
g111
asbasbasbag68
(g84
g70
NtRp1680
(dp1681
g73
(dp1682
sg82
g845
sg75
(lp1683
g68
(g89
g70
NtRp1684
(dp1685
g73
(dp1686
g93
g94
ssg82
g1680
sg75
(lp1687
S'wsgi_url_scheme'
p1688
asbag68
(g89
g70
NtRp1689
(dp1690
g73
(dp1691
g100
g101
ssg82
g1680
sg75
(lp1692
S':'
asbag68
(g89
g70
NtRp1693
(dp1694
g73
(dp1695
sg82
g1680
sg75
(lp1696
g68
(g69
g70
NtRp1697
(dp1698
g73
(dp1699
g81
I4
ssg82
g1693
sg75
(lp1700
S'http'
p1701
asbasbasbag68
(g84
g70
NtRp1702
(dp1703
g73
(dp1704
sg82
g845
sg75
(lp1705
g68
(g89
g70
NtRp1706
(dp1707
g73
(dp1708
g93
g94
ssg82
g1702
sg75
(lp1709
S'wsgi_version'
p1710
asbag68
(g89
g70
NtRp1711
(dp1712
g73
(dp1713
g100
g101
ssg82
g1702
sg75
(lp1714
S':'
asbag68
(g89
g70
NtRp1715
(dp1716
g73
(dp1717
sg82
g1702
sg75
(lp1718
g68
(g69
g70
NtRp1719
(dp1720
g73
(dp1721
g81
I4
ssg82
g1715
sg75
(lp1722
g68
(g77
g70
NtRp1723
(dp1724
g73
(dp1725
g81
I3
ssg82
Nsg75
(lp1726
g68
(g84
g70
NtRp1727
(dp1728
g73
(dp1729
sg82
g1723
sg75
(lp1730
g68
(g89
g70
NtRp1731
(dp1732
g73
(dp1733
sg82
g1727
sg75
(lp1734
g68
(g69
g70
NtRp1735
(dp1736
g73
(dp1737
g81
I3
ssg82
g1731
sg75
(lp1738
S'1'
asbasbasbag68
(g84
g70
NtRp1739
(dp1740
g73
(dp1741
sg82
g1723
sg75
(lp1742
g68
(g89
g70
NtRp1743
(dp1744
g73
(dp1745
sg82
g1739
sg75
(lp1746
g68
(g69
g70
NtRp1747
(dp1748
g73
(dp1749
g81
I3
ssg82
g1743
sg75
(lp1750
S'0'
asbasbasbasbasbasbasbasbasbasbasbag68
(g84
g70
NtRp1751
(dp1752
g73
(dp1753
sg82
g78
sg75
(lp1754
g68
(g89
g70
NtRp1755
(dp1756
g73
(dp1757
g93
g94
ssg82
g1751
sg75
(lp1758
S'extension'
p1759
asbag68
(g89
g70
NtRp1760
(dp1761
g73
(dp1762
g100
g101
ssg82
g1751
sg75
(lp1763
S':'
asbag68
(g89
g70
NtRp1764
(dp1765
g73
(dp1766
sg82
g1751
sg75
(lp1767
g68
(g69
g70
NtRp1768
(dp1769
g73
(dp1770
g81
I5
ssg82
g1764
sg75
(lp1771
S'html'
p1772
asbasbasbag68
(g84
g70
NtRp1773
(dp1774
g73
(dp1775
sg82
g78
sg75
(lp1776
g68
(g89
g70
NtRp1777
(dp1778
g73
(dp1779
g93
g94
ssg82
g1773
sg75
(lp1780
S'folder'
p1781
asbag68
(g89
g70
NtRp1782
(dp1783
g73
(dp1784
g100
g101
ssg82
g1773
sg75
(lp1785
S':'
asbag68
(g89
g70
NtRp1786
(dp1787
g73
(dp1788
sg82
g1773
sg75
(lp1789
g68
(g69
g70
NtRp1790
(dp1791
g73
(dp1792
g81
I5
ssg82
g1786
sg75
(lp1793
S'/home/jose/DESARROLLO/web2py199/applications/streamlog/'
p1794
asbasbasbag68
(g84
g70
NtRp1795
(dp1796
g73
(dp1797
sg82
g78
sg75
(lp1798
g68
(g89
g70
NtRp1799
(dp1800
g73
(dp1801
g93
g94
ssg82
g1795
sg75
(lp1802
S'function'
p1803
asbag68
(g89
g70
NtRp1804
(dp1805
g73
(dp1806
g100
g101
ssg82
g1795
sg75
(lp1807
S':'
asbag68
(g89
g70
NtRp1808
(dp1809
g73
(dp1810
sg82
g1795
sg75
(lp1811
g68
(g69
g70
NtRp1812
(dp1813
g73
(dp1814
g81
I5
ssg82
g1808
sg75
(lp1815
S'getTypeTable'
p1816
asbasbasbag68
(g84
g70
NtRp1817
(dp1818
g73
(dp1819
sg82
g78
sg75
(lp1820
g68
(g89
g70
NtRp1821
(dp1822
g73
(dp1823
g93
g94
ssg82
g1817
sg75
(lp1824
S'get_vars'
p1825
asbag68
(g89
g70
NtRp1826
(dp1827
g73
(dp1828
g100
g101
ssg82
g1817
sg75
(lp1829
S':'
asbag68
(g89
g70
NtRp1830
(dp1831
g73
(dp1832
sg82
g1817
sg75
(lp1833
g68
(g69
g70
NtRp1834
(dp1835
g73
(dp1836
g81
I5
ssg82
g1830
sg75
(lp1837
g68
(g77
g70
NtRp1838
(dp1839
g73
(dp1840
g81
I4
ssg82
Nsg75
(lp1841
sbasbasbasbag68
(g84
g70
NtRp1842
(dp1843
g73
(dp1844
sg82
g78
sg75
(lp1845
g68
(g89
g70
NtRp1846
(dp1847
g73
(dp1848
g93
g94
ssg82
g1842
sg75
(lp1849
S'global_settings'
p1850
asbag68
(g89
g70
NtRp1851
(dp1852
g73
(dp1853
g100
g101
ssg82
g1842
sg75
(lp1854
S':'
asbag68
(g89
g70
NtRp1855
(dp1856
g73
(dp1857
sg82
g1842
sg75
(lp1858
g68
(g69
g70
NtRp1859
(dp1860
g73
(dp1861
g81
I5
ssg82
g1855
sg75
(lp1862
g68
(g77
g70
NtRp1863
(dp1864
g73
(dp1865
g81
I4
ssg82
Nsg75
(lp1866
g68
(g84
g70
NtRp1867
(dp1868
g73
(dp1869
sg82
g1863
sg75
(lp1870
g68
(g89
g70
NtRp1871
(dp1872
g73
(dp1873
g93
g94
ssg82
g1867
sg75
(lp1874
g857
asbag68
(g89
g70
NtRp1875
(dp1876
g73
(dp1877
g100
g101
ssg82
g1867
sg75
(lp1878
S':'
asbag68
(g89
g70
NtRp1879
(dp1880
g73
(dp1881
sg82
g1867
sg75
(lp1882
g68
(g69
g70
NtRp1883
(dp1884
g73
(dp1885
g81
I4
ssg82
g1879
sg75
(lp1886
S"set(['/home/jose/DESARROLLO/web2py199/applications/streamlog/', '/home/jose/DESARROLLO/web2py199/applications/admin/'])"
p1887
asbasbasbag68
(g84
g70
NtRp1888
(dp1889
g73
(dp1890
sg82
g1863
sg75
(lp1891
g68
(g89
g70
NtRp1892
(dp1893
g73
(dp1894
g93
g94
ssg82
g1888
sg75
(lp1895
g879
asbag68
(g89
g70
NtRp1896
(dp1897
g73
(dp1898
g100
g101
ssg82
g1888
sg75
(lp1899
S':'
asbag68
(g89
g70
NtRp1900
(dp1901
g73
(dp1902
sg82
g1888
sg75
(lp1903
g68
(g69
g70
NtRp1904
(dp1905
g73
(dp1906
g81
I4
ssg82
g1900
sg75
(lp1907
g892
asbasbasbag68
(g84
g70
NtRp1908
(dp1909
g73
(dp1910
sg82
g1863
sg75
(lp1911
g68
(g89
g70
NtRp1912
(dp1913
g73
(dp1914
g93
g94
ssg82
g1908
sg75
(lp1915
g901
asbag68
(g89
g70
NtRp1916
(dp1917
g73
(dp1918
g100
g101
ssg82
g1908
sg75
(lp1919
S':'
asbag68
(g89
g70
NtRp1920
(dp1921
g73
(dp1922
sg82
g1908
sg75
(lp1923
g68
(g69
g70
NtRp1924
(dp1925
g73
(dp1926
g81
I4
ssg82
g1920
sg75
(lp1927
g68
(g77
g70
NtRp1928
(dp1929
g73
(dp1930
g81
I3
ssg82
Nsg75
(lp1931
sbasbasbasbag68
(g84
g70
NtRp1932
(dp1933
g73
(dp1934
sg82
g1863
sg75
(lp1935
g68
(g89
g70
NtRp1936
(dp1937
g73
(dp1938
g93
g94
ssg82
g1932
sg75
(lp1939
g926
asbag68
(g89
g70
NtRp1940
(dp1941
g73
(dp1942
g100
g101
ssg82
g1932
sg75
(lp1943
S':'
asbag68
(g89
g70
NtRp1944
(dp1945
g73
(dp1946
sg82
g1932
sg75
(lp1947
g68
(g69
g70
NtRp1948
(dp1949
g73
(dp1950
g81
I4
ssg82
g1944
sg75
(lp1951
S"<Values at 0x1c79f80: {'verbose': False, 'ip': '127.0.0.1', 'shutdown_timeout': 5, 'taskbar': False, 'nocron': False, 'pid_filename': 'httpserver.pid', 'maxthreads': None, 'softcron': False, 'server_name': 'jose', 'bpython': False, 'nogui': False, 'port': 8000, 'extcron': False, 'debuglevel': 30, 'test': None, 'folder': '/home/jose/DESARROLLO/web2py199', 'config': '', 'import_models': False, 'winservice': '', 'shell': None, 'run': '', 'log_filename': 'httpserver.log', 'args': [''], 'ssl_ca_certificate': None, 'scheduler': None, 'profiler_filename': None, 'ssl_private_key': '', 'password': 't', 'request_queue_size': 5, 'ssl_certificate': '', 'cronjob': False, 'plain': False, 'quiet': False, 'interfaces': None, 'minthreads': None, 'timeout': 10, 'numthreads': None, 'nobanner': False}>"
p1952
asbasbasbag68
(g84
g70
NtRp1953
(dp1954
g73
(dp1955
sg82
g1863
sg75
(lp1956
g68
(g89
g70
NtRp1957
(dp1958
g73
(dp1959
g93
g94
ssg82
g1953
sg75
(lp1960
g948
asbag68
(g89
g70
NtRp1961
(dp1962
g73
(dp1963
g100
g101
ssg82
g1953
sg75
(lp1964
S':'
asbag68
(g89
g70
NtRp1965
(dp1966
g73
(dp1967
sg82
g1953
sg75
(lp1968
g68
(g69
g70
NtRp1969
(dp1970
g73
(dp1971
g81
I4
ssg82
g1965
sg75
(lp1972
S'set([])'
p1973
asbasbasbag68
(g84
g70
NtRp1974
(dp1975
g73
(dp1976
sg82
g1863
sg75
(lp1977
g68
(g89
g70
NtRp1978
(dp1979
g73
(dp1980
g93
g94
ssg82
g1974
sg75
(lp1981
g970
asbag68
(g89
g70
NtRp1982
(dp1983
g73
(dp1984
g100
g101
ssg82
g1974
sg75
(lp1985
S':'
asbag68
(g89
g70
NtRp1986
(dp1987
g73
(dp1988
sg82
g1974
sg75
(lp1989
g68
(g69
g70
NtRp1990
(dp1991
g73
(dp1992
g81
I4
ssg82
g1986
sg75
(lp1993
g111
asbasbasbag68
(g84
g70
NtRp1994
(dp1995
g73
(dp1996
sg82
g1863
sg75
(lp1997
g68
(g89
g70
NtRp1998
(dp1999
g73
(dp2000
g93
g94
ssg82
g1994
sg75
(lp2001
g991
asbag68
(g89
g70
NtRp2002
(dp2003
g73
(dp2004
g100
g101
ssg82
g1994
sg75
(lp2005
S':'
asbag68
(g89
g70
NtRp2006
(dp2007
g73
(dp2008
sg82
g1994
sg75
(lp2009
g68
(g69
g70
NtRp2010
(dp2011
g73
(dp2012
g81
I4
ssg82
g2006
sg75
(lp2013
g1004
asbasbasbag68
(g84
g70
NtRp2014
(dp2015
g73
(dp2016
sg82
g1863
sg75
(lp2017
g68
(g89
g70
NtRp2018
(dp2019
g73
(dp2020
g93
g94
ssg82
g2014
sg75
(lp2021
g1189
asbag68
(g89
g70
NtRp2022
(dp2023
g73
(dp2024
g100
g101
ssg82
g2014
sg75
(lp2025
S':'
asbag68
(g89
g70
NtRp2026
(dp2027
g73
(dp2028
sg82
g2014
sg75
(lp2029
g68
(g69
g70
NtRp2030
(dp2031
g73
(dp2032
g81
I4
ssg82
g2026
sg75
(lp2033
g111
asbasbasbag68
(g84
g70
NtRp2034
(dp2035
g73
(dp2036
sg82
g1863
sg75
(lp2037
g68
(g89
g70
NtRp2038
(dp2039
g73
(dp2040
g93
g94
ssg82
g2034
sg75
(lp2041
g1427
asbag68
(g89
g70
NtRp2042
(dp2043
g73
(dp2044
g100
g101
ssg82
g2034
sg75
(lp2045
S':'
asbag68
(g89
g70
NtRp2046
(dp2047
g73
(dp2048
sg82
g2034
sg75
(lp2049
g68
(g69
g70
NtRp2050
(dp2051
g73
(dp2052
g81
I4
ssg82
g2046
sg75
(lp2053
g1440
asbasbasbag68
(g84
g70
NtRp2054
(dp2055
g73
(dp2056
sg82
g1863
sg75
(lp2057
g68
(g89
g70
NtRp2058
(dp2059
g73
(dp2060
g93
g94
ssg82
g2054
sg75
(lp2061
g1470
asbag68
(g89
g70
NtRp2062
(dp2063
g73
(dp2064
g100
g101
ssg82
g2054
sg75
(lp2065
S':'
asbag68
(g89
g70
NtRp2066
(dp2067
g73
(dp2068
sg82
g2054
sg75
(lp2069
g68
(g69
g70
NtRp2070
(dp2071
g73
(dp2072
g81
I4
ssg82
g2066
sg75
(lp2073
g68
(g77
g70
NtRp2074
(dp2075
g73
(dp2076
g81
I3
ssg82
Nsg75
(lp2077
g68
(g84
g70
NtRp2078
(dp2079
g73
(dp2080
sg82
g2074
sg75
(lp2081
g68
(g89
g70
NtRp2082
(dp2083
g73
(dp2084
sg82
g2078
sg75
(lp2085
g68
(g69
g70
NtRp2086
(dp2087
g73
(dp2088
g81
I3
ssg82
g2082
sg75
(lp2089
S'1'
asbasbasbag68
(g84
g70
NtRp2090
(dp2091
g73
(dp2092
sg82
g2074
sg75
(lp2093
g68
(g89
g70
NtRp2094
(dp2095
g73
(dp2096
sg82
g2090
sg75
(lp2097
g68
(g69
g70
NtRp2098
(dp2099
g73
(dp2100
g81
I3
ssg82
g2094
sg75
(lp2101
S'99'
p2102
asbasbasbag68
(g84
g70
NtRp2103
(dp2104
g73
(dp2105
sg82
g2074
sg75
(lp2106
g68
(g89
g70
NtRp2107
(dp2108
g73
(dp2109
sg82
g2103
sg75
(lp2110
g68
(g69
g70
NtRp2111
(dp2112
g73
(dp2113
g81
I3
ssg82
g2107
sg75
(lp2114
S'2'
asbasbasbag68
(g84
g70
NtRp2115
(dp2116
g73
(dp2117
sg82
g2074
sg75
(lp2118
g68
(g89
g70
NtRp2119
(dp2120
g73
(dp2121
sg82
g2115
sg75
(lp2122
g68
(g69
g70
NtRp2123
(dp2124
g73
(dp2125
g81
I3
ssg82
g2119
sg75
(lp2126
S'datetime.datetime(2011, 9, 26, 6, 55, 33)'
p2127
asbasbasbag68
(g84
g70
NtRp2128
(dp2129
g73
(dp2130
sg82
g2074
sg75
(lp2131
g68
(g89
g70
NtRp2132
(dp2133
g73
(dp2134
sg82
g2128
sg75
(lp2135
g68
(g69
g70
NtRp2136
(dp2137
g73
(dp2138
g81
I3
ssg82
g2132
sg75
(lp2139
g1549
asbasbasbasbasbasbasbasbasbasbasbag68
(g84
g70
NtRp2140
(dp2141
g73
(dp2142
sg82
g78
sg75
(lp2143
g68
(g89
g70
NtRp2144
(dp2145
g73
(dp2146
g93
g94
ssg82
g2140
sg75
(lp2147
S'is_https'
p2148
asbag68
(g89
g70
NtRp2149
(dp2150
g73
(dp2151
g100
g101
ssg82
g2140
sg75
(lp2152
S':'
asbag68
(g89
g70
NtRp2153
(dp2154
g73
(dp2155
sg82
g2140
sg75
(lp2156
g68
(g69
g70
NtRp2157
(dp2158
g73
(dp2159
g81
I5
ssg82
g2153
sg75
(lp2160
g111
asbasbasbag68
(g84
g70
NtRp2161
(dp2162
g73
(dp2163
sg82
g78
sg75
(lp2164
g68
(g89
g70
NtRp2165
(dp2166
g73
(dp2167
g93
g94
ssg82
g2161
sg75
(lp2168
S'is_local'
p2169
asbag68
(g89
g70
NtRp2170
(dp2171
g73
(dp2172
g100
g101
ssg82
g2161
sg75
(lp2173
S':'
asbag68
(g89
g70
NtRp2174
(dp2175
g73
(dp2176
sg82
g2161
sg75
(lp2177
g68
(g69
g70
NtRp2178
(dp2179
g73
(dp2180
g81
I5
ssg82
g2174
sg75
(lp2181
g1658
asbasbasbag68
(g84
g70
NtRp2182
(dp2183
g73
(dp2184
sg82
g78
sg75
(lp2185
g68
(g89
g70
NtRp2186
(dp2187
g73
(dp2188
g93
g94
ssg82
g2182
sg75
(lp2189
S'is_restful'
p2190
asbag68
(g89
g70
NtRp2191
(dp2192
g73
(dp2193
g100
g101
ssg82
g2182
sg75
(lp2194
S':'
asbag68
(g89
g70
NtRp2195
(dp2196
g73
(dp2197
sg82
g2182
sg75
(lp2198
g68
(g69
g70
NtRp2199
(dp2200
g73
(dp2201
g81
I5
ssg82
g2195
sg75
(lp2202
g111
asbasbasbag68
(g84
g70
NtRp2203
(dp2204
g73
(dp2205
sg82
g78
sg75
(lp2206
g68
(g89
g70
NtRp2207
(dp2208
g73
(dp2209
g93
g94
ssg82
g2203
sg75
(lp2210
S'now'
p2211
asbag68
(g89
g70
NtRp2212
(dp2213
g73
(dp2214
g100
g101
ssg82
g2203
sg75
(lp2215
S':'
asbag68
(g89
g70
NtRp2216
(dp2217
g73
(dp2218
sg82
g2203
sg75
(lp2219
g68
(g69
g70
NtRp2220
(dp2221
g73
(dp2222
g81
I5
ssg82
g2216
sg75
(lp2223
S'datetime.datetime(2012, 5, 26, 21, 11, 25, 868648)'
p2224
asbasbasbag68
(g84
g70
NtRp2225
(dp2226
g73
(dp2227
sg82
g78
sg75
(lp2228
g68
(g89
g70
NtRp2229
(dp2230
g73
(dp2231
g93
g94
ssg82
g2225
sg75
(lp2232
S'post_vars'
p2233
asbag68
(g89
g70
NtRp2234
(dp2235
g73
(dp2236
g100
g101
ssg82
g2225
sg75
(lp2237
S':'
asbag68
(g89
g70
NtRp2238
(dp2239
g73
(dp2240
sg82
g2225
sg75
(lp2241
g68
(g69
g70
NtRp2242
(dp2243
g73
(dp2244
g81
I5
ssg82
g2238
sg75
(lp2245
g68
(g77
g70
NtRp2246
(dp2247
g73
(dp2248
g81
I4
ssg82
Nsg75
(lp2249
sbasbasbasbag68
(g84
g70
NtRp2250
(dp2251
g73
(dp2252
sg82
g78
sg75
(lp2253
g68
(g89
g70
NtRp2254
(dp2255
g73
(dp2256
g93
g94
ssg82
g2250
sg75
(lp2257
S'raw_args'
p2258
asbag68
(g89
g70
NtRp2259
(dp2260
g73
(dp2261
g100
g101
ssg82
g2250
sg75
(lp2262
S':'
asbag68
(g89
g70
NtRp2263
(dp2264
g73
(dp2265
sg82
g2250
sg75
(lp2266
g68
(g69
g70
NtRp2267
(dp2268
g73
(dp2269
g81
I5
ssg82
g2263
sg75
(lp2270
S'2'
asbasbasbag68
(g84
g70
NtRp2271
(dp2272
g73
(dp2273
sg82
g78
sg75
(lp2274
g68
(g89
g70
NtRp2275
(dp2276
g73
(dp2277
g93
g94
ssg82
g2271
sg75
(lp2278
S'url'
p2279
asbag68
(g89
g70
NtRp2280
(dp2281
g73
(dp2282
g100
g101
ssg82
g2271
sg75
(lp2283
S':'
asbag68
(g89
g70
NtRp2284
(dp2285
g73
(dp2286
sg82
g2271
sg75
(lp2287
g68
(g69
g70
NtRp2288
(dp2289
g73
(dp2290
g81
I5
ssg82
g2284
sg75
(lp2291
S'/streamlog/default/getTypeTable/2'
p2292
asbasbasbag68
(g84
g70
NtRp2293
(dp2294
g73
(dp2295
sg82
g78
sg75
(lp2296
g68
(g89
g70
NtRp2297
(dp2298
g73
(dp2299
g93
g94
ssg82
g2293
sg75
(lp2300
S'utcnow'
p2301
asbag68
(g89
g70
NtRp2302
(dp2303
g73
(dp2304
g100
g101
ssg82
g2293
sg75
(lp2305
S':'
asbag68
(g89
g70
NtRp2306
(dp2307
g73
(dp2308
sg82
g2293
sg75
(lp2309
g68
(g69
g70
NtRp2310
(dp2311
g73
(dp2312
g81
I5
ssg82
g2306
sg75
(lp2313
S'datetime.datetime(2012, 5, 26, 14, 11, 25, 868672)'
p2314
asbasbasbag68
(g84
g70
NtRp2315
(dp2316
g73
(dp2317
sg82
g78
sg75
(lp2318
g68
(g89
g70
NtRp2319
(dp2320
g73
(dp2321
g93
g94
ssg82
g2315
sg75
(lp2322
S'uuid'
p2323
asbag68
(g89
g70
NtRp2324
(dp2325
g73
(dp2326
g100
g101
ssg82
g2315
sg75
(lp2327
S':'
asbag68
(g89
g70
NtRp2328
(dp2329
g73
(dp2330
sg82
g2315
sg75
(lp2331
g68
(g69
g70
NtRp2332
(dp2333
g73
(dp2334
g81
I5
ssg82
g2328
sg75
(lp2335
S'streamlog/127.0.0.1.2012-05-26.21-11-25.186a04fe-4787-43dd-96ac-8f2fc5c7cae1'
p2336
asbasbasbag68
(g84
g70
NtRp2337
(dp2338
g73
(dp2339
sg82
g78
sg75
(lp2340
g68
(g89
g70
NtRp2341
(dp2342
g73
(dp2343
g93
g94
ssg82
g2337
sg75
(lp2344
S'vars'
p2345
asbag68
(g89
g70
NtRp2346
(dp2347
g73
(dp2348
g100
g101
ssg82
g2337
sg75
(lp2349
S':'
asbag68
(g89
g70
NtRp2350
(dp2351
g73
(dp2352
sg82
g2337
sg75
(lp2353
g68
(g69
g70
NtRp2354
(dp2355
g73
(dp2356
g81
I5
ssg82
g2350
sg75
(lp2357
g68
(g77
g70
NtRp2358
(dp2359
g73
(dp2360
g81
I4
ssg82
Nsg75
(lp2361
sbasbasbasbag68
(g84
g70
NtRp2362
(dp2363
g73
(dp2364
sg82
g78
sg75
(lp2365
g68
(g89
g70
NtRp2366
(dp2367
g73
(dp2368
g93
g94
ssg82
g2362
sg75
(lp2369
S'wsgi'
p2370
asbag68
(g89
g70
NtRp2371
(dp2372
g73
(dp2373
g100
g101
ssg82
g2362
sg75
(lp2374
S':'
asbag68
(g89
g70
NtRp2375
(dp2376
g73
(dp2377
sg82
g2362
sg75
(lp2378
g68
(g69
g70
NtRp2379
(dp2380
g73
(dp2381
g81
I5
ssg82
g2375
sg75
(lp2382
g68
(g77
g70
NtRp2383
(dp2384
g73
(dp2385
g81
I4
ssg82
Nsg75
(lp2386
g68
(g84
g70
NtRp2387
(dp2388
g73
(dp2389
sg82
g2383
sg75
(lp2390
g68
(g89
g70
NtRp2391
(dp2392
g73
(dp2393
g93
g94
ssg82
g2387
sg75
(lp2394
S'environ'
p2395
asbag68
(g89
g70
NtRp2396
(dp2397
g73
(dp2398
g100
g101
ssg82
g2387
sg75
(lp2399
S':'
asbag68
(g89
g70
NtRp2400
(dp2401
g73
(dp2402
sg82
g2387
sg75
(lp2403
g68
(g69
g70
NtRp2404
(dp2405
g73
(dp2406
g81
I4
ssg82
g2400
sg75
(lp2407
g68
(g77
g70
NtRp2408
(dp2409
g73
(dp2410
g81
I3
ssg82
Nsg75
(lp2411
g68
(g84
g70
NtRp2412
(dp2413
g73
(dp2414
sg82
g2408
sg75
(lp2415
g68
(g89
g70
NtRp2416
(dp2417
g73
(dp2418
g93
g94
ssg82
g2412
sg75
(lp2419
S'HTTP_ACCEPT'
p2420
asbag68
(g89
g70
NtRp2421
(dp2422
g73
(dp2423
g100
g101
ssg82
g2412
sg75
(lp2424
S':'
asbag68
(g89
g70
NtRp2425
(dp2426
g73
(dp2427
sg82
g2412
sg75
(lp2428
g68
(g69
g70
NtRp2429
(dp2430
g73
(dp2431
g81
I3
ssg82
g2425
sg75
(lp2432
g1026
asbasbasbag68
(g84
g70
NtRp2433
(dp2434
g73
(dp2435
sg82
g2408
sg75
(lp2436
g68
(g89
g70
NtRp2437
(dp2438
g73
(dp2439
g93
g94
ssg82
g2433
sg75
(lp2440
S'HTTP_ACCEPT_ENCODING'
p2441
asbag68
(g89
g70
NtRp2442
(dp2443
g73
(dp2444
g100
g101
ssg82
g2433
sg75
(lp2445
S':'
asbag68
(g89
g70
NtRp2446
(dp2447
g73
(dp2448
sg82
g2433
sg75
(lp2449
g68
(g69
g70
NtRp2450
(dp2451
g73
(dp2452
g81
I3
ssg82
g2446
sg75
(lp2453
g1048
asbasbasbag68
(g84
g70
NtRp2454
(dp2455
g73
(dp2456
sg82
g2408
sg75
(lp2457
g68
(g89
g70
NtRp2458
(dp2459
g73
(dp2460
g93
g94
ssg82
g2454
sg75
(lp2461
S'HTTP_ACCEPT_LANGUAGE'
p2462
asbag68
(g89
g70
NtRp2463
(dp2464
g73
(dp2465
g100
g101
ssg82
g2454
sg75
(lp2466
S':'
asbag68
(g89
g70
NtRp2467
(dp2468
g73
(dp2469
sg82
g2454
sg75
(lp2470
g68
(g69
g70
NtRp2471
(dp2472
g73
(dp2473
g81
I3
ssg82
g2467
sg75
(lp2474
g1070
asbasbasbag68
(g84
g70
NtRp2475
(dp2476
g73
(dp2477
sg82
g2408
sg75
(lp2478
g68
(g89
g70
NtRp2479
(dp2480
g73
(dp2481
g93
g94
ssg82
g2475
sg75
(lp2482
S'HTTP_CACHE_CONTROL'
p2483
asbag68
(g89
g70
NtRp2484
(dp2485
g73
(dp2486
g100
g101
ssg82
g2475
sg75
(lp2487
S':'
asbag68
(g89
g70
NtRp2488
(dp2489
g73
(dp2490
sg82
g2475
sg75
(lp2491
g68
(g69
g70
NtRp2492
(dp2493
g73
(dp2494
g81
I3
ssg82
g2488
sg75
(lp2495
g1092
asbasbasbag68
(g84
g70
NtRp2496
(dp2497
g73
(dp2498
sg82
g2408
sg75
(lp2499
g68
(g89
g70
NtRp2500
(dp2501
g73
(dp2502
g93
g94
ssg82
g2496
sg75
(lp2503
S'HTTP_CONNECTION'
p2504
asbag68
(g89
g70
NtRp2505
(dp2506
g73
(dp2507
g100
g101
ssg82
g2496
sg75
(lp2508
S':'
asbag68
(g89
g70
NtRp2509
(dp2510
g73
(dp2511
sg82
g2496
sg75
(lp2512
g68
(g69
g70
NtRp2513
(dp2514
g73
(dp2515
g81
I3
ssg82
g2509
sg75
(lp2516
g1114
asbasbasbag68
(g84
g70
NtRp2517
(dp2518
g73
(dp2519
sg82
g2408
sg75
(lp2520
g68
(g89
g70
NtRp2521
(dp2522
g73
(dp2523
g93
g94
ssg82
g2517
sg75
(lp2524
S'HTTP_COOKIE'
p2525
asbag68
(g89
g70
NtRp2526
(dp2527
g73
(dp2528
g100
g101
ssg82
g2517
sg75
(lp2529
S':'
asbag68
(g89
g70
NtRp2530
(dp2531
g73
(dp2532
sg82
g2517
sg75
(lp2533
g68
(g69
g70
NtRp2534
(dp2535
g73
(dp2536
g81
I3
ssg82
g2530
sg75
(lp2537
g1136
asbasbasbag68
(g84
g70
NtRp2538
(dp2539
g73
(dp2540
sg82
g2408
sg75
(lp2541
g68
(g89
g70
NtRp2542
(dp2543
g73
(dp2544
g93
g94
ssg82
g2538
sg75
(lp2545
S'HTTP_HOST'
p2546
asbag68
(g89
g70
NtRp2547
(dp2548
g73
(dp2549
g100
g101
ssg82
g2538
sg75
(lp2550
S':'
asbag68
(g89
g70
NtRp2551
(dp2552
g73
(dp2553
sg82
g2538
sg75
(lp2554
g68
(g69
g70
NtRp2555
(dp2556
g73
(dp2557
g81
I3
ssg82
g2551
sg75
(lp2558
g1158
asbasbasbag68
(g84
g70
NtRp2559
(dp2560
g73
(dp2561
sg82
g2408
sg75
(lp2562
g68
(g89
g70
NtRp2563
(dp2564
g73
(dp2565
g93
g94
ssg82
g2559
sg75
(lp2566
S'HTTP_USER_AGENT'
p2567
asbag68
(g89
g70
NtRp2568
(dp2569
g73
(dp2570
g100
g101
ssg82
g2559
sg75
(lp2571
S':'
asbag68
(g89
g70
NtRp2572
(dp2573
g73
(dp2574
sg82
g2559
sg75
(lp2575
g68
(g69
g70
NtRp2576
(dp2577
g73
(dp2578
g81
I3
ssg82
g2572
sg75
(lp2579
g1180
asbasbasbag68
(g84
g70
NtRp2580
(dp2581
g73
(dp2582
sg82
g2408
sg75
(lp2583
g68
(g89
g70
NtRp2584
(dp2585
g73
(dp2586
g93
g94
ssg82
g2580
sg75
(lp2587
S'PATH_INFO'
p2588
asbag68
(g89
g70
NtRp2589
(dp2590
g73
(dp2591
g100
g101
ssg82
g2580
sg75
(lp2592
S':'
asbag68
(g89
g70
NtRp2593
(dp2594
g73
(dp2595
sg82
g2580
sg75
(lp2596
g68
(g69
g70
NtRp2597
(dp2598
g73
(dp2599
g81
I3
ssg82
g2593
sg75
(lp2600
g1223
asbasbasbag68
(g84
g70
NtRp2601
(dp2602
g73
(dp2603
sg82
g2408
sg75
(lp2604
g68
(g89
g70
NtRp2605
(dp2606
g73
(dp2607
g93
g94
ssg82
g2601
sg75
(lp2608
S'QUERY_STRING'
p2609
asbag68
(g89
g70
NtRp2610
(dp2611
g73
(dp2612
g100
g101
ssg82
g2601
sg75
(lp2613
S':'
asbag68
(g89
g70
NtRp2614
(dp2615
g73
(dp2616
sg82
g2601
sg75
(lp2617
g68
(g69
g70
NtRp2618
(dp2619
g73
(dp2620
g81
I3
ssg82
g2614
sg75
(lp2621
S''
asbasbasbag68
(g84
g70
NtRp2622
(dp2623
g73
(dp2624
sg82
g2408
sg75
(lp2625
g68
(g89
g70
NtRp2626
(dp2627
g73
(dp2628
g93
g94
ssg82
g2622
sg75
(lp2629
S'REMOTE_ADDR'
p2630
asbag68
(g89
g70
NtRp2631
(dp2632
g73
(dp2633
g100
g101
ssg82
g2622
sg75
(lp2634
S':'
asbag68
(g89
g70
NtRp2635
(dp2636
g73
(dp2637
sg82
g2622
sg75
(lp2638
g68
(g69
g70
NtRp2639
(dp2640
g73
(dp2641
g81
I3
ssg82
g2635
sg75
(lp2642
g213
asbasbasbag68
(g84
g70
NtRp2643
(dp2644
g73
(dp2645
sg82
g2408
sg75
(lp2646
g68
(g89
g70
NtRp2647
(dp2648
g73
(dp2649
g93
g94
ssg82
g2643
sg75
(lp2650
S'REMOTE_PORT'
p2651
asbag68
(g89
g70
NtRp2652
(dp2653
g73
(dp2654
g100
g101
ssg82
g2643
sg75
(lp2655
S':'
asbag68
(g89
g70
NtRp2656
(dp2657
g73
(dp2658
sg82
g2643
sg75
(lp2659
g68
(g69
g70
NtRp2660
(dp2661
g73
(dp2662
g81
I3
ssg82
g2656
sg75
(lp2663
g1287
asbasbasbag68
(g84
g70
NtRp2664
(dp2665
g73
(dp2666
sg82
g2408
sg75
(lp2667
g68
(g89
g70
NtRp2668
(dp2669
g73
(dp2670
g93
g94
ssg82
g2664
sg75
(lp2671
S'REQUEST_METHOD'
p2672
asbag68
(g89
g70
NtRp2673
(dp2674
g73
(dp2675
g100
g101
ssg82
g2664
sg75
(lp2676
S':'
asbag68
(g89
g70
NtRp2677
(dp2678
g73
(dp2679
sg82
g2664
sg75
(lp2680
g68
(g69
g70
NtRp2681
(dp2682
g73
(dp2683
g81
I3
ssg82
g2677
sg75
(lp2684
g1309
asbasbasbag68
(g84
g70
NtRp2685
(dp2686
g73
(dp2687
sg82
g2408
sg75
(lp2688
g68
(g89
g70
NtRp2689
(dp2690
g73
(dp2691
g93
g94
ssg82
g2685
sg75
(lp2692
S'SCRIPT_NAME'
p2693
asbag68
(g89
g70
NtRp2694
(dp2695
g73
(dp2696
g100
g101
ssg82
g2685
sg75
(lp2697
S':'
asbag68
(g89
g70
NtRp2698
(dp2699
g73
(dp2700
sg82
g2685
sg75
(lp2701
g68
(g69
g70
NtRp2702
(dp2703
g73
(dp2704
g81
I3
ssg82
g2698
sg75
(lp2705
S''
asbasbasbag68
(g84
g70
NtRp2706
(dp2707
g73
(dp2708
sg82
g2408
sg75
(lp2709
g68
(g89
g70
NtRp2710
(dp2711
g73
(dp2712
g93
g94
ssg82
g2706
sg75
(lp2713
S'SERVER_NAME'
p2714
asbag68
(g89
g70
NtRp2715
(dp2716
g73
(dp2717
g100
g101
ssg82
g2706
sg75
(lp2718
S':'
asbag68
(g89
g70
NtRp2719
(dp2720
g73
(dp2721
sg82
g2706
sg75
(lp2722
g68
(g69
g70
NtRp2723
(dp2724
g73
(dp2725
g81
I3
ssg82
g2719
sg75
(lp2726
g1352
asbasbasbag68
(g84
g70
NtRp2727
(dp2728
g73
(dp2729
sg82
g2408
sg75
(lp2730
g68
(g89
g70
NtRp2731
(dp2732
g73
(dp2733
g93
g94
ssg82
g2727
sg75
(lp2734
S'SERVER_PORT'
p2735
asbag68
(g89
g70
NtRp2736
(dp2737
g73
(dp2738
g100
g101
ssg82
g2727
sg75
(lp2739
S':'
asbag68
(g89
g70
NtRp2740
(dp2741
g73
(dp2742
sg82
g2727
sg75
(lp2743
g68
(g69
g70
NtRp2744
(dp2745
g73
(dp2746
g81
I3
ssg82
g2740
sg75
(lp2747
g1374
asbasbasbag68
(g84
g70
NtRp2748
(dp2749
g73
(dp2750
sg82
g2408
sg75
(lp2751
g68
(g89
g70
NtRp2752
(dp2753
g73
(dp2754
g93
g94
ssg82
g2748
sg75
(lp2755
S'SERVER_PROTOCOL'
p2756
asbag68
(g89
g70
NtRp2757
(dp2758
g73
(dp2759
g100
g101
ssg82
g2748
sg75
(lp2760
S':'
asbag68
(g89
g70
NtRp2761
(dp2762
g73
(dp2763
sg82
g2748
sg75
(lp2764
g68
(g69
g70
NtRp2765
(dp2766
g73
(dp2767
g81
I3
ssg82
g2761
sg75
(lp2768
g1396
asbasbasbag68
(g84
g70
NtRp2769
(dp2770
g73
(dp2771
sg82
g2408
sg75
(lp2772
g68
(g89
g70
NtRp2773
(dp2774
g73
(dp2775
g93
g94
ssg82
g2769
sg75
(lp2776
S'SERVER_SOFTWARE'
p2777
asbag68
(g89
g70
NtRp2778
(dp2779
g73
(dp2780
g100
g101
ssg82
g2769
sg75
(lp2781
S':'
asbag68
(g89
g70
NtRp2782
(dp2783
g73
(dp2784
sg82
g2769
sg75
(lp2785
g68
(g69
g70
NtRp2786
(dp2787
g73
(dp2788
g81
I3
ssg82
g2782
sg75
(lp2789
g1418
asbasbasbag68
(g84
g70
NtRp2790
(dp2791
g73
(dp2792
sg82
g2408
sg75
(lp2793
g68
(g89
g70
NtRp2794
(dp2795
g73
(dp2796
g93
g94
ssg82
g2790
sg75
(lp2797
S'wsgi.errors'
p2798
asbag68
(g89
g70
NtRp2799
(dp2800
g73
(dp2801
g100
g101
ssg82
g2790
sg75
(lp2802
S':'
asbag68
(g89
g70
NtRp2803
(dp2804
g73
(dp2805
sg82
g2790
sg75
(lp2806
g68
(g69
g70
NtRp2807
(dp2808
g73
(dp2809
g81
I3
ssg82
g2803
sg75
(lp2810
S"<open file '<stderr>', mode 'w' at 0x7f84db3ff270>"
p2811
asbasbasbag68
(g84
g70
NtRp2812
(dp2813
g73
(dp2814
sg82
g2408
sg75
(lp2815
g68
(g89
g70
NtRp2816
(dp2817
g73
(dp2818
g93
g94
ssg82
g2812
sg75
(lp2819
S'wsgi.file_wrapper'
p2820
asbag68
(g89
g70
NtRp2821
(dp2822
g73
(dp2823
g100
g101
ssg82
g2812
sg75
(lp2824
S':'
asbag68
(g89
g70
NtRp2825
(dp2826
g73
(dp2827
sg82
g2812
sg75
(lp2828
g68
(g69
g70
NtRp2829
(dp2830
g73
(dp2831
g81
I3
ssg82
g2825
sg75
(lp2832
S'<class wsgiref.util.FileWrapper at 0x1b96d50>'
p2833
asbasbasbag68
(g84
g70
NtRp2834
(dp2835
g73
(dp2836
sg82
g2408
sg75
(lp2837
g68
(g89
g70
NtRp2838
(dp2839
g73
(dp2840
g93
g94
ssg82
g2834
sg75
(lp2841
S'wsgi.input'
p2842
asbag68
(g89
g70
NtRp2843
(dp2844
g73
(dp2845
g100
g101
ssg82
g2834
sg75
(lp2846
S':'
asbag68
(g89
g70
NtRp2847
(dp2848
g73
(dp2849
sg82
g2834
sg75
(lp2850
g68
(g69
g70
NtRp2851
(dp2852
g73
(dp2853
g81
I3
ssg82
g2847
sg75
(lp2854
S'<cStringIO.StringO object at 0x29e35a8>'
p2855
asbasbasbag68
(g84
g70
NtRp2856
(dp2857
g73
(dp2858
sg82
g2408
sg75
(lp2859
g68
(g89
g70
NtRp2860
(dp2861
g73
(dp2862
g93
g94
ssg82
g2856
sg75
(lp2863
S'wsgi.multiprocess'
p2864
asbag68
(g89
g70
NtRp2865
(dp2866
g73
(dp2867
g100
g101
ssg82
g2856
sg75
(lp2868
S':'
asbag68
(g89
g70
NtRp2869
(dp2870
g73
(dp2871
sg82
g2856
sg75
(lp2872
g68
(g69
g70
NtRp2873
(dp2874
g73
(dp2875
g81
I3
ssg82
g2869
sg75
(lp2876
g111
asbasbasbag68
(g84
g70
NtRp2877
(dp2878
g73
(dp2879
sg82
g2408
sg75
(lp2880
g68
(g89
g70
NtRp2881
(dp2882
g73
(dp2883
g93
g94
ssg82
g2877
sg75
(lp2884
S'wsgi.multithread'
p2885
asbag68
(g89
g70
NtRp2886
(dp2887
g73
(dp2888
g100
g101
ssg82
g2877
sg75
(lp2889
S':'
asbag68
(g89
g70
NtRp2890
(dp2891
g73
(dp2892
sg82
g2877
sg75
(lp2893
g68
(g69
g70
NtRp2894
(dp2895
g73
(dp2896
g81
I3
ssg82
g2890
sg75
(lp2897
g1658
asbasbasbag68
(g84
g70
NtRp2898
(dp2899
g73
(dp2900
sg82
g2408
sg75
(lp2901
g68
(g89
g70
NtRp2902
(dp2903
g73
(dp2904
g93
g94
ssg82
g2898
sg75
(lp2905
S'wsgi.run_once'
p2906
asbag68
(g89
g70
NtRp2907
(dp2908
g73
(dp2909
g100
g101
ssg82
g2898
sg75
(lp2910
S':'
asbag68
(g89
g70
NtRp2911
(dp2912
g73
(dp2913
sg82
g2898
sg75
(lp2914
g68
(g69
g70
NtRp2915
(dp2916
g73
(dp2917
g81
I3
ssg82
g2911
sg75
(lp2918
g111
asbasbasbag68
(g84
g70
NtRp2919
(dp2920
g73
(dp2921
sg82
g2408
sg75
(lp2922
g68
(g89
g70
NtRp2923
(dp2924
g73
(dp2925
g93
g94
ssg82
g2919
sg75
(lp2926
S'wsgi.url_scheme'
p2927
asbag68
(g89
g70
NtRp2928
(dp2929
g73
(dp2930
g100
g101
ssg82
g2919
sg75
(lp2931
S':'
asbag68
(g89
g70
NtRp2932
(dp2933
g73
(dp2934
sg82
g2919
sg75
(lp2935
g68
(g69
g70
NtRp2936
(dp2937
g73
(dp2938
g81
I3
ssg82
g2932
sg75
(lp2939
g1701
asbasbasbag68
(g84
g70
NtRp2940
(dp2941
g73
(dp2942
sg82
g2408
sg75
(lp2943
g68
(g89
g70
NtRp2944
(dp2945
g73
(dp2946
g93
g94
ssg82
g2940
sg75
(lp2947
S'wsgi.version'
p2948
asbag68
(g89
g70
NtRp2949
(dp2950
g73
(dp2951
g100
g101
ssg82
g2940
sg75
(lp2952
S':'
asbag68
(g89
g70
NtRp2953
(dp2954
g73
(dp2955
sg82
g2940
sg75
(lp2956
g68
(g69
g70
NtRp2957
(dp2958
g73
(dp2959
g81
I3
ssg82
g2953
sg75
(lp2960
S'1'
asbasbasbasbasbasbasbasbasbasbasbasbasbsS'frames'
p2961
(lp2962
(dp2963
S'file'
p2964
S'/home/jose/DESARROLLO/web2py199/gluon/restricted.py'
p2965
sS'dump'
p2966
(dp2967
S'code'
p2968
S"'# -*- coding: utf-8 -*-\\n# this file is released ...)\\n\\nresponse._vars=response._caller(getTypeTable)\\n'"
p2969
sS'layer'
p2970
S"'/home/jose/DESARROLLO/web2py199/applications/streamlog/controllers/default.py'"
p2971
sS'global compile2'
p2972
S'<function compile2>'
p2973
sS'ccode'
p2974
S'undefined'
p2975
ssS'lnum'
p2976
I193
sS'lines'
p2977
(dp2978
I192
S'        else:'
p2979
sI193
S'            ccode = compile2(code,layer)'
p2980
sI194
S'        exec ccode in environment'
p2981
sI195
S'    except HTTP:'
p2982
sI196
S'        raise'
p2983
sI197
S'    except Exception, error:'
p2984
sI188
S"    environment['__file__'] = layer"
p2985
sI189
S'    try:'
p2986
sI190
S'        if type(code) == types.CodeType:'
p2987
sI191
S'            ccode = code'
p2988
ssS'call'
p2989
S"(code='# -*- coding: utf-8 -*-\\n# this file is released ...)\\n\\nresponse._vars=response._caller(getTypeTable)\\n', environment={'A': <class 'gluon.html.A'>, 'Auth': <class 'gluon.tools.Auth'>, 'B': <class 'gluon.html.B'>, 'BEAUTIFY': <class 'gluon.html.BEAUTIFY'>, 'BODY': <class 'gluon.html.BODY'>, 'BR': <class 'gluon.html.BR'>, 'BUTTON': <class 'gluon.html.BUTTON'>, 'CAT': <class 'gluon.html.CAT'>, 'CENTER': <class 'gluon.html.CENTER'>, 'CLEANUP': <class 'gluon.validators.CLEANUP'>, ...}, layer='/home/jose/DESARROLLO/web2py199/applications/streamlog/controllers/default.py')"
p2990
sS'func'
p2991
S'restricted'
p2992
sa(dp2993
g2964
S'/home/jose/DESARROLLO/web2py199/gluon/restricted.py'
p2994
sg2966
(dp2995
S'builtincompile'
p2996
S'<built-in function compile>'
p2997
sS'code'
p2998
S"'# -*- coding: utf-8 -*-\\n# this file is released ...)\\n\\nresponse._vars=response._caller(getTypeTable)\\n'"
p2999
sS'code.rstrip'
p3000
S'<built-in method rstrip of str object>'
p3001
sS').replace'
p3002
g2975
sS'layer'
p3003
S"'/home/jose/DESARROLLO/web2py199/applications/streamlog/controllers/default.py'"
p3004
ssg2976
I179
sg2977
(dp3005
I174
S''
sI175
S'def compile2(code,layer):'
p3006
sI176
S'    """'
p3007
sI177
S"    The +'\\n' is necessary else compile fails when code ends in a comment."
p3008
sI178
S'    """'
p3009
sI179
S"    return compile(code.rstrip().replace('\\r\\n','\\n')+'\\n', layer, 'exec')"
p3010
sI180
S''
sI181
S"def restricted(code, environment=None, layer='Unknown'):"
p3011
sI182
S'    """'
p3012
sI183
S'    runs code in environment and returns the output. if an exception occurs'
p3013
ssg2989
S"(code='# -*- coding: utf-8 -*-\\n# this file is released ...)\\n\\nresponse._vars=response._caller(getTypeTable)\\n', layer='/home/jose/DESARROLLO/web2py199/applications/streamlog/controllers/default.py')"
p3014
sg2991
S'compile2'
p3015
sasS'pyver'
p3016
S'Python 2.7.2+: /usr/bin/python'
p3017
sS'session'
p3018
g68
(g69
g70
NtRp3019
(dp3020
g73
(dp3021
sg75
(lp3022
g68
(g77
g70
NtRp3023
(dp3024
g73
(dp3025
g81
I5
ssg82
Nsg75
(lp3026
g68
(g84
g70
NtRp3027
(dp3028
g73
(dp3029
sg82
g3023
sg75
(lp3030
g68
(g89
g70
NtRp3031
(dp3032
g73
(dp3033
g93
g94
ssg82
g3027
sg75
(lp3034
S'auth'
p3035
asbag68
(g89
g70
NtRp3036
(dp3037
g73
(dp3038
g100
g101
ssg82
g3027
sg75
(lp3039
S':'
asbag68
(g89
g70
NtRp3040
(dp3041
g73
(dp3042
sg82
g3027
sg75
(lp3043
g68
(g69
g70
NtRp3044
(dp3045
g73
(dp3046
g81
I5
ssg82
g3040
sg75
(lp3047
g68
(g77
g70
NtRp3048
(dp3049
g73
(dp3050
g81
I4
ssg82
Nsg75
(lp3051
g68
(g84
g70
NtRp3052
(dp3053
g73
(dp3054
sg82
g3048
sg75
(lp3055
g68
(g89
g70
NtRp3056
(dp3057
g73
(dp3058
g93
g94
ssg82
g3052
sg75
(lp3059
S'expiration'
p3060
asbag68
(g89
g70
NtRp3061
(dp3062
g73
(dp3063
g100
g101
ssg82
g3052
sg75
(lp3064
S':'
asbag68
(g89
g70
NtRp3065
(dp3066
g73
(dp3067
sg82
g3052
sg75
(lp3068
g68
(g69
g70
NtRp3069
(dp3070
g73
(dp3071
g81
I4
ssg82
g3065
sg75
(lp3072
S'2592000'
p3073
asbasbasbag68
(g84
g70
NtRp3074
(dp3075
g73
(dp3076
sg82
g3048
sg75
(lp3077
g68
(g89
g70
NtRp3078
(dp3079
g73
(dp3080
g93
g94
ssg82
g3074
sg75
(lp3081
S'hmac_key'
p3082
asbag68
(g89
g70
NtRp3083
(dp3084
g73
(dp3085
g100
g101
ssg82
g3074
sg75
(lp3086
S':'
asbag68
(g89
g70
NtRp3087
(dp3088
g73
(dp3089
sg82
g3074
sg75
(lp3090
g68
(g69
g70
NtRp3091
(dp3092
g73
(dp3093
g81
I4
ssg82
g3087
sg75
(lp3094
S'b954f0e8-95b3-42d2-829e-2e50e94d8454'
p3095
asbasbasbag68
(g84
g70
NtRp3096
(dp3097
g73
(dp3098
sg82
g3048
sg75
(lp3099
g68
(g89
g70
NtRp3100
(dp3101
g73
(dp3102
g93
g94
ssg82
g3096
sg75
(lp3103
S'last_visit'
p3104
asbag68
(g89
g70
NtRp3105
(dp3106
g73
(dp3107
g100
g101
ssg82
g3096
sg75
(lp3108
S':'
asbag68
(g89
g70
NtRp3109
(dp3110
g73
(dp3111
sg82
g3096
sg75
(lp3112
g68
(g69
g70
NtRp3113
(dp3114
g73
(dp3115
g81
I4
ssg82
g3109
sg75
(lp3116
S'datetime.datetime(2012, 5, 26, 18, 42, 33, 844375)'
p3117
asbasbasbag68
(g84
g70
NtRp3118
(dp3119
g73
(dp3120
sg82
g3048
sg75
(lp3121
g68
(g89
g70
NtRp3122
(dp3123
g73
(dp3124
g93
g94
ssg82
g3118
sg75
(lp3125
S'remember'
p3126
asbag68
(g89
g70
NtRp3127
(dp3128
g73
(dp3129
g100
g101
ssg82
g3118
sg75
(lp3130
S':'
asbag68
(g89
g70
NtRp3131
(dp3132
g73
(dp3133
sg82
g3118
sg75
(lp3134
g68
(g69
g70
NtRp3135
(dp3136
g73
(dp3137
g81
I4
ssg82
g3131
sg75
(lp3138
g111
asbasbasbag68
(g84
g70
NtRp3139
(dp3140
g73
(dp3141
sg82
g3048
sg75
(lp3142
g68
(g89
g70
NtRp3143
(dp3144
g73
(dp3145
g93
g94
ssg82
g3139
sg75
(lp3146
S'user'
p3147
asbag68
(g89
g70
NtRp3148
(dp3149
g73
(dp3150
g100
g101
ssg82
g3139
sg75
(lp3151
S':'
asbag68
(g89
g70
NtRp3152
(dp3153
g73
(dp3154
sg82
g3139
sg75
(lp3155
g68
(g69
g70
NtRp3156
(dp3157
g73
(dp3158
g81
I4
ssg82
g3152
sg75
(lp3159
g68
(g77
g70
NtRp3160
(dp3161
g73
(dp3162
g81
I3
ssg82
Nsg75
(lp3163
g68
(g84
g70
NtRp3164
(dp3165
g73
(dp3166
sg82
g3160
sg75
(lp3167
g68
(g89
g70
NtRp3168
(dp3169
g73
(dp3170
g93
g94
ssg82
g3164
sg75
(lp3171
S'email'
p3172
asbag68
(g89
g70
NtRp3173
(dp3174
g73
(dp3175
g100
g101
ssg82
g3164
sg75
(lp3176
S':'
asbag68
(g89
g70
NtRp3177
(dp3178
g73
(dp3179
sg82
g3164
sg75
(lp3180
g68
(g69
g70
NtRp3181
(dp3182
g73
(dp3183
g81
I3
ssg82
g3177
sg75
(lp3184
S'josedesoto@gmail.com'
p3185
asbasbasbag68
(g84
g70
NtRp3186
(dp3187
g73
(dp3188
sg82
g3160
sg75
(lp3189
g68
(g89
g70
NtRp3190
(dp3191
g73
(dp3192
g93
g94
ssg82
g3186
sg75
(lp3193
S'first_name'
p3194
asbag68
(g89
g70
NtRp3195
(dp3196
g73
(dp3197
g100
g101
ssg82
g3186
sg75
(lp3198
S':'
asbag68
(g89
g70
NtRp3199
(dp3200
g73
(dp3201
sg82
g3186
sg75
(lp3202
g68
(g69
g70
NtRp3203
(dp3204
g73
(dp3205
g81
I3
ssg82
g3199
sg75
(lp3206
S'jose'
p3207
asbasbasbag68
(g84
g70
NtRp3208
(dp3209
g73
(dp3210
sg82
g3160
sg75
(lp3211
g68
(g89
g70
NtRp3212
(dp3213
g73
(dp3214
g93
g94
ssg82
g3208
sg75
(lp3215
S'id'
p3216
asbag68
(g89
g70
NtRp3217
(dp3218
g73
(dp3219
g100
g101
ssg82
g3208
sg75
(lp3220
S':'
asbag68
(g89
g70
NtRp3221
(dp3222
g73
(dp3223
sg82
g3208
sg75
(lp3224
g68
(g69
g70
NtRp3225
(dp3226
g73
(dp3227
g81
I3
ssg82
g3221
sg75
(lp3228
S'1'
asbasbasbag68
(g84
g70
NtRp3229
(dp3230
g73
(dp3231
sg82
g3160
sg75
(lp3232
g68
(g89
g70
NtRp3233
(dp3234
g73
(dp3235
g93
g94
ssg82
g3229
sg75
(lp3236
S'last_name'
p3237
asbag68
(g89
g70
NtRp3238
(dp3239
g73
(dp3240
g100
g101
ssg82
g3229
sg75
(lp3241
S':'
asbag68
(g89
g70
NtRp3242
(dp3243
g73
(dp3244
sg82
g3229
sg75
(lp3245
g68
(g69
g70
NtRp3246
(dp3247
g73
(dp3248
g81
I3
ssg82
g3242
sg75
(lp3249
S'jose'
p3250
asbasbasbag68
(g84
g70
NtRp3251
(dp3252
g73
(dp3253
sg82
g3160
sg75
(lp3254
g68
(g89
g70
NtRp3255
(dp3256
g73
(dp3257
g93
g94
ssg82
g3251
sg75
(lp3258
S'password'
p3259
asbag68
(g89
g70
NtRp3260
(dp3261
g73
(dp3262
g100
g101
ssg82
g3251
sg75
(lp3263
S':'
asbag68
(g89
g70
NtRp3264
(dp3265
g73
(dp3266
sg82
g3251
sg75
(lp3267
g68
(g69
g70
NtRp3268
(dp3269
g73
(dp3270
g81
I3
ssg82
g3264
sg75
(lp3271
S'2b32eaa2baa0c63b755a4cde1e4dda83'
p3272
asbasbasbag68
(g84
g70
NtRp3273
(dp3274
g73
(dp3275
sg82
g3160
sg75
(lp3276
g68
(g89
g70
NtRp3277
(dp3278
g73
(dp3279
g93
g94
ssg82
g3273
sg75
(lp3280
S'registration_key'
p3281
asbag68
(g89
g70
NtRp3282
(dp3283
g73
(dp3284
g100
g101
ssg82
g3273
sg75
(lp3285
S':'
asbag68
(g89
g70
NtRp3286
(dp3287
g73
(dp3288
sg82
g3273
sg75
(lp3289
g68
(g69
g70
NtRp3290
(dp3291
g73
(dp3292
g81
I3
ssg82
g3286
sg75
(lp3293
S''
asbasbasbag68
(g84
g70
NtRp3294
(dp3295
g73
(dp3296
sg82
g3160
sg75
(lp3297
g68
(g89
g70
NtRp3298
(dp3299
g73
(dp3300
g93
g94
ssg82
g3294
sg75
(lp3301
S'reset_password_key'
p3302
asbag68
(g89
g70
NtRp3303
(dp3304
g73
(dp3305
g100
g101
ssg82
g3294
sg75
(lp3306
S':'
asbag68
(g89
g70
NtRp3307
(dp3308
g73
(dp3309
sg82
g3294
sg75
(lp3310
g68
(g69
g70
NtRp3311
(dp3312
g73
(dp3313
g81
I3
ssg82
g3307
sg75
(lp3314
S''
asbasbasbasbasbasbasbasbasbasbasbag68
(g84
g70
NtRp3315
(dp3316
g73
(dp3317
sg82
g3023
sg75
(lp3318
g68
(g89
g70
NtRp3319
(dp3320
g73
(dp3321
g93
g94
ssg82
g3315
sg75
(lp3322
S'last_query'
p3323
asbag68
(g89
g70
NtRp3324
(dp3325
g73
(dp3326
g100
g101
ssg82
g3315
sg75
(lp3327
S':'
asbag68
(g89
g70
NtRp3328
(dp3329
g73
(dp3330
sg82
g3315
sg75
(lp3331
g68
(g69
g70
NtRp3332
(dp3333
g73
(dp3334
g81
I5
ssg82
g3328
sg75
(lp3335
S'((db.t_project.user==me)&(db.t_server.project==db.t_project.id)&(db.t_log.server==db.t_server.id))'
p3336
asbasbasbasbasbsS'etype'
p3337
S"<type 'exceptions.SyntaxError'>"
p3338
sS'date'
p3339
S'Sat May 26 21:11:25 2012'
p3340
sS'response'
p3341
g68
(g69
g70
NtRp3342
(dp3343
g73
(dp3344
sg75
(lp3345
g68
(g77
g70
NtRp3346
(dp3347
g73
(dp3348
g81
I5
ssg82
Nsg75
(lp3349
g68
(g84
g70
NtRp3350
(dp3351
g73
(dp3352
sg82
g3346
sg75
(lp3353
g68
(g89
g70
NtRp3354
(dp3355
g73
(dp3356
g93
g94
ssg82
g3350
sg75
(lp3357
g178
asbag68
(g89
g70
NtRp3358
(dp3359
g73
(dp3360
g100
g101
ssg82
g3350
sg75
(lp3361
S':'
asbag68
(g89
g70
NtRp3362
(dp3363
g73
(dp3364
sg82
g3350
sg75
(lp3365
g68
(g69
g70
NtRp3366
(dp3367
g73
(dp3368
g81
I5
ssg82
g3362
sg75
(lp3369
S'<cStringIO.StringO object at 0x44d2688>'
p3370
asbasbasbag68
(g84
g70
NtRp3371
(dp3372
g73
(dp3373
sg82
g3346
sg75
(lp3374
g68
(g89
g70
NtRp3375
(dp3376
g73
(dp3377
g93
g94
ssg82
g3371
sg75
(lp3378
g244
asbag68
(g89
g70
NtRp3379
(dp3380
g73
(dp3381
g100
g101
ssg82
g3371
sg75
(lp3382
S':'
asbag68
(g89
g70
NtRp3383
(dp3384
g73
(dp3385
sg82
g3371
sg75
(lp3386
g68
(g69
g70
NtRp3387
(dp3388
g73
(dp3389
g81
I5
ssg82
g3383
sg75
(lp3390
g68
(g77
g70
NtRp3391
(dp3392
g73
(dp3393
g81
I4
ssg82
Nsg75
(lp3394
g68
(g84
g70
NtRp3395
(dp3396
g73
(dp3397
sg82
g3391
sg75
(lp3398
g68
(g89
g70
NtRp3399
(dp3400
g73
(dp3401
g93
g94
ssg82
g3395
sg75
(lp3402
S'session_id_streamlog'
p3403
asbag68
(g89
g70
NtRp3404
(dp3405
g73
(dp3406
g100
g101
ssg82
g3395
sg75
(lp3407
S':'
asbag68
(g89
g70
NtRp3408
(dp3409
g73
(dp3410
sg82
g3395
sg75
(lp3411
g68
(g69
g70
NtRp3412
(dp3413
g73
(dp3414
g81
I4
ssg82
g3408
sg75
(lp3415
g68
(g77
g70
NtRp3416
(dp3417
g73
(dp3418
g81
I3
ssg82
Nsg75
(lp3419
g68
(g84
g70
NtRp3420
(dp3421
g73
(dp3422
sg82
g3416
sg75
(lp3423
g68
(g89
g70
NtRp3424
(dp3425
g73
(dp3426
g93
g94
ssg82
g3420
sg75
(lp3427
g294
asbag68
(g89
g70
NtRp3428
(dp3429
g73
(dp3430
g100
g101
ssg82
g3420
sg75
(lp3431
S':'
asbag68
(g89
g70
NtRp3432
(dp3433
g73
(dp3434
sg82
g3420
sg75
(lp3435
g68
(g69
g70
NtRp3436
(dp3437
g73
(dp3438
g81
I3
ssg82
g3432
sg75
(lp3439
S''
asbasbasbag68
(g84
g70
NtRp3440
(dp3441
g73
(dp3442
sg82
g3416
sg75
(lp3443
g68
(g89
g70
NtRp3444
(dp3445
g73
(dp3446
g93
g94
ssg82
g3440
sg75
(lp3447
g315
asbag68
(g89
g70
NtRp3448
(dp3449
g73
(dp3450
g100
g101
ssg82
g3440
sg75
(lp3451
S':'
asbag68
(g89
g70
NtRp3452
(dp3453
g73
(dp3454
sg82
g3440
sg75
(lp3455
g68
(g69
g70
NtRp3456
(dp3457
g73
(dp3458
g81
I3
ssg82
g3452
sg75
(lp3459
S''
asbasbasbag68
(g84
g70
NtRp3460
(dp3461
g73
(dp3462
sg82
g3416
sg75
(lp3463
g68
(g89
g70
NtRp3464
(dp3465
g73
(dp3466
g93
g94
ssg82
g3460
sg75
(lp3467
g336
asbag68
(g89
g70
NtRp3468
(dp3469
g73
(dp3470
g100
g101
ssg82
g3460
sg75
(lp3471
S':'
asbag68
(g89
g70
NtRp3472
(dp3473
g73
(dp3474
sg82
g3460
sg75
(lp3475
g68
(g69
g70
NtRp3476
(dp3477
g73
(dp3478
g81
I3
ssg82
g3472
sg75
(lp3479
S''
asbasbasbag68
(g84
g70
NtRp3480
(dp3481
g73
(dp3482
sg82
g3416
sg75
(lp3483
g68
(g89
g70
NtRp3484
(dp3485
g73
(dp3486
g93
g94
ssg82
g3480
sg75
(lp3487
g357
asbag68
(g89
g70
NtRp3488
(dp3489
g73
(dp3490
g100
g101
ssg82
g3480
sg75
(lp3491
S':'
asbag68
(g89
g70
NtRp3492
(dp3493
g73
(dp3494
sg82
g3480
sg75
(lp3495
g68
(g69
g70
NtRp3496
(dp3497
g73
(dp3498
g81
I3
ssg82
g3492
sg75
(lp3499
S''
asbasbasbag68
(g84
g70
NtRp3500
(dp3501
g73
(dp3502
sg82
g3416
sg75
(lp3503
g68
(g89
g70
NtRp3504
(dp3505
g73
(dp3506
g93
g94
ssg82
g3500
sg75
(lp3507
g378
asbag68
(g89
g70
NtRp3508
(dp3509
g73
(dp3510
g100
g101
ssg82
g3500
sg75
(lp3511
S':'
asbag68
(g89
g70
NtRp3512
(dp3513
g73
(dp3514
sg82
g3500
sg75
(lp3515
g68
(g69
g70
NtRp3516
(dp3517
g73
(dp3518
g81
I3
ssg82
g3512
sg75
(lp3519
S''
asbasbasbag68
(g84
g70
NtRp3520
(dp3521
g73
(dp3522
sg82
g3416
sg75
(lp3523
g68
(g89
g70
NtRp3524
(dp3525
g73
(dp3526
g93
g94
ssg82
g3520
sg75
(lp3527
g399
asbag68
(g89
g70
NtRp3528
(dp3529
g73
(dp3530
g100
g101
ssg82
g3520
sg75
(lp3531
S':'
asbag68
(g89
g70
NtRp3532
(dp3533
g73
(dp3534
sg82
g3520
sg75
(lp3535
g68
(g69
g70
NtRp3536
(dp3537
g73
(dp3538
g81
I3
ssg82
g3532
sg75
(lp3539
S'/'
asbasbasbag68
(g84
g70
NtRp3540
(dp3541
g73
(dp3542
sg82
g3416
sg75
(lp3543
g68
(g89
g70
NtRp3544
(dp3545
g73
(dp3546
g93
g94
ssg82
g3540
sg75
(lp3547
g420
asbag68
(g89
g70
NtRp3548
(dp3549
g73
(dp3550
g100
g101
ssg82
g3540
sg75
(lp3551
S':'
asbag68
(g89
g70
NtRp3552
(dp3553
g73
(dp3554
sg82
g3540
sg75
(lp3555
g68
(g69
g70
NtRp3556
(dp3557
g73
(dp3558
g81
I3
ssg82
g3552
sg75
(lp3559
S''
asbasbasbag68
(g84
g70
NtRp3560
(dp3561
g73
(dp3562
sg82
g3416
sg75
(lp3563
g68
(g89
g70
NtRp3564
(dp3565
g73
(dp3566
g93
g94
ssg82
g3560
sg75
(lp3567
g441
asbag68
(g89
g70
NtRp3568
(dp3569
g73
(dp3570
g100
g101
ssg82
g3560
sg75
(lp3571
S':'
asbag68
(g89
g70
NtRp3572
(dp3573
g73
(dp3574
sg82
g3560
sg75
(lp3575
g68
(g69
g70
NtRp3576
(dp3577
g73
(dp3578
g81
I3
ssg82
g3572
sg75
(lp3579
S''
asbasbasbasbasbasbasbasbasbasbasbag68
(g84
g70
NtRp3580
(dp3581
g73
(dp3582
sg82
g3346
sg75
(lp3583
g68
(g89
g70
NtRp3584
(dp3585
g73
(dp3586
g93
g94
ssg82
g3580
sg75
(lp3587
S'files'
p3588
asbag68
(g89
g70
NtRp3589
(dp3590
g73
(dp3591
g100
g101
ssg82
g3580
sg75
(lp3592
S':'
asbag68
(g89
g70
NtRp3593
(dp3594
g73
(dp3595
sg82
g3580
sg75
(lp3596
g68
(g69
g70
NtRp3597
(dp3598
g73
(dp3599
g81
I5
ssg82
g3593
sg75
(lp3600
g68
(g77
g70
NtRp3601
(dp3602
g73
(dp3603
g81
I4
ssg82
Nsg75
(lp3604
sbasbasbasbag68
(g84
g70
NtRp3605
(dp3606
g73
(dp3607
sg82
g3346
sg75
(lp3608
g68
(g89
g70
NtRp3609
(dp3610
g73
(dp3611
g93
g94
ssg82
g3605
sg75
(lp3612
S'flash'
p3613
asbag68
(g89
g70
NtRp3614
(dp3615
g73
(dp3616
g100
g101
ssg82
g3605
sg75
(lp3617
S':'
asbag68
(g89
g70
NtRp3618
(dp3619
g73
(dp3620
sg82
g3605
sg75
(lp3621
g68
(g69
g70
NtRp3622
(dp3623
g73
(dp3624
g81
I5
ssg82
g3618
sg75
(lp3625
S''
asbasbasbag68
(g84
g70
NtRp3626
(dp3627
g73
(dp3628
sg82
g3346
sg75
(lp3629
g68
(g89
g70
NtRp3630
(dp3631
g73
(dp3632
g93
g94
ssg82
g3626
sg75
(lp3633
S'generic_patterns'
p3634
asbag68
(g89
g70
NtRp3635
(dp3636
g73
(dp3637
g100
g101
ssg82
g3626
sg75
(lp3638
S':'
asbag68
(g89
g70
NtRp3639
(dp3640
g73
(dp3641
sg82
g3626
sg75
(lp3642
g68
(g69
g70
NtRp3643
(dp3644
g73
(dp3645
g81
I5
ssg82
g3639
sg75
(lp3646
g68
(g77
g70
NtRp3647
(dp3648
g73
(dp3649
g81
I4
ssg82
Nsg75
(lp3650
g68
(g84
g70
NtRp3651
(dp3652
g73
(dp3653
sg82
g3647
sg75
(lp3654
g68
(g89
g70
NtRp3655
(dp3656
g73
(dp3657
sg82
g3651
sg75
(lp3658
g68
(g69
g70
NtRp3659
(dp3660
g73
(dp3661
g81
I4
ssg82
g3655
sg75
(lp3662
S'*'
asbasbasbasbasbasbasbag68
(g84
g70
NtRp3663
(dp3664
g73
(dp3665
sg82
g3346
sg75
(lp3666
g68
(g89
g70
NtRp3667
(dp3668
g73
(dp3669
g93
g94
ssg82
g3663
sg75
(lp3670
S'headers'
p3671
asbag68
(g89
g70
NtRp3672
(dp3673
g73
(dp3674
g100
g101
ssg82
g3663
sg75
(lp3675
S':'
asbag68
(g89
g70
NtRp3676
(dp3677
g73
(dp3678
sg82
g3663
sg75
(lp3679
g68
(g69
g70
NtRp3680
(dp3681
g73
(dp3682
g81
I5
ssg82
g3676
sg75
(lp3683
g68
(g77
g70
NtRp3684
(dp3685
g73
(dp3686
g81
I4
ssg82
Nsg75
(lp3687
g68
(g84
g70
NtRp3688
(dp3689
g73
(dp3690
sg82
g3684
sg75
(lp3691
g68
(g89
g70
NtRp3692
(dp3693
g73
(dp3694
g93
g94
ssg82
g3688
sg75
(lp3695
S'Cache-Control'
p3696
asbag68
(g89
g70
NtRp3697
(dp3698
g73
(dp3699
g100
g101
ssg82
g3688
sg75
(lp3700
S':'
asbag68
(g89
g70
NtRp3701
(dp3702
g73
(dp3703
sg82
g3688
sg75
(lp3704
g68
(g69
g70
NtRp3705
(dp3706
g73
(dp3707
g81
I4
ssg82
g3701
sg75
(lp3708
S'no-store, no-cache, must-revalidate, post-check=0, pre-check=0'
p3709
asbasbasbag68
(g84
g70
NtRp3710
(dp3711
g73
(dp3712
sg82
g3684
sg75
(lp3713
g68
(g89
g70
NtRp3714
(dp3715
g73
(dp3716
g93
g94
ssg82
g3710
sg75
(lp3717
S'Content-Type'
p3718
asbag68
(g89
g70
NtRp3719
(dp3720
g73
(dp3721
g100
g101
ssg82
g3710
sg75
(lp3722
S':'
asbag68
(g89
g70
NtRp3723
(dp3724
g73
(dp3725
sg82
g3710
sg75
(lp3726
g68
(g69
g70
NtRp3727
(dp3728
g73
(dp3729
g81
I4
ssg82
g3723
sg75
(lp3730
S'text/html; charset=utf-8'
p3731
asbasbasbag68
(g84
g70
NtRp3732
(dp3733
g73
(dp3734
sg82
g3684
sg75
(lp3735
g68
(g89
g70
NtRp3736
(dp3737
g73
(dp3738
g93
g94
ssg82
g3732
sg75
(lp3739
S'Expires'
p3740
asbag68
(g89
g70
NtRp3741
(dp3742
g73
(dp3743
g100
g101
ssg82
g3732
sg75
(lp3744
S':'
asbag68
(g89
g70
NtRp3745
(dp3746
g73
(dp3747
sg82
g3732
sg75
(lp3748
g68
(g69
g70
NtRp3749
(dp3750
g73
(dp3751
g81
I4
ssg82
g3745
sg75
(lp3752
S'Sat, 26 May 2012 14:11:25 GMT'
p3753
asbasbasbag68
(g84
g70
NtRp3754
(dp3755
g73
(dp3756
sg82
g3684
sg75
(lp3757
g68
(g89
g70
NtRp3758
(dp3759
g73
(dp3760
g93
g94
ssg82
g3754
sg75
(lp3761
S'Pragma'
p3762
asbag68
(g89
g70
NtRp3763
(dp3764
g73
(dp3765
g100
g101
ssg82
g3754
sg75
(lp3766
S':'
asbag68
(g89
g70
NtRp3767
(dp3768
g73
(dp3769
sg82
g3754
sg75
(lp3770
g68
(g69
g70
NtRp3771
(dp3772
g73
(dp3773
g81
I4
ssg82
g3767
sg75
(lp3774
S'no-cache'
p3775
asbasbasbag68
(g84
g70
NtRp3776
(dp3777
g73
(dp3778
sg82
g3684
sg75
(lp3779
g68
(g89
g70
NtRp3780
(dp3781
g73
(dp3782
g93
g94
ssg82
g3776
sg75
(lp3783
S'X-Powered-By'
p3784
asbag68
(g89
g70
NtRp3785
(dp3786
g73
(dp3787
g100
g101
ssg82
g3776
sg75
(lp3788
S':'
asbag68
(g89
g70
NtRp3789
(dp3790
g73
(dp3791
sg82
g3776
sg75
(lp3792
g68
(g69
g70
NtRp3793
(dp3794
g73
(dp3795
g81
I4
ssg82
g3789
sg75
(lp3796
S'web2py'
p3797
asbasbasbasbasbasbasbag68
(g84
g70
NtRp3798
(dp3799
g73
(dp3800
sg82
g3346
sg75
(lp3801
g68
(g89
g70
NtRp3802
(dp3803
g73
(dp3804
g93
g94
ssg82
g3798
sg75
(lp3805
S'menu'
p3806
asbag68
(g89
g70
NtRp3807
(dp3808
g73
(dp3809
g100
g101
ssg82
g3798
sg75
(lp3810
S':'
asbag68
(g89
g70
NtRp3811
(dp3812
g73
(dp3813
sg82
g3798
sg75
(lp3814
g68
(g69
g70
NtRp3815
(dp3816
g73
(dp3817
g81
I5
ssg82
g3811
sg75
(lp3818
g68
(g77
g70
NtRp3819
(dp3820
g73
(dp3821
g81
I4
ssg82
Nsg75
(lp3822
g68
(g84
g70
NtRp3823
(dp3824
g73
(dp3825
sg82
g3819
sg75
(lp3826
g68
(g89
g70
NtRp3827
(dp3828
g73
(dp3829
sg82
g3823
sg75
(lp3830
g68
(g69
g70
NtRp3831
(dp3832
g73
(dp3833
g81
I4
ssg82
g3827
sg75
(lp3834
g68
(g77
g70
NtRp3835
(dp3836
g73
(dp3837
g81
I3
ssg82
Nsg75
(lp3838
g68
(g84
g70
NtRp3839
(dp3840
g73
(dp3841
sg82
g3835
sg75
(lp3842
g68
(g89
g70
NtRp3843
(dp3844
g73
(dp3845
sg82
g3839
sg75
(lp3846
g68
(g69
g70
NtRp3847
(dp3848
g73
(dp3849
g81
I3
ssg82
g3843
sg75
(lp3850
cgluon.languages
lazyT_unpickle
p3851
(S's\n\x00\x00\x00Clear Page'
tRp3852
asbasbasbag68
(g84
g70
NtRp3853
(dp3854
g73
(dp3855
sg82
g3835
sg75
(lp3856
g68
(g89
g70
NtRp3857
(dp3858
g73
(dp3859
sg82
g3853
sg75
(lp3860
g68
(g69
g70
NtRp3861
(dp3862
g73
(dp3863
g81
I3
ssg82
g3857
sg75
(lp3864
g111
asbasbasbag68
(g84
g70
NtRp3865
(dp3866
g73
(dp3867
sg82
g3835
sg75
(lp3868
g68
(g89
g70
NtRp3869
(dp3870
g73
(dp3871
sg82
g3865
sg75
(lp3872
g68
(g69
g70
NtRp3873
(dp3874
g73
(dp3875
g81
I3
ssg82
g3869
sg75
(lp3876
S'/streamlog/default/index'
p3877
asbasbasbag68
(g84
g70
NtRp3878
(dp3879
g73
(dp3880
sg82
g3835
sg75
(lp3881
g68
(g89
g70
NtRp3882
(dp3883
g73
(dp3884
sg82
g3878
sg75
(lp3885
g68
(g69
g70
NtRp3886
(dp3887
g73
(dp3888
g81
I3
ssg82
g3882
sg75
(lp3889
g68
(g77
g70
NtRp3890
(dp3891
g73
(dp3892
g81
I2
ssg82
Nsg75
(lp3893
sbasbasbasbasbasbasbasbag68
(g84
g70
NtRp3894
(dp3895
g73
(dp3896
sg82
g3819
sg75
(lp3897
g68
(g89
g70
NtRp3898
(dp3899
g73
(dp3900
sg82
g3894
sg75
(lp3901
g68
(g69
g70
NtRp3902
(dp3903
g73
(dp3904
g81
I4
ssg82
g3898
sg75
(lp3905
g68
(g77
g70
NtRp3906
(dp3907
g73
(dp3908
g81
I3
ssg82
Nsg75
(lp3909
g68
(g84
g70
NtRp3910
(dp3911
g73
(dp3912
sg82
g3906
sg75
(lp3913
g68
(g89
g70
NtRp3914
(dp3915
g73
(dp3916
sg82
g3910
sg75
(lp3917
g68
(g69
g70
NtRp3918
(dp3919
g73
(dp3920
g81
I3
ssg82
g3914
sg75
(lp3921
g3851
(S't\x06\x00\x00\x00Manage'
tRp3922
asbasbasbag68
(g84
g70
NtRp3923
(dp3924
g73
(dp3925
sg82
g3906
sg75
(lp3926
g68
(g89
g70
NtRp3927
(dp3928
g73
(dp3929
sg82
g3923
sg75
(lp3930
g68
(g69
g70
NtRp3931
(dp3932
g73
(dp3933
g81
I3
ssg82
g3927
sg75
(lp3934
g111
asbasbasbag68
(g84
g70
NtRp3935
(dp3936
g73
(dp3937
sg82
g3906
sg75
(lp3938
g68
(g89
g70
NtRp3939
(dp3940
g73
(dp3941
sg82
g3935
sg75
(lp3942
g68
(g69
g70
NtRp3943
(dp3944
g73
(dp3945
g81
I3
ssg82
g3939
sg75
(lp3946
S'None'
p3947
asbasbasbag68
(g84
g70
NtRp3948
(dp3949
g73
(dp3950
sg82
g3906
sg75
(lp3951
g68
(g89
g70
NtRp3952
(dp3953
g73
(dp3954
sg82
g3948
sg75
(lp3955
g68
(g69
g70
NtRp3956
(dp3957
g73
(dp3958
g81
I3
ssg82
g3952
sg75
(lp3959
g68
(g77
g70
NtRp3960
(dp3961
g73
(dp3962
g81
I2
ssg82
Nsg75
(lp3963
g68
(g84
g70
NtRp3964
(dp3965
g73
(dp3966
sg82
g3960
sg75
(lp3967
g68
(g89
g70
NtRp3968
(dp3969
g73
(dp3970
sg82
g3964
sg75
(lp3971
g68
(g69
g70
NtRp3972
(dp3973
g73
(dp3974
g81
I2
ssg82
g3968
sg75
(lp3975
g68
(g77
g70
NtRp3976
(dp3977
g73
(dp3978
g81
I1
ssg82
Nsg75
(lp3979
g68
(g84
g70
NtRp3980
(dp3981
g73
(dp3982
sg82
g3976
sg75
(lp3983
g68
(g89
g70
NtRp3984
(dp3985
g73
(dp3986
sg82
g3980
sg75
(lp3987
g68
(g69
g70
NtRp3988
(dp3989
g73
(dp3990
g81
I1
ssg82
g3984
sg75
(lp3991
g3851
(S't\x04\x00\x00\x00Logs'
tRp3992
asbasbasbag68
(g84
g70
NtRp3993
(dp3994
g73
(dp3995
sg82
g3976
sg75
(lp3996
g68
(g89
g70
NtRp3997
(dp3998
g73
(dp3999
sg82
g3993
sg75
(lp4000
g68
(g69
g70
NtRp4001
(dp4002
g73
(dp4003
g81
I1
ssg82
g3997
sg75
(lp4004
I00
asbasbasbag68
(g84
g70
NtRp4005
(dp4006
g73
(dp4007
sg82
g3976
sg75
(lp4008
g68
(g89
g70
NtRp4009
(dp4010
g73
(dp4011
sg82
g4005
sg75
(lp4012
g68
(g69
g70
NtRp4013
(dp4014
g73
(dp4015
g81
I1
ssg82
g4009
sg75
(lp4016
S'/streamlog/default/log_manage'
p4017
asbasbasbag68
(g84
g70
NtRp4018
(dp4019
g73
(dp4020
sg82
g3976
sg75
(lp4021
g68
(g89
g70
NtRp4022
(dp4023
g73
(dp4024
sg82
g4018
sg75
(lp4025
g68
(g69
g70
NtRp4026
(dp4027
g73
(dp4028
g81
I1
ssg82
g4022
sg75
(lp4029
(lp4030
asbasbasbasbasbasbasbag68
(g84
g70
NtRp4031
(dp4032
g73
(dp4033
sg82
g3960
sg75
(lp4034
g68
(g89
g70
NtRp4035
(dp4036
g73
(dp4037
sg82
g4031
sg75
(lp4038
g68
(g69
g70
NtRp4039
(dp4040
g73
(dp4041
g81
I2
ssg82
g4035
sg75
(lp4042
g68
(g77
g70
NtRp4043
(dp4044
g73
(dp4045
g81
I1
ssg82
Nsg75
(lp4046
g68
(g84
g70
NtRp4047
(dp4048
g73
(dp4049
sg82
g4043
sg75
(lp4050
g68
(g89
g70
NtRp4051
(dp4052
g73
(dp4053
sg82
g4047
sg75
(lp4054
g68
(g69
g70
NtRp4055
(dp4056
g73
(dp4057
g81
I1
ssg82
g4051
sg75
(lp4058
g3851
(S't\x07\x00\x00\x00Servers'
tRp4059
asbasbasbag68
(g84
g70
NtRp4060
(dp4061
g73
(dp4062
sg82
g4043
sg75
(lp4063
g68
(g89
g70
NtRp4064
(dp4065
g73
(dp4066
sg82
g4060
sg75
(lp4067
g68
(g69
g70
NtRp4068
(dp4069
g73
(dp4070
g81
I1
ssg82
g4064
sg75
(lp4071
I00
asbasbasbag68
(g84
g70
NtRp4072
(dp4073
g73
(dp4074
sg82
g4043
sg75
(lp4075
g68
(g89
g70
NtRp4076
(dp4077
g73
(dp4078
sg82
g4072
sg75
(lp4079
g68
(g69
g70
NtRp4080
(dp4081
g73
(dp4082
g81
I1
ssg82
g4076
sg75
(lp4083
S'/streamlog/default/server_manage'
p4084
asbasbasbag68
(g84
g70
NtRp4085
(dp4086
g73
(dp4087
sg82
g4043
sg75
(lp4088
g68
(g89
g70
NtRp4089
(dp4090
g73
(dp4091
sg82
g4085
sg75
(lp4092
g68
(g69
g70
NtRp4093
(dp4094
g73
(dp4095
g81
I1
ssg82
g4089
sg75
(lp4096
(lp4097
asbasbasbasbasbasbasbag68
(g84
g70
NtRp4098
(dp4099
g73
(dp4100
sg82
g3960
sg75
(lp4101
g68
(g89
g70
NtRp4102
(dp4103
g73
(dp4104
sg82
g4098
sg75
(lp4105
g68
(g69
g70
NtRp4106
(dp4107
g73
(dp4108
g81
I2
ssg82
g4102
sg75
(lp4109
g68
(g77
g70
NtRp4110
(dp4111
g73
(dp4112
g81
I1
ssg82
Nsg75
(lp4113
g68
(g84
g70
NtRp4114
(dp4115
g73
(dp4116
sg82
g4110
sg75
(lp4117
g68
(g89
g70
NtRp4118
(dp4119
g73
(dp4120
sg82
g4114
sg75
(lp4121
g68
(g69
g70
NtRp4122
(dp4123
g73
(dp4124
g81
I1
ssg82
g4118
sg75
(lp4125
g3851
(S't\x08\x00\x00\x00Projects'
tRp4126
asbasbasbag68
(g84
g70
NtRp4127
(dp4128
g73
(dp4129
sg82
g4110
sg75
(lp4130
g68
(g89
g70
NtRp4131
(dp4132
g73
(dp4133
sg82
g4127
sg75
(lp4134
g68
(g69
g70
NtRp4135
(dp4136
g73
(dp4137
g81
I1
ssg82
g4131
sg75
(lp4138
I00
asbasbasbag68
(g84
g70
NtRp4139
(dp4140
g73
(dp4141
sg82
g4110
sg75
(lp4142
g68
(g89
g70
NtRp4143
(dp4144
g73
(dp4145
sg82
g4139
sg75
(lp4146
g68
(g69
g70
NtRp4147
(dp4148
g73
(dp4149
g81
I1
ssg82
g4143
sg75
(lp4150
S'/streamlog/default/project_manage'
p4151
asbasbasbag68
(g84
g70
NtRp4152
(dp4153
g73
(dp4154
sg82
g4110
sg75
(lp4155
g68
(g89
g70
NtRp4156
(dp4157
g73
(dp4158
sg82
g4152
sg75
(lp4159
g68
(g69
g70
NtRp4160
(dp4161
g73
(dp4162
g81
I1
ssg82
g4156
sg75
(lp4163
(lp4164
asbasbasbasbasbasbasbag68
(g84
g70
NtRp4165
(dp4166
g73
(dp4167
sg82
g3960
sg75
(lp4168
g68
(g89
g70
NtRp4169
(dp4170
g73
(dp4171
sg82
g4165
sg75
(lp4172
g68
(g69
g70
NtRp4173
(dp4174
g73
(dp4175
g81
I2
ssg82
g4169
sg75
(lp4176
g68
(g77
g70
NtRp4177
(dp4178
g73
(dp4179
g81
I1
ssg82
Nsg75
(lp4180
g68
(g84
g70
NtRp4181
(dp4182
g73
(dp4183
sg82
g4177
sg75
(lp4184
g68
(g89
g70
NtRp4185
(dp4186
g73
(dp4187
sg82
g4181
sg75
(lp4188
g68
(g69
g70
NtRp4189
(dp4190
g73
(dp4191
g81
I1
ssg82
g4185
sg75
(lp4192
g3851
(S's\t\x00\x00\x00Type Logs'
tRp4193
asbasbasbag68
(g84
g70
NtRp4194
(dp4195
g73
(dp4196
sg82
g4177
sg75
(lp4197
g68
(g89
g70
NtRp4198
(dp4199
g73
(dp4200
sg82
g4194
sg75
(lp4201
g68
(g69
g70
NtRp4202
(dp4203
g73
(dp4204
g81
I1
ssg82
g4198
sg75
(lp4205
I00
asbasbasbag68
(g84
g70
NtRp4206
(dp4207
g73
(dp4208
sg82
g4177
sg75
(lp4209
g68
(g89
g70
NtRp4210
(dp4211
g73
(dp4212
sg82
g4206
sg75
(lp4213
g68
(g69
g70
NtRp4214
(dp4215
g73
(dp4216
g81
I1
ssg82
g4210
sg75
(lp4217
S'/streamlog/default/type_log_manage'
p4218
asbasbasbag68
(g84
g70
NtRp4219
(dp4220
g73
(dp4221
sg82
g4177
sg75
(lp4222
g68
(g89
g70
NtRp4223
(dp4224
g73
(dp4225
sg82
g4219
sg75
(lp4226
g68
(g69
g70
NtRp4227
(dp4228
g73
(dp4229
g81
I1
ssg82
g4223
sg75
(lp4230
(lp4231
asbasbasbasbasbasbasbasbasbasbasbasbasbasbasbasbasbasbasbag68
(g84
g70
NtRp4232
(dp4233
g73
(dp4234
sg82
g3346
sg75
(lp4235
g68
(g89
g70
NtRp4236
(dp4237
g73
(dp4238
g93
g94
ssg82
g4232
sg75
(lp4239
S'meta'
p4240
asbag68
(g89
g70
NtRp4241
(dp4242
g73
(dp4243
g100
g101
ssg82
g4232
sg75
(lp4244
S':'
asbag68
(g89
g70
NtRp4245
(dp4246
g73
(dp4247
sg82
g4232
sg75
(lp4248
g68
(g69
g70
NtRp4249
(dp4250
g73
(dp4251
g81
I5
ssg82
g4245
sg75
(lp4252
g68
(g77
g70
NtRp4253
(dp4254
g73
(dp4255
g81
I4
ssg82
Nsg75
(lp4256
g68
(g84
g70
NtRp4257
(dp4258
g73
(dp4259
sg82
g4253
sg75
(lp4260
g68
(g89
g70
NtRp4261
(dp4262
g73
(dp4263
g93
g94
ssg82
g4257
sg75
(lp4264
S'author'
p4265
asbag68
(g89
g70
NtRp4266
(dp4267
g73
(dp4268
g100
g101
ssg82
g4257
sg75
(lp4269
S':'
asbag68
(g89
g70
NtRp4270
(dp4271
g73
(dp4272
sg82
g4257
sg75
(lp4273
g68
(g69
g70
NtRp4274
(dp4275
g73
(dp4276
g81
I4
ssg82
g4270
sg75
(lp4277
S'Jose de Soto <josedesoto@gmail.com>'
p4278
asbasbasbag68
(g84
g70
NtRp4279
(dp4280
g73
(dp4281
sg82
g4253
sg75
(lp4282
g68
(g89
g70
NtRp4283
(dp4284
g73
(dp4285
g93
g94
ssg82
g4279
sg75
(lp4286
S'copyright'
p4287
asbag68
(g89
g70
NtRp4288
(dp4289
g73
(dp4290
g100
g101
ssg82
g4279
sg75
(lp4291
S':'
asbag68
(g89
g70
NtRp4292
(dp4293
g73
(dp4294
sg82
g4279
sg75
(lp4295
g68
(g69
g70
NtRp4296
(dp4297
g73
(dp4298
g81
I4
ssg82
g4292
sg75
(lp4299
S'Copyright 2011'
p4300
asbasbasbag68
(g84
g70
NtRp4301
(dp4302
g73
(dp4303
sg82
g4253
sg75
(lp4304
g68
(g89
g70
NtRp4305
(dp4306
g73
(dp4307
g93
g94
ssg82
g4301
sg75
(lp4308
S'description'
p4309
asbag68
(g89
g70
NtRp4310
(dp4311
g73
(dp4312
g100
g101
ssg82
g4301
sg75
(lp4313
S':'
asbag68
(g89
g70
NtRp4314
(dp4315
g73
(dp4316
sg82
g4301
sg75
(lp4317
g68
(g69
g70
NtRp4318
(dp4319
g73
(dp4320
g81
I4
ssg82
g4314
sg75
(lp4321
S'a cool new app'
p4322
asbasbasbag68
(g84
g70
NtRp4323
(dp4324
g73
(dp4325
sg82
g4253
sg75
(lp4326
g68
(g89
g70
NtRp4327
(dp4328
g73
(dp4329
g93
g94
ssg82
g4323
sg75
(lp4330
S'generator'
p4331
asbag68
(g89
g70
NtRp4332
(dp4333
g73
(dp4334
g100
g101
ssg82
g4323
sg75
(lp4335
S':'
asbag68
(g89
g70
NtRp4336
(dp4337
g73
(dp4338
sg82
g4323
sg75
(lp4339
g68
(g69
g70
NtRp4340
(dp4341
g73
(dp4342
g81
I4
ssg82
g4336
sg75
(lp4343
S'Web2py Web Framework'
p4344
asbasbasbag68
(g84
g70
NtRp4345
(dp4346
g73
(dp4347
sg82
g4253
sg75
(lp4348
g68
(g89
g70
NtRp4349
(dp4350
g73
(dp4351
g93
g94
ssg82
g4345
sg75
(lp4352
S'keywords'
p4353
asbag68
(g89
g70
NtRp4354
(dp4355
g73
(dp4356
g100
g101
ssg82
g4345
sg75
(lp4357
S':'
asbag68
(g89
g70
NtRp4358
(dp4359
g73
(dp4360
sg82
g4345
sg75
(lp4361
g68
(g69
g70
NtRp4362
(dp4363
g73
(dp4364
g81
I4
ssg82
g4358
sg75
(lp4365
S'web2py, python, framework'
p4366
asbasbasbasbasbasbasbag68
(g84
g70
NtRp4367
(dp4368
g73
(dp4369
sg82
g3346
sg75
(lp4370
g68
(g89
g70
NtRp4371
(dp4372
g73
(dp4373
g93
g94
ssg82
g4367
sg75
(lp4374
S'postprocessing'
p4375
asbag68
(g89
g70
NtRp4376
(dp4377
g73
(dp4378
g100
g101
ssg82
g4367
sg75
(lp4379
S':'
asbag68
(g89
g70
NtRp4380
(dp4381
g73
(dp4382
sg82
g4367
sg75
(lp4383
g68
(g69
g70
NtRp4384
(dp4385
g73
(dp4386
g81
I5
ssg82
g4380
sg75
(lp4387
g68
(g77
g70
NtRp4388
(dp4389
g73
(dp4390
g81
I4
ssg82
Nsg75
(lp4391
sbasbasbasbag68
(g84
g70
NtRp4392
(dp4393
g73
(dp4394
sg82
g3346
sg75
(lp4395
g68
(g89
g70
NtRp4396
(dp4397
g73
(dp4398
g93
g94
ssg82
g4392
sg75
(lp4399
S'session_file'
p4400
asbag68
(g89
g70
NtRp4401
(dp4402
g73
(dp4403
g100
g101
ssg82
g4392
sg75
(lp4404
S':'
asbag68
(g89
g70
NtRp4405
(dp4406
g73
(dp4407
sg82
g4392
sg75
(lp4408
g68
(g69
g70
NtRp4409
(dp4410
g73
(dp4411
g81
I5
ssg82
g4405
sg75
(lp4412
S"<open file '/home/jose/DESARROLLO/web2py199/applications/streamlog/sessions/127.0.0.1-610b0c7d-3f6f-4500-a76a-b095fb30f7fd', mode 'rb+' at 0x2ab6db0>"
p4413
asbasbasbag68
(g84
g70
NtRp4414
(dp4415
g73
(dp4416
sg82
g3346
sg75
(lp4417
g68
(g89
g70
NtRp4418
(dp4419
g73
(dp4420
g93
g94
ssg82
g4414
sg75
(lp4421
S'session_filename'
p4422
asbag68
(g89
g70
NtRp4423
(dp4424
g73
(dp4425
g100
g101
ssg82
g4414
sg75
(lp4426
S':'
asbag68
(g89
g70
NtRp4427
(dp4428
g73
(dp4429
sg82
g4414
sg75
(lp4430
g68
(g69
g70
NtRp4431
(dp4432
g73
(dp4433
g81
I5
ssg82
g4427
sg75
(lp4434
S'/home/jose/DESARROLLO/web2py199/applications/streamlog/sessions/127.0.0.1-610b0c7d-3f6f-4500-a76a-b095fb30f7fd'
p4435
asbasbasbag68
(g84
g70
NtRp4436
(dp4437
g73
(dp4438
sg82
g3346
sg75
(lp4439
g68
(g89
g70
NtRp4440
(dp4441
g73
(dp4442
g93
g94
ssg82
g4436
sg75
(lp4443
S'session_id'
p4444
asbag68
(g89
g70
NtRp4445
(dp4446
g73
(dp4447
g100
g101
ssg82
g4436
sg75
(lp4448
S':'
asbag68
(g89
g70
NtRp4449
(dp4450
g73
(dp4451
sg82
g4436
sg75
(lp4452
g68
(g69
g70
NtRp4453
(dp4454
g73
(dp4455
g81
I5
ssg82
g4449
sg75
(lp4456
S'127.0.0.1-610b0c7d-3f6f-4500-a76a-b095fb30f7fd'
p4457
asbasbasbag68
(g84
g70
NtRp4458
(dp4459
g73
(dp4460
sg82
g3346
sg75
(lp4461
g68
(g89
g70
NtRp4462
(dp4463
g73
(dp4464
g93
g94
ssg82
g4458
sg75
(lp4465
S'session_id_name'
p4466
asbag68
(g89
g70
NtRp4467
(dp4468
g73
(dp4469
g100
g101
ssg82
g4458
sg75
(lp4470
S':'
asbag68
(g89
g70
NtRp4471
(dp4472
g73
(dp4473
sg82
g4458
sg75
(lp4474
g68
(g69
g70
NtRp4475
(dp4476
g73
(dp4477
g81
I5
ssg82
g4471
sg75
(lp4478
g3403
asbasbasbag68
(g84
g70
NtRp4479
(dp4480
g73
(dp4481
sg82
g3346
sg75
(lp4482
g68
(g89
g70
NtRp4483
(dp4484
g73
(dp4485
g93
g94
ssg82
g4479
sg75
(lp4486
S'session_locked'
p4487
asbag68
(g89
g70
NtRp4488
(dp4489
g73
(dp4490
g100
g101
ssg82
g4479
sg75
(lp4491
S':'
asbag68
(g89
g70
NtRp4492
(dp4493
g73
(dp4494
sg82
g4479
sg75
(lp4495
g68
(g69
g70
NtRp4496
(dp4497
g73
(dp4498
g81
I5
ssg82
g4492
sg75
(lp4499
g1658
asbasbasbag68
(g84
g70
NtRp4500
(dp4501
g73
(dp4502
sg82
g3346
sg75
(lp4503
g68
(g89
g70
NtRp4504
(dp4505
g73
(dp4506
g93
g94
ssg82
g4500
sg75
(lp4507
S'session_new'
p4508
asbag68
(g89
g70
NtRp4509
(dp4510
g73
(dp4511
g100
g101
ssg82
g4500
sg75
(lp4512
S':'
asbag68
(g89
g70
NtRp4513
(dp4514
g73
(dp4515
sg82
g4500
sg75
(lp4516
g68
(g69
g70
NtRp4517
(dp4518
g73
(dp4519
g81
I5
ssg82
g4513
sg75
(lp4520
g111
asbasbasbag68
(g84
g70
NtRp4521
(dp4522
g73
(dp4523
sg82
g3346
sg75
(lp4524
g68
(g89
g70
NtRp4525
(dp4526
g73
(dp4527
g93
g94
ssg82
g4521
sg75
(lp4528
S'status'
p4529
asbag68
(g89
g70
NtRp4530
(dp4531
g73
(dp4532
g100
g101
ssg82
g4521
sg75
(lp4533
S':'
asbag68
(g89
g70
NtRp4534
(dp4535
g73
(dp4536
sg82
g4521
sg75
(lp4537
g68
(g69
g70
NtRp4538
(dp4539
g73
(dp4540
g81
I5
ssg82
g4534
sg75
(lp4541
S'200'
p4542
asbasbasbag68
(g84
g70
NtRp4543
(dp4544
g73
(dp4545
sg82
g3346
sg75
(lp4546
g68
(g89
g70
NtRp4547
(dp4548
g73
(dp4549
g93
g94
ssg82
g4543
sg75
(lp4550
S'subtitle'
p4551
asbag68
(g89
g70
NtRp4552
(dp4553
g73
(dp4554
g100
g101
ssg82
g4543
sg75
(lp4555
S':'
asbag68
(g89
g70
NtRp4556
(dp4557
g73
(dp4558
sg82
g4543
sg75
(lp4559
g68
(g69
g70
NtRp4560
(dp4561
g73
(dp4562
g81
I5
ssg82
g4556
sg75
(lp4563
g3851
(S's\x12\x00\x00\x00Stream Log Client!'
tRp4564
asbasbasbag68
(g84
g70
NtRp4565
(dp4566
g73
(dp4567
sg82
g3346
sg75
(lp4568
g68
(g89
g70
NtRp4569
(dp4570
g73
(dp4571
g93
g94
ssg82
g4565
sg75
(lp4572
S'title'
p4573
asbag68
(g89
g70
NtRp4574
(dp4575
g73
(dp4576
g100
g101
ssg82
g4565
sg75
(lp4577
S':'
asbag68
(g89
g70
NtRp4578
(dp4579
g73
(dp4580
sg82
g4565
sg75
(lp4581
g68
(g69
g70
NtRp4582
(dp4583
g73
(dp4584
g81
I5
ssg82
g4578
sg75
(lp4585
g133
asbasbasbag68
(g84
g70
NtRp4586
(dp4587
g73
(dp4588
sg82
g3346
sg75
(lp4589
g68
(g89
g70
NtRp4590
(dp4591
g73
(dp4592
g93
g94
ssg82
g4586
sg75
(lp4593
g2323
asbag68
(g89
g70
NtRp4594
(dp4595
g73
(dp4596
g100
g101
ssg82
g4586
sg75
(lp4597
S':'
asbag68
(g89
g70
NtRp4598
(dp4599
g73
(dp4600
sg82
g4586
sg75
(lp4601
g68
(g69
g70
NtRp4602
(dp4603
g73
(dp4604
g81
I5
ssg82
g4598
sg75
(lp4605
g2336
asbasbasbag68
(g84
g70
NtRp4606
(dp4607
g73
(dp4608
sg82
g3346
sg75
(lp4609
g68
(g89
g70
NtRp4610
(dp4611
g73
(dp4612
g93
g94
ssg82
g4606
sg75
(lp4613
S'view'
p4614
asbag68
(g89
g70
NtRp4615
(dp4616
g73
(dp4617
g100
g101
ssg82
g4606
sg75
(lp4618
S':'
asbag68
(g89
g70
NtRp4619
(dp4620
g73
(dp4621
sg82
g4606
sg75
(lp4622
g68
(g69
g70
NtRp4623
(dp4624
g73
(dp4625
g81
I5
ssg82
g4619
sg75
(lp4626
S'default/getTypeTable.html'
p4627
asbasbasbasbasbsS'locals'
p4628
(dp4629
g3
S"'/home/jose/DESARROLLO/web2py199/applications/streamlog/controllers/default.py'"
p4630
sg5
S"'# -*- coding: utf-8 -*-\\n# this file is released ...)\\n\\nresponse._vars=response._caller(getTypeTable)\\n'"
p4631
sssS'traceback'
p4632
S'Traceback (most recent call last):\n  File "/home/jose/DESARROLLO/web2py199/gluon/restricted.py", line 193, in restricted\n    ccode = compile2(code,layer)\n  File "/home/jose/DESARROLLO/web2py199/gluon/restricted.py", line 179, in compile2\n    return compile(code.rstrip().replace(\'\\r\\n\',\'\\n\')+\'\\n\', layer, \'exec\')\n  File "/home/jose/DESARROLLO/web2py199/applications/streamlog/controllers/default.py", line 44\n    type_table=db(db.t_log.id==id_log)&(db.t_log.type_log==db.t_type_log.id)).select(db.t_type_log.html_table)\n                                                                            ^\nSyntaxError: invalid syntax\n'
p4633
s.