(dp1
S'output'
p2
S''
sS'layer'
p3
S'/home/jose/DESARROLLO/web2py199/applications/streamlog/controllers/default.py'
p4
sS'code'
p5
S'# -*- coding: utf-8 -*-\n# this file is released under public domain and you can use without limitations\n\n#########################################################################\n## This is a samples controller\n## - index is the default action of any application\n## - user is required for authentication and authorization\n## - download is for downloading files uploaded in the db (does streaming)\n## - call exposes all registered services (none by default)\n#########################################################################\n\n\n\ndef index():\n    """\n    example action using the internationalization operator T and flash\n    rendered by views/default/index.html or views/generic.html\n    """\n    links = [lambda row:  INPUT(_type=\'button\',_value=\'markmin\', _onclick=createStream()")]\n    form=SQLFORM.grid(db.t_log, selectable=False, csv=False,create=False, deletable=False, editable=False, links=links, user_signature=False)\n    return dict(message=T(\'Hello World2\'), form=form)\n\n\ndef choose_log():\n    """\n    example action using the internationalization operator T and flash\n    rendered by views/default/index.html or views/generic.html\n    """\n    \n    \n    return dict(message="log")\n\n\ndef type_table():\n    """\n    example action using the internationalization operator T and flash\n    rendered by views/default/index.html or views/generic.html\n    """\n    \n    table=\'<table cellpadding="0" cellspacing="0" border="0" class="display" id="tablelog"> \\\n    <thead> \\\n        <tr> \\\n            <th>IP</th> \\\n            <th>hyphen</th> \\\n            <th>userid</th> \\\n            <th>Time Request</th> \\\n        <th>Request Time</th> \\\n        <th>Status Code</th> \\\n        <th>Size Object</th> \\\n        </tr>\\\n    </thead> \\\n    <tfoot> \\\n        <tr> \\\n            <th>IP</th> \\\n            <th>hyphen</th> \\\n            <th>userid</th>\\\n            <th>Time Request</th> \\\n        <th>Request Time</th> \\\n        <th>Status Code</th> \\\n        <th>Size Object</th> \\\n        </tr>  \\\n    </tfoot>  \\\n        <tbody> \\\n        </tbody> \\\n    </table>\'\n    \n    return table\n\n\ndef user():\n    """\n    exposes:\n    http://..../[app]/default/user/login\n    http://..../[app]/default/user/logout\n    http://..../[app]/default/user/register\n    http://..../[app]/default/user/profile\n    http://..../[app]/default/user/retrieve_password\n    http://..../[app]/default/user/change_password\n    use @auth.requires_login()\n        @auth.requires_membership(\'group name\')\n        @auth.requires_permission(\'read\',\'table name\',record_id)\n    to decorate functions that need access control\n    """\n    return dict(form=auth())\n\ndef error():\n    return dict()\n\n\ndef project_manage():\n    \n    form = SQLFORM.smartgrid(db.t_project)\n    return locals()\n\n\n\ndef server_manage():\n\n    form=SQLFORM.grid(db.t_server)\n    return locals()\n\ndef log_manage():\n \n    #form = SQLFORM.smartgrid(db.t_log,constraints=dict(t_log=query), selectable=True,searchable=False, csv=False,showbuttontext=True,onupdate=auth.archive)\n    #form = SQLFORM.smartgrid(db.t_log)\n    form=SQLFORM.grid(db.t_log)\n    return locals()\n\ndef type_log_manage():\n\n    form=SQLFORM.grid(db.t_type_log)\n    return locals()\n\ndef download():\n    """\n    allows downloading of uploaded files\n    http://..../[app]/default/download/[filename]\n    """\n    return response.download(request,db)\n\n\ndef call():\n    """\n    exposes services. for example:\n    http://..../[app]/default/call/jsonrpc\n    decorate with @services.jsonrpc the functions to expose\n    supports xml, json, xmlrpc, jsonrpc, amfrpc, rss, csv\n    """\n    return service()\n\n\n@auth.requires_signature()\ndef data():\n    """\n    http://..../[app]/default/data/tables\n    http://..../[app]/default/data/create/[table]\n    http://..../[app]/default/data/read/[table]/[id]\n    http://..../[app]/default/data/update/[table]/[id]\n    http://..../[app]/default/data/delete/[table]/[id]\n    http://..../[app]/default/data/select/[table]\n    http://..../[app]/default/data/search/[table]\n    but URLs bust be signed, i.e. linked with\n      A(\'table\',_href=URL(\'data/tables\',user_signature=True))\n    or with the signed load operator\n      LOAD(\'default\',\'data.load\',args=\'tables\',ajax=True,user_signature=True)\n    """\n    return dict(form=crud())\n\nresponse._vars=response._caller(index)\n'
p6
sS'snapshot'
p7
(dp8
S'exception'
p9
(dp10
S'__getslice__'
p11
S"<method-wrapper '__getslice__' of exceptions.SyntaxError object>"
p12
sS'text'
p13
S'\'    links = [lambda row:  INPUT(_type=\\\'button\\\',_value=\\\'markmin\\\', _onclick=createStream()")]\\n\''
p14
sS'__str__'
p15
S"<method-wrapper '__str__' of exceptions.SyntaxError object>"
p16
sS'__reduce__'
p17
S'<built-in method __reduce__ of exceptions.SyntaxError object>'
p18
sS'__dict__'
p19
S'{}'
p20
sS'__sizeof__'
p21
S'<built-in method __sizeof__ of exceptions.SyntaxError object>'
p22
sS'__init__'
p23
S"<method-wrapper '__init__' of exceptions.SyntaxError object>"
p24
sS'__setattr__'
p25
S"<method-wrapper '__setattr__' of exceptions.SyntaxError object>"
p26
sS'__reduce_ex__'
p27
S'<built-in method __reduce_ex__ of exceptions.SyntaxError object>'
p28
sS'__new__'
p29
S'<built-in method __new__ of type object>'
p30
sS'__format__'
p31
S'<built-in method __format__ of exceptions.SyntaxError object>'
p32
sS'__class__'
p33
S"<type 'exceptions.SyntaxError'>"
p34
sS'filename'
p35
S"'/home/jose/DESARROLLO/web2py199/applications/streamlog/controllers/default.py'"
p36
sS'lineno'
p37
S'19'
p38
sS'msg'
p39
S"'EOL while scanning string literal'"
p40
sS'__doc__'
p41
S"'Invalid syntax.'"
p42
sS'__getitem__'
p43
S"<method-wrapper '__getitem__' of exceptions.SyntaxError object>"
p44
sS'__setstate__'
p45
S'<built-in method __setstate__ of exceptions.SyntaxError object>'
p46
sS'__getattribute__'
p47
S"<method-wrapper '__getattribute__' of exceptions.SyntaxError object>"
p48
sS'print_file_and_line'
p49
S'None'
p50
sS'args'
p51
S'(\'EOL while scanning string literal\', (\'/home/jose/DESARROLLO/web2py199/applications/streamlog/controllers/default.py\', 19, 91, \'    links = [lambda row:  INPUT(_type=\\\'button\\\',_value=\\\'markmin\\\', _onclick=createStream()")]\\n\'))'
p52
sS'__subclasshook__'
p53
S'<built-in method __subclasshook__ of type object>'
p54
sS'offset'
p55
S'91'
p56
sS'__unicode__'
p57
S'<built-in method __unicode__ of exceptions.SyntaxError object>'
p58
sS'__delattr__'
p59
S"<method-wrapper '__delattr__' of exceptions.SyntaxError object>"
p60
sS'__repr__'
p61
S"<method-wrapper '__repr__' of exceptions.SyntaxError object>"
p62
sS'__hash__'
p63
S"<method-wrapper '__hash__' of exceptions.SyntaxError object>"
p64
ssS'evalue'
p65
S'EOL while scanning string literal (default.py, line 19)'
p66
sS'request'
p67
ccopy_reg
_reconstructor
p68
(cgluon.html
BEAUTIFY
p69
c__builtin__
object
p70
NtRp71
(dp72
S'attributes'
p73
(dp74
sS'components'
p75
(lp76
g68
(cgluon.html
TABLE
p77
g70
NtRp78
(dp79
g73
(dp80
S'level'
p81
I5
ssS'parent'
p82
Nsg75
(lp83
g68
(cgluon.html
TR
p84
g70
NtRp85
(dp86
g73
(dp87
sg82
g78
sg75
(lp88
g68
(cgluon.html
TD
p89
g70
NtRp90
(dp91
g73
(dp92
S'_style'
p93
S'font-weight:bold;'
p94
ssg82
g85
sg75
(lp95
S'ajax'
p96
asbag68
(g89
g70
NtRp97
(dp98
g73
(dp99
S'_valign'
p100
S'top'
p101
ssg82
g85
sg75
(lp102
S':'
asbag68
(g89
g70
NtRp103
(dp104
g73
(dp105
sg82
g85
sg75
(lp106
g68
(g69
g70
NtRp107
(dp108
g73
(dp109
g81
I5
ssg82
g103
sg75
(lp110
S'False'
p111
asbasbasbag68
(g84
g70
NtRp112
(dp113
g73
(dp114
sg82
g78
sg75
(lp115
g68
(g89
g70
NtRp116
(dp117
g73
(dp118
g93
g94
ssg82
g112
sg75
(lp119
S'application'
p120
asbag68
(g89
g70
NtRp121
(dp122
g73
(dp123
g100
g101
ssg82
g112
sg75
(lp124
S':'
asbag68
(g89
g70
NtRp125
(dp126
g73
(dp127
sg82
g112
sg75
(lp128
g68
(g69
g70
NtRp129
(dp130
g73
(dp131
g81
I5
ssg82
g125
sg75
(lp132
S'streamlog'
p133
asbasbasbag68
(g84
g70
NtRp134
(dp135
g73
(dp136
sg82
g78
sg75
(lp137
g68
(g89
g70
NtRp138
(dp139
g73
(dp140
g93
g94
ssg82
g134
sg75
(lp141
g51
asbag68
(g89
g70
NtRp142
(dp143
g73
(dp144
g100
g101
ssg82
g134
sg75
(lp145
S':'
asbag68
(g89
g70
NtRp146
(dp147
g73
(dp148
sg82
g134
sg75
(lp149
g68
(g69
g70
NtRp150
(dp151
g73
(dp152
g81
I5
ssg82
g146
sg75
(lp153
g68
(g77
g70
NtRp154
(dp155
g73
(dp156
g81
I4
ssg82
Nsg75
(lp157
sbasbasbasbag68
(g84
g70
NtRp158
(dp159
g73
(dp160
sg82
g78
sg75
(lp161
g68
(g89
g70
NtRp162
(dp163
g73
(dp164
g93
g94
ssg82
g158
sg75
(lp165
S'body'
p166
asbag68
(g89
g70
NtRp167
(dp168
g73
(dp169
g100
g101
ssg82
g158
sg75
(lp170
S':'
asbag68
(g89
g70
NtRp171
(dp172
g73
(dp173
sg82
g158
sg75
(lp174
g68
(g69
g70
NtRp175
(dp176
g73
(dp177
g81
I5
ssg82
g171
sg75
(lp178
S'<cStringIO.StringO object at 0x38c1730>'
p179
asbasbasbag68
(g84
g70
NtRp180
(dp181
g73
(dp182
sg82
g78
sg75
(lp183
g68
(g89
g70
NtRp184
(dp185
g73
(dp186
g93
g94
ssg82
g180
sg75
(lp187
S'client'
p188
asbag68
(g89
g70
NtRp189
(dp190
g73
(dp191
g100
g101
ssg82
g180
sg75
(lp192
S':'
asbag68
(g89
g70
NtRp193
(dp194
g73
(dp195
sg82
g180
sg75
(lp196
g68
(g69
g70
NtRp197
(dp198
g73
(dp199
g81
I5
ssg82
g193
sg75
(lp200
S'127.0.0.1'
p201
asbasbasbag68
(g84
g70
NtRp202
(dp203
g73
(dp204
sg82
g78
sg75
(lp205
g68
(g89
g70
NtRp206
(dp207
g73
(dp208
g93
g94
ssg82
g202
sg75
(lp209
S'controller'
p210
asbag68
(g89
g70
NtRp211
(dp212
g73
(dp213
g100
g101
ssg82
g202
sg75
(lp214
S':'
asbag68
(g89
g70
NtRp215
(dp216
g73
(dp217
sg82
g202
sg75
(lp218
g68
(g69
g70
NtRp219
(dp220
g73
(dp221
g81
I5
ssg82
g215
sg75
(lp222
S'default'
p223
asbasbasbag68
(g84
g70
NtRp224
(dp225
g73
(dp226
sg82
g78
sg75
(lp227
g68
(g89
g70
NtRp228
(dp229
g73
(dp230
g93
g94
ssg82
g224
sg75
(lp231
S'cookies'
p232
asbag68
(g89
g70
NtRp233
(dp234
g73
(dp235
g100
g101
ssg82
g224
sg75
(lp236
S':'
asbag68
(g89
g70
NtRp237
(dp238
g73
(dp239
sg82
g224
sg75
(lp240
g68
(g69
g70
NtRp241
(dp242
g73
(dp243
g81
I5
ssg82
g237
sg75
(lp244
g68
(g77
g70
NtRp245
(dp246
g73
(dp247
g81
I4
ssg82
Nsg75
(lp248
g68
(g84
g70
NtRp249
(dp250
g73
(dp251
sg82
g245
sg75
(lp252
g68
(g89
g70
NtRp253
(dp254
g73
(dp255
g93
g94
ssg82
g249
sg75
(lp256
S'session_id_admin'
p257
asbag68
(g89
g70
NtRp258
(dp259
g73
(dp260
g100
g101
ssg82
g249
sg75
(lp261
S':'
asbag68
(g89
g70
NtRp262
(dp263
g73
(dp264
sg82
g249
sg75
(lp265
g68
(g69
g70
NtRp266
(dp267
g73
(dp268
g81
I4
ssg82
g262
sg75
(lp269
g68
(g77
g70
NtRp270
(dp271
g73
(dp272
g81
I3
ssg82
Nsg75
(lp273
g68
(g84
g70
NtRp274
(dp275
g73
(dp276
sg82
g270
sg75
(lp277
g68
(g89
g70
NtRp278
(dp279
g73
(dp280
g93
g94
ssg82
g274
sg75
(lp281
S'comment'
p282
asbag68
(g89
g70
NtRp283
(dp284
g73
(dp285
g100
g101
ssg82
g274
sg75
(lp286
S':'
asbag68
(g89
g70
NtRp287
(dp288
g73
(dp289
sg82
g274
sg75
(lp290
g68
(g69
g70
NtRp291
(dp292
g73
(dp293
g81
I3
ssg82
g287
sg75
(lp294
S''
asbasbasbag68
(g84
g70
NtRp295
(dp296
g73
(dp297
sg82
g270
sg75
(lp298
g68
(g89
g70
NtRp299
(dp300
g73
(dp301
g93
g94
ssg82
g295
sg75
(lp302
S'domain'
p303
asbag68
(g89
g70
NtRp304
(dp305
g73
(dp306
g100
g101
ssg82
g295
sg75
(lp307
S':'
asbag68
(g89
g70
NtRp308
(dp309
g73
(dp310
sg82
g295
sg75
(lp311
g68
(g69
g70
NtRp312
(dp313
g73
(dp314
g81
I3
ssg82
g308
sg75
(lp315
S''
asbasbasbag68
(g84
g70
NtRp316
(dp317
g73
(dp318
sg82
g270
sg75
(lp319
g68
(g89
g70
NtRp320
(dp321
g73
(dp322
g93
g94
ssg82
g316
sg75
(lp323
S'expires'
p324
asbag68
(g89
g70
NtRp325
(dp326
g73
(dp327
g100
g101
ssg82
g316
sg75
(lp328
S':'
asbag68
(g89
g70
NtRp329
(dp330
g73
(dp331
sg82
g316
sg75
(lp332
g68
(g69
g70
NtRp333
(dp334
g73
(dp335
g81
I3
ssg82
g329
sg75
(lp336
S''
asbasbasbag68
(g84
g70
NtRp337
(dp338
g73
(dp339
sg82
g270
sg75
(lp340
g68
(g89
g70
NtRp341
(dp342
g73
(dp343
g93
g94
ssg82
g337
sg75
(lp344
S'httponly'
p345
asbag68
(g89
g70
NtRp346
(dp347
g73
(dp348
g100
g101
ssg82
g337
sg75
(lp349
S':'
asbag68
(g89
g70
NtRp350
(dp351
g73
(dp352
sg82
g337
sg75
(lp353
g68
(g69
g70
NtRp354
(dp355
g73
(dp356
g81
I3
ssg82
g350
sg75
(lp357
S''
asbasbasbag68
(g84
g70
NtRp358
(dp359
g73
(dp360
sg82
g270
sg75
(lp361
g68
(g89
g70
NtRp362
(dp363
g73
(dp364
g93
g94
ssg82
g358
sg75
(lp365
S'max-age'
p366
asbag68
(g89
g70
NtRp367
(dp368
g73
(dp369
g100
g101
ssg82
g358
sg75
(lp370
S':'
asbag68
(g89
g70
NtRp371
(dp372
g73
(dp373
sg82
g358
sg75
(lp374
g68
(g69
g70
NtRp375
(dp376
g73
(dp377
g81
I3
ssg82
g371
sg75
(lp378
S''
asbasbasbag68
(g84
g70
NtRp379
(dp380
g73
(dp381
sg82
g270
sg75
(lp382
g68
(g89
g70
NtRp383
(dp384
g73
(dp385
g93
g94
ssg82
g379
sg75
(lp386
S'path'
p387
asbag68
(g89
g70
NtRp388
(dp389
g73
(dp390
g100
g101
ssg82
g379
sg75
(lp391
S':'
asbag68
(g89
g70
NtRp392
(dp393
g73
(dp394
sg82
g379
sg75
(lp395
g68
(g69
g70
NtRp396
(dp397
g73
(dp398
g81
I3
ssg82
g392
sg75
(lp399
S''
asbasbasbag68
(g84
g70
NtRp400
(dp401
g73
(dp402
sg82
g270
sg75
(lp403
g68
(g89
g70
NtRp404
(dp405
g73
(dp406
g93
g94
ssg82
g400
sg75
(lp407
S'secure'
p408
asbag68
(g89
g70
NtRp409
(dp410
g73
(dp411
g100
g101
ssg82
g400
sg75
(lp412
S':'
asbag68
(g89
g70
NtRp413
(dp414
g73
(dp415
sg82
g400
sg75
(lp416
g68
(g69
g70
NtRp417
(dp418
g73
(dp419
g81
I3
ssg82
g413
sg75
(lp420
S''
asbasbasbag68
(g84
g70
NtRp421
(dp422
g73
(dp423
sg82
g270
sg75
(lp424
g68
(g89
g70
NtRp425
(dp426
g73
(dp427
g93
g94
ssg82
g421
sg75
(lp428
S'version'
p429
asbag68
(g89
g70
NtRp430
(dp431
g73
(dp432
g100
g101
ssg82
g421
sg75
(lp433
S':'
asbag68
(g89
g70
NtRp434
(dp435
g73
(dp436
sg82
g421
sg75
(lp437
g68
(g69
g70
NtRp438
(dp439
g73
(dp440
g81
I3
ssg82
g434
sg75
(lp441
S''
asbasbasbasbasbasbasbag68
(g84
g70
NtRp442
(dp443
g73
(dp444
sg82
g245
sg75
(lp445
g68
(g89
g70
NtRp446
(dp447
g73
(dp448
g93
g94
ssg82
g442
sg75
(lp449
S'session_id_streamlog'
p450
asbag68
(g89
g70
NtRp451
(dp452
g73
(dp453
g100
g101
ssg82
g442
sg75
(lp454
S':'
asbag68
(g89
g70
NtRp455
(dp456
g73
(dp457
sg82
g442
sg75
(lp458
g68
(g69
g70
NtRp459
(dp460
g73
(dp461
g81
I4
ssg82
g455
sg75
(lp462
g68
(g77
g70
NtRp463
(dp464
g73
(dp465
g81
I3
ssg82
Nsg75
(lp466
g68
(g84
g70
NtRp467
(dp468
g73
(dp469
sg82
g463
sg75
(lp470
g68
(g89
g70
NtRp471
(dp472
g73
(dp473
g93
g94
ssg82
g467
sg75
(lp474
g282
asbag68
(g89
g70
NtRp475
(dp476
g73
(dp477
g100
g101
ssg82
g467
sg75
(lp478
S':'
asbag68
(g89
g70
NtRp479
(dp480
g73
(dp481
sg82
g467
sg75
(lp482
g68
(g69
g70
NtRp483
(dp484
g73
(dp485
g81
I3
ssg82
g479
sg75
(lp486
S''
asbasbasbag68
(g84
g70
NtRp487
(dp488
g73
(dp489
sg82
g463
sg75
(lp490
g68
(g89
g70
NtRp491
(dp492
g73
(dp493
g93
g94
ssg82
g487
sg75
(lp494
g303
asbag68
(g89
g70
NtRp495
(dp496
g73
(dp497
g100
g101
ssg82
g487
sg75
(lp498
S':'
asbag68
(g89
g70
NtRp499
(dp500
g73
(dp501
sg82
g487
sg75
(lp502
g68
(g69
g70
NtRp503
(dp504
g73
(dp505
g81
I3
ssg82
g499
sg75
(lp506
S''
asbasbasbag68
(g84
g70
NtRp507
(dp508
g73
(dp509
sg82
g463
sg75
(lp510
g68
(g89
g70
NtRp511
(dp512
g73
(dp513
g93
g94
ssg82
g507
sg75
(lp514
g324
asbag68
(g89
g70
NtRp515
(dp516
g73
(dp517
g100
g101
ssg82
g507
sg75
(lp518
S':'
asbag68
(g89
g70
NtRp519
(dp520
g73
(dp521
sg82
g507
sg75
(lp522
g68
(g69
g70
NtRp523
(dp524
g73
(dp525
g81
I3
ssg82
g519
sg75
(lp526
S''
asbasbasbag68
(g84
g70
NtRp527
(dp528
g73
(dp529
sg82
g463
sg75
(lp530
g68
(g89
g70
NtRp531
(dp532
g73
(dp533
g93
g94
ssg82
g527
sg75
(lp534
g345
asbag68
(g89
g70
NtRp535
(dp536
g73
(dp537
g100
g101
ssg82
g527
sg75
(lp538
S':'
asbag68
(g89
g70
NtRp539
(dp540
g73
(dp541
sg82
g527
sg75
(lp542
g68
(g69
g70
NtRp543
(dp544
g73
(dp545
g81
I3
ssg82
g539
sg75
(lp546
S''
asbasbasbag68
(g84
g70
NtRp547
(dp548
g73
(dp549
sg82
g463
sg75
(lp550
g68
(g89
g70
NtRp551
(dp552
g73
(dp553
g93
g94
ssg82
g547
sg75
(lp554
g366
asbag68
(g89
g70
NtRp555
(dp556
g73
(dp557
g100
g101
ssg82
g547
sg75
(lp558
S':'
asbag68
(g89
g70
NtRp559
(dp560
g73
(dp561
sg82
g547
sg75
(lp562
g68
(g69
g70
NtRp563
(dp564
g73
(dp565
g81
I3
ssg82
g559
sg75
(lp566
S''
asbasbasbag68
(g84
g70
NtRp567
(dp568
g73
(dp569
sg82
g463
sg75
(lp570
g68
(g89
g70
NtRp571
(dp572
g73
(dp573
g93
g94
ssg82
g567
sg75
(lp574
g387
asbag68
(g89
g70
NtRp575
(dp576
g73
(dp577
g100
g101
ssg82
g567
sg75
(lp578
S':'
asbag68
(g89
g70
NtRp579
(dp580
g73
(dp581
sg82
g567
sg75
(lp582
g68
(g69
g70
NtRp583
(dp584
g73
(dp585
g81
I3
ssg82
g579
sg75
(lp586
S''
asbasbasbag68
(g84
g70
NtRp587
(dp588
g73
(dp589
sg82
g463
sg75
(lp590
g68
(g89
g70
NtRp591
(dp592
g73
(dp593
g93
g94
ssg82
g587
sg75
(lp594
g408
asbag68
(g89
g70
NtRp595
(dp596
g73
(dp597
g100
g101
ssg82
g587
sg75
(lp598
S':'
asbag68
(g89
g70
NtRp599
(dp600
g73
(dp601
sg82
g587
sg75
(lp602
g68
(g69
g70
NtRp603
(dp604
g73
(dp605
g81
I3
ssg82
g599
sg75
(lp606
S''
asbasbasbag68
(g84
g70
NtRp607
(dp608
g73
(dp609
sg82
g463
sg75
(lp610
g68
(g89
g70
NtRp611
(dp612
g73
(dp613
g93
g94
ssg82
g607
sg75
(lp614
g429
asbag68
(g89
g70
NtRp615
(dp616
g73
(dp617
g100
g101
ssg82
g607
sg75
(lp618
S':'
asbag68
(g89
g70
NtRp619
(dp620
g73
(dp621
sg82
g607
sg75
(lp622
g68
(g69
g70
NtRp623
(dp624
g73
(dp625
g81
I3
ssg82
g619
sg75
(lp626
S''
asbasbasbasbasbasbasbag68
(g84
g70
NtRp627
(dp628
g73
(dp629
sg82
g245
sg75
(lp630
g68
(g89
g70
NtRp631
(dp632
g73
(dp633
g93
g94
ssg82
g627
sg75
(lp634
S'session_id_test3'
p635
asbag68
(g89
g70
NtRp636
(dp637
g73
(dp638
g100
g101
ssg82
g627
sg75
(lp639
S':'
asbag68
(g89
g70
NtRp640
(dp641
g73
(dp642
sg82
g627
sg75
(lp643
g68
(g69
g70
NtRp644
(dp645
g73
(dp646
g81
I4
ssg82
g640
sg75
(lp647
g68
(g77
g70
NtRp648
(dp649
g73
(dp650
g81
I3
ssg82
Nsg75
(lp651
g68
(g84
g70
NtRp652
(dp653
g73
(dp654
sg82
g648
sg75
(lp655
g68
(g89
g70
NtRp656
(dp657
g73
(dp658
g93
g94
ssg82
g652
sg75
(lp659
g282
asbag68
(g89
g70
NtRp660
(dp661
g73
(dp662
g100
g101
ssg82
g652
sg75
(lp663
S':'
asbag68
(g89
g70
NtRp664
(dp665
g73
(dp666
sg82
g652
sg75
(lp667
g68
(g69
g70
NtRp668
(dp669
g73
(dp670
g81
I3
ssg82
g664
sg75
(lp671
S''
asbasbasbag68
(g84
g70
NtRp672
(dp673
g73
(dp674
sg82
g648
sg75
(lp675
g68
(g89
g70
NtRp676
(dp677
g73
(dp678
g93
g94
ssg82
g672
sg75
(lp679
g303
asbag68
(g89
g70
NtRp680
(dp681
g73
(dp682
g100
g101
ssg82
g672
sg75
(lp683
S':'
asbag68
(g89
g70
NtRp684
(dp685
g73
(dp686
sg82
g672
sg75
(lp687
g68
(g69
g70
NtRp688
(dp689
g73
(dp690
g81
I3
ssg82
g684
sg75
(lp691
S''
asbasbasbag68
(g84
g70
NtRp692
(dp693
g73
(dp694
sg82
g648
sg75
(lp695
g68
(g89
g70
NtRp696
(dp697
g73
(dp698
g93
g94
ssg82
g692
sg75
(lp699
g324
asbag68
(g89
g70
NtRp700
(dp701
g73
(dp702
g100
g101
ssg82
g692
sg75
(lp703
S':'
asbag68
(g89
g70
NtRp704
(dp705
g73
(dp706
sg82
g692
sg75
(lp707
g68
(g69
g70
NtRp708
(dp709
g73
(dp710
g81
I3
ssg82
g704
sg75
(lp711
S''
asbasbasbag68
(g84
g70
NtRp712
(dp713
g73
(dp714
sg82
g648
sg75
(lp715
g68
(g89
g70
NtRp716
(dp717
g73
(dp718
g93
g94
ssg82
g712
sg75
(lp719
g345
asbag68
(g89
g70
NtRp720
(dp721
g73
(dp722
g100
g101
ssg82
g712
sg75
(lp723
S':'
asbag68
(g89
g70
NtRp724
(dp725
g73
(dp726
sg82
g712
sg75
(lp727
g68
(g69
g70
NtRp728
(dp729
g73
(dp730
g81
I3
ssg82
g724
sg75
(lp731
S''
asbasbasbag68
(g84
g70
NtRp732
(dp733
g73
(dp734
sg82
g648
sg75
(lp735
g68
(g89
g70
NtRp736
(dp737
g73
(dp738
g93
g94
ssg82
g732
sg75
(lp739
g366
asbag68
(g89
g70
NtRp740
(dp741
g73
(dp742
g100
g101
ssg82
g732
sg75
(lp743
S':'
asbag68
(g89
g70
NtRp744
(dp745
g73
(dp746
sg82
g732
sg75
(lp747
g68
(g69
g70
NtRp748
(dp749
g73
(dp750
g81
I3
ssg82
g744
sg75
(lp751
S''
asbasbasbag68
(g84
g70
NtRp752
(dp753
g73
(dp754
sg82
g648
sg75
(lp755
g68
(g89
g70
NtRp756
(dp757
g73
(dp758
g93
g94
ssg82
g752
sg75
(lp759
g387
asbag68
(g89
g70
NtRp760
(dp761
g73
(dp762
g100
g101
ssg82
g752
sg75
(lp763
S':'
asbag68
(g89
g70
NtRp764
(dp765
g73
(dp766
sg82
g752
sg75
(lp767
g68
(g69
g70
NtRp768
(dp769
g73
(dp770
g81
I3
ssg82
g764
sg75
(lp771
S''
asbasbasbag68
(g84
g70
NtRp772
(dp773
g73
(dp774
sg82
g648
sg75
(lp775
g68
(g89
g70
NtRp776
(dp777
g73
(dp778
g93
g94
ssg82
g772
sg75
(lp779
g408
asbag68
(g89
g70
NtRp780
(dp781
g73
(dp782
g100
g101
ssg82
g772
sg75
(lp783
S':'
asbag68
(g89
g70
NtRp784
(dp785
g73
(dp786
sg82
g772
sg75
(lp787
g68
(g69
g70
NtRp788
(dp789
g73
(dp790
g81
I3
ssg82
g784
sg75
(lp791
S''
asbasbasbag68
(g84
g70
NtRp792
(dp793
g73
(dp794
sg82
g648
sg75
(lp795
g68
(g89
g70
NtRp796
(dp797
g73
(dp798
g93
g94
ssg82
g792
sg75
(lp799
g429
asbag68
(g89
g70
NtRp800
(dp801
g73
(dp802
g100
g101
ssg82
g792
sg75
(lp803
S':'
asbag68
(g89
g70
NtRp804
(dp805
g73
(dp806
sg82
g792
sg75
(lp807
g68
(g69
g70
NtRp808
(dp809
g73
(dp810
g81
I3
ssg82
g804
sg75
(lp811
S''
asbasbasbasbasbasbasbasbasbasbasbag68
(g84
g70
NtRp812
(dp813
g73
(dp814
sg82
g78
sg75
(lp815
g68
(g89
g70
NtRp816
(dp817
g73
(dp818
g93
g94
ssg82
g812
sg75
(lp819
S'env'
p820
asbag68
(g89
g70
NtRp821
(dp822
g73
(dp823
g100
g101
ssg82
g812
sg75
(lp824
S':'
asbag68
(g89
g70
NtRp825
(dp826
g73
(dp827
sg82
g812
sg75
(lp828
g68
(g69
g70
NtRp829
(dp830
g73
(dp831
g81
I5
ssg82
g825
sg75
(lp832
g68
(g77
g70
NtRp833
(dp834
g73
(dp835
g81
I4
ssg82
Nsg75
(lp836
g68
(g84
g70
NtRp837
(dp838
g73
(dp839
sg82
g833
sg75
(lp840
g68
(g89
g70
NtRp841
(dp842
g73
(dp843
g93
g94
ssg82
g837
sg75
(lp844
S'app_folders'
p845
asbag68
(g89
g70
NtRp846
(dp847
g73
(dp848
g100
g101
ssg82
g837
sg75
(lp849
S':'
asbag68
(g89
g70
NtRp850
(dp851
g73
(dp852
sg82
g837
sg75
(lp853
g68
(g69
g70
NtRp854
(dp855
g73
(dp856
g81
I4
ssg82
g850
sg75
(lp857
S"set(['/home/jose/DESARROLLO/web2py199/applications/streamlog/', '/home/jose/DESARROLLO/web2py199/applications/admin/'])"
p858
asbasbasbag68
(g84
g70
NtRp859
(dp860
g73
(dp861
sg82
g833
sg75
(lp862
g68
(g89
g70
NtRp863
(dp864
g73
(dp865
g93
g94
ssg82
g859
sg75
(lp866
S'applications_parent'
p867
asbag68
(g89
g70
NtRp868
(dp869
g73
(dp870
g100
g101
ssg82
g859
sg75
(lp871
S':'
asbag68
(g89
g70
NtRp872
(dp873
g73
(dp874
sg82
g859
sg75
(lp875
g68
(g69
g70
NtRp876
(dp877
g73
(dp878
g81
I4
ssg82
g872
sg75
(lp879
S'/home/jose/DESARROLLO/web2py199'
p880
asbasbasbag68
(g84
g70
NtRp881
(dp882
g73
(dp883
sg82
g833
sg75
(lp884
g68
(g89
g70
NtRp885
(dp886
g73
(dp887
g93
g94
ssg82
g881
sg75
(lp888
S'cmd_args'
p889
asbag68
(g89
g70
NtRp890
(dp891
g73
(dp892
g100
g101
ssg82
g881
sg75
(lp893
S':'
asbag68
(g89
g70
NtRp894
(dp895
g73
(dp896
sg82
g881
sg75
(lp897
g68
(g69
g70
NtRp898
(dp899
g73
(dp900
g81
I4
ssg82
g894
sg75
(lp901
g68
(g77
g70
NtRp902
(dp903
g73
(dp904
g81
I3
ssg82
Nsg75
(lp905
sbasbasbasbag68
(g84
g70
NtRp906
(dp907
g73
(dp908
sg82
g833
sg75
(lp909
g68
(g89
g70
NtRp910
(dp911
g73
(dp912
g93
g94
ssg82
g906
sg75
(lp913
S'cmd_options'
p914
asbag68
(g89
g70
NtRp915
(dp916
g73
(dp917
g100
g101
ssg82
g906
sg75
(lp918
S':'
asbag68
(g89
g70
NtRp919
(dp920
g73
(dp921
sg82
g906
sg75
(lp922
g68
(g69
g70
NtRp923
(dp924
g73
(dp925
g81
I4
ssg82
g919
sg75
(lp926
S"<Values at 0x1c79f80: {'verbose': False, 'ip': '127.0.0.1', 'shutdown_timeout': 5, 'taskbar': False, 'nocron': False, 'pid_filename': 'httpserver.pid', 'maxthreads': None, 'softcron': False, 'server_name': 'jose', 'bpython': False, 'nogui': False, 'port': 8000, 'extcron': False, 'debuglevel': 30, 'test': None, 'folder': '/home/jose/DESARROLLO/web2py199', 'config': '', 'import_models': False, 'winservice': '', 'shell': None, 'run': '', 'log_filename': 'httpserver.log', 'args': [''], 'ssl_ca_certificate': None, 'scheduler': None, 'profiler_filename': None, 'ssl_private_key': '', 'password': 't', 'request_queue_size': 5, 'ssl_certificate': '', 'cronjob': False, 'plain': False, 'quiet': False, 'interfaces': None, 'minthreads': None, 'timeout': 10, 'numthreads': None, 'nobanner': False}>"
p927
asbasbasbag68
(g84
g70
NtRp928
(dp929
g73
(dp930
sg82
g833
sg75
(lp931
g68
(g89
g70
NtRp932
(dp933
g73
(dp934
g93
g94
ssg82
g928
sg75
(lp935
S'db_sessions'
p936
asbag68
(g89
g70
NtRp937
(dp938
g73
(dp939
g100
g101
ssg82
g928
sg75
(lp940
S':'
asbag68
(g89
g70
NtRp941
(dp942
g73
(dp943
sg82
g928
sg75
(lp944
g68
(g69
g70
NtRp945
(dp946
g73
(dp947
g81
I4
ssg82
g941
sg75
(lp948
S'set([])'
p949
asbasbasbag68
(g84
g70
NtRp950
(dp951
g73
(dp952
sg82
g833
sg75
(lp953
g68
(g89
g70
NtRp954
(dp955
g73
(dp956
g93
g94
ssg82
g950
sg75
(lp957
S'debugging'
p958
asbag68
(g89
g70
NtRp959
(dp960
g73
(dp961
g100
g101
ssg82
g950
sg75
(lp962
S':'
asbag68
(g89
g70
NtRp963
(dp964
g73
(dp965
sg82
g950
sg75
(lp966
g68
(g69
g70
NtRp967
(dp968
g73
(dp969
g81
I4
ssg82
g963
sg75
(lp970
g111
asbasbasbag68
(g84
g70
NtRp971
(dp972
g73
(dp973
sg82
g833
sg75
(lp974
g68
(g89
g70
NtRp975
(dp976
g73
(dp977
g93
g94
ssg82
g971
sg75
(lp978
S'gluon_parent'
p979
asbag68
(g89
g70
NtRp980
(dp981
g73
(dp982
g100
g101
ssg82
g971
sg75
(lp983
S':'
asbag68
(g89
g70
NtRp984
(dp985
g73
(dp986
sg82
g971
sg75
(lp987
g68
(g69
g70
NtRp988
(dp989
g73
(dp990
g81
I4
ssg82
g984
sg75
(lp991
S'/home/jose/DESARROLLO/web2py199'
p992
asbasbasbag68
(g84
g70
NtRp993
(dp994
g73
(dp995
sg82
g833
sg75
(lp996
g68
(g89
g70
NtRp997
(dp998
g73
(dp999
g93
g94
ssg82
g993
sg75
(lp1000
S'http_accept'
p1001
asbag68
(g89
g70
NtRp1002
(dp1003
g73
(dp1004
g100
g101
ssg82
g993
sg75
(lp1005
S':'
asbag68
(g89
g70
NtRp1006
(dp1007
g73
(dp1008
sg82
g993
sg75
(lp1009
g68
(g69
g70
NtRp1010
(dp1011
g73
(dp1012
g81
I4
ssg82
g1006
sg75
(lp1013
S'text/html,application/xhtml+xml,application/xml;q=0.9,*/*;q=0.8'
p1014
asbasbasbag68
(g84
g70
NtRp1015
(dp1016
g73
(dp1017
sg82
g833
sg75
(lp1018
g68
(g89
g70
NtRp1019
(dp1020
g73
(dp1021
g93
g94
ssg82
g1015
sg75
(lp1022
S'http_accept_encoding'
p1023
asbag68
(g89
g70
NtRp1024
(dp1025
g73
(dp1026
g100
g101
ssg82
g1015
sg75
(lp1027
S':'
asbag68
(g89
g70
NtRp1028
(dp1029
g73
(dp1030
sg82
g1015
sg75
(lp1031
g68
(g69
g70
NtRp1032
(dp1033
g73
(dp1034
g81
I4
ssg82
g1028
sg75
(lp1035
S'gzip, deflate'
p1036
asbasbasbag68
(g84
g70
NtRp1037
(dp1038
g73
(dp1039
sg82
g833
sg75
(lp1040
g68
(g89
g70
NtRp1041
(dp1042
g73
(dp1043
g93
g94
ssg82
g1037
sg75
(lp1044
S'http_accept_language'
p1045
asbag68
(g89
g70
NtRp1046
(dp1047
g73
(dp1048
g100
g101
ssg82
g1037
sg75
(lp1049
S':'
asbag68
(g89
g70
NtRp1050
(dp1051
g73
(dp1052
sg82
g1037
sg75
(lp1053
g68
(g69
g70
NtRp1054
(dp1055
g73
(dp1056
g81
I4
ssg82
g1050
sg75
(lp1057
S'en-us,en;q=0.5'
p1058
asbasbasbag68
(g84
g70
NtRp1059
(dp1060
g73
(dp1061
sg82
g833
sg75
(lp1062
g68
(g89
g70
NtRp1063
(dp1064
g73
(dp1065
g93
g94
ssg82
g1059
sg75
(lp1066
S'http_connection'
p1067
asbag68
(g89
g70
NtRp1068
(dp1069
g73
(dp1070
g100
g101
ssg82
g1059
sg75
(lp1071
S':'
asbag68
(g89
g70
NtRp1072
(dp1073
g73
(dp1074
sg82
g1059
sg75
(lp1075
g68
(g69
g70
NtRp1076
(dp1077
g73
(dp1078
g81
I4
ssg82
g1072
sg75
(lp1079
S'keep-alive'
p1080
asbasbasbag68
(g84
g70
NtRp1081
(dp1082
g73
(dp1083
sg82
g833
sg75
(lp1084
g68
(g89
g70
NtRp1085
(dp1086
g73
(dp1087
g93
g94
ssg82
g1081
sg75
(lp1088
S'http_cookie'
p1089
asbag68
(g89
g70
NtRp1090
(dp1091
g73
(dp1092
g100
g101
ssg82
g1081
sg75
(lp1093
S':'
asbag68
(g89
g70
NtRp1094
(dp1095
g73
(dp1096
sg82
g1081
sg75
(lp1097
g68
(g69
g70
NtRp1098
(dp1099
g73
(dp1100
g81
I4
ssg82
g1094
sg75
(lp1101
S'session_id_streamlog=127.0.0.1-610b0c7d-3f6f-4500-a76a-b095fb30f7fd; session_id_admin=127.0.0.1-87ac9729-f9fb-412b-aa6d-428ca5932487; session_id_test3=127.0.0.1-380e7b29-b635-4690-b9ca-812870d6a061'
p1102
asbasbasbag68
(g84
g70
NtRp1103
(dp1104
g73
(dp1105
sg82
g833
sg75
(lp1106
g68
(g89
g70
NtRp1107
(dp1108
g73
(dp1109
g93
g94
ssg82
g1103
sg75
(lp1110
S'http_host'
p1111
asbag68
(g89
g70
NtRp1112
(dp1113
g73
(dp1114
g100
g101
ssg82
g1103
sg75
(lp1115
S':'
asbag68
(g89
g70
NtRp1116
(dp1117
g73
(dp1118
sg82
g1103
sg75
(lp1119
g68
(g69
g70
NtRp1120
(dp1121
g73
(dp1122
g81
I4
ssg82
g1116
sg75
(lp1123
S'localhost:8000'
p1124
asbasbasbag68
(g84
g70
NtRp1125
(dp1126
g73
(dp1127
sg82
g833
sg75
(lp1128
g68
(g89
g70
NtRp1129
(dp1130
g73
(dp1131
g93
g94
ssg82
g1125
sg75
(lp1132
S'http_referer'
p1133
asbag68
(g89
g70
NtRp1134
(dp1135
g73
(dp1136
g100
g101
ssg82
g1125
sg75
(lp1137
S':'
asbag68
(g89
g70
NtRp1138
(dp1139
g73
(dp1140
sg82
g1125
sg75
(lp1141
g68
(g69
g70
NtRp1142
(dp1143
g73
(dp1144
g81
I4
ssg82
g1138
sg75
(lp1145
S'http://localhost:8000/streamlog/default/index'
p1146
asbasbasbag68
(g84
g70
NtRp1147
(dp1148
g73
(dp1149
sg82
g833
sg75
(lp1150
g68
(g89
g70
NtRp1151
(dp1152
g73
(dp1153
g93
g94
ssg82
g1147
sg75
(lp1154
S'http_user_agent'
p1155
asbag68
(g89
g70
NtRp1156
(dp1157
g73
(dp1158
g100
g101
ssg82
g1147
sg75
(lp1159
S':'
asbag68
(g89
g70
NtRp1160
(dp1161
g73
(dp1162
sg82
g1147
sg75
(lp1163
g68
(g69
g70
NtRp1164
(dp1165
g73
(dp1166
g81
I4
ssg82
g1160
sg75
(lp1167
S'Mozilla/5.0 (X11; Ubuntu; Linux x86_64; rv:12.0) Gecko/20100101 Firefox/12.0'
p1168
asbasbasbag68
(g84
g70
NtRp1169
(dp1170
g73
(dp1171
sg82
g833
sg75
(lp1172
g68
(g89
g70
NtRp1173
(dp1174
g73
(dp1175
g93
g94
ssg82
g1169
sg75
(lp1176
S'is_jython'
p1177
asbag68
(g89
g70
NtRp1178
(dp1179
g73
(dp1180
g100
g101
ssg82
g1169
sg75
(lp1181
S':'
asbag68
(g89
g70
NtRp1182
(dp1183
g73
(dp1184
sg82
g1169
sg75
(lp1185
g68
(g69
g70
NtRp1186
(dp1187
g73
(dp1188
g81
I4
ssg82
g1182
sg75
(lp1189
g111
asbasbasbag68
(g84
g70
NtRp1190
(dp1191
g73
(dp1192
sg82
g833
sg75
(lp1193
g68
(g89
g70
NtRp1194
(dp1195
g73
(dp1196
g93
g94
ssg82
g1190
sg75
(lp1197
S'path_info'
p1198
asbag68
(g89
g70
NtRp1199
(dp1200
g73
(dp1201
g100
g101
ssg82
g1190
sg75
(lp1202
S':'
asbag68
(g89
g70
NtRp1203
(dp1204
g73
(dp1205
sg82
g1190
sg75
(lp1206
g68
(g69
g70
NtRp1207
(dp1208
g73
(dp1209
g81
I4
ssg82
g1203
sg75
(lp1210
S'/streamlog/default/index'
p1211
asbasbasbag68
(g84
g70
NtRp1212
(dp1213
g73
(dp1214
sg82
g833
sg75
(lp1215
g68
(g89
g70
NtRp1216
(dp1217
g73
(dp1218
g93
g94
ssg82
g1212
sg75
(lp1219
S'query_string'
p1220
asbag68
(g89
g70
NtRp1221
(dp1222
g73
(dp1223
g100
g101
ssg82
g1212
sg75
(lp1224
S':'
asbag68
(g89
g70
NtRp1225
(dp1226
g73
(dp1227
sg82
g1212
sg75
(lp1228
g68
(g69
g70
NtRp1229
(dp1230
g73
(dp1231
g81
I4
ssg82
g1225
sg75
(lp1232
S''
asbasbasbag68
(g84
g70
NtRp1233
(dp1234
g73
(dp1235
sg82
g833
sg75
(lp1236
g68
(g89
g70
NtRp1237
(dp1238
g73
(dp1239
g93
g94
ssg82
g1233
sg75
(lp1240
S'remote_addr'
p1241
asbag68
(g89
g70
NtRp1242
(dp1243
g73
(dp1244
g100
g101
ssg82
g1233
sg75
(lp1245
S':'
asbag68
(g89
g70
NtRp1246
(dp1247
g73
(dp1248
sg82
g1233
sg75
(lp1249
g68
(g69
g70
NtRp1250
(dp1251
g73
(dp1252
g81
I4
ssg82
g1246
sg75
(lp1253
g201
asbasbasbag68
(g84
g70
NtRp1254
(dp1255
g73
(dp1256
sg82
g833
sg75
(lp1257
g68
(g89
g70
NtRp1258
(dp1259
g73
(dp1260
g93
g94
ssg82
g1254
sg75
(lp1261
S'remote_port'
p1262
asbag68
(g89
g70
NtRp1263
(dp1264
g73
(dp1265
g100
g101
ssg82
g1254
sg75
(lp1266
S':'
asbag68
(g89
g70
NtRp1267
(dp1268
g73
(dp1269
sg82
g1254
sg75
(lp1270
g68
(g69
g70
NtRp1271
(dp1272
g73
(dp1273
g81
I4
ssg82
g1267
sg75
(lp1274
S'34515'
p1275
asbasbasbag68
(g84
g70
NtRp1276
(dp1277
g73
(dp1278
sg82
g833
sg75
(lp1279
g68
(g89
g70
NtRp1280
(dp1281
g73
(dp1282
g93
g94
ssg82
g1276
sg75
(lp1283
S'request_method'
p1284
asbag68
(g89
g70
NtRp1285
(dp1286
g73
(dp1287
g100
g101
ssg82
g1276
sg75
(lp1288
S':'
asbag68
(g89
g70
NtRp1289
(dp1290
g73
(dp1291
sg82
g1276
sg75
(lp1292
g68
(g69
g70
NtRp1293
(dp1294
g73
(dp1295
g81
I4
ssg82
g1289
sg75
(lp1296
S'GET'
p1297
asbasbasbag68
(g84
g70
NtRp1298
(dp1299
g73
(dp1300
sg82
g833
sg75
(lp1301
g68
(g89
g70
NtRp1302
(dp1303
g73
(dp1304
g93
g94
ssg82
g1298
sg75
(lp1305
S'script_name'
p1306
asbag68
(g89
g70
NtRp1307
(dp1308
g73
(dp1309
g100
g101
ssg82
g1298
sg75
(lp1310
S':'
asbag68
(g89
g70
NtRp1311
(dp1312
g73
(dp1313
sg82
g1298
sg75
(lp1314
g68
(g69
g70
NtRp1315
(dp1316
g73
(dp1317
g81
I4
ssg82
g1311
sg75
(lp1318
S''
asbasbasbag68
(g84
g70
NtRp1319
(dp1320
g73
(dp1321
sg82
g833
sg75
(lp1322
g68
(g89
g70
NtRp1323
(dp1324
g73
(dp1325
g93
g94
ssg82
g1319
sg75
(lp1326
S'server_name'
p1327
asbag68
(g89
g70
NtRp1328
(dp1329
g73
(dp1330
g100
g101
ssg82
g1319
sg75
(lp1331
S':'
asbag68
(g89
g70
NtRp1332
(dp1333
g73
(dp1334
sg82
g1319
sg75
(lp1335
g68
(g69
g70
NtRp1336
(dp1337
g73
(dp1338
g81
I4
ssg82
g1332
sg75
(lp1339
S'jose'
p1340
asbasbasbag68
(g84
g70
NtRp1341
(dp1342
g73
(dp1343
sg82
g833
sg75
(lp1344
g68
(g89
g70
NtRp1345
(dp1346
g73
(dp1347
g93
g94
ssg82
g1341
sg75
(lp1348
S'server_port'
p1349
asbag68
(g89
g70
NtRp1350
(dp1351
g73
(dp1352
g100
g101
ssg82
g1341
sg75
(lp1353
S':'
asbag68
(g89
g70
NtRp1354
(dp1355
g73
(dp1356
sg82
g1341
sg75
(lp1357
g68
(g69
g70
NtRp1358
(dp1359
g73
(dp1360
g81
I4
ssg82
g1354
sg75
(lp1361
S'8000'
p1362
asbasbasbag68
(g84
g70
NtRp1363
(dp1364
g73
(dp1365
sg82
g833
sg75
(lp1366
g68
(g89
g70
NtRp1367
(dp1368
g73
(dp1369
g93
g94
ssg82
g1363
sg75
(lp1370
S'server_protocol'
p1371
asbag68
(g89
g70
NtRp1372
(dp1373
g73
(dp1374
g100
g101
ssg82
g1363
sg75
(lp1375
S':'
asbag68
(g89
g70
NtRp1376
(dp1377
g73
(dp1378
sg82
g1363
sg75
(lp1379
g68
(g69
g70
NtRp1380
(dp1381
g73
(dp1382
g81
I4
ssg82
g1376
sg75
(lp1383
S'HTTP/1.1'
p1384
asbasbasbag68
(g84
g70
NtRp1385
(dp1386
g73
(dp1387
sg82
g833
sg75
(lp1388
g68
(g89
g70
NtRp1389
(dp1390
g73
(dp1391
g93
g94
ssg82
g1385
sg75
(lp1392
S'server_software'
p1393
asbag68
(g89
g70
NtRp1394
(dp1395
g73
(dp1396
g100
g101
ssg82
g1385
sg75
(lp1397
S':'
asbag68
(g89
g70
NtRp1398
(dp1399
g73
(dp1400
sg82
g1385
sg75
(lp1401
g68
(g69
g70
NtRp1402
(dp1403
g73
(dp1404
g81
I4
ssg82
g1398
sg75
(lp1405
S'Rocket 1.2.4'
p1406
asbasbasbag68
(g84
g70
NtRp1407
(dp1408
g73
(dp1409
sg82
g833
sg75
(lp1410
g68
(g89
g70
NtRp1411
(dp1412
g73
(dp1413
g93
g94
ssg82
g1407
sg75
(lp1414
S'web2py_crontype'
p1415
asbag68
(g89
g70
NtRp1416
(dp1417
g73
(dp1418
g100
g101
ssg82
g1407
sg75
(lp1419
S':'
asbag68
(g89
g70
NtRp1420
(dp1421
g73
(dp1422
sg82
g1407
sg75
(lp1423
g68
(g69
g70
NtRp1424
(dp1425
g73
(dp1426
g81
I4
ssg82
g1420
sg75
(lp1427
S'hard'
p1428
asbasbasbag68
(g84
g70
NtRp1429
(dp1430
g73
(dp1431
sg82
g833
sg75
(lp1432
g68
(g89
g70
NtRp1433
(dp1434
g73
(dp1435
g93
g94
ssg82
g1429
sg75
(lp1436
S'web2py_path'
p1437
asbag68
(g89
g70
NtRp1438
(dp1439
g73
(dp1440
g100
g101
ssg82
g1429
sg75
(lp1441
S':'
asbag68
(g89
g70
NtRp1442
(dp1443
g73
(dp1444
sg82
g1429
sg75
(lp1445
g68
(g69
g70
NtRp1446
(dp1447
g73
(dp1448
g81
I4
ssg82
g1442
sg75
(lp1449
g880
asbasbasbag68
(g84
g70
NtRp1450
(dp1451
g73
(dp1452
sg82
g833
sg75
(lp1453
g68
(g89
g70
NtRp1454
(dp1455
g73
(dp1456
g93
g94
ssg82
g1450
sg75
(lp1457
S'web2py_version'
p1458
asbag68
(g89
g70
NtRp1459
(dp1460
g73
(dp1461
g100
g101
ssg82
g1450
sg75
(lp1462
S':'
asbag68
(g89
g70
NtRp1463
(dp1464
g73
(dp1465
sg82
g1450
sg75
(lp1466
g68
(g69
g70
NtRp1467
(dp1468
g73
(dp1469
g81
I4
ssg82
g1463
sg75
(lp1470
g68
(g77
g70
NtRp1471
(dp1472
g73
(dp1473
g81
I3
ssg82
Nsg75
(lp1474
g68
(g84
g70
NtRp1475
(dp1476
g73
(dp1477
sg82
g1471
sg75
(lp1478
g68
(g89
g70
NtRp1479
(dp1480
g73
(dp1481
sg82
g1475
sg75
(lp1482
g68
(g69
g70
NtRp1483
(dp1484
g73
(dp1485
g81
I3
ssg82
g1479
sg75
(lp1486
S'1'
asbasbasbag68
(g84
g70
NtRp1487
(dp1488
g73
(dp1489
sg82
g1471
sg75
(lp1490
g68
(g89
g70
NtRp1491
(dp1492
g73
(dp1493
sg82
g1487
sg75
(lp1494
g68
(g69
g70
NtRp1495
(dp1496
g73
(dp1497
g81
I3
ssg82
g1491
sg75
(lp1498
S'99'
p1499
asbasbasbag68
(g84
g70
NtRp1500
(dp1501
g73
(dp1502
sg82
g1471
sg75
(lp1503
g68
(g89
g70
NtRp1504
(dp1505
g73
(dp1506
sg82
g1500
sg75
(lp1507
g68
(g69
g70
NtRp1508
(dp1509
g73
(dp1510
g81
I3
ssg82
g1504
sg75
(lp1511
S'2'
asbasbasbag68
(g84
g70
NtRp1512
(dp1513
g73
(dp1514
sg82
g1471
sg75
(lp1515
g68
(g89
g70
NtRp1516
(dp1517
g73
(dp1518
sg82
g1512
sg75
(lp1519
g68
(g69
g70
NtRp1520
(dp1521
g73
(dp1522
g81
I3
ssg82
g1516
sg75
(lp1523
S'datetime.datetime(2011, 9, 26, 6, 55, 33)'
p1524
asbasbasbag68
(g84
g70
NtRp1525
(dp1526
g73
(dp1527
sg82
g1471
sg75
(lp1528
g68
(g89
g70
NtRp1529
(dp1530
g73
(dp1531
sg82
g1525
sg75
(lp1532
g68
(g69
g70
NtRp1533
(dp1534
g73
(dp1535
g81
I3
ssg82
g1529
sg75
(lp1536
S'stable'
p1537
asbasbasbasbasbasbasbag68
(g84
g70
NtRp1538
(dp1539
g73
(dp1540
sg82
g833
sg75
(lp1541
g68
(g89
g70
NtRp1542
(dp1543
g73
(dp1544
g93
g94
ssg82
g1538
sg75
(lp1545
S'wsgi_errors'
p1546
asbag68
(g89
g70
NtRp1547
(dp1548
g73
(dp1549
g100
g101
ssg82
g1538
sg75
(lp1550
S':'
asbag68
(g89
g70
NtRp1551
(dp1552
g73
(dp1553
sg82
g1538
sg75
(lp1554
g68
(g69
g70
NtRp1555
(dp1556
g73
(dp1557
g81
I4
ssg82
g1551
sg75
(lp1558
S"<open file '<stderr>', mode 'w' at 0x7f84db3ff270>"
p1559
asbasbasbag68
(g84
g70
NtRp1560
(dp1561
g73
(dp1562
sg82
g833
sg75
(lp1563
g68
(g89
g70
NtRp1564
(dp1565
g73
(dp1566
g93
g94
ssg82
g1560
sg75
(lp1567
S'wsgi_file_wrapper'
p1568
asbag68
(g89
g70
NtRp1569
(dp1570
g73
(dp1571
g100
g101
ssg82
g1560
sg75
(lp1572
S':'
asbag68
(g89
g70
NtRp1573
(dp1574
g73
(dp1575
sg82
g1560
sg75
(lp1576
g68
(g69
g70
NtRp1577
(dp1578
g73
(dp1579
g81
I4
ssg82
g1573
sg75
(lp1580
S'<class wsgiref.util.FileWrapper at 0x1b96d50>'
p1581
asbasbasbag68
(g84
g70
NtRp1582
(dp1583
g73
(dp1584
sg82
g833
sg75
(lp1585
g68
(g89
g70
NtRp1586
(dp1587
g73
(dp1588
g93
g94
ssg82
g1582
sg75
(lp1589
S'wsgi_input'
p1590
asbag68
(g89
g70
NtRp1591
(dp1592
g73
(dp1593
g100
g101
ssg82
g1582
sg75
(lp1594
S':'
asbag68
(g89
g70
NtRp1595
(dp1596
g73
(dp1597
sg82
g1582
sg75
(lp1598
g68
(g69
g70
NtRp1599
(dp1600
g73
(dp1601
g81
I4
ssg82
g1595
sg75
(lp1602
S'<socket._fileobject object at 0x346e2d0>'
p1603
asbasbasbag68
(g84
g70
NtRp1604
(dp1605
g73
(dp1606
sg82
g833
sg75
(lp1607
g68
(g89
g70
NtRp1608
(dp1609
g73
(dp1610
g93
g94
ssg82
g1604
sg75
(lp1611
S'wsgi_multiprocess'
p1612
asbag68
(g89
g70
NtRp1613
(dp1614
g73
(dp1615
g100
g101
ssg82
g1604
sg75
(lp1616
S':'
asbag68
(g89
g70
NtRp1617
(dp1618
g73
(dp1619
sg82
g1604
sg75
(lp1620
g68
(g69
g70
NtRp1621
(dp1622
g73
(dp1623
g81
I4
ssg82
g1617
sg75
(lp1624
g111
asbasbasbag68
(g84
g70
NtRp1625
(dp1626
g73
(dp1627
sg82
g833
sg75
(lp1628
g68
(g89
g70
NtRp1629
(dp1630
g73
(dp1631
g93
g94
ssg82
g1625
sg75
(lp1632
S'wsgi_multithread'
p1633
asbag68
(g89
g70
NtRp1634
(dp1635
g73
(dp1636
g100
g101
ssg82
g1625
sg75
(lp1637
S':'
asbag68
(g89
g70
NtRp1638
(dp1639
g73
(dp1640
sg82
g1625
sg75
(lp1641
g68
(g69
g70
NtRp1642
(dp1643
g73
(dp1644
g81
I4
ssg82
g1638
sg75
(lp1645
S'True'
p1646
asbasbasbag68
(g84
g70
NtRp1647
(dp1648
g73
(dp1649
sg82
g833
sg75
(lp1650
g68
(g89
g70
NtRp1651
(dp1652
g73
(dp1653
g93
g94
ssg82
g1647
sg75
(lp1654
S'wsgi_run_once'
p1655
asbag68
(g89
g70
NtRp1656
(dp1657
g73
(dp1658
g100
g101
ssg82
g1647
sg75
(lp1659
S':'
asbag68
(g89
g70
NtRp1660
(dp1661
g73
(dp1662
sg82
g1647
sg75
(lp1663
g68
(g69
g70
NtRp1664
(dp1665
g73
(dp1666
g81
I4
ssg82
g1660
sg75
(lp1667
g111
asbasbasbag68
(g84
g70
NtRp1668
(dp1669
g73
(dp1670
sg82
g833
sg75
(lp1671
g68
(g89
g70
NtRp1672
(dp1673
g73
(dp1674
g93
g94
ssg82
g1668
sg75
(lp1675
S'wsgi_url_scheme'
p1676
asbag68
(g89
g70
NtRp1677
(dp1678
g73
(dp1679
g100
g101
ssg82
g1668
sg75
(lp1680
S':'
asbag68
(g89
g70
NtRp1681
(dp1682
g73
(dp1683
sg82
g1668
sg75
(lp1684
g68
(g69
g70
NtRp1685
(dp1686
g73
(dp1687
g81
I4
ssg82
g1681
sg75
(lp1688
S'http'
p1689
asbasbasbag68
(g84
g70
NtRp1690
(dp1691
g73
(dp1692
sg82
g833
sg75
(lp1693
g68
(g89
g70
NtRp1694
(dp1695
g73
(dp1696
g93
g94
ssg82
g1690
sg75
(lp1697
S'wsgi_version'
p1698
asbag68
(g89
g70
NtRp1699
(dp1700
g73
(dp1701
g100
g101
ssg82
g1690
sg75
(lp1702
S':'
asbag68
(g89
g70
NtRp1703
(dp1704
g73
(dp1705
sg82
g1690
sg75
(lp1706
g68
(g69
g70
NtRp1707
(dp1708
g73
(dp1709
g81
I4
ssg82
g1703
sg75
(lp1710
g68
(g77
g70
NtRp1711
(dp1712
g73
(dp1713
g81
I3
ssg82
Nsg75
(lp1714
g68
(g84
g70
NtRp1715
(dp1716
g73
(dp1717
sg82
g1711
sg75
(lp1718
g68
(g89
g70
NtRp1719
(dp1720
g73
(dp1721
sg82
g1715
sg75
(lp1722
g68
(g69
g70
NtRp1723
(dp1724
g73
(dp1725
g81
I3
ssg82
g1719
sg75
(lp1726
S'1'
asbasbasbag68
(g84
g70
NtRp1727
(dp1728
g73
(dp1729
sg82
g1711
sg75
(lp1730
g68
(g89
g70
NtRp1731
(dp1732
g73
(dp1733
sg82
g1727
sg75
(lp1734
g68
(g69
g70
NtRp1735
(dp1736
g73
(dp1737
g81
I3
ssg82
g1731
sg75
(lp1738
S'0'
asbasbasbasbasbasbasbasbasbasbasbag68
(g84
g70
NtRp1739
(dp1740
g73
(dp1741
sg82
g78
sg75
(lp1742
g68
(g89
g70
NtRp1743
(dp1744
g73
(dp1745
g93
g94
ssg82
g1739
sg75
(lp1746
S'extension'
p1747
asbag68
(g89
g70
NtRp1748
(dp1749
g73
(dp1750
g100
g101
ssg82
g1739
sg75
(lp1751
S':'
asbag68
(g89
g70
NtRp1752
(dp1753
g73
(dp1754
sg82
g1739
sg75
(lp1755
g68
(g69
g70
NtRp1756
(dp1757
g73
(dp1758
g81
I5
ssg82
g1752
sg75
(lp1759
S'html'
p1760
asbasbasbag68
(g84
g70
NtRp1761
(dp1762
g73
(dp1763
sg82
g78
sg75
(lp1764
g68
(g89
g70
NtRp1765
(dp1766
g73
(dp1767
g93
g94
ssg82
g1761
sg75
(lp1768
S'folder'
p1769
asbag68
(g89
g70
NtRp1770
(dp1771
g73
(dp1772
g100
g101
ssg82
g1761
sg75
(lp1773
S':'
asbag68
(g89
g70
NtRp1774
(dp1775
g73
(dp1776
sg82
g1761
sg75
(lp1777
g68
(g69
g70
NtRp1778
(dp1779
g73
(dp1780
g81
I5
ssg82
g1774
sg75
(lp1781
S'/home/jose/DESARROLLO/web2py199/applications/streamlog/'
p1782
asbasbasbag68
(g84
g70
NtRp1783
(dp1784
g73
(dp1785
sg82
g78
sg75
(lp1786
g68
(g89
g70
NtRp1787
(dp1788
g73
(dp1789
g93
g94
ssg82
g1783
sg75
(lp1790
S'function'
p1791
asbag68
(g89
g70
NtRp1792
(dp1793
g73
(dp1794
g100
g101
ssg82
g1783
sg75
(lp1795
S':'
asbag68
(g89
g70
NtRp1796
(dp1797
g73
(dp1798
sg82
g1783
sg75
(lp1799
g68
(g69
g70
NtRp1800
(dp1801
g73
(dp1802
g81
I5
ssg82
g1796
sg75
(lp1803
S'index'
p1804
asbasbasbag68
(g84
g70
NtRp1805
(dp1806
g73
(dp1807
sg82
g78
sg75
(lp1808
g68
(g89
g70
NtRp1809
(dp1810
g73
(dp1811
g93
g94
ssg82
g1805
sg75
(lp1812
S'get_vars'
p1813
asbag68
(g89
g70
NtRp1814
(dp1815
g73
(dp1816
g100
g101
ssg82
g1805
sg75
(lp1817
S':'
asbag68
(g89
g70
NtRp1818
(dp1819
g73
(dp1820
sg82
g1805
sg75
(lp1821
g68
(g69
g70
NtRp1822
(dp1823
g73
(dp1824
g81
I5
ssg82
g1818
sg75
(lp1825
g68
(g77
g70
NtRp1826
(dp1827
g73
(dp1828
g81
I4
ssg82
Nsg75
(lp1829
sbasbasbasbag68
(g84
g70
NtRp1830
(dp1831
g73
(dp1832
sg82
g78
sg75
(lp1833
g68
(g89
g70
NtRp1834
(dp1835
g73
(dp1836
g93
g94
ssg82
g1830
sg75
(lp1837
S'global_settings'
p1838
asbag68
(g89
g70
NtRp1839
(dp1840
g73
(dp1841
g100
g101
ssg82
g1830
sg75
(lp1842
S':'
asbag68
(g89
g70
NtRp1843
(dp1844
g73
(dp1845
sg82
g1830
sg75
(lp1846
g68
(g69
g70
NtRp1847
(dp1848
g73
(dp1849
g81
I5
ssg82
g1843
sg75
(lp1850
g68
(g77
g70
NtRp1851
(dp1852
g73
(dp1853
g81
I4
ssg82
Nsg75
(lp1854
g68
(g84
g70
NtRp1855
(dp1856
g73
(dp1857
sg82
g1851
sg75
(lp1858
g68
(g89
g70
NtRp1859
(dp1860
g73
(dp1861
g93
g94
ssg82
g1855
sg75
(lp1862
g845
asbag68
(g89
g70
NtRp1863
(dp1864
g73
(dp1865
g100
g101
ssg82
g1855
sg75
(lp1866
S':'
asbag68
(g89
g70
NtRp1867
(dp1868
g73
(dp1869
sg82
g1855
sg75
(lp1870
g68
(g69
g70
NtRp1871
(dp1872
g73
(dp1873
g81
I4
ssg82
g1867
sg75
(lp1874
S"set(['/home/jose/DESARROLLO/web2py199/applications/streamlog/', '/home/jose/DESARROLLO/web2py199/applications/admin/'])"
p1875
asbasbasbag68
(g84
g70
NtRp1876
(dp1877
g73
(dp1878
sg82
g1851
sg75
(lp1879
g68
(g89
g70
NtRp1880
(dp1881
g73
(dp1882
g93
g94
ssg82
g1876
sg75
(lp1883
g867
asbag68
(g89
g70
NtRp1884
(dp1885
g73
(dp1886
g100
g101
ssg82
g1876
sg75
(lp1887
S':'
asbag68
(g89
g70
NtRp1888
(dp1889
g73
(dp1890
sg82
g1876
sg75
(lp1891
g68
(g69
g70
NtRp1892
(dp1893
g73
(dp1894
g81
I4
ssg82
g1888
sg75
(lp1895
g880
asbasbasbag68
(g84
g70
NtRp1896
(dp1897
g73
(dp1898
sg82
g1851
sg75
(lp1899
g68
(g89
g70
NtRp1900
(dp1901
g73
(dp1902
g93
g94
ssg82
g1896
sg75
(lp1903
g889
asbag68
(g89
g70
NtRp1904
(dp1905
g73
(dp1906
g100
g101
ssg82
g1896
sg75
(lp1907
S':'
asbag68
(g89
g70
NtRp1908
(dp1909
g73
(dp1910
sg82
g1896
sg75
(lp1911
g68
(g69
g70
NtRp1912
(dp1913
g73
(dp1914
g81
I4
ssg82
g1908
sg75
(lp1915
g68
(g77
g70
NtRp1916
(dp1917
g73
(dp1918
g81
I3
ssg82
Nsg75
(lp1919
sbasbasbasbag68
(g84
g70
NtRp1920
(dp1921
g73
(dp1922
sg82
g1851
sg75
(lp1923
g68
(g89
g70
NtRp1924
(dp1925
g73
(dp1926
g93
g94
ssg82
g1920
sg75
(lp1927
g914
asbag68
(g89
g70
NtRp1928
(dp1929
g73
(dp1930
g100
g101
ssg82
g1920
sg75
(lp1931
S':'
asbag68
(g89
g70
NtRp1932
(dp1933
g73
(dp1934
sg82
g1920
sg75
(lp1935
g68
(g69
g70
NtRp1936
(dp1937
g73
(dp1938
g81
I4
ssg82
g1932
sg75
(lp1939
S"<Values at 0x1c79f80: {'verbose': False, 'ip': '127.0.0.1', 'shutdown_timeout': 5, 'taskbar': False, 'nocron': False, 'pid_filename': 'httpserver.pid', 'maxthreads': None, 'softcron': False, 'server_name': 'jose', 'bpython': False, 'nogui': False, 'port': 8000, 'extcron': False, 'debuglevel': 30, 'test': None, 'folder': '/home/jose/DESARROLLO/web2py199', 'config': '', 'import_models': False, 'winservice': '', 'shell': None, 'run': '', 'log_filename': 'httpserver.log', 'args': [''], 'ssl_ca_certificate': None, 'scheduler': None, 'profiler_filename': None, 'ssl_private_key': '', 'password': 't', 'request_queue_size': 5, 'ssl_certificate': '', 'cronjob': False, 'plain': False, 'quiet': False, 'interfaces': None, 'minthreads': None, 'timeout': 10, 'numthreads': None, 'nobanner': False}>"
p1940
asbasbasbag68
(g84
g70
NtRp1941
(dp1942
g73
(dp1943
sg82
g1851
sg75
(lp1944
g68
(g89
g70
NtRp1945
(dp1946
g73
(dp1947
g93
g94
ssg82
g1941
sg75
(lp1948
g936
asbag68
(g89
g70
NtRp1949
(dp1950
g73
(dp1951
g100
g101
ssg82
g1941
sg75
(lp1952
S':'
asbag68
(g89
g70
NtRp1953
(dp1954
g73
(dp1955
sg82
g1941
sg75
(lp1956
g68
(g69
g70
NtRp1957
(dp1958
g73
(dp1959
g81
I4
ssg82
g1953
sg75
(lp1960
S'set([])'
p1961
asbasbasbag68
(g84
g70
NtRp1962
(dp1963
g73
(dp1964
sg82
g1851
sg75
(lp1965
g68
(g89
g70
NtRp1966
(dp1967
g73
(dp1968
g93
g94
ssg82
g1962
sg75
(lp1969
g958
asbag68
(g89
g70
NtRp1970
(dp1971
g73
(dp1972
g100
g101
ssg82
g1962
sg75
(lp1973
S':'
asbag68
(g89
g70
NtRp1974
(dp1975
g73
(dp1976
sg82
g1962
sg75
(lp1977
g68
(g69
g70
NtRp1978
(dp1979
g73
(dp1980
g81
I4
ssg82
g1974
sg75
(lp1981
g111
asbasbasbag68
(g84
g70
NtRp1982
(dp1983
g73
(dp1984
sg82
g1851
sg75
(lp1985
g68
(g89
g70
NtRp1986
(dp1987
g73
(dp1988
g93
g94
ssg82
g1982
sg75
(lp1989
g979
asbag68
(g89
g70
NtRp1990
(dp1991
g73
(dp1992
g100
g101
ssg82
g1982
sg75
(lp1993
S':'
asbag68
(g89
g70
NtRp1994
(dp1995
g73
(dp1996
sg82
g1982
sg75
(lp1997
g68
(g69
g70
NtRp1998
(dp1999
g73
(dp2000
g81
I4
ssg82
g1994
sg75
(lp2001
g992
asbasbasbag68
(g84
g70
NtRp2002
(dp2003
g73
(dp2004
sg82
g1851
sg75
(lp2005
g68
(g89
g70
NtRp2006
(dp2007
g73
(dp2008
g93
g94
ssg82
g2002
sg75
(lp2009
g1177
asbag68
(g89
g70
NtRp2010
(dp2011
g73
(dp2012
g100
g101
ssg82
g2002
sg75
(lp2013
S':'
asbag68
(g89
g70
NtRp2014
(dp2015
g73
(dp2016
sg82
g2002
sg75
(lp2017
g68
(g69
g70
NtRp2018
(dp2019
g73
(dp2020
g81
I4
ssg82
g2014
sg75
(lp2021
g111
asbasbasbag68
(g84
g70
NtRp2022
(dp2023
g73
(dp2024
sg82
g1851
sg75
(lp2025
g68
(g89
g70
NtRp2026
(dp2027
g73
(dp2028
g93
g94
ssg82
g2022
sg75
(lp2029
g1415
asbag68
(g89
g70
NtRp2030
(dp2031
g73
(dp2032
g100
g101
ssg82
g2022
sg75
(lp2033
S':'
asbag68
(g89
g70
NtRp2034
(dp2035
g73
(dp2036
sg82
g2022
sg75
(lp2037
g68
(g69
g70
NtRp2038
(dp2039
g73
(dp2040
g81
I4
ssg82
g2034
sg75
(lp2041
g1428
asbasbasbag68
(g84
g70
NtRp2042
(dp2043
g73
(dp2044
sg82
g1851
sg75
(lp2045
g68
(g89
g70
NtRp2046
(dp2047
g73
(dp2048
g93
g94
ssg82
g2042
sg75
(lp2049
g1458
asbag68
(g89
g70
NtRp2050
(dp2051
g73
(dp2052
g100
g101
ssg82
g2042
sg75
(lp2053
S':'
asbag68
(g89
g70
NtRp2054
(dp2055
g73
(dp2056
sg82
g2042
sg75
(lp2057
g68
(g69
g70
NtRp2058
(dp2059
g73
(dp2060
g81
I4
ssg82
g2054
sg75
(lp2061
g68
(g77
g70
NtRp2062
(dp2063
g73
(dp2064
g81
I3
ssg82
Nsg75
(lp2065
g68
(g84
g70
NtRp2066
(dp2067
g73
(dp2068
sg82
g2062
sg75
(lp2069
g68
(g89
g70
NtRp2070
(dp2071
g73
(dp2072
sg82
g2066
sg75
(lp2073
g68
(g69
g70
NtRp2074
(dp2075
g73
(dp2076
g81
I3
ssg82
g2070
sg75
(lp2077
S'1'
asbasbasbag68
(g84
g70
NtRp2078
(dp2079
g73
(dp2080
sg82
g2062
sg75
(lp2081
g68
(g89
g70
NtRp2082
(dp2083
g73
(dp2084
sg82
g2078
sg75
(lp2085
g68
(g69
g70
NtRp2086
(dp2087
g73
(dp2088
g81
I3
ssg82
g2082
sg75
(lp2089
S'99'
p2090
asbasbasbag68
(g84
g70
NtRp2091
(dp2092
g73
(dp2093
sg82
g2062
sg75
(lp2094
g68
(g89
g70
NtRp2095
(dp2096
g73
(dp2097
sg82
g2091
sg75
(lp2098
g68
(g69
g70
NtRp2099
(dp2100
g73
(dp2101
g81
I3
ssg82
g2095
sg75
(lp2102
S'2'
asbasbasbag68
(g84
g70
NtRp2103
(dp2104
g73
(dp2105
sg82
g2062
sg75
(lp2106
g68
(g89
g70
NtRp2107
(dp2108
g73
(dp2109
sg82
g2103
sg75
(lp2110
g68
(g69
g70
NtRp2111
(dp2112
g73
(dp2113
g81
I3
ssg82
g2107
sg75
(lp2114
S'datetime.datetime(2011, 9, 26, 6, 55, 33)'
p2115
asbasbasbag68
(g84
g70
NtRp2116
(dp2117
g73
(dp2118
sg82
g2062
sg75
(lp2119
g68
(g89
g70
NtRp2120
(dp2121
g73
(dp2122
sg82
g2116
sg75
(lp2123
g68
(g69
g70
NtRp2124
(dp2125
g73
(dp2126
g81
I3
ssg82
g2120
sg75
(lp2127
g1537
asbasbasbasbasbasbasbasbasbasbasbag68
(g84
g70
NtRp2128
(dp2129
g73
(dp2130
sg82
g78
sg75
(lp2131
g68
(g89
g70
NtRp2132
(dp2133
g73
(dp2134
g93
g94
ssg82
g2128
sg75
(lp2135
S'is_https'
p2136
asbag68
(g89
g70
NtRp2137
(dp2138
g73
(dp2139
g100
g101
ssg82
g2128
sg75
(lp2140
S':'
asbag68
(g89
g70
NtRp2141
(dp2142
g73
(dp2143
sg82
g2128
sg75
(lp2144
g68
(g69
g70
NtRp2145
(dp2146
g73
(dp2147
g81
I5
ssg82
g2141
sg75
(lp2148
g111
asbasbasbag68
(g84
g70
NtRp2149
(dp2150
g73
(dp2151
sg82
g78
sg75
(lp2152
g68
(g89
g70
NtRp2153
(dp2154
g73
(dp2155
g93
g94
ssg82
g2149
sg75
(lp2156
S'is_local'
p2157
asbag68
(g89
g70
NtRp2158
(dp2159
g73
(dp2160
g100
g101
ssg82
g2149
sg75
(lp2161
S':'
asbag68
(g89
g70
NtRp2162
(dp2163
g73
(dp2164
sg82
g2149
sg75
(lp2165
g68
(g69
g70
NtRp2166
(dp2167
g73
(dp2168
g81
I5
ssg82
g2162
sg75
(lp2169
g1646
asbasbasbag68
(g84
g70
NtRp2170
(dp2171
g73
(dp2172
sg82
g78
sg75
(lp2173
g68
(g89
g70
NtRp2174
(dp2175
g73
(dp2176
g93
g94
ssg82
g2170
sg75
(lp2177
S'is_restful'
p2178
asbag68
(g89
g70
NtRp2179
(dp2180
g73
(dp2181
g100
g101
ssg82
g2170
sg75
(lp2182
S':'
asbag68
(g89
g70
NtRp2183
(dp2184
g73
(dp2185
sg82
g2170
sg75
(lp2186
g68
(g69
g70
NtRp2187
(dp2188
g73
(dp2189
g81
I5
ssg82
g2183
sg75
(lp2190
g111
asbasbasbag68
(g84
g70
NtRp2191
(dp2192
g73
(dp2193
sg82
g78
sg75
(lp2194
g68
(g89
g70
NtRp2195
(dp2196
g73
(dp2197
g93
g94
ssg82
g2191
sg75
(lp2198
S'now'
p2199
asbag68
(g89
g70
NtRp2200
(dp2201
g73
(dp2202
g100
g101
ssg82
g2191
sg75
(lp2203
S':'
asbag68
(g89
g70
NtRp2204
(dp2205
g73
(dp2206
sg82
g2191
sg75
(lp2207
g68
(g69
g70
NtRp2208
(dp2209
g73
(dp2210
g81
I5
ssg82
g2204
sg75
(lp2211
S'datetime.datetime(2012, 5, 26, 18, 38, 5, 125616)'
p2212
asbasbasbag68
(g84
g70
NtRp2213
(dp2214
g73
(dp2215
sg82
g78
sg75
(lp2216
g68
(g89
g70
NtRp2217
(dp2218
g73
(dp2219
g93
g94
ssg82
g2213
sg75
(lp2220
S'post_vars'
p2221
asbag68
(g89
g70
NtRp2222
(dp2223
g73
(dp2224
g100
g101
ssg82
g2213
sg75
(lp2225
S':'
asbag68
(g89
g70
NtRp2226
(dp2227
g73
(dp2228
sg82
g2213
sg75
(lp2229
g68
(g69
g70
NtRp2230
(dp2231
g73
(dp2232
g81
I5
ssg82
g2226
sg75
(lp2233
g68
(g77
g70
NtRp2234
(dp2235
g73
(dp2236
g81
I4
ssg82
Nsg75
(lp2237
sbasbasbasbag68
(g84
g70
NtRp2238
(dp2239
g73
(dp2240
sg82
g78
sg75
(lp2241
g68
(g89
g70
NtRp2242
(dp2243
g73
(dp2244
g93
g94
ssg82
g2238
sg75
(lp2245
S'url'
p2246
asbag68
(g89
g70
NtRp2247
(dp2248
g73
(dp2249
g100
g101
ssg82
g2238
sg75
(lp2250
S':'
asbag68
(g89
g70
NtRp2251
(dp2252
g73
(dp2253
sg82
g2238
sg75
(lp2254
g68
(g69
g70
NtRp2255
(dp2256
g73
(dp2257
g81
I5
ssg82
g2251
sg75
(lp2258
S'/streamlog/default/index'
p2259
asbasbasbag68
(g84
g70
NtRp2260
(dp2261
g73
(dp2262
sg82
g78
sg75
(lp2263
g68
(g89
g70
NtRp2264
(dp2265
g73
(dp2266
g93
g94
ssg82
g2260
sg75
(lp2267
S'utcnow'
p2268
asbag68
(g89
g70
NtRp2269
(dp2270
g73
(dp2271
g100
g101
ssg82
g2260
sg75
(lp2272
S':'
asbag68
(g89
g70
NtRp2273
(dp2274
g73
(dp2275
sg82
g2260
sg75
(lp2276
g68
(g69
g70
NtRp2277
(dp2278
g73
(dp2279
g81
I5
ssg82
g2273
sg75
(lp2280
S'datetime.datetime(2012, 5, 26, 11, 38, 5, 125694)'
p2281
asbasbasbag68
(g84
g70
NtRp2282
(dp2283
g73
(dp2284
sg82
g78
sg75
(lp2285
g68
(g89
g70
NtRp2286
(dp2287
g73
(dp2288
g93
g94
ssg82
g2282
sg75
(lp2289
S'uuid'
p2290
asbag68
(g89
g70
NtRp2291
(dp2292
g73
(dp2293
g100
g101
ssg82
g2282
sg75
(lp2294
S':'
asbag68
(g89
g70
NtRp2295
(dp2296
g73
(dp2297
sg82
g2282
sg75
(lp2298
g68
(g69
g70
NtRp2299
(dp2300
g73
(dp2301
g81
I5
ssg82
g2295
sg75
(lp2302
S'streamlog/127.0.0.1.2012-05-26.18-38-05.e62111d6-daf2-4afc-810a-d241af476734'
p2303
asbasbasbag68
(g84
g70
NtRp2304
(dp2305
g73
(dp2306
sg82
g78
sg75
(lp2307
g68
(g89
g70
NtRp2308
(dp2309
g73
(dp2310
g93
g94
ssg82
g2304
sg75
(lp2311
S'vars'
p2312
asbag68
(g89
g70
NtRp2313
(dp2314
g73
(dp2315
g100
g101
ssg82
g2304
sg75
(lp2316
S':'
asbag68
(g89
g70
NtRp2317
(dp2318
g73
(dp2319
sg82
g2304
sg75
(lp2320
g68
(g69
g70
NtRp2321
(dp2322
g73
(dp2323
g81
I5
ssg82
g2317
sg75
(lp2324
g68
(g77
g70
NtRp2325
(dp2326
g73
(dp2327
g81
I4
ssg82
Nsg75
(lp2328
sbasbasbasbag68
(g84
g70
NtRp2329
(dp2330
g73
(dp2331
sg82
g78
sg75
(lp2332
g68
(g89
g70
NtRp2333
(dp2334
g73
(dp2335
g93
g94
ssg82
g2329
sg75
(lp2336
S'wsgi'
p2337
asbag68
(g89
g70
NtRp2338
(dp2339
g73
(dp2340
g100
g101
ssg82
g2329
sg75
(lp2341
S':'
asbag68
(g89
g70
NtRp2342
(dp2343
g73
(dp2344
sg82
g2329
sg75
(lp2345
g68
(g69
g70
NtRp2346
(dp2347
g73
(dp2348
g81
I5
ssg82
g2342
sg75
(lp2349
g68
(g77
g70
NtRp2350
(dp2351
g73
(dp2352
g81
I4
ssg82
Nsg75
(lp2353
g68
(g84
g70
NtRp2354
(dp2355
g73
(dp2356
sg82
g2350
sg75
(lp2357
g68
(g89
g70
NtRp2358
(dp2359
g73
(dp2360
g93
g94
ssg82
g2354
sg75
(lp2361
S'environ'
p2362
asbag68
(g89
g70
NtRp2363
(dp2364
g73
(dp2365
g100
g101
ssg82
g2354
sg75
(lp2366
S':'
asbag68
(g89
g70
NtRp2367
(dp2368
g73
(dp2369
sg82
g2354
sg75
(lp2370
g68
(g69
g70
NtRp2371
(dp2372
g73
(dp2373
g81
I4
ssg82
g2367
sg75
(lp2374
g68
(g77
g70
NtRp2375
(dp2376
g73
(dp2377
g81
I3
ssg82
Nsg75
(lp2378
g68
(g84
g70
NtRp2379
(dp2380
g73
(dp2381
sg82
g2375
sg75
(lp2382
g68
(g89
g70
NtRp2383
(dp2384
g73
(dp2385
g93
g94
ssg82
g2379
sg75
(lp2386
S'HTTP_ACCEPT'
p2387
asbag68
(g89
g70
NtRp2388
(dp2389
g73
(dp2390
g100
g101
ssg82
g2379
sg75
(lp2391
S':'
asbag68
(g89
g70
NtRp2392
(dp2393
g73
(dp2394
sg82
g2379
sg75
(lp2395
g68
(g69
g70
NtRp2396
(dp2397
g73
(dp2398
g81
I3
ssg82
g2392
sg75
(lp2399
g1014
asbasbasbag68
(g84
g70
NtRp2400
(dp2401
g73
(dp2402
sg82
g2375
sg75
(lp2403
g68
(g89
g70
NtRp2404
(dp2405
g73
(dp2406
g93
g94
ssg82
g2400
sg75
(lp2407
S'HTTP_ACCEPT_ENCODING'
p2408
asbag68
(g89
g70
NtRp2409
(dp2410
g73
(dp2411
g100
g101
ssg82
g2400
sg75
(lp2412
S':'
asbag68
(g89
g70
NtRp2413
(dp2414
g73
(dp2415
sg82
g2400
sg75
(lp2416
g68
(g69
g70
NtRp2417
(dp2418
g73
(dp2419
g81
I3
ssg82
g2413
sg75
(lp2420
g1036
asbasbasbag68
(g84
g70
NtRp2421
(dp2422
g73
(dp2423
sg82
g2375
sg75
(lp2424
g68
(g89
g70
NtRp2425
(dp2426
g73
(dp2427
g93
g94
ssg82
g2421
sg75
(lp2428
S'HTTP_ACCEPT_LANGUAGE'
p2429
asbag68
(g89
g70
NtRp2430
(dp2431
g73
(dp2432
g100
g101
ssg82
g2421
sg75
(lp2433
S':'
asbag68
(g89
g70
NtRp2434
(dp2435
g73
(dp2436
sg82
g2421
sg75
(lp2437
g68
(g69
g70
NtRp2438
(dp2439
g73
(dp2440
g81
I3
ssg82
g2434
sg75
(lp2441
g1058
asbasbasbag68
(g84
g70
NtRp2442
(dp2443
g73
(dp2444
sg82
g2375
sg75
(lp2445
g68
(g89
g70
NtRp2446
(dp2447
g73
(dp2448
g93
g94
ssg82
g2442
sg75
(lp2449
S'HTTP_CONNECTION'
p2450
asbag68
(g89
g70
NtRp2451
(dp2452
g73
(dp2453
g100
g101
ssg82
g2442
sg75
(lp2454
S':'
asbag68
(g89
g70
NtRp2455
(dp2456
g73
(dp2457
sg82
g2442
sg75
(lp2458
g68
(g69
g70
NtRp2459
(dp2460
g73
(dp2461
g81
I3
ssg82
g2455
sg75
(lp2462
g1080
asbasbasbag68
(g84
g70
NtRp2463
(dp2464
g73
(dp2465
sg82
g2375
sg75
(lp2466
g68
(g89
g70
NtRp2467
(dp2468
g73
(dp2469
g93
g94
ssg82
g2463
sg75
(lp2470
S'HTTP_COOKIE'
p2471
asbag68
(g89
g70
NtRp2472
(dp2473
g73
(dp2474
g100
g101
ssg82
g2463
sg75
(lp2475
S':'
asbag68
(g89
g70
NtRp2476
(dp2477
g73
(dp2478
sg82
g2463
sg75
(lp2479
g68
(g69
g70
NtRp2480
(dp2481
g73
(dp2482
g81
I3
ssg82
g2476
sg75
(lp2483
g1102
asbasbasbag68
(g84
g70
NtRp2484
(dp2485
g73
(dp2486
sg82
g2375
sg75
(lp2487
g68
(g89
g70
NtRp2488
(dp2489
g73
(dp2490
g93
g94
ssg82
g2484
sg75
(lp2491
S'HTTP_HOST'
p2492
asbag68
(g89
g70
NtRp2493
(dp2494
g73
(dp2495
g100
g101
ssg82
g2484
sg75
(lp2496
S':'
asbag68
(g89
g70
NtRp2497
(dp2498
g73
(dp2499
sg82
g2484
sg75
(lp2500
g68
(g69
g70
NtRp2501
(dp2502
g73
(dp2503
g81
I3
ssg82
g2497
sg75
(lp2504
g1124
asbasbasbag68
(g84
g70
NtRp2505
(dp2506
g73
(dp2507
sg82
g2375
sg75
(lp2508
g68
(g89
g70
NtRp2509
(dp2510
g73
(dp2511
g93
g94
ssg82
g2505
sg75
(lp2512
S'HTTP_REFERER'
p2513
asbag68
(g89
g70
NtRp2514
(dp2515
g73
(dp2516
g100
g101
ssg82
g2505
sg75
(lp2517
S':'
asbag68
(g89
g70
NtRp2518
(dp2519
g73
(dp2520
sg82
g2505
sg75
(lp2521
g68
(g69
g70
NtRp2522
(dp2523
g73
(dp2524
g81
I3
ssg82
g2518
sg75
(lp2525
g1146
asbasbasbag68
(g84
g70
NtRp2526
(dp2527
g73
(dp2528
sg82
g2375
sg75
(lp2529
g68
(g89
g70
NtRp2530
(dp2531
g73
(dp2532
g93
g94
ssg82
g2526
sg75
(lp2533
S'HTTP_USER_AGENT'
p2534
asbag68
(g89
g70
NtRp2535
(dp2536
g73
(dp2537
g100
g101
ssg82
g2526
sg75
(lp2538
S':'
asbag68
(g89
g70
NtRp2539
(dp2540
g73
(dp2541
sg82
g2526
sg75
(lp2542
g68
(g69
g70
NtRp2543
(dp2544
g73
(dp2545
g81
I3
ssg82
g2539
sg75
(lp2546
g1168
asbasbasbag68
(g84
g70
NtRp2547
(dp2548
g73
(dp2549
sg82
g2375
sg75
(lp2550
g68
(g89
g70
NtRp2551
(dp2552
g73
(dp2553
g93
g94
ssg82
g2547
sg75
(lp2554
S'PATH_INFO'
p2555
asbag68
(g89
g70
NtRp2556
(dp2557
g73
(dp2558
g100
g101
ssg82
g2547
sg75
(lp2559
S':'
asbag68
(g89
g70
NtRp2560
(dp2561
g73
(dp2562
sg82
g2547
sg75
(lp2563
g68
(g69
g70
NtRp2564
(dp2565
g73
(dp2566
g81
I3
ssg82
g2560
sg75
(lp2567
g1211
asbasbasbag68
(g84
g70
NtRp2568
(dp2569
g73
(dp2570
sg82
g2375
sg75
(lp2571
g68
(g89
g70
NtRp2572
(dp2573
g73
(dp2574
g93
g94
ssg82
g2568
sg75
(lp2575
S'QUERY_STRING'
p2576
asbag68
(g89
g70
NtRp2577
(dp2578
g73
(dp2579
g100
g101
ssg82
g2568
sg75
(lp2580
S':'
asbag68
(g89
g70
NtRp2581
(dp2582
g73
(dp2583
sg82
g2568
sg75
(lp2584
g68
(g69
g70
NtRp2585
(dp2586
g73
(dp2587
g81
I3
ssg82
g2581
sg75
(lp2588
S''
asbasbasbag68
(g84
g70
NtRp2589
(dp2590
g73
(dp2591
sg82
g2375
sg75
(lp2592
g68
(g89
g70
NtRp2593
(dp2594
g73
(dp2595
g93
g94
ssg82
g2589
sg75
(lp2596
S'REMOTE_ADDR'
p2597
asbag68
(g89
g70
NtRp2598
(dp2599
g73
(dp2600
g100
g101
ssg82
g2589
sg75
(lp2601
S':'
asbag68
(g89
g70
NtRp2602
(dp2603
g73
(dp2604
sg82
g2589
sg75
(lp2605
g68
(g69
g70
NtRp2606
(dp2607
g73
(dp2608
g81
I3
ssg82
g2602
sg75
(lp2609
g201
asbasbasbag68
(g84
g70
NtRp2610
(dp2611
g73
(dp2612
sg82
g2375
sg75
(lp2613
g68
(g89
g70
NtRp2614
(dp2615
g73
(dp2616
g93
g94
ssg82
g2610
sg75
(lp2617
S'REMOTE_PORT'
p2618
asbag68
(g89
g70
NtRp2619
(dp2620
g73
(dp2621
g100
g101
ssg82
g2610
sg75
(lp2622
S':'
asbag68
(g89
g70
NtRp2623
(dp2624
g73
(dp2625
sg82
g2610
sg75
(lp2626
g68
(g69
g70
NtRp2627
(dp2628
g73
(dp2629
g81
I3
ssg82
g2623
sg75
(lp2630
g1275
asbasbasbag68
(g84
g70
NtRp2631
(dp2632
g73
(dp2633
sg82
g2375
sg75
(lp2634
g68
(g89
g70
NtRp2635
(dp2636
g73
(dp2637
g93
g94
ssg82
g2631
sg75
(lp2638
S'REQUEST_METHOD'
p2639
asbag68
(g89
g70
NtRp2640
(dp2641
g73
(dp2642
g100
g101
ssg82
g2631
sg75
(lp2643
S':'
asbag68
(g89
g70
NtRp2644
(dp2645
g73
(dp2646
sg82
g2631
sg75
(lp2647
g68
(g69
g70
NtRp2648
(dp2649
g73
(dp2650
g81
I3
ssg82
g2644
sg75
(lp2651
g1297
asbasbasbag68
(g84
g70
NtRp2652
(dp2653
g73
(dp2654
sg82
g2375
sg75
(lp2655
g68
(g89
g70
NtRp2656
(dp2657
g73
(dp2658
g93
g94
ssg82
g2652
sg75
(lp2659
S'SCRIPT_NAME'
p2660
asbag68
(g89
g70
NtRp2661
(dp2662
g73
(dp2663
g100
g101
ssg82
g2652
sg75
(lp2664
S':'
asbag68
(g89
g70
NtRp2665
(dp2666
g73
(dp2667
sg82
g2652
sg75
(lp2668
g68
(g69
g70
NtRp2669
(dp2670
g73
(dp2671
g81
I3
ssg82
g2665
sg75
(lp2672
S''
asbasbasbag68
(g84
g70
NtRp2673
(dp2674
g73
(dp2675
sg82
g2375
sg75
(lp2676
g68
(g89
g70
NtRp2677
(dp2678
g73
(dp2679
g93
g94
ssg82
g2673
sg75
(lp2680
S'SERVER_NAME'
p2681
asbag68
(g89
g70
NtRp2682
(dp2683
g73
(dp2684
g100
g101
ssg82
g2673
sg75
(lp2685
S':'
asbag68
(g89
g70
NtRp2686
(dp2687
g73
(dp2688
sg82
g2673
sg75
(lp2689
g68
(g69
g70
NtRp2690
(dp2691
g73
(dp2692
g81
I3
ssg82
g2686
sg75
(lp2693
g1340
asbasbasbag68
(g84
g70
NtRp2694
(dp2695
g73
(dp2696
sg82
g2375
sg75
(lp2697
g68
(g89
g70
NtRp2698
(dp2699
g73
(dp2700
g93
g94
ssg82
g2694
sg75
(lp2701
S'SERVER_PORT'
p2702
asbag68
(g89
g70
NtRp2703
(dp2704
g73
(dp2705
g100
g101
ssg82
g2694
sg75
(lp2706
S':'
asbag68
(g89
g70
NtRp2707
(dp2708
g73
(dp2709
sg82
g2694
sg75
(lp2710
g68
(g69
g70
NtRp2711
(dp2712
g73
(dp2713
g81
I3
ssg82
g2707
sg75
(lp2714
g1362
asbasbasbag68
(g84
g70
NtRp2715
(dp2716
g73
(dp2717
sg82
g2375
sg75
(lp2718
g68
(g89
g70
NtRp2719
(dp2720
g73
(dp2721
g93
g94
ssg82
g2715
sg75
(lp2722
S'SERVER_PROTOCOL'
p2723
asbag68
(g89
g70
NtRp2724
(dp2725
g73
(dp2726
g100
g101
ssg82
g2715
sg75
(lp2727
S':'
asbag68
(g89
g70
NtRp2728
(dp2729
g73
(dp2730
sg82
g2715
sg75
(lp2731
g68
(g69
g70
NtRp2732
(dp2733
g73
(dp2734
g81
I3
ssg82
g2728
sg75
(lp2735
g1384
asbasbasbag68
(g84
g70
NtRp2736
(dp2737
g73
(dp2738
sg82
g2375
sg75
(lp2739
g68
(g89
g70
NtRp2740
(dp2741
g73
(dp2742
g93
g94
ssg82
g2736
sg75
(lp2743
S'SERVER_SOFTWARE'
p2744
asbag68
(g89
g70
NtRp2745
(dp2746
g73
(dp2747
g100
g101
ssg82
g2736
sg75
(lp2748
S':'
asbag68
(g89
g70
NtRp2749
(dp2750
g73
(dp2751
sg82
g2736
sg75
(lp2752
g68
(g69
g70
NtRp2753
(dp2754
g73
(dp2755
g81
I3
ssg82
g2749
sg75
(lp2756
g1406
asbasbasbag68
(g84
g70
NtRp2757
(dp2758
g73
(dp2759
sg82
g2375
sg75
(lp2760
g68
(g89
g70
NtRp2761
(dp2762
g73
(dp2763
g93
g94
ssg82
g2757
sg75
(lp2764
S'wsgi.errors'
p2765
asbag68
(g89
g70
NtRp2766
(dp2767
g73
(dp2768
g100
g101
ssg82
g2757
sg75
(lp2769
S':'
asbag68
(g89
g70
NtRp2770
(dp2771
g73
(dp2772
sg82
g2757
sg75
(lp2773
g68
(g69
g70
NtRp2774
(dp2775
g73
(dp2776
g81
I3
ssg82
g2770
sg75
(lp2777
S"<open file '<stderr>', mode 'w' at 0x7f84db3ff270>"
p2778
asbasbasbag68
(g84
g70
NtRp2779
(dp2780
g73
(dp2781
sg82
g2375
sg75
(lp2782
g68
(g89
g70
NtRp2783
(dp2784
g73
(dp2785
g93
g94
ssg82
g2779
sg75
(lp2786
S'wsgi.file_wrapper'
p2787
asbag68
(g89
g70
NtRp2788
(dp2789
g73
(dp2790
g100
g101
ssg82
g2779
sg75
(lp2791
S':'
asbag68
(g89
g70
NtRp2792
(dp2793
g73
(dp2794
sg82
g2779
sg75
(lp2795
g68
(g69
g70
NtRp2796
(dp2797
g73
(dp2798
g81
I3
ssg82
g2792
sg75
(lp2799
S'<class wsgiref.util.FileWrapper at 0x1b96d50>'
p2800
asbasbasbag68
(g84
g70
NtRp2801
(dp2802
g73
(dp2803
sg82
g2375
sg75
(lp2804
g68
(g89
g70
NtRp2805
(dp2806
g73
(dp2807
g93
g94
ssg82
g2801
sg75
(lp2808
S'wsgi.input'
p2809
asbag68
(g89
g70
NtRp2810
(dp2811
g73
(dp2812
g100
g101
ssg82
g2801
sg75
(lp2813
S':'
asbag68
(g89
g70
NtRp2814
(dp2815
g73
(dp2816
sg82
g2801
sg75
(lp2817
g68
(g69
g70
NtRp2818
(dp2819
g73
(dp2820
g81
I3
ssg82
g2814
sg75
(lp2821
S'<cStringIO.StringO object at 0x38c1730>'
p2822
asbasbasbag68
(g84
g70
NtRp2823
(dp2824
g73
(dp2825
sg82
g2375
sg75
(lp2826
g68
(g89
g70
NtRp2827
(dp2828
g73
(dp2829
g93
g94
ssg82
g2823
sg75
(lp2830
S'wsgi.multiprocess'
p2831
asbag68
(g89
g70
NtRp2832
(dp2833
g73
(dp2834
g100
g101
ssg82
g2823
sg75
(lp2835
S':'
asbag68
(g89
g70
NtRp2836
(dp2837
g73
(dp2838
sg82
g2823
sg75
(lp2839
g68
(g69
g70
NtRp2840
(dp2841
g73
(dp2842
g81
I3
ssg82
g2836
sg75
(lp2843
g111
asbasbasbag68
(g84
g70
NtRp2844
(dp2845
g73
(dp2846
sg82
g2375
sg75
(lp2847
g68
(g89
g70
NtRp2848
(dp2849
g73
(dp2850
g93
g94
ssg82
g2844
sg75
(lp2851
S'wsgi.multithread'
p2852
asbag68
(g89
g70
NtRp2853
(dp2854
g73
(dp2855
g100
g101
ssg82
g2844
sg75
(lp2856
S':'
asbag68
(g89
g70
NtRp2857
(dp2858
g73
(dp2859
sg82
g2844
sg75
(lp2860
g68
(g69
g70
NtRp2861
(dp2862
g73
(dp2863
g81
I3
ssg82
g2857
sg75
(lp2864
g1646
asbasbasbag68
(g84
g70
NtRp2865
(dp2866
g73
(dp2867
sg82
g2375
sg75
(lp2868
g68
(g89
g70
NtRp2869
(dp2870
g73
(dp2871
g93
g94
ssg82
g2865
sg75
(lp2872
S'wsgi.run_once'
p2873
asbag68
(g89
g70
NtRp2874
(dp2875
g73
(dp2876
g100
g101
ssg82
g2865
sg75
(lp2877
S':'
asbag68
(g89
g70
NtRp2878
(dp2879
g73
(dp2880
sg82
g2865
sg75
(lp2881
g68
(g69
g70
NtRp2882
(dp2883
g73
(dp2884
g81
I3
ssg82
g2878
sg75
(lp2885
g111
asbasbasbag68
(g84
g70
NtRp2886
(dp2887
g73
(dp2888
sg82
g2375
sg75
(lp2889
g68
(g89
g70
NtRp2890
(dp2891
g73
(dp2892
g93
g94
ssg82
g2886
sg75
(lp2893
S'wsgi.url_scheme'
p2894
asbag68
(g89
g70
NtRp2895
(dp2896
g73
(dp2897
g100
g101
ssg82
g2886
sg75
(lp2898
S':'
asbag68
(g89
g70
NtRp2899
(dp2900
g73
(dp2901
sg82
g2886
sg75
(lp2902
g68
(g69
g70
NtRp2903
(dp2904
g73
(dp2905
g81
I3
ssg82
g2899
sg75
(lp2906
g1689
asbasbasbag68
(g84
g70
NtRp2907
(dp2908
g73
(dp2909
sg82
g2375
sg75
(lp2910
g68
(g89
g70
NtRp2911
(dp2912
g73
(dp2913
g93
g94
ssg82
g2907
sg75
(lp2914
S'wsgi.version'
p2915
asbag68
(g89
g70
NtRp2916
(dp2917
g73
(dp2918
g100
g101
ssg82
g2907
sg75
(lp2919
S':'
asbag68
(g89
g70
NtRp2920
(dp2921
g73
(dp2922
sg82
g2907
sg75
(lp2923
g68
(g69
g70
NtRp2924
(dp2925
g73
(dp2926
g81
I3
ssg82
g2920
sg75
(lp2927
S'1'
asbasbasbasbasbasbasbasbasbasbasbasbasbsS'frames'
p2928
(lp2929
(dp2930
S'file'
p2931
S'/home/jose/DESARROLLO/web2py199/gluon/restricted.py'
p2932
sS'dump'
p2933
(dp2934
S'code'
p2935
S"'# -*- coding: utf-8 -*-\\n# this file is released ...=crud())\\n\\nresponse._vars=response._caller(index)\\n'"
p2936
sS'layer'
p2937
S"'/home/jose/DESARROLLO/web2py199/applications/streamlog/controllers/default.py'"
p2938
sS'global compile2'
p2939
S'<function compile2>'
p2940
sS'ccode'
p2941
S'undefined'
p2942
ssS'lnum'
p2943
I193
sS'lines'
p2944
(dp2945
I192
S'        else:'
p2946
sI193
S'            ccode = compile2(code,layer)'
p2947
sI194
S'        exec ccode in environment'
p2948
sI195
S'    except HTTP:'
p2949
sI196
S'        raise'
p2950
sI197
S'    except Exception, error:'
p2951
sI188
S"    environment['__file__'] = layer"
p2952
sI189
S'    try:'
p2953
sI190
S'        if type(code) == types.CodeType:'
p2954
sI191
S'            ccode = code'
p2955
ssS'call'
p2956
S"(code='# -*- coding: utf-8 -*-\\n# this file is released ...=crud())\\n\\nresponse._vars=response._caller(index)\\n', environment={'A': <class 'gluon.html.A'>, 'Auth': <class 'gluon.tools.Auth'>, 'B': <class 'gluon.html.B'>, 'BEAUTIFY': <class 'gluon.html.BEAUTIFY'>, 'BODY': <class 'gluon.html.BODY'>, 'BR': <class 'gluon.html.BR'>, 'BUTTON': <class 'gluon.html.BUTTON'>, 'CAT': <class 'gluon.html.CAT'>, 'CENTER': <class 'gluon.html.CENTER'>, 'CLEANUP': <class 'gluon.validators.CLEANUP'>, ...}, layer='/home/jose/DESARROLLO/web2py199/applications/streamlog/controllers/default.py')"
p2957
sS'func'
p2958
S'restricted'
p2959
sa(dp2960
g2931
S'/home/jose/DESARROLLO/web2py199/gluon/restricted.py'
p2961
sg2933
(dp2962
S'builtincompile'
p2963
S'<built-in function compile>'
p2964
sS'code'
p2965
S"'# -*- coding: utf-8 -*-\\n# this file is released ...=crud())\\n\\nresponse._vars=response._caller(index)\\n'"
p2966
sS'code.rstrip'
p2967
S'<built-in method rstrip of str object>'
p2968
sS').replace'
p2969
g2942
sS'layer'
p2970
S"'/home/jose/DESARROLLO/web2py199/applications/streamlog/controllers/default.py'"
p2971
ssg2943
I179
sg2944
(dp2972
I174
S''
sI175
S'def compile2(code,layer):'
p2973
sI176
S'    """'
p2974
sI177
S"    The +'\\n' is necessary else compile fails when code ends in a comment."
p2975
sI178
S'    """'
p2976
sI179
S"    return compile(code.rstrip().replace('\\r\\n','\\n')+'\\n', layer, 'exec')"
p2977
sI180
S''
sI181
S"def restricted(code, environment=None, layer='Unknown'):"
p2978
sI182
S'    """'
p2979
sI183
S'    runs code in environment and returns the output. if an exception occurs'
p2980
ssg2956
S"(code='# -*- coding: utf-8 -*-\\n# this file is released ...=crud())\\n\\nresponse._vars=response._caller(index)\\n', layer='/home/jose/DESARROLLO/web2py199/applications/streamlog/controllers/default.py')"
p2981
sg2958
S'compile2'
p2982
sasS'pyver'
p2983
S'Python 2.7.2+: /usr/bin/python'
p2984
sS'session'
p2985
g68
(g69
g70
NtRp2986
(dp2987
g73
(dp2988
sg75
(lp2989
g68
(g77
g70
NtRp2990
(dp2991
g73
(dp2992
g81
I5
ssg82
Nsg75
(lp2993
g68
(g84
g70
NtRp2994
(dp2995
g73
(dp2996
sg82
g2990
sg75
(lp2997
g68
(g89
g70
NtRp2998
(dp2999
g73
(dp3000
g93
g94
ssg82
g2994
sg75
(lp3001
S'last_query'
p3002
asbag68
(g89
g70
NtRp3003
(dp3004
g73
(dp3005
g100
g101
ssg82
g2994
sg75
(lp3006
S':'
asbag68
(g89
g70
NtRp3007
(dp3008
g73
(dp3009
sg82
g2994
sg75
(lp3010
g68
(g69
g70
NtRp3011
(dp3012
g73
(dp3013
g81
I5
ssg82
g3007
sg75
(lp3014
S'((db.t_project.user==me)&(db.t_server.project==db.t_project.id)&(db.t_log.server==db.t_server.id))'
p3015
asbasbasbasbasbsS'etype'
p3016
S"<type 'exceptions.SyntaxError'>"
p3017
sS'date'
p3018
S'Sat May 26 18:38:05 2012'
p3019
sS'response'
p3020
g68
(g69
g70
NtRp3021
(dp3022
g73
(dp3023
sg75
(lp3024
g68
(g77
g70
NtRp3025
(dp3026
g73
(dp3027
g81
I5
ssg82
Nsg75
(lp3028
g68
(g84
g70
NtRp3029
(dp3030
g73
(dp3031
sg82
g3025
sg75
(lp3032
g68
(g89
g70
NtRp3033
(dp3034
g73
(dp3035
g93
g94
ssg82
g3029
sg75
(lp3036
g166
asbag68
(g89
g70
NtRp3037
(dp3038
g73
(dp3039
g100
g101
ssg82
g3029
sg75
(lp3040
S':'
asbag68
(g89
g70
NtRp3041
(dp3042
g73
(dp3043
sg82
g3029
sg75
(lp3044
g68
(g69
g70
NtRp3045
(dp3046
g73
(dp3047
g81
I5
ssg82
g3041
sg75
(lp3048
S'<cStringIO.StringO object at 0x3490110>'
p3049
asbasbasbag68
(g84
g70
NtRp3050
(dp3051
g73
(dp3052
sg82
g3025
sg75
(lp3053
g68
(g89
g70
NtRp3054
(dp3055
g73
(dp3056
g93
g94
ssg82
g3050
sg75
(lp3057
g232
asbag68
(g89
g70
NtRp3058
(dp3059
g73
(dp3060
g100
g101
ssg82
g3050
sg75
(lp3061
S':'
asbag68
(g89
g70
NtRp3062
(dp3063
g73
(dp3064
sg82
g3050
sg75
(lp3065
g68
(g69
g70
NtRp3066
(dp3067
g73
(dp3068
g81
I5
ssg82
g3062
sg75
(lp3069
g68
(g77
g70
NtRp3070
(dp3071
g73
(dp3072
g81
I4
ssg82
Nsg75
(lp3073
g68
(g84
g70
NtRp3074
(dp3075
g73
(dp3076
sg82
g3070
sg75
(lp3077
g68
(g89
g70
NtRp3078
(dp3079
g73
(dp3080
g93
g94
ssg82
g3074
sg75
(lp3081
S'session_id_streamlog'
p3082
asbag68
(g89
g70
NtRp3083
(dp3084
g73
(dp3085
g100
g101
ssg82
g3074
sg75
(lp3086
S':'
asbag68
(g89
g70
NtRp3087
(dp3088
g73
(dp3089
sg82
g3074
sg75
(lp3090
g68
(g69
g70
NtRp3091
(dp3092
g73
(dp3093
g81
I4
ssg82
g3087
sg75
(lp3094
g68
(g77
g70
NtRp3095
(dp3096
g73
(dp3097
g81
I3
ssg82
Nsg75
(lp3098
g68
(g84
g70
NtRp3099
(dp3100
g73
(dp3101
sg82
g3095
sg75
(lp3102
g68
(g89
g70
NtRp3103
(dp3104
g73
(dp3105
g93
g94
ssg82
g3099
sg75
(lp3106
g282
asbag68
(g89
g70
NtRp3107
(dp3108
g73
(dp3109
g100
g101
ssg82
g3099
sg75
(lp3110
S':'
asbag68
(g89
g70
NtRp3111
(dp3112
g73
(dp3113
sg82
g3099
sg75
(lp3114
g68
(g69
g70
NtRp3115
(dp3116
g73
(dp3117
g81
I3
ssg82
g3111
sg75
(lp3118
S''
asbasbasbag68
(g84
g70
NtRp3119
(dp3120
g73
(dp3121
sg82
g3095
sg75
(lp3122
g68
(g89
g70
NtRp3123
(dp3124
g73
(dp3125
g93
g94
ssg82
g3119
sg75
(lp3126
g303
asbag68
(g89
g70
NtRp3127
(dp3128
g73
(dp3129
g100
g101
ssg82
g3119
sg75
(lp3130
S':'
asbag68
(g89
g70
NtRp3131
(dp3132
g73
(dp3133
sg82
g3119
sg75
(lp3134
g68
(g69
g70
NtRp3135
(dp3136
g73
(dp3137
g81
I3
ssg82
g3131
sg75
(lp3138
S''
asbasbasbag68
(g84
g70
NtRp3139
(dp3140
g73
(dp3141
sg82
g3095
sg75
(lp3142
g68
(g89
g70
NtRp3143
(dp3144
g73
(dp3145
g93
g94
ssg82
g3139
sg75
(lp3146
g324
asbag68
(g89
g70
NtRp3147
(dp3148
g73
(dp3149
g100
g101
ssg82
g3139
sg75
(lp3150
S':'
asbag68
(g89
g70
NtRp3151
(dp3152
g73
(dp3153
sg82
g3139
sg75
(lp3154
g68
(g69
g70
NtRp3155
(dp3156
g73
(dp3157
g81
I3
ssg82
g3151
sg75
(lp3158
S''
asbasbasbag68
(g84
g70
NtRp3159
(dp3160
g73
(dp3161
sg82
g3095
sg75
(lp3162
g68
(g89
g70
NtRp3163
(dp3164
g73
(dp3165
g93
g94
ssg82
g3159
sg75
(lp3166
g345
asbag68
(g89
g70
NtRp3167
(dp3168
g73
(dp3169
g100
g101
ssg82
g3159
sg75
(lp3170
S':'
asbag68
(g89
g70
NtRp3171
(dp3172
g73
(dp3173
sg82
g3159
sg75
(lp3174
g68
(g69
g70
NtRp3175
(dp3176
g73
(dp3177
g81
I3
ssg82
g3171
sg75
(lp3178
S''
asbasbasbag68
(g84
g70
NtRp3179
(dp3180
g73
(dp3181
sg82
g3095
sg75
(lp3182
g68
(g89
g70
NtRp3183
(dp3184
g73
(dp3185
g93
g94
ssg82
g3179
sg75
(lp3186
g366
asbag68
(g89
g70
NtRp3187
(dp3188
g73
(dp3189
g100
g101
ssg82
g3179
sg75
(lp3190
S':'
asbag68
(g89
g70
NtRp3191
(dp3192
g73
(dp3193
sg82
g3179
sg75
(lp3194
g68
(g69
g70
NtRp3195
(dp3196
g73
(dp3197
g81
I3
ssg82
g3191
sg75
(lp3198
S''
asbasbasbag68
(g84
g70
NtRp3199
(dp3200
g73
(dp3201
sg82
g3095
sg75
(lp3202
g68
(g89
g70
NtRp3203
(dp3204
g73
(dp3205
g93
g94
ssg82
g3199
sg75
(lp3206
g387
asbag68
(g89
g70
NtRp3207
(dp3208
g73
(dp3209
g100
g101
ssg82
g3199
sg75
(lp3210
S':'
asbag68
(g89
g70
NtRp3211
(dp3212
g73
(dp3213
sg82
g3199
sg75
(lp3214
g68
(g69
g70
NtRp3215
(dp3216
g73
(dp3217
g81
I3
ssg82
g3211
sg75
(lp3218
S'/'
asbasbasbag68
(g84
g70
NtRp3219
(dp3220
g73
(dp3221
sg82
g3095
sg75
(lp3222
g68
(g89
g70
NtRp3223
(dp3224
g73
(dp3225
g93
g94
ssg82
g3219
sg75
(lp3226
g408
asbag68
(g89
g70
NtRp3227
(dp3228
g73
(dp3229
g100
g101
ssg82
g3219
sg75
(lp3230
S':'
asbag68
(g89
g70
NtRp3231
(dp3232
g73
(dp3233
sg82
g3219
sg75
(lp3234
g68
(g69
g70
NtRp3235
(dp3236
g73
(dp3237
g81
I3
ssg82
g3231
sg75
(lp3238
S''
asbasbasbag68
(g84
g70
NtRp3239
(dp3240
g73
(dp3241
sg82
g3095
sg75
(lp3242
g68
(g89
g70
NtRp3243
(dp3244
g73
(dp3245
g93
g94
ssg82
g3239
sg75
(lp3246
g429
asbag68
(g89
g70
NtRp3247
(dp3248
g73
(dp3249
g100
g101
ssg82
g3239
sg75
(lp3250
S':'
asbag68
(g89
g70
NtRp3251
(dp3252
g73
(dp3253
sg82
g3239
sg75
(lp3254
g68
(g69
g70
NtRp3255
(dp3256
g73
(dp3257
g81
I3
ssg82
g3251
sg75
(lp3258
S''
asbasbasbasbasbasbasbasbasbasbasbag68
(g84
g70
NtRp3259
(dp3260
g73
(dp3261
sg82
g3025
sg75
(lp3262
g68
(g89
g70
NtRp3263
(dp3264
g73
(dp3265
g93
g94
ssg82
g3259
sg75
(lp3266
S'files'
p3267
asbag68
(g89
g70
NtRp3268
(dp3269
g73
(dp3270
g100
g101
ssg82
g3259
sg75
(lp3271
S':'
asbag68
(g89
g70
NtRp3272
(dp3273
g73
(dp3274
sg82
g3259
sg75
(lp3275
g68
(g69
g70
NtRp3276
(dp3277
g73
(dp3278
g81
I5
ssg82
g3272
sg75
(lp3279
g68
(g77
g70
NtRp3280
(dp3281
g73
(dp3282
g81
I4
ssg82
Nsg75
(lp3283
sbasbasbasbag68
(g84
g70
NtRp3284
(dp3285
g73
(dp3286
sg82
g3025
sg75
(lp3287
g68
(g89
g70
NtRp3288
(dp3289
g73
(dp3290
g93
g94
ssg82
g3284
sg75
(lp3291
S'flash'
p3292
asbag68
(g89
g70
NtRp3293
(dp3294
g73
(dp3295
g100
g101
ssg82
g3284
sg75
(lp3296
S':'
asbag68
(g89
g70
NtRp3297
(dp3298
g73
(dp3299
sg82
g3284
sg75
(lp3300
g68
(g69
g70
NtRp3301
(dp3302
g73
(dp3303
g81
I5
ssg82
g3297
sg75
(lp3304
S''
asbasbasbag68
(g84
g70
NtRp3305
(dp3306
g73
(dp3307
sg82
g3025
sg75
(lp3308
g68
(g89
g70
NtRp3309
(dp3310
g73
(dp3311
g93
g94
ssg82
g3305
sg75
(lp3312
S'generic_patterns'
p3313
asbag68
(g89
g70
NtRp3314
(dp3315
g73
(dp3316
g100
g101
ssg82
g3305
sg75
(lp3317
S':'
asbag68
(g89
g70
NtRp3318
(dp3319
g73
(dp3320
sg82
g3305
sg75
(lp3321
g68
(g69
g70
NtRp3322
(dp3323
g73
(dp3324
g81
I5
ssg82
g3318
sg75
(lp3325
g68
(g77
g70
NtRp3326
(dp3327
g73
(dp3328
g81
I4
ssg82
Nsg75
(lp3329
g68
(g84
g70
NtRp3330
(dp3331
g73
(dp3332
sg82
g3326
sg75
(lp3333
g68
(g89
g70
NtRp3334
(dp3335
g73
(dp3336
sg82
g3330
sg75
(lp3337
g68
(g69
g70
NtRp3338
(dp3339
g73
(dp3340
g81
I4
ssg82
g3334
sg75
(lp3341
S'*'
asbasbasbasbasbasbasbag68
(g84
g70
NtRp3342
(dp3343
g73
(dp3344
sg82
g3025
sg75
(lp3345
g68
(g89
g70
NtRp3346
(dp3347
g73
(dp3348
g93
g94
ssg82
g3342
sg75
(lp3349
S'headers'
p3350
asbag68
(g89
g70
NtRp3351
(dp3352
g73
(dp3353
g100
g101
ssg82
g3342
sg75
(lp3354
S':'
asbag68
(g89
g70
NtRp3355
(dp3356
g73
(dp3357
sg82
g3342
sg75
(lp3358
g68
(g69
g70
NtRp3359
(dp3360
g73
(dp3361
g81
I5
ssg82
g3355
sg75
(lp3362
g68
(g77
g70
NtRp3363
(dp3364
g73
(dp3365
g81
I4
ssg82
Nsg75
(lp3366
g68
(g84
g70
NtRp3367
(dp3368
g73
(dp3369
sg82
g3363
sg75
(lp3370
g68
(g89
g70
NtRp3371
(dp3372
g73
(dp3373
g93
g94
ssg82
g3367
sg75
(lp3374
S'Cache-Control'
p3375
asbag68
(g89
g70
NtRp3376
(dp3377
g73
(dp3378
g100
g101
ssg82
g3367
sg75
(lp3379
S':'
asbag68
(g89
g70
NtRp3380
(dp3381
g73
(dp3382
sg82
g3367
sg75
(lp3383
g68
(g69
g70
NtRp3384
(dp3385
g73
(dp3386
g81
I4
ssg82
g3380
sg75
(lp3387
S'no-store, no-cache, must-revalidate, post-check=0, pre-check=0'
p3388
asbasbasbag68
(g84
g70
NtRp3389
(dp3390
g73
(dp3391
sg82
g3363
sg75
(lp3392
g68
(g89
g70
NtRp3393
(dp3394
g73
(dp3395
g93
g94
ssg82
g3389
sg75
(lp3396
S'Content-Type'
p3397
asbag68
(g89
g70
NtRp3398
(dp3399
g73
(dp3400
g100
g101
ssg82
g3389
sg75
(lp3401
S':'
asbag68
(g89
g70
NtRp3402
(dp3403
g73
(dp3404
sg82
g3389
sg75
(lp3405
g68
(g69
g70
NtRp3406
(dp3407
g73
(dp3408
g81
I4
ssg82
g3402
sg75
(lp3409
S'text/html; charset=utf-8'
p3410
asbasbasbag68
(g84
g70
NtRp3411
(dp3412
g73
(dp3413
sg82
g3363
sg75
(lp3414
g68
(g89
g70
NtRp3415
(dp3416
g73
(dp3417
g93
g94
ssg82
g3411
sg75
(lp3418
S'Expires'
p3419
asbag68
(g89
g70
NtRp3420
(dp3421
g73
(dp3422
g100
g101
ssg82
g3411
sg75
(lp3423
S':'
asbag68
(g89
g70
NtRp3424
(dp3425
g73
(dp3426
sg82
g3411
sg75
(lp3427
g68
(g69
g70
NtRp3428
(dp3429
g73
(dp3430
g81
I4
ssg82
g3424
sg75
(lp3431
S'Sat, 26 May 2012 11:38:05 GMT'
p3432
asbasbasbag68
(g84
g70
NtRp3433
(dp3434
g73
(dp3435
sg82
g3363
sg75
(lp3436
g68
(g89
g70
NtRp3437
(dp3438
g73
(dp3439
g93
g94
ssg82
g3433
sg75
(lp3440
S'Pragma'
p3441
asbag68
(g89
g70
NtRp3442
(dp3443
g73
(dp3444
g100
g101
ssg82
g3433
sg75
(lp3445
S':'
asbag68
(g89
g70
NtRp3446
(dp3447
g73
(dp3448
sg82
g3433
sg75
(lp3449
g68
(g69
g70
NtRp3450
(dp3451
g73
(dp3452
g81
I4
ssg82
g3446
sg75
(lp3453
S'no-cache'
p3454
asbasbasbag68
(g84
g70
NtRp3455
(dp3456
g73
(dp3457
sg82
g3363
sg75
(lp3458
g68
(g89
g70
NtRp3459
(dp3460
g73
(dp3461
g93
g94
ssg82
g3455
sg75
(lp3462
S'X-Powered-By'
p3463
asbag68
(g89
g70
NtRp3464
(dp3465
g73
(dp3466
g100
g101
ssg82
g3455
sg75
(lp3467
S':'
asbag68
(g89
g70
NtRp3468
(dp3469
g73
(dp3470
sg82
g3455
sg75
(lp3471
g68
(g69
g70
NtRp3472
(dp3473
g73
(dp3474
g81
I4
ssg82
g3468
sg75
(lp3475
S'web2py'
p3476
asbasbasbasbasbasbasbag68
(g84
g70
NtRp3477
(dp3478
g73
(dp3479
sg82
g3025
sg75
(lp3480
g68
(g89
g70
NtRp3481
(dp3482
g73
(dp3483
g93
g94
ssg82
g3477
sg75
(lp3484
S'menu'
p3485
asbag68
(g89
g70
NtRp3486
(dp3487
g73
(dp3488
g100
g101
ssg82
g3477
sg75
(lp3489
S':'
asbag68
(g89
g70
NtRp3490
(dp3491
g73
(dp3492
sg82
g3477
sg75
(lp3493
g68
(g69
g70
NtRp3494
(dp3495
g73
(dp3496
g81
I5
ssg82
g3490
sg75
(lp3497
g68
(g77
g70
NtRp3498
(dp3499
g73
(dp3500
g81
I4
ssg82
Nsg75
(lp3501
g68
(g84
g70
NtRp3502
(dp3503
g73
(dp3504
sg82
g3498
sg75
(lp3505
g68
(g89
g70
NtRp3506
(dp3507
g73
(dp3508
sg82
g3502
sg75
(lp3509
g68
(g69
g70
NtRp3510
(dp3511
g73
(dp3512
g81
I4
ssg82
g3506
sg75
(lp3513
g68
(g77
g70
NtRp3514
(dp3515
g73
(dp3516
g81
I3
ssg82
Nsg75
(lp3517
g68
(g84
g70
NtRp3518
(dp3519
g73
(dp3520
sg82
g3514
sg75
(lp3521
g68
(g89
g70
NtRp3522
(dp3523
g73
(dp3524
sg82
g3518
sg75
(lp3525
g68
(g69
g70
NtRp3526
(dp3527
g73
(dp3528
g81
I3
ssg82
g3522
sg75
(lp3529
cgluon.languages
lazyT_unpickle
p3530
(S's\n\x00\x00\x00Clear Page'
tRp3531
asbasbasbag68
(g84
g70
NtRp3532
(dp3533
g73
(dp3534
sg82
g3514
sg75
(lp3535
g68
(g89
g70
NtRp3536
(dp3537
g73
(dp3538
sg82
g3532
sg75
(lp3539
g68
(g69
g70
NtRp3540
(dp3541
g73
(dp3542
g81
I3
ssg82
g3536
sg75
(lp3543
g111
asbasbasbag68
(g84
g70
NtRp3544
(dp3545
g73
(dp3546
sg82
g3514
sg75
(lp3547
g68
(g89
g70
NtRp3548
(dp3549
g73
(dp3550
sg82
g3544
sg75
(lp3551
g68
(g69
g70
NtRp3552
(dp3553
g73
(dp3554
g81
I3
ssg82
g3548
sg75
(lp3555
S'/streamlog/default/index'
p3556
asbasbasbag68
(g84
g70
NtRp3557
(dp3558
g73
(dp3559
sg82
g3514
sg75
(lp3560
g68
(g89
g70
NtRp3561
(dp3562
g73
(dp3563
sg82
g3557
sg75
(lp3564
g68
(g69
g70
NtRp3565
(dp3566
g73
(dp3567
g81
I3
ssg82
g3561
sg75
(lp3568
g68
(g77
g70
NtRp3569
(dp3570
g73
(dp3571
g81
I2
ssg82
Nsg75
(lp3572
sbasbasbasbasbasbasbasbag68
(g84
g70
NtRp3573
(dp3574
g73
(dp3575
sg82
g3498
sg75
(lp3576
g68
(g89
g70
NtRp3577
(dp3578
g73
(dp3579
sg82
g3573
sg75
(lp3580
g68
(g69
g70
NtRp3581
(dp3582
g73
(dp3583
g81
I4
ssg82
g3577
sg75
(lp3584
g68
(g77
g70
NtRp3585
(dp3586
g73
(dp3587
g81
I3
ssg82
Nsg75
(lp3588
g68
(g84
g70
NtRp3589
(dp3590
g73
(dp3591
sg82
g3585
sg75
(lp3592
g68
(g89
g70
NtRp3593
(dp3594
g73
(dp3595
sg82
g3589
sg75
(lp3596
g68
(g69
g70
NtRp3597
(dp3598
g73
(dp3599
g81
I3
ssg82
g3593
sg75
(lp3600
g3530
(S't\x06\x00\x00\x00Manage'
tRp3601
asbasbasbag68
(g84
g70
NtRp3602
(dp3603
g73
(dp3604
sg82
g3585
sg75
(lp3605
g68
(g89
g70
NtRp3606
(dp3607
g73
(dp3608
sg82
g3602
sg75
(lp3609
g68
(g69
g70
NtRp3610
(dp3611
g73
(dp3612
g81
I3
ssg82
g3606
sg75
(lp3613
g111
asbasbasbag68
(g84
g70
NtRp3614
(dp3615
g73
(dp3616
sg82
g3585
sg75
(lp3617
g68
(g89
g70
NtRp3618
(dp3619
g73
(dp3620
sg82
g3614
sg75
(lp3621
g68
(g69
g70
NtRp3622
(dp3623
g73
(dp3624
g81
I3
ssg82
g3618
sg75
(lp3625
S'None'
p3626
asbasbasbag68
(g84
g70
NtRp3627
(dp3628
g73
(dp3629
sg82
g3585
sg75
(lp3630
g68
(g89
g70
NtRp3631
(dp3632
g73
(dp3633
sg82
g3627
sg75
(lp3634
g68
(g69
g70
NtRp3635
(dp3636
g73
(dp3637
g81
I3
ssg82
g3631
sg75
(lp3638
g68
(g77
g70
NtRp3639
(dp3640
g73
(dp3641
g81
I2
ssg82
Nsg75
(lp3642
g68
(g84
g70
NtRp3643
(dp3644
g73
(dp3645
sg82
g3639
sg75
(lp3646
g68
(g89
g70
NtRp3647
(dp3648
g73
(dp3649
sg82
g3643
sg75
(lp3650
g68
(g69
g70
NtRp3651
(dp3652
g73
(dp3653
g81
I2
ssg82
g3647
sg75
(lp3654
g68
(g77
g70
NtRp3655
(dp3656
g73
(dp3657
g81
I1
ssg82
Nsg75
(lp3658
g68
(g84
g70
NtRp3659
(dp3660
g73
(dp3661
sg82
g3655
sg75
(lp3662
g68
(g89
g70
NtRp3663
(dp3664
g73
(dp3665
sg82
g3659
sg75
(lp3666
g68
(g69
g70
NtRp3667
(dp3668
g73
(dp3669
g81
I1
ssg82
g3663
sg75
(lp3670
g3530
(S't\x04\x00\x00\x00Logs'
tRp3671
asbasbasbag68
(g84
g70
NtRp3672
(dp3673
g73
(dp3674
sg82
g3655
sg75
(lp3675
g68
(g89
g70
NtRp3676
(dp3677
g73
(dp3678
sg82
g3672
sg75
(lp3679
g68
(g69
g70
NtRp3680
(dp3681
g73
(dp3682
g81
I1
ssg82
g3676
sg75
(lp3683
I00
asbasbasbag68
(g84
g70
NtRp3684
(dp3685
g73
(dp3686
sg82
g3655
sg75
(lp3687
g68
(g89
g70
NtRp3688
(dp3689
g73
(dp3690
sg82
g3684
sg75
(lp3691
g68
(g69
g70
NtRp3692
(dp3693
g73
(dp3694
g81
I1
ssg82
g3688
sg75
(lp3695
S'/streamlog/default/log_manage'
p3696
asbasbasbag68
(g84
g70
NtRp3697
(dp3698
g73
(dp3699
sg82
g3655
sg75
(lp3700
g68
(g89
g70
NtRp3701
(dp3702
g73
(dp3703
sg82
g3697
sg75
(lp3704
g68
(g69
g70
NtRp3705
(dp3706
g73
(dp3707
g81
I1
ssg82
g3701
sg75
(lp3708
(lp3709
asbasbasbasbasbasbasbag68
(g84
g70
NtRp3710
(dp3711
g73
(dp3712
sg82
g3639
sg75
(lp3713
g68
(g89
g70
NtRp3714
(dp3715
g73
(dp3716
sg82
g3710
sg75
(lp3717
g68
(g69
g70
NtRp3718
(dp3719
g73
(dp3720
g81
I2
ssg82
g3714
sg75
(lp3721
g68
(g77
g70
NtRp3722
(dp3723
g73
(dp3724
g81
I1
ssg82
Nsg75
(lp3725
g68
(g84
g70
NtRp3726
(dp3727
g73
(dp3728
sg82
g3722
sg75
(lp3729
g68
(g89
g70
NtRp3730
(dp3731
g73
(dp3732
sg82
g3726
sg75
(lp3733
g68
(g69
g70
NtRp3734
(dp3735
g73
(dp3736
g81
I1
ssg82
g3730
sg75
(lp3737
g3530
(S't\x07\x00\x00\x00Servers'
tRp3738
asbasbasbag68
(g84
g70
NtRp3739
(dp3740
g73
(dp3741
sg82
g3722
sg75
(lp3742
g68
(g89
g70
NtRp3743
(dp3744
g73
(dp3745
sg82
g3739
sg75
(lp3746
g68
(g69
g70
NtRp3747
(dp3748
g73
(dp3749
g81
I1
ssg82
g3743
sg75
(lp3750
I00
asbasbasbag68
(g84
g70
NtRp3751
(dp3752
g73
(dp3753
sg82
g3722
sg75
(lp3754
g68
(g89
g70
NtRp3755
(dp3756
g73
(dp3757
sg82
g3751
sg75
(lp3758
g68
(g69
g70
NtRp3759
(dp3760
g73
(dp3761
g81
I1
ssg82
g3755
sg75
(lp3762
S'/streamlog/default/server_manage'
p3763
asbasbasbag68
(g84
g70
NtRp3764
(dp3765
g73
(dp3766
sg82
g3722
sg75
(lp3767
g68
(g89
g70
NtRp3768
(dp3769
g73
(dp3770
sg82
g3764
sg75
(lp3771
g68
(g69
g70
NtRp3772
(dp3773
g73
(dp3774
g81
I1
ssg82
g3768
sg75
(lp3775
(lp3776
asbasbasbasbasbasbasbag68
(g84
g70
NtRp3777
(dp3778
g73
(dp3779
sg82
g3639
sg75
(lp3780
g68
(g89
g70
NtRp3781
(dp3782
g73
(dp3783
sg82
g3777
sg75
(lp3784
g68
(g69
g70
NtRp3785
(dp3786
g73
(dp3787
g81
I2
ssg82
g3781
sg75
(lp3788
g68
(g77
g70
NtRp3789
(dp3790
g73
(dp3791
g81
I1
ssg82
Nsg75
(lp3792
g68
(g84
g70
NtRp3793
(dp3794
g73
(dp3795
sg82
g3789
sg75
(lp3796
g68
(g89
g70
NtRp3797
(dp3798
g73
(dp3799
sg82
g3793
sg75
(lp3800
g68
(g69
g70
NtRp3801
(dp3802
g73
(dp3803
g81
I1
ssg82
g3797
sg75
(lp3804
g3530
(S't\x08\x00\x00\x00Projects'
tRp3805
asbasbasbag68
(g84
g70
NtRp3806
(dp3807
g73
(dp3808
sg82
g3789
sg75
(lp3809
g68
(g89
g70
NtRp3810
(dp3811
g73
(dp3812
sg82
g3806
sg75
(lp3813
g68
(g69
g70
NtRp3814
(dp3815
g73
(dp3816
g81
I1
ssg82
g3810
sg75
(lp3817
I00
asbasbasbag68
(g84
g70
NtRp3818
(dp3819
g73
(dp3820
sg82
g3789
sg75
(lp3821
g68
(g89
g70
NtRp3822
(dp3823
g73
(dp3824
sg82
g3818
sg75
(lp3825
g68
(g69
g70
NtRp3826
(dp3827
g73
(dp3828
g81
I1
ssg82
g3822
sg75
(lp3829
S'/streamlog/default/project_manage'
p3830
asbasbasbag68
(g84
g70
NtRp3831
(dp3832
g73
(dp3833
sg82
g3789
sg75
(lp3834
g68
(g89
g70
NtRp3835
(dp3836
g73
(dp3837
sg82
g3831
sg75
(lp3838
g68
(g69
g70
NtRp3839
(dp3840
g73
(dp3841
g81
I1
ssg82
g3835
sg75
(lp3842
(lp3843
asbasbasbasbasbasbasbag68
(g84
g70
NtRp3844
(dp3845
g73
(dp3846
sg82
g3639
sg75
(lp3847
g68
(g89
g70
NtRp3848
(dp3849
g73
(dp3850
sg82
g3844
sg75
(lp3851
g68
(g69
g70
NtRp3852
(dp3853
g73
(dp3854
g81
I2
ssg82
g3848
sg75
(lp3855
g68
(g77
g70
NtRp3856
(dp3857
g73
(dp3858
g81
I1
ssg82
Nsg75
(lp3859
g68
(g84
g70
NtRp3860
(dp3861
g73
(dp3862
sg82
g3856
sg75
(lp3863
g68
(g89
g70
NtRp3864
(dp3865
g73
(dp3866
sg82
g3860
sg75
(lp3867
g68
(g69
g70
NtRp3868
(dp3869
g73
(dp3870
g81
I1
ssg82
g3864
sg75
(lp3871
g3530
(S's\t\x00\x00\x00Type Logs'
tRp3872
asbasbasbag68
(g84
g70
NtRp3873
(dp3874
g73
(dp3875
sg82
g3856
sg75
(lp3876
g68
(g89
g70
NtRp3877
(dp3878
g73
(dp3879
sg82
g3873
sg75
(lp3880
g68
(g69
g70
NtRp3881
(dp3882
g73
(dp3883
g81
I1
ssg82
g3877
sg75
(lp3884
I00
asbasbasbag68
(g84
g70
NtRp3885
(dp3886
g73
(dp3887
sg82
g3856
sg75
(lp3888
g68
(g89
g70
NtRp3889
(dp3890
g73
(dp3891
sg82
g3885
sg75
(lp3892
g68
(g69
g70
NtRp3893
(dp3894
g73
(dp3895
g81
I1
ssg82
g3889
sg75
(lp3896
S'/streamlog/default/type_log_manage'
p3897
asbasbasbag68
(g84
g70
NtRp3898
(dp3899
g73
(dp3900
sg82
g3856
sg75
(lp3901
g68
(g89
g70
NtRp3902
(dp3903
g73
(dp3904
sg82
g3898
sg75
(lp3905
g68
(g69
g70
NtRp3906
(dp3907
g73
(dp3908
g81
I1
ssg82
g3902
sg75
(lp3909
(lp3910
asbasbasbasbasbasbasbasbasbasbasbasbasbasbasbasbasbasbasbag68
(g84
g70
NtRp3911
(dp3912
g73
(dp3913
sg82
g3025
sg75
(lp3914
g68
(g89
g70
NtRp3915
(dp3916
g73
(dp3917
g93
g94
ssg82
g3911
sg75
(lp3918
S'meta'
p3919
asbag68
(g89
g70
NtRp3920
(dp3921
g73
(dp3922
g100
g101
ssg82
g3911
sg75
(lp3923
S':'
asbag68
(g89
g70
NtRp3924
(dp3925
g73
(dp3926
sg82
g3911
sg75
(lp3927
g68
(g69
g70
NtRp3928
(dp3929
g73
(dp3930
g81
I5
ssg82
g3924
sg75
(lp3931
g68
(g77
g70
NtRp3932
(dp3933
g73
(dp3934
g81
I4
ssg82
Nsg75
(lp3935
g68
(g84
g70
NtRp3936
(dp3937
g73
(dp3938
sg82
g3932
sg75
(lp3939
g68
(g89
g70
NtRp3940
(dp3941
g73
(dp3942
g93
g94
ssg82
g3936
sg75
(lp3943
S'author'
p3944
asbag68
(g89
g70
NtRp3945
(dp3946
g73
(dp3947
g100
g101
ssg82
g3936
sg75
(lp3948
S':'
asbag68
(g89
g70
NtRp3949
(dp3950
g73
(dp3951
sg82
g3936
sg75
(lp3952
g68
(g69
g70
NtRp3953
(dp3954
g73
(dp3955
g81
I4
ssg82
g3949
sg75
(lp3956
S'Jose de Soto <josedesoto@gmail.com>'
p3957
asbasbasbag68
(g84
g70
NtRp3958
(dp3959
g73
(dp3960
sg82
g3932
sg75
(lp3961
g68
(g89
g70
NtRp3962
(dp3963
g73
(dp3964
g93
g94
ssg82
g3958
sg75
(lp3965
S'copyright'
p3966
asbag68
(g89
g70
NtRp3967
(dp3968
g73
(dp3969
g100
g101
ssg82
g3958
sg75
(lp3970
S':'
asbag68
(g89
g70
NtRp3971
(dp3972
g73
(dp3973
sg82
g3958
sg75
(lp3974
g68
(g69
g70
NtRp3975
(dp3976
g73
(dp3977
g81
I4
ssg82
g3971
sg75
(lp3978
S'Copyright 2011'
p3979
asbasbasbag68
(g84
g70
NtRp3980
(dp3981
g73
(dp3982
sg82
g3932
sg75
(lp3983
g68
(g89
g70
NtRp3984
(dp3985
g73
(dp3986
g93
g94
ssg82
g3980
sg75
(lp3987
S'description'
p3988
asbag68
(g89
g70
NtRp3989
(dp3990
g73
(dp3991
g100
g101
ssg82
g3980
sg75
(lp3992
S':'
asbag68
(g89
g70
NtRp3993
(dp3994
g73
(dp3995
sg82
g3980
sg75
(lp3996
g68
(g69
g70
NtRp3997
(dp3998
g73
(dp3999
g81
I4
ssg82
g3993
sg75
(lp4000
S'a cool new app'
p4001
asbasbasbag68
(g84
g70
NtRp4002
(dp4003
g73
(dp4004
sg82
g3932
sg75
(lp4005
g68
(g89
g70
NtRp4006
(dp4007
g73
(dp4008
g93
g94
ssg82
g4002
sg75
(lp4009
S'generator'
p4010
asbag68
(g89
g70
NtRp4011
(dp4012
g73
(dp4013
g100
g101
ssg82
g4002
sg75
(lp4014
S':'
asbag68
(g89
g70
NtRp4015
(dp4016
g73
(dp4017
sg82
g4002
sg75
(lp4018
g68
(g69
g70
NtRp4019
(dp4020
g73
(dp4021
g81
I4
ssg82
g4015
sg75
(lp4022
S'Web2py Web Framework'
p4023
asbasbasbag68
(g84
g70
NtRp4024
(dp4025
g73
(dp4026
sg82
g3932
sg75
(lp4027
g68
(g89
g70
NtRp4028
(dp4029
g73
(dp4030
g93
g94
ssg82
g4024
sg75
(lp4031
S'keywords'
p4032
asbag68
(g89
g70
NtRp4033
(dp4034
g73
(dp4035
g100
g101
ssg82
g4024
sg75
(lp4036
S':'
asbag68
(g89
g70
NtRp4037
(dp4038
g73
(dp4039
sg82
g4024
sg75
(lp4040
g68
(g69
g70
NtRp4041
(dp4042
g73
(dp4043
g81
I4
ssg82
g4037
sg75
(lp4044
S'web2py, python, framework'
p4045
asbasbasbasbasbasbasbag68
(g84
g70
NtRp4046
(dp4047
g73
(dp4048
sg82
g3025
sg75
(lp4049
g68
(g89
g70
NtRp4050
(dp4051
g73
(dp4052
g93
g94
ssg82
g4046
sg75
(lp4053
S'postprocessing'
p4054
asbag68
(g89
g70
NtRp4055
(dp4056
g73
(dp4057
g100
g101
ssg82
g4046
sg75
(lp4058
S':'
asbag68
(g89
g70
NtRp4059
(dp4060
g73
(dp4061
sg82
g4046
sg75
(lp4062
g68
(g69
g70
NtRp4063
(dp4064
g73
(dp4065
g81
I5
ssg82
g4059
sg75
(lp4066
g68
(g77
g70
NtRp4067
(dp4068
g73
(dp4069
g81
I4
ssg82
Nsg75
(lp4070
sbasbasbasbag68
(g84
g70
NtRp4071
(dp4072
g73
(dp4073
sg82
g3025
sg75
(lp4074
g68
(g89
g70
NtRp4075
(dp4076
g73
(dp4077
g93
g94
ssg82
g4071
sg75
(lp4078
S'session_file'
p4079
asbag68
(g89
g70
NtRp4080
(dp4081
g73
(dp4082
g100
g101
ssg82
g4071
sg75
(lp4083
S':'
asbag68
(g89
g70
NtRp4084
(dp4085
g73
(dp4086
sg82
g4071
sg75
(lp4087
g68
(g69
g70
NtRp4088
(dp4089
g73
(dp4090
g81
I5
ssg82
g4084
sg75
(lp4091
S"<open file '/home/jose/DESARROLLO/web2py199/applications/streamlog/sessions/127.0.0.1-610b0c7d-3f6f-4500-a76a-b095fb30f7fd', mode 'rb+' at 0x3f381e0>"
p4092
asbasbasbag68
(g84
g70
NtRp4093
(dp4094
g73
(dp4095
sg82
g3025
sg75
(lp4096
g68
(g89
g70
NtRp4097
(dp4098
g73
(dp4099
g93
g94
ssg82
g4093
sg75
(lp4100
S'session_filename'
p4101
asbag68
(g89
g70
NtRp4102
(dp4103
g73
(dp4104
g100
g101
ssg82
g4093
sg75
(lp4105
S':'
asbag68
(g89
g70
NtRp4106
(dp4107
g73
(dp4108
sg82
g4093
sg75
(lp4109
g68
(g69
g70
NtRp4110
(dp4111
g73
(dp4112
g81
I5
ssg82
g4106
sg75
(lp4113
S'/home/jose/DESARROLLO/web2py199/applications/streamlog/sessions/127.0.0.1-610b0c7d-3f6f-4500-a76a-b095fb30f7fd'
p4114
asbasbasbag68
(g84
g70
NtRp4115
(dp4116
g73
(dp4117
sg82
g3025
sg75
(lp4118
g68
(g89
g70
NtRp4119
(dp4120
g73
(dp4121
g93
g94
ssg82
g4115
sg75
(lp4122
S'session_id'
p4123
asbag68
(g89
g70
NtRp4124
(dp4125
g73
(dp4126
g100
g101
ssg82
g4115
sg75
(lp4127
S':'
asbag68
(g89
g70
NtRp4128
(dp4129
g73
(dp4130
sg82
g4115
sg75
(lp4131
g68
(g69
g70
NtRp4132
(dp4133
g73
(dp4134
g81
I5
ssg82
g4128
sg75
(lp4135
S'127.0.0.1-610b0c7d-3f6f-4500-a76a-b095fb30f7fd'
p4136
asbasbasbag68
(g84
g70
NtRp4137
(dp4138
g73
(dp4139
sg82
g3025
sg75
(lp4140
g68
(g89
g70
NtRp4141
(dp4142
g73
(dp4143
g93
g94
ssg82
g4137
sg75
(lp4144
S'session_id_name'
p4145
asbag68
(g89
g70
NtRp4146
(dp4147
g73
(dp4148
g100
g101
ssg82
g4137
sg75
(lp4149
S':'
asbag68
(g89
g70
NtRp4150
(dp4151
g73
(dp4152
sg82
g4137
sg75
(lp4153
g68
(g69
g70
NtRp4154
(dp4155
g73
(dp4156
g81
I5
ssg82
g4150
sg75
(lp4157
g3082
asbasbasbag68
(g84
g70
NtRp4158
(dp4159
g73
(dp4160
sg82
g3025
sg75
(lp4161
g68
(g89
g70
NtRp4162
(dp4163
g73
(dp4164
g93
g94
ssg82
g4158
sg75
(lp4165
S'session_locked'
p4166
asbag68
(g89
g70
NtRp4167
(dp4168
g73
(dp4169
g100
g101
ssg82
g4158
sg75
(lp4170
S':'
asbag68
(g89
g70
NtRp4171
(dp4172
g73
(dp4173
sg82
g4158
sg75
(lp4174
g68
(g69
g70
NtRp4175
(dp4176
g73
(dp4177
g81
I5
ssg82
g4171
sg75
(lp4178
g1646
asbasbasbag68
(g84
g70
NtRp4179
(dp4180
g73
(dp4181
sg82
g3025
sg75
(lp4182
g68
(g89
g70
NtRp4183
(dp4184
g73
(dp4185
g93
g94
ssg82
g4179
sg75
(lp4186
S'session_new'
p4187
asbag68
(g89
g70
NtRp4188
(dp4189
g73
(dp4190
g100
g101
ssg82
g4179
sg75
(lp4191
S':'
asbag68
(g89
g70
NtRp4192
(dp4193
g73
(dp4194
sg82
g4179
sg75
(lp4195
g68
(g69
g70
NtRp4196
(dp4197
g73
(dp4198
g81
I5
ssg82
g4192
sg75
(lp4199
g111
asbasbasbag68
(g84
g70
NtRp4200
(dp4201
g73
(dp4202
sg82
g3025
sg75
(lp4203
g68
(g89
g70
NtRp4204
(dp4205
g73
(dp4206
g93
g94
ssg82
g4200
sg75
(lp4207
S'status'
p4208
asbag68
(g89
g70
NtRp4209
(dp4210
g73
(dp4211
g100
g101
ssg82
g4200
sg75
(lp4212
S':'
asbag68
(g89
g70
NtRp4213
(dp4214
g73
(dp4215
sg82
g4200
sg75
(lp4216
g68
(g69
g70
NtRp4217
(dp4218
g73
(dp4219
g81
I5
ssg82
g4213
sg75
(lp4220
S'200'
p4221
asbasbasbag68
(g84
g70
NtRp4222
(dp4223
g73
(dp4224
sg82
g3025
sg75
(lp4225
g68
(g89
g70
NtRp4226
(dp4227
g73
(dp4228
g93
g94
ssg82
g4222
sg75
(lp4229
S'subtitle'
p4230
asbag68
(g89
g70
NtRp4231
(dp4232
g73
(dp4233
g100
g101
ssg82
g4222
sg75
(lp4234
S':'
asbag68
(g89
g70
NtRp4235
(dp4236
g73
(dp4237
sg82
g4222
sg75
(lp4238
g68
(g69
g70
NtRp4239
(dp4240
g73
(dp4241
g81
I5
ssg82
g4235
sg75
(lp4242
g3530
(S's\x12\x00\x00\x00Stream Log Client!'
tRp4243
asbasbasbag68
(g84
g70
NtRp4244
(dp4245
g73
(dp4246
sg82
g3025
sg75
(lp4247
g68
(g89
g70
NtRp4248
(dp4249
g73
(dp4250
g93
g94
ssg82
g4244
sg75
(lp4251
S'title'
p4252
asbag68
(g89
g70
NtRp4253
(dp4254
g73
(dp4255
g100
g101
ssg82
g4244
sg75
(lp4256
S':'
asbag68
(g89
g70
NtRp4257
(dp4258
g73
(dp4259
sg82
g4244
sg75
(lp4260
g68
(g69
g70
NtRp4261
(dp4262
g73
(dp4263
g81
I5
ssg82
g4257
sg75
(lp4264
g133
asbasbasbag68
(g84
g70
NtRp4265
(dp4266
g73
(dp4267
sg82
g3025
sg75
(lp4268
g68
(g89
g70
NtRp4269
(dp4270
g73
(dp4271
g93
g94
ssg82
g4265
sg75
(lp4272
g2290
asbag68
(g89
g70
NtRp4273
(dp4274
g73
(dp4275
g100
g101
ssg82
g4265
sg75
(lp4276
S':'
asbag68
(g89
g70
NtRp4277
(dp4278
g73
(dp4279
sg82
g4265
sg75
(lp4280
g68
(g69
g70
NtRp4281
(dp4282
g73
(dp4283
g81
I5
ssg82
g4277
sg75
(lp4284
g2303
asbasbasbag68
(g84
g70
NtRp4285
(dp4286
g73
(dp4287
sg82
g3025
sg75
(lp4288
g68
(g89
g70
NtRp4289
(dp4290
g73
(dp4291
g93
g94
ssg82
g4285
sg75
(lp4292
S'view'
p4293
asbag68
(g89
g70
NtRp4294
(dp4295
g73
(dp4296
g100
g101
ssg82
g4285
sg75
(lp4297
S':'
asbag68
(g89
g70
NtRp4298
(dp4299
g73
(dp4300
sg82
g4285
sg75
(lp4301
g68
(g69
g70
NtRp4302
(dp4303
g73
(dp4304
g81
I5
ssg82
g4298
sg75
(lp4305
S'default/index.html'
p4306
asbasbasbasbasbsS'locals'
p4307
(dp4308
g3
S"'/home/jose/DESARROLLO/web2py199/applications/streamlog/controllers/default.py'"
p4309
sg5
S"'# -*- coding: utf-8 -*-\\n# this file is released ...=crud())\\n\\nresponse._vars=response._caller(index)\\n'"
p4310
sssS'traceback'
p4311
S'Traceback (most recent call last):\n  File "/home/jose/DESARROLLO/web2py199/gluon/restricted.py", line 193, in restricted\n    ccode = compile2(code,layer)\n  File "/home/jose/DESARROLLO/web2py199/gluon/restricted.py", line 179, in compile2\n    return compile(code.rstrip().replace(\'\\r\\n\',\'\\n\')+\'\\n\', layer, \'exec\')\n  File "/home/jose/DESARROLLO/web2py199/applications/streamlog/controllers/default.py", line 19\n    links = [lambda row:  INPUT(_type=\'button\',_value=\'markmin\', _onclick=createStream()")]\n                                                                                          ^\nSyntaxError: EOL while scanning string literal\n'
p4312
s.