(dp1
S'output'
p2
S''
sS'layer'
p3
S'/home/jose/DESARROLLO/web2py199/applications/streamlog/controllers/default.py'
p4
sS'code'
p5
S'# -*- coding: utf-8 -*-\n# this file is released under public domain and you can use without limitations\n\n#########################################################################\n## This is a samples controller\n## - index is the default action of any application\n## - user is required for authentication and authorization\n## - download is for downloading files uploaded in the db (does streaming)\n## - call exposes all registered services (none by default)\n#########################################################################\n\n\n\ndef index():\n    """\n    example action using the internationalization operator T and flash\n    rendered by views/default/index.html or views/generic.html\n    """\n    links = [lambda row:  INPUT(_type=\'button\',_value=\'START STREAM\', _onclick=\'createStream(\'+str(row.id)+\')\')]\n    form=SQLFORM.grid(db.t_log, selectable=False, csv=False,create=False, deletable=False, editable=False, links=links, user_signature=False)\n    return dict(message=T(\'Hello World2\'), form=form)\n\n@service.json\ndef getConnectionData():\n    \n    id_log=request.args[0]\n    ip=\'\'\n    port=\'\'\n    name_log=\'\'\n    \n    data_connection=db((db.t_log.id==id_log)&(db.t_log.server==db.t_server.id)).select(db.t_log.name,db.t_server.IP,db.t_server.port)\n  \n    for row in data_connection:\n        ip=row.IP\n        port=row.port\n        name_log=row.name\n        \n    print ip\n    print port\n    print name_log\n    \n\treturn response.json({"connection": [{\'name_log\': \'xhtml\',\'IP\': \'127.0.0.1\',\'port\': \'8888\'}]})\n\ndef choose_log():\n    """\n    example action using the internationalization operator T and flash\n    rendered by views/default/index.html or views/generic.html\n    """\n    \n    \n    return dict(message="log")\n\n\ndef getTypeTable():\n    """\n    example action using the internationalization operator T and flash\n    rendered by views/default/index.html or views/generic.html\n    """\n    table=\'\'\n    id_log=request.args[0]\n    type_table=db((db.t_log.id==id_log)&(db.t_log.type_log==db.t_type_log.id)).select(db.t_type_log.html_table)\n    for row in type_table:\n        table=row.html_table\n        \n    \'\'\'\n    table=\'<table cellpadding="0" cellspacing="0" border="0" class="display" id="tablelog"> \\\n    <thead> \\\n        <tr> \\\n            <th>IP</th> \\\n            <th>hyphen</th> \\\n            <th>userid</th> \\\n            <th>Time Request</th> \\\n        <th>Request Time</th> \\\n        <th>Status Code</th> \\\n        <th>Size Object</th> \\\n        </tr>\\\n    </thead> \\\n    <tfoot> \\\n        <tr> \\\n            <th>IP</th> \\\n            <th>hyphen</th> \\\n            <th>userid</th>\\\n            <th>Time Request</th> \\\n        <th>Request Time</th> \\\n        <th>Status Code</th> \\\n        <th>Size Object</th> \\\n        </tr>  \\\n    </tfoot>  \\\n        <tbody> \\\n        </tbody> \\\n    </table>\'\n    \'\'\'\n    \n    return table\n\n\ndef user():\n    """\n    exposes:\n    http://..../[app]/default/user/login\n    http://..../[app]/default/user/logout\n    http://..../[app]/default/user/register\n    http://..../[app]/default/user/profile\n    http://..../[app]/default/user/retrieve_password\n    http://..../[app]/default/user/change_password\n    use @auth.requires_login()\n        @auth.requires_membership(\'group name\')\n        @auth.requires_permission(\'read\',\'table name\',record_id)\n    to decorate functions that need access control\n    """\n    return dict(form=auth())\n\ndef error():\n    return dict()\n\n\ndef project_manage():\n    \n    form = SQLFORM.smartgrid(db.t_project)\n    return locals()\n\n\n\ndef server_manage():\n\n    form=SQLFORM.grid(db.t_server)\n    return locals()\n\ndef log_manage():\n \n    #form = SQLFORM.smartgrid(db.t_log,constraints=dict(t_log=query), selectable=True,searchable=False, csv=False,showbuttontext=True,onupdate=auth.archive)\n    #form = SQLFORM.smartgrid(db.t_log)\n    form=SQLFORM.grid(db.t_log)\n    return locals()\n\ndef type_log_manage():\n\n    form=SQLFORM.grid(db.t_type_log)\n    return locals()\n\ndef download():\n    """\n    allows downloading of uploaded files\n    http://..../[app]/default/download/[filename]\n    """\n    return response.download(request,db)\n\n\ndef call():\n    """\n    exposes services. for example:\n    http://..../[app]/default/call/jsonrpc\n    decorate with @services.jsonrpc the functions to expose\n    supports xml, json, xmlrpc, jsonrpc, amfrpc, rss, csv\n    """\n    return service()\n\n\n@auth.requires_signature()\ndef data():\n    """\n    http://..../[app]/default/data/tables\n    http://..../[app]/default/data/create/[table]\n    http://..../[app]/default/data/read/[table]/[id]\n    http://..../[app]/default/data/update/[table]/[id]\n    http://..../[app]/default/data/delete/[table]/[id]\n    http://..../[app]/default/data/select/[table]\n    http://..../[app]/default/data/search/[table]\n    but URLs bust be signed, i.e. linked with\n      A(\'table\',_href=URL(\'data/tables\',user_signature=True))\n    or with the signed load operator\n      LOAD(\'default\',\'data.load\',args=\'tables\',ajax=True,user_signature=True)\n    """\n    return dict(form=crud())\n\nresponse._vars=response._caller(index)\n'
p6
sS'snapshot'
p7
(dp8
S'exception'
p9
(dp10
S'__getslice__'
p11
S"<method-wrapper '__getslice__' of exceptions.IndentationError object>"
p12
sS'text'
p13
S'\'\\treturn response.json({"connection": [{\\\'name_log\\\': \\\'xhtml\\\',\\\'IP\\\': \\\'127.0.0.1\\\',\\\'port\\\': \\\'8888\\\'}]})\\n\''
p14
sS'__str__'
p15
S"<method-wrapper '__str__' of exceptions.IndentationError object>"
p16
sS'__reduce__'
p17
S'<built-in method __reduce__ of exceptions.IndentationError object>'
p18
sS'__dict__'
p19
S'{}'
p20
sS'__sizeof__'
p21
S'<built-in method __sizeof__ of exceptions.IndentationError object>'
p22
sS'__init__'
p23
S"<method-wrapper '__init__' of exceptions.IndentationError object>"
p24
sS'__setattr__'
p25
S"<method-wrapper '__setattr__' of exceptions.IndentationError object>"
p26
sS'__reduce_ex__'
p27
S'<built-in method __reduce_ex__ of exceptions.IndentationError object>'
p28
sS'__new__'
p29
S'<built-in method __new__ of type object>'
p30
sS'__format__'
p31
S'<built-in method __format__ of exceptions.IndentationError object>'
p32
sS'__class__'
p33
S"<type 'exceptions.IndentationError'>"
p34
sS'filename'
p35
S"'/home/jose/DESARROLLO/web2py199/applications/streamlog/controllers/default.py'"
p36
sS'lineno'
p37
S'42'
p38
sS'msg'
p39
S"'unexpected indent'"
p40
sS'__doc__'
p41
S"'Improper indentation.'"
p42
sS'__getitem__'
p43
S"<method-wrapper '__getitem__' of exceptions.IndentationError object>"
p44
sS'__setstate__'
p45
S'<built-in method __setstate__ of exceptions.IndentationError object>'
p46
sS'__getattribute__'
p47
S"<method-wrapper '__getattribute__' of exceptions.IndentationError object>"
p48
sS'print_file_and_line'
p49
S'None'
p50
sS'args'
p51
S'(\'unexpected indent\', (\'/home/jose/DESARROLLO/web2py199/applications/streamlog/controllers/default.py\', 42, 1, \'\\treturn response.json({"connection": [{\\\'name_log\\\': \\\'xhtml\\\',\\\'IP\\\': \\\'127.0.0.1\\\',\\\'port\\\': \\\'8888\\\'}]})\\n\'))'
p52
sS'__subclasshook__'
p53
S'<built-in method __subclasshook__ of type object>'
p54
sS'offset'
p55
S'1'
sS'__unicode__'
p56
S'<built-in method __unicode__ of exceptions.IndentationError object>'
p57
sS'__delattr__'
p58
S"<method-wrapper '__delattr__' of exceptions.IndentationError object>"
p59
sS'__repr__'
p60
S"<method-wrapper '__repr__' of exceptions.IndentationError object>"
p61
sS'__hash__'
p62
S"<method-wrapper '__hash__' of exceptions.IndentationError object>"
p63
ssS'evalue'
p64
S'unexpected indent (default.py, line 42)'
p65
sS'request'
p66
ccopy_reg
_reconstructor
p67
(cgluon.html
BEAUTIFY
p68
c__builtin__
object
p69
NtRp70
(dp71
S'attributes'
p72
(dp73
sS'components'
p74
(lp75
g67
(cgluon.html
TABLE
p76
g69
NtRp77
(dp78
g72
(dp79
S'level'
p80
I5
ssS'parent'
p81
Nsg74
(lp82
g67
(cgluon.html
TR
p83
g69
NtRp84
(dp85
g72
(dp86
sg81
g77
sg74
(lp87
g67
(cgluon.html
TD
p88
g69
NtRp89
(dp90
g72
(dp91
S'_style'
p92
S'font-weight:bold;'
p93
ssg81
g84
sg74
(lp94
S'ajax'
p95
asbag67
(g88
g69
NtRp96
(dp97
g72
(dp98
S'_valign'
p99
S'top'
p100
ssg81
g84
sg74
(lp101
S':'
asbag67
(g88
g69
NtRp102
(dp103
g72
(dp104
sg81
g84
sg74
(lp105
g67
(g68
g69
NtRp106
(dp107
g72
(dp108
g80
I5
ssg81
g102
sg74
(lp109
S'False'
p110
asbasbasbag67
(g83
g69
NtRp111
(dp112
g72
(dp113
sg81
g77
sg74
(lp114
g67
(g88
g69
NtRp115
(dp116
g72
(dp117
g92
g93
ssg81
g111
sg74
(lp118
S'application'
p119
asbag67
(g88
g69
NtRp120
(dp121
g72
(dp122
g99
g100
ssg81
g111
sg74
(lp123
S':'
asbag67
(g88
g69
NtRp124
(dp125
g72
(dp126
sg81
g111
sg74
(lp127
g67
(g68
g69
NtRp128
(dp129
g72
(dp130
g80
I5
ssg81
g124
sg74
(lp131
S'streamlog'
p132
asbasbasbag67
(g83
g69
NtRp133
(dp134
g72
(dp135
sg81
g77
sg74
(lp136
g67
(g88
g69
NtRp137
(dp138
g72
(dp139
g92
g93
ssg81
g133
sg74
(lp140
g51
asbag67
(g88
g69
NtRp141
(dp142
g72
(dp143
g99
g100
ssg81
g133
sg74
(lp144
S':'
asbag67
(g88
g69
NtRp145
(dp146
g72
(dp147
sg81
g133
sg74
(lp148
g67
(g68
g69
NtRp149
(dp150
g72
(dp151
g80
I5
ssg81
g145
sg74
(lp152
g67
(g76
g69
NtRp153
(dp154
g72
(dp155
g80
I4
ssg81
Nsg74
(lp156
sbasbasbasbag67
(g83
g69
NtRp157
(dp158
g72
(dp159
sg81
g77
sg74
(lp160
g67
(g88
g69
NtRp161
(dp162
g72
(dp163
g92
g93
ssg81
g157
sg74
(lp164
S'body'
p165
asbag67
(g88
g69
NtRp166
(dp167
g72
(dp168
g99
g100
ssg81
g157
sg74
(lp169
S':'
asbag67
(g88
g69
NtRp170
(dp171
g72
(dp172
sg81
g157
sg74
(lp173
g67
(g68
g69
NtRp174
(dp175
g72
(dp176
g80
I5
ssg81
g170
sg74
(lp177
S'<cStringIO.StringO object at 0x2a43ed8>'
p178
asbasbasbag67
(g83
g69
NtRp179
(dp180
g72
(dp181
sg81
g77
sg74
(lp182
g67
(g88
g69
NtRp183
(dp184
g72
(dp185
g92
g93
ssg81
g179
sg74
(lp186
S'client'
p187
asbag67
(g88
g69
NtRp188
(dp189
g72
(dp190
g99
g100
ssg81
g179
sg74
(lp191
S':'
asbag67
(g88
g69
NtRp192
(dp193
g72
(dp194
sg81
g179
sg74
(lp195
g67
(g68
g69
NtRp196
(dp197
g72
(dp198
g80
I5
ssg81
g192
sg74
(lp199
S'127.0.0.1'
p200
asbasbasbag67
(g83
g69
NtRp201
(dp202
g72
(dp203
sg81
g77
sg74
(lp204
g67
(g88
g69
NtRp205
(dp206
g72
(dp207
g92
g93
ssg81
g201
sg74
(lp208
S'controller'
p209
asbag67
(g88
g69
NtRp210
(dp211
g72
(dp212
g99
g100
ssg81
g201
sg74
(lp213
S':'
asbag67
(g88
g69
NtRp214
(dp215
g72
(dp216
sg81
g201
sg74
(lp217
g67
(g68
g69
NtRp218
(dp219
g72
(dp220
g80
I5
ssg81
g214
sg74
(lp221
S'default'
p222
asbasbasbag67
(g83
g69
NtRp223
(dp224
g72
(dp225
sg81
g77
sg74
(lp226
g67
(g88
g69
NtRp227
(dp228
g72
(dp229
g92
g93
ssg81
g223
sg74
(lp230
S'cookies'
p231
asbag67
(g88
g69
NtRp232
(dp233
g72
(dp234
g99
g100
ssg81
g223
sg74
(lp235
S':'
asbag67
(g88
g69
NtRp236
(dp237
g72
(dp238
sg81
g223
sg74
(lp239
g67
(g68
g69
NtRp240
(dp241
g72
(dp242
g80
I5
ssg81
g236
sg74
(lp243
g67
(g76
g69
NtRp244
(dp245
g72
(dp246
g80
I4
ssg81
Nsg74
(lp247
g67
(g83
g69
NtRp248
(dp249
g72
(dp250
sg81
g244
sg74
(lp251
g67
(g88
g69
NtRp252
(dp253
g72
(dp254
g92
g93
ssg81
g248
sg74
(lp255
S'session_id_admin'
p256
asbag67
(g88
g69
NtRp257
(dp258
g72
(dp259
g99
g100
ssg81
g248
sg74
(lp260
S':'
asbag67
(g88
g69
NtRp261
(dp262
g72
(dp263
sg81
g248
sg74
(lp264
g67
(g68
g69
NtRp265
(dp266
g72
(dp267
g80
I4
ssg81
g261
sg74
(lp268
g67
(g76
g69
NtRp269
(dp270
g72
(dp271
g80
I3
ssg81
Nsg74
(lp272
g67
(g83
g69
NtRp273
(dp274
g72
(dp275
sg81
g269
sg74
(lp276
g67
(g88
g69
NtRp277
(dp278
g72
(dp279
g92
g93
ssg81
g273
sg74
(lp280
S'comment'
p281
asbag67
(g88
g69
NtRp282
(dp283
g72
(dp284
g99
g100
ssg81
g273
sg74
(lp285
S':'
asbag67
(g88
g69
NtRp286
(dp287
g72
(dp288
sg81
g273
sg74
(lp289
g67
(g68
g69
NtRp290
(dp291
g72
(dp292
g80
I3
ssg81
g286
sg74
(lp293
S''
asbasbasbag67
(g83
g69
NtRp294
(dp295
g72
(dp296
sg81
g269
sg74
(lp297
g67
(g88
g69
NtRp298
(dp299
g72
(dp300
g92
g93
ssg81
g294
sg74
(lp301
S'domain'
p302
asbag67
(g88
g69
NtRp303
(dp304
g72
(dp305
g99
g100
ssg81
g294
sg74
(lp306
S':'
asbag67
(g88
g69
NtRp307
(dp308
g72
(dp309
sg81
g294
sg74
(lp310
g67
(g68
g69
NtRp311
(dp312
g72
(dp313
g80
I3
ssg81
g307
sg74
(lp314
S''
asbasbasbag67
(g83
g69
NtRp315
(dp316
g72
(dp317
sg81
g269
sg74
(lp318
g67
(g88
g69
NtRp319
(dp320
g72
(dp321
g92
g93
ssg81
g315
sg74
(lp322
S'expires'
p323
asbag67
(g88
g69
NtRp324
(dp325
g72
(dp326
g99
g100
ssg81
g315
sg74
(lp327
S':'
asbag67
(g88
g69
NtRp328
(dp329
g72
(dp330
sg81
g315
sg74
(lp331
g67
(g68
g69
NtRp332
(dp333
g72
(dp334
g80
I3
ssg81
g328
sg74
(lp335
S''
asbasbasbag67
(g83
g69
NtRp336
(dp337
g72
(dp338
sg81
g269
sg74
(lp339
g67
(g88
g69
NtRp340
(dp341
g72
(dp342
g92
g93
ssg81
g336
sg74
(lp343
S'httponly'
p344
asbag67
(g88
g69
NtRp345
(dp346
g72
(dp347
g99
g100
ssg81
g336
sg74
(lp348
S':'
asbag67
(g88
g69
NtRp349
(dp350
g72
(dp351
sg81
g336
sg74
(lp352
g67
(g68
g69
NtRp353
(dp354
g72
(dp355
g80
I3
ssg81
g349
sg74
(lp356
S''
asbasbasbag67
(g83
g69
NtRp357
(dp358
g72
(dp359
sg81
g269
sg74
(lp360
g67
(g88
g69
NtRp361
(dp362
g72
(dp363
g92
g93
ssg81
g357
sg74
(lp364
S'max-age'
p365
asbag67
(g88
g69
NtRp366
(dp367
g72
(dp368
g99
g100
ssg81
g357
sg74
(lp369
S':'
asbag67
(g88
g69
NtRp370
(dp371
g72
(dp372
sg81
g357
sg74
(lp373
g67
(g68
g69
NtRp374
(dp375
g72
(dp376
g80
I3
ssg81
g370
sg74
(lp377
S''
asbasbasbag67
(g83
g69
NtRp378
(dp379
g72
(dp380
sg81
g269
sg74
(lp381
g67
(g88
g69
NtRp382
(dp383
g72
(dp384
g92
g93
ssg81
g378
sg74
(lp385
S'path'
p386
asbag67
(g88
g69
NtRp387
(dp388
g72
(dp389
g99
g100
ssg81
g378
sg74
(lp390
S':'
asbag67
(g88
g69
NtRp391
(dp392
g72
(dp393
sg81
g378
sg74
(lp394
g67
(g68
g69
NtRp395
(dp396
g72
(dp397
g80
I3
ssg81
g391
sg74
(lp398
S''
asbasbasbag67
(g83
g69
NtRp399
(dp400
g72
(dp401
sg81
g269
sg74
(lp402
g67
(g88
g69
NtRp403
(dp404
g72
(dp405
g92
g93
ssg81
g399
sg74
(lp406
S'secure'
p407
asbag67
(g88
g69
NtRp408
(dp409
g72
(dp410
g99
g100
ssg81
g399
sg74
(lp411
S':'
asbag67
(g88
g69
NtRp412
(dp413
g72
(dp414
sg81
g399
sg74
(lp415
g67
(g68
g69
NtRp416
(dp417
g72
(dp418
g80
I3
ssg81
g412
sg74
(lp419
S''
asbasbasbag67
(g83
g69
NtRp420
(dp421
g72
(dp422
sg81
g269
sg74
(lp423
g67
(g88
g69
NtRp424
(dp425
g72
(dp426
g92
g93
ssg81
g420
sg74
(lp427
S'version'
p428
asbag67
(g88
g69
NtRp429
(dp430
g72
(dp431
g99
g100
ssg81
g420
sg74
(lp432
S':'
asbag67
(g88
g69
NtRp433
(dp434
g72
(dp435
sg81
g420
sg74
(lp436
g67
(g68
g69
NtRp437
(dp438
g72
(dp439
g80
I3
ssg81
g433
sg74
(lp440
S''
asbasbasbasbasbasbasbag67
(g83
g69
NtRp441
(dp442
g72
(dp443
sg81
g244
sg74
(lp444
g67
(g88
g69
NtRp445
(dp446
g72
(dp447
g92
g93
ssg81
g441
sg74
(lp448
S'session_id_streamlog'
p449
asbag67
(g88
g69
NtRp450
(dp451
g72
(dp452
g99
g100
ssg81
g441
sg74
(lp453
S':'
asbag67
(g88
g69
NtRp454
(dp455
g72
(dp456
sg81
g441
sg74
(lp457
g67
(g68
g69
NtRp458
(dp459
g72
(dp460
g80
I4
ssg81
g454
sg74
(lp461
g67
(g76
g69
NtRp462
(dp463
g72
(dp464
g80
I3
ssg81
Nsg74
(lp465
g67
(g83
g69
NtRp466
(dp467
g72
(dp468
sg81
g462
sg74
(lp469
g67
(g88
g69
NtRp470
(dp471
g72
(dp472
g92
g93
ssg81
g466
sg74
(lp473
g281
asbag67
(g88
g69
NtRp474
(dp475
g72
(dp476
g99
g100
ssg81
g466
sg74
(lp477
S':'
asbag67
(g88
g69
NtRp478
(dp479
g72
(dp480
sg81
g466
sg74
(lp481
g67
(g68
g69
NtRp482
(dp483
g72
(dp484
g80
I3
ssg81
g478
sg74
(lp485
S''
asbasbasbag67
(g83
g69
NtRp486
(dp487
g72
(dp488
sg81
g462
sg74
(lp489
g67
(g88
g69
NtRp490
(dp491
g72
(dp492
g92
g93
ssg81
g486
sg74
(lp493
g302
asbag67
(g88
g69
NtRp494
(dp495
g72
(dp496
g99
g100
ssg81
g486
sg74
(lp497
S':'
asbag67
(g88
g69
NtRp498
(dp499
g72
(dp500
sg81
g486
sg74
(lp501
g67
(g68
g69
NtRp502
(dp503
g72
(dp504
g80
I3
ssg81
g498
sg74
(lp505
S''
asbasbasbag67
(g83
g69
NtRp506
(dp507
g72
(dp508
sg81
g462
sg74
(lp509
g67
(g88
g69
NtRp510
(dp511
g72
(dp512
g92
g93
ssg81
g506
sg74
(lp513
g323
asbag67
(g88
g69
NtRp514
(dp515
g72
(dp516
g99
g100
ssg81
g506
sg74
(lp517
S':'
asbag67
(g88
g69
NtRp518
(dp519
g72
(dp520
sg81
g506
sg74
(lp521
g67
(g68
g69
NtRp522
(dp523
g72
(dp524
g80
I3
ssg81
g518
sg74
(lp525
S''
asbasbasbag67
(g83
g69
NtRp526
(dp527
g72
(dp528
sg81
g462
sg74
(lp529
g67
(g88
g69
NtRp530
(dp531
g72
(dp532
g92
g93
ssg81
g526
sg74
(lp533
g344
asbag67
(g88
g69
NtRp534
(dp535
g72
(dp536
g99
g100
ssg81
g526
sg74
(lp537
S':'
asbag67
(g88
g69
NtRp538
(dp539
g72
(dp540
sg81
g526
sg74
(lp541
g67
(g68
g69
NtRp542
(dp543
g72
(dp544
g80
I3
ssg81
g538
sg74
(lp545
S''
asbasbasbag67
(g83
g69
NtRp546
(dp547
g72
(dp548
sg81
g462
sg74
(lp549
g67
(g88
g69
NtRp550
(dp551
g72
(dp552
g92
g93
ssg81
g546
sg74
(lp553
g365
asbag67
(g88
g69
NtRp554
(dp555
g72
(dp556
g99
g100
ssg81
g546
sg74
(lp557
S':'
asbag67
(g88
g69
NtRp558
(dp559
g72
(dp560
sg81
g546
sg74
(lp561
g67
(g68
g69
NtRp562
(dp563
g72
(dp564
g80
I3
ssg81
g558
sg74
(lp565
S''
asbasbasbag67
(g83
g69
NtRp566
(dp567
g72
(dp568
sg81
g462
sg74
(lp569
g67
(g88
g69
NtRp570
(dp571
g72
(dp572
g92
g93
ssg81
g566
sg74
(lp573
g386
asbag67
(g88
g69
NtRp574
(dp575
g72
(dp576
g99
g100
ssg81
g566
sg74
(lp577
S':'
asbag67
(g88
g69
NtRp578
(dp579
g72
(dp580
sg81
g566
sg74
(lp581
g67
(g68
g69
NtRp582
(dp583
g72
(dp584
g80
I3
ssg81
g578
sg74
(lp585
S''
asbasbasbag67
(g83
g69
NtRp586
(dp587
g72
(dp588
sg81
g462
sg74
(lp589
g67
(g88
g69
NtRp590
(dp591
g72
(dp592
g92
g93
ssg81
g586
sg74
(lp593
g407
asbag67
(g88
g69
NtRp594
(dp595
g72
(dp596
g99
g100
ssg81
g586
sg74
(lp597
S':'
asbag67
(g88
g69
NtRp598
(dp599
g72
(dp600
sg81
g586
sg74
(lp601
g67
(g68
g69
NtRp602
(dp603
g72
(dp604
g80
I3
ssg81
g598
sg74
(lp605
S''
asbasbasbag67
(g83
g69
NtRp606
(dp607
g72
(dp608
sg81
g462
sg74
(lp609
g67
(g88
g69
NtRp610
(dp611
g72
(dp612
g92
g93
ssg81
g606
sg74
(lp613
g428
asbag67
(g88
g69
NtRp614
(dp615
g72
(dp616
g99
g100
ssg81
g606
sg74
(lp617
S':'
asbag67
(g88
g69
NtRp618
(dp619
g72
(dp620
sg81
g606
sg74
(lp621
g67
(g68
g69
NtRp622
(dp623
g72
(dp624
g80
I3
ssg81
g618
sg74
(lp625
S''
asbasbasbasbasbasbasbag67
(g83
g69
NtRp626
(dp627
g72
(dp628
sg81
g244
sg74
(lp629
g67
(g88
g69
NtRp630
(dp631
g72
(dp632
g92
g93
ssg81
g626
sg74
(lp633
S'session_id_test3'
p634
asbag67
(g88
g69
NtRp635
(dp636
g72
(dp637
g99
g100
ssg81
g626
sg74
(lp638
S':'
asbag67
(g88
g69
NtRp639
(dp640
g72
(dp641
sg81
g626
sg74
(lp642
g67
(g68
g69
NtRp643
(dp644
g72
(dp645
g80
I4
ssg81
g639
sg74
(lp646
g67
(g76
g69
NtRp647
(dp648
g72
(dp649
g80
I3
ssg81
Nsg74
(lp650
g67
(g83
g69
NtRp651
(dp652
g72
(dp653
sg81
g647
sg74
(lp654
g67
(g88
g69
NtRp655
(dp656
g72
(dp657
g92
g93
ssg81
g651
sg74
(lp658
g281
asbag67
(g88
g69
NtRp659
(dp660
g72
(dp661
g99
g100
ssg81
g651
sg74
(lp662
S':'
asbag67
(g88
g69
NtRp663
(dp664
g72
(dp665
sg81
g651
sg74
(lp666
g67
(g68
g69
NtRp667
(dp668
g72
(dp669
g80
I3
ssg81
g663
sg74
(lp670
S''
asbasbasbag67
(g83
g69
NtRp671
(dp672
g72
(dp673
sg81
g647
sg74
(lp674
g67
(g88
g69
NtRp675
(dp676
g72
(dp677
g92
g93
ssg81
g671
sg74
(lp678
g302
asbag67
(g88
g69
NtRp679
(dp680
g72
(dp681
g99
g100
ssg81
g671
sg74
(lp682
S':'
asbag67
(g88
g69
NtRp683
(dp684
g72
(dp685
sg81
g671
sg74
(lp686
g67
(g68
g69
NtRp687
(dp688
g72
(dp689
g80
I3
ssg81
g683
sg74
(lp690
S''
asbasbasbag67
(g83
g69
NtRp691
(dp692
g72
(dp693
sg81
g647
sg74
(lp694
g67
(g88
g69
NtRp695
(dp696
g72
(dp697
g92
g93
ssg81
g691
sg74
(lp698
g323
asbag67
(g88
g69
NtRp699
(dp700
g72
(dp701
g99
g100
ssg81
g691
sg74
(lp702
S':'
asbag67
(g88
g69
NtRp703
(dp704
g72
(dp705
sg81
g691
sg74
(lp706
g67
(g68
g69
NtRp707
(dp708
g72
(dp709
g80
I3
ssg81
g703
sg74
(lp710
S''
asbasbasbag67
(g83
g69
NtRp711
(dp712
g72
(dp713
sg81
g647
sg74
(lp714
g67
(g88
g69
NtRp715
(dp716
g72
(dp717
g92
g93
ssg81
g711
sg74
(lp718
g344
asbag67
(g88
g69
NtRp719
(dp720
g72
(dp721
g99
g100
ssg81
g711
sg74
(lp722
S':'
asbag67
(g88
g69
NtRp723
(dp724
g72
(dp725
sg81
g711
sg74
(lp726
g67
(g68
g69
NtRp727
(dp728
g72
(dp729
g80
I3
ssg81
g723
sg74
(lp730
S''
asbasbasbag67
(g83
g69
NtRp731
(dp732
g72
(dp733
sg81
g647
sg74
(lp734
g67
(g88
g69
NtRp735
(dp736
g72
(dp737
g92
g93
ssg81
g731
sg74
(lp738
g365
asbag67
(g88
g69
NtRp739
(dp740
g72
(dp741
g99
g100
ssg81
g731
sg74
(lp742
S':'
asbag67
(g88
g69
NtRp743
(dp744
g72
(dp745
sg81
g731
sg74
(lp746
g67
(g68
g69
NtRp747
(dp748
g72
(dp749
g80
I3
ssg81
g743
sg74
(lp750
S''
asbasbasbag67
(g83
g69
NtRp751
(dp752
g72
(dp753
sg81
g647
sg74
(lp754
g67
(g88
g69
NtRp755
(dp756
g72
(dp757
g92
g93
ssg81
g751
sg74
(lp758
g386
asbag67
(g88
g69
NtRp759
(dp760
g72
(dp761
g99
g100
ssg81
g751
sg74
(lp762
S':'
asbag67
(g88
g69
NtRp763
(dp764
g72
(dp765
sg81
g751
sg74
(lp766
g67
(g68
g69
NtRp767
(dp768
g72
(dp769
g80
I3
ssg81
g763
sg74
(lp770
S''
asbasbasbag67
(g83
g69
NtRp771
(dp772
g72
(dp773
sg81
g647
sg74
(lp774
g67
(g88
g69
NtRp775
(dp776
g72
(dp777
g92
g93
ssg81
g771
sg74
(lp778
g407
asbag67
(g88
g69
NtRp779
(dp780
g72
(dp781
g99
g100
ssg81
g771
sg74
(lp782
S':'
asbag67
(g88
g69
NtRp783
(dp784
g72
(dp785
sg81
g771
sg74
(lp786
g67
(g68
g69
NtRp787
(dp788
g72
(dp789
g80
I3
ssg81
g783
sg74
(lp790
S''
asbasbasbag67
(g83
g69
NtRp791
(dp792
g72
(dp793
sg81
g647
sg74
(lp794
g67
(g88
g69
NtRp795
(dp796
g72
(dp797
g92
g93
ssg81
g791
sg74
(lp798
g428
asbag67
(g88
g69
NtRp799
(dp800
g72
(dp801
g99
g100
ssg81
g791
sg74
(lp802
S':'
asbag67
(g88
g69
NtRp803
(dp804
g72
(dp805
sg81
g791
sg74
(lp806
g67
(g68
g69
NtRp807
(dp808
g72
(dp809
g80
I3
ssg81
g803
sg74
(lp810
S''
asbasbasbasbasbasbasbasbasbasbasbag67
(g83
g69
NtRp811
(dp812
g72
(dp813
sg81
g77
sg74
(lp814
g67
(g88
g69
NtRp815
(dp816
g72
(dp817
g92
g93
ssg81
g811
sg74
(lp818
S'env'
p819
asbag67
(g88
g69
NtRp820
(dp821
g72
(dp822
g99
g100
ssg81
g811
sg74
(lp823
S':'
asbag67
(g88
g69
NtRp824
(dp825
g72
(dp826
sg81
g811
sg74
(lp827
g67
(g68
g69
NtRp828
(dp829
g72
(dp830
g80
I5
ssg81
g824
sg74
(lp831
g67
(g76
g69
NtRp832
(dp833
g72
(dp834
g80
I4
ssg81
Nsg74
(lp835
g67
(g83
g69
NtRp836
(dp837
g72
(dp838
sg81
g832
sg74
(lp839
g67
(g88
g69
NtRp840
(dp841
g72
(dp842
g92
g93
ssg81
g836
sg74
(lp843
S'app_folders'
p844
asbag67
(g88
g69
NtRp845
(dp846
g72
(dp847
g99
g100
ssg81
g836
sg74
(lp848
S':'
asbag67
(g88
g69
NtRp849
(dp850
g72
(dp851
sg81
g836
sg74
(lp852
g67
(g68
g69
NtRp853
(dp854
g72
(dp855
g80
I4
ssg81
g849
sg74
(lp856
S"set(['/home/jose/DESARROLLO/web2py199/applications/streamlog/', '/home/jose/DESARROLLO/web2py199/applications/admin/'])"
p857
asbasbasbag67
(g83
g69
NtRp858
(dp859
g72
(dp860
sg81
g832
sg74
(lp861
g67
(g88
g69
NtRp862
(dp863
g72
(dp864
g92
g93
ssg81
g858
sg74
(lp865
S'applications_parent'
p866
asbag67
(g88
g69
NtRp867
(dp868
g72
(dp869
g99
g100
ssg81
g858
sg74
(lp870
S':'
asbag67
(g88
g69
NtRp871
(dp872
g72
(dp873
sg81
g858
sg74
(lp874
g67
(g68
g69
NtRp875
(dp876
g72
(dp877
g80
I4
ssg81
g871
sg74
(lp878
S'/home/jose/DESARROLLO/web2py199'
p879
asbasbasbag67
(g83
g69
NtRp880
(dp881
g72
(dp882
sg81
g832
sg74
(lp883
g67
(g88
g69
NtRp884
(dp885
g72
(dp886
g92
g93
ssg81
g880
sg74
(lp887
S'cmd_args'
p888
asbag67
(g88
g69
NtRp889
(dp890
g72
(dp891
g99
g100
ssg81
g880
sg74
(lp892
S':'
asbag67
(g88
g69
NtRp893
(dp894
g72
(dp895
sg81
g880
sg74
(lp896
g67
(g68
g69
NtRp897
(dp898
g72
(dp899
g80
I4
ssg81
g893
sg74
(lp900
g67
(g76
g69
NtRp901
(dp902
g72
(dp903
g80
I3
ssg81
Nsg74
(lp904
sbasbasbasbag67
(g83
g69
NtRp905
(dp906
g72
(dp907
sg81
g832
sg74
(lp908
g67
(g88
g69
NtRp909
(dp910
g72
(dp911
g92
g93
ssg81
g905
sg74
(lp912
S'cmd_options'
p913
asbag67
(g88
g69
NtRp914
(dp915
g72
(dp916
g99
g100
ssg81
g905
sg74
(lp917
S':'
asbag67
(g88
g69
NtRp918
(dp919
g72
(dp920
sg81
g905
sg74
(lp921
g67
(g68
g69
NtRp922
(dp923
g72
(dp924
g80
I4
ssg81
g918
sg74
(lp925
S"<Values at 0x1c79f80: {'verbose': False, 'ip': '127.0.0.1', 'shutdown_timeout': 5, 'taskbar': False, 'nocron': False, 'pid_filename': 'httpserver.pid', 'maxthreads': None, 'softcron': False, 'server_name': 'jose', 'bpython': False, 'nogui': False, 'port': 8000, 'extcron': False, 'debuglevel': 30, 'test': None, 'folder': '/home/jose/DESARROLLO/web2py199', 'config': '', 'import_models': False, 'winservice': '', 'shell': None, 'run': '', 'log_filename': 'httpserver.log', 'args': [''], 'ssl_ca_certificate': None, 'scheduler': None, 'profiler_filename': None, 'ssl_private_key': '', 'password': 't', 'request_queue_size': 5, 'ssl_certificate': '', 'cronjob': False, 'plain': False, 'quiet': False, 'interfaces': None, 'minthreads': None, 'timeout': 10, 'numthreads': None, 'nobanner': False}>"
p926
asbasbasbag67
(g83
g69
NtRp927
(dp928
g72
(dp929
sg81
g832
sg74
(lp930
g67
(g88
g69
NtRp931
(dp932
g72
(dp933
g92
g93
ssg81
g927
sg74
(lp934
S'db_sessions'
p935
asbag67
(g88
g69
NtRp936
(dp937
g72
(dp938
g99
g100
ssg81
g927
sg74
(lp939
S':'
asbag67
(g88
g69
NtRp940
(dp941
g72
(dp942
sg81
g927
sg74
(lp943
g67
(g68
g69
NtRp944
(dp945
g72
(dp946
g80
I4
ssg81
g940
sg74
(lp947
S'set([])'
p948
asbasbasbag67
(g83
g69
NtRp949
(dp950
g72
(dp951
sg81
g832
sg74
(lp952
g67
(g88
g69
NtRp953
(dp954
g72
(dp955
g92
g93
ssg81
g949
sg74
(lp956
S'debugging'
p957
asbag67
(g88
g69
NtRp958
(dp959
g72
(dp960
g99
g100
ssg81
g949
sg74
(lp961
S':'
asbag67
(g88
g69
NtRp962
(dp963
g72
(dp964
sg81
g949
sg74
(lp965
g67
(g68
g69
NtRp966
(dp967
g72
(dp968
g80
I4
ssg81
g962
sg74
(lp969
g110
asbasbasbag67
(g83
g69
NtRp970
(dp971
g72
(dp972
sg81
g832
sg74
(lp973
g67
(g88
g69
NtRp974
(dp975
g72
(dp976
g92
g93
ssg81
g970
sg74
(lp977
S'gluon_parent'
p978
asbag67
(g88
g69
NtRp979
(dp980
g72
(dp981
g99
g100
ssg81
g970
sg74
(lp982
S':'
asbag67
(g88
g69
NtRp983
(dp984
g72
(dp985
sg81
g970
sg74
(lp986
g67
(g68
g69
NtRp987
(dp988
g72
(dp989
g80
I4
ssg81
g983
sg74
(lp990
S'/home/jose/DESARROLLO/web2py199'
p991
asbasbasbag67
(g83
g69
NtRp992
(dp993
g72
(dp994
sg81
g832
sg74
(lp995
g67
(g88
g69
NtRp996
(dp997
g72
(dp998
g92
g93
ssg81
g992
sg74
(lp999
S'http_accept'
p1000
asbag67
(g88
g69
NtRp1001
(dp1002
g72
(dp1003
g99
g100
ssg81
g992
sg74
(lp1004
S':'
asbag67
(g88
g69
NtRp1005
(dp1006
g72
(dp1007
sg81
g992
sg74
(lp1008
g67
(g68
g69
NtRp1009
(dp1010
g72
(dp1011
g80
I4
ssg81
g1005
sg74
(lp1012
S'text/html,application/xhtml+xml,application/xml;q=0.9,*/*;q=0.8'
p1013
asbasbasbag67
(g83
g69
NtRp1014
(dp1015
g72
(dp1016
sg81
g832
sg74
(lp1017
g67
(g88
g69
NtRp1018
(dp1019
g72
(dp1020
g92
g93
ssg81
g1014
sg74
(lp1021
S'http_accept_encoding'
p1022
asbag67
(g88
g69
NtRp1023
(dp1024
g72
(dp1025
g99
g100
ssg81
g1014
sg74
(lp1026
S':'
asbag67
(g88
g69
NtRp1027
(dp1028
g72
(dp1029
sg81
g1014
sg74
(lp1030
g67
(g68
g69
NtRp1031
(dp1032
g72
(dp1033
g80
I4
ssg81
g1027
sg74
(lp1034
S'gzip, deflate'
p1035
asbasbasbag67
(g83
g69
NtRp1036
(dp1037
g72
(dp1038
sg81
g832
sg74
(lp1039
g67
(g88
g69
NtRp1040
(dp1041
g72
(dp1042
g92
g93
ssg81
g1036
sg74
(lp1043
S'http_accept_language'
p1044
asbag67
(g88
g69
NtRp1045
(dp1046
g72
(dp1047
g99
g100
ssg81
g1036
sg74
(lp1048
S':'
asbag67
(g88
g69
NtRp1049
(dp1050
g72
(dp1051
sg81
g1036
sg74
(lp1052
g67
(g68
g69
NtRp1053
(dp1054
g72
(dp1055
g80
I4
ssg81
g1049
sg74
(lp1056
S'en-us,en;q=0.5'
p1057
asbasbasbag67
(g83
g69
NtRp1058
(dp1059
g72
(dp1060
sg81
g832
sg74
(lp1061
g67
(g88
g69
NtRp1062
(dp1063
g72
(dp1064
g92
g93
ssg81
g1058
sg74
(lp1065
S'http_cache_control'
p1066
asbag67
(g88
g69
NtRp1067
(dp1068
g72
(dp1069
g99
g100
ssg81
g1058
sg74
(lp1070
S':'
asbag67
(g88
g69
NtRp1071
(dp1072
g72
(dp1073
sg81
g1058
sg74
(lp1074
g67
(g68
g69
NtRp1075
(dp1076
g72
(dp1077
g80
I4
ssg81
g1071
sg74
(lp1078
S'max-age=0'
p1079
asbasbasbag67
(g83
g69
NtRp1080
(dp1081
g72
(dp1082
sg81
g832
sg74
(lp1083
g67
(g88
g69
NtRp1084
(dp1085
g72
(dp1086
g92
g93
ssg81
g1080
sg74
(lp1087
S'http_connection'
p1088
asbag67
(g88
g69
NtRp1089
(dp1090
g72
(dp1091
g99
g100
ssg81
g1080
sg74
(lp1092
S':'
asbag67
(g88
g69
NtRp1093
(dp1094
g72
(dp1095
sg81
g1080
sg74
(lp1096
g67
(g68
g69
NtRp1097
(dp1098
g72
(dp1099
g80
I4
ssg81
g1093
sg74
(lp1100
S'keep-alive'
p1101
asbasbasbag67
(g83
g69
NtRp1102
(dp1103
g72
(dp1104
sg81
g832
sg74
(lp1105
g67
(g88
g69
NtRp1106
(dp1107
g72
(dp1108
g92
g93
ssg81
g1102
sg74
(lp1109
S'http_cookie'
p1110
asbag67
(g88
g69
NtRp1111
(dp1112
g72
(dp1113
g99
g100
ssg81
g1102
sg74
(lp1114
S':'
asbag67
(g88
g69
NtRp1115
(dp1116
g72
(dp1117
sg81
g1102
sg74
(lp1118
g67
(g68
g69
NtRp1119
(dp1120
g72
(dp1121
g80
I4
ssg81
g1115
sg74
(lp1122
S'session_id_streamlog=127.0.0.1-610b0c7d-3f6f-4500-a76a-b095fb30f7fd; session_id_admin=127.0.0.1-8f69464e-4a83-4875-ad25-00cf5c7e8e11; session_id_test3=127.0.0.1-380e7b29-b635-4690-b9ca-812870d6a061'
p1123
asbasbasbag67
(g83
g69
NtRp1124
(dp1125
g72
(dp1126
sg81
g832
sg74
(lp1127
g67
(g88
g69
NtRp1128
(dp1129
g72
(dp1130
g92
g93
ssg81
g1124
sg74
(lp1131
S'http_host'
p1132
asbag67
(g88
g69
NtRp1133
(dp1134
g72
(dp1135
g99
g100
ssg81
g1124
sg74
(lp1136
S':'
asbag67
(g88
g69
NtRp1137
(dp1138
g72
(dp1139
sg81
g1124
sg74
(lp1140
g67
(g68
g69
NtRp1141
(dp1142
g72
(dp1143
g80
I4
ssg81
g1137
sg74
(lp1144
S'localhost:8000'
p1145
asbasbasbag67
(g83
g69
NtRp1146
(dp1147
g72
(dp1148
sg81
g832
sg74
(lp1149
g67
(g88
g69
NtRp1150
(dp1151
g72
(dp1152
g92
g93
ssg81
g1146
sg74
(lp1153
S'http_user_agent'
p1154
asbag67
(g88
g69
NtRp1155
(dp1156
g72
(dp1157
g99
g100
ssg81
g1146
sg74
(lp1158
S':'
asbag67
(g88
g69
NtRp1159
(dp1160
g72
(dp1161
sg81
g1146
sg74
(lp1162
g67
(g68
g69
NtRp1163
(dp1164
g72
(dp1165
g80
I4
ssg81
g1159
sg74
(lp1166
S'Mozilla/5.0 (X11; Ubuntu; Linux x86_64; rv:12.0) Gecko/20100101 Firefox/12.0'
p1167
asbasbasbag67
(g83
g69
NtRp1168
(dp1169
g72
(dp1170
sg81
g832
sg74
(lp1171
g67
(g88
g69
NtRp1172
(dp1173
g72
(dp1174
g92
g93
ssg81
g1168
sg74
(lp1175
S'is_jython'
p1176
asbag67
(g88
g69
NtRp1177
(dp1178
g72
(dp1179
g99
g100
ssg81
g1168
sg74
(lp1180
S':'
asbag67
(g88
g69
NtRp1181
(dp1182
g72
(dp1183
sg81
g1168
sg74
(lp1184
g67
(g68
g69
NtRp1185
(dp1186
g72
(dp1187
g80
I4
ssg81
g1181
sg74
(lp1188
g110
asbasbasbag67
(g83
g69
NtRp1189
(dp1190
g72
(dp1191
sg81
g832
sg74
(lp1192
g67
(g88
g69
NtRp1193
(dp1194
g72
(dp1195
g92
g93
ssg81
g1189
sg74
(lp1196
S'path_info'
p1197
asbag67
(g88
g69
NtRp1198
(dp1199
g72
(dp1200
g99
g100
ssg81
g1189
sg74
(lp1201
S':'
asbag67
(g88
g69
NtRp1202
(dp1203
g72
(dp1204
sg81
g1189
sg74
(lp1205
g67
(g68
g69
NtRp1206
(dp1207
g72
(dp1208
g80
I4
ssg81
g1202
sg74
(lp1209
S'/streamlog/default/index'
p1210
asbasbasbag67
(g83
g69
NtRp1211
(dp1212
g72
(dp1213
sg81
g832
sg74
(lp1214
g67
(g88
g69
NtRp1215
(dp1216
g72
(dp1217
g92
g93
ssg81
g1211
sg74
(lp1218
S'query_string'
p1219
asbag67
(g88
g69
NtRp1220
(dp1221
g72
(dp1222
g99
g100
ssg81
g1211
sg74
(lp1223
S':'
asbag67
(g88
g69
NtRp1224
(dp1225
g72
(dp1226
sg81
g1211
sg74
(lp1227
g67
(g68
g69
NtRp1228
(dp1229
g72
(dp1230
g80
I4
ssg81
g1224
sg74
(lp1231
S''
asbasbasbag67
(g83
g69
NtRp1232
(dp1233
g72
(dp1234
sg81
g832
sg74
(lp1235
g67
(g88
g69
NtRp1236
(dp1237
g72
(dp1238
g92
g93
ssg81
g1232
sg74
(lp1239
S'remote_addr'
p1240
asbag67
(g88
g69
NtRp1241
(dp1242
g72
(dp1243
g99
g100
ssg81
g1232
sg74
(lp1244
S':'
asbag67
(g88
g69
NtRp1245
(dp1246
g72
(dp1247
sg81
g1232
sg74
(lp1248
g67
(g68
g69
NtRp1249
(dp1250
g72
(dp1251
g80
I4
ssg81
g1245
sg74
(lp1252
g200
asbasbasbag67
(g83
g69
NtRp1253
(dp1254
g72
(dp1255
sg81
g832
sg74
(lp1256
g67
(g88
g69
NtRp1257
(dp1258
g72
(dp1259
g92
g93
ssg81
g1253
sg74
(lp1260
S'remote_port'
p1261
asbag67
(g88
g69
NtRp1262
(dp1263
g72
(dp1264
g99
g100
ssg81
g1253
sg74
(lp1265
S':'
asbag67
(g88
g69
NtRp1266
(dp1267
g72
(dp1268
sg81
g1253
sg74
(lp1269
g67
(g68
g69
NtRp1270
(dp1271
g72
(dp1272
g80
I4
ssg81
g1266
sg74
(lp1273
S'36197'
p1274
asbasbasbag67
(g83
g69
NtRp1275
(dp1276
g72
(dp1277
sg81
g832
sg74
(lp1278
g67
(g88
g69
NtRp1279
(dp1280
g72
(dp1281
g92
g93
ssg81
g1275
sg74
(lp1282
S'request_method'
p1283
asbag67
(g88
g69
NtRp1284
(dp1285
g72
(dp1286
g99
g100
ssg81
g1275
sg74
(lp1287
S':'
asbag67
(g88
g69
NtRp1288
(dp1289
g72
(dp1290
sg81
g1275
sg74
(lp1291
g67
(g68
g69
NtRp1292
(dp1293
g72
(dp1294
g80
I4
ssg81
g1288
sg74
(lp1295
S'GET'
p1296
asbasbasbag67
(g83
g69
NtRp1297
(dp1298
g72
(dp1299
sg81
g832
sg74
(lp1300
g67
(g88
g69
NtRp1301
(dp1302
g72
(dp1303
g92
g93
ssg81
g1297
sg74
(lp1304
S'script_name'
p1305
asbag67
(g88
g69
NtRp1306
(dp1307
g72
(dp1308
g99
g100
ssg81
g1297
sg74
(lp1309
S':'
asbag67
(g88
g69
NtRp1310
(dp1311
g72
(dp1312
sg81
g1297
sg74
(lp1313
g67
(g68
g69
NtRp1314
(dp1315
g72
(dp1316
g80
I4
ssg81
g1310
sg74
(lp1317
S''
asbasbasbag67
(g83
g69
NtRp1318
(dp1319
g72
(dp1320
sg81
g832
sg74
(lp1321
g67
(g88
g69
NtRp1322
(dp1323
g72
(dp1324
g92
g93
ssg81
g1318
sg74
(lp1325
S'server_name'
p1326
asbag67
(g88
g69
NtRp1327
(dp1328
g72
(dp1329
g99
g100
ssg81
g1318
sg74
(lp1330
S':'
asbag67
(g88
g69
NtRp1331
(dp1332
g72
(dp1333
sg81
g1318
sg74
(lp1334
g67
(g68
g69
NtRp1335
(dp1336
g72
(dp1337
g80
I4
ssg81
g1331
sg74
(lp1338
S'jose'
p1339
asbasbasbag67
(g83
g69
NtRp1340
(dp1341
g72
(dp1342
sg81
g832
sg74
(lp1343
g67
(g88
g69
NtRp1344
(dp1345
g72
(dp1346
g92
g93
ssg81
g1340
sg74
(lp1347
S'server_port'
p1348
asbag67
(g88
g69
NtRp1349
(dp1350
g72
(dp1351
g99
g100
ssg81
g1340
sg74
(lp1352
S':'
asbag67
(g88
g69
NtRp1353
(dp1354
g72
(dp1355
sg81
g1340
sg74
(lp1356
g67
(g68
g69
NtRp1357
(dp1358
g72
(dp1359
g80
I4
ssg81
g1353
sg74
(lp1360
S'8000'
p1361
asbasbasbag67
(g83
g69
NtRp1362
(dp1363
g72
(dp1364
sg81
g832
sg74
(lp1365
g67
(g88
g69
NtRp1366
(dp1367
g72
(dp1368
g92
g93
ssg81
g1362
sg74
(lp1369
S'server_protocol'
p1370
asbag67
(g88
g69
NtRp1371
(dp1372
g72
(dp1373
g99
g100
ssg81
g1362
sg74
(lp1374
S':'
asbag67
(g88
g69
NtRp1375
(dp1376
g72
(dp1377
sg81
g1362
sg74
(lp1378
g67
(g68
g69
NtRp1379
(dp1380
g72
(dp1381
g80
I4
ssg81
g1375
sg74
(lp1382
S'HTTP/1.1'
p1383
asbasbasbag67
(g83
g69
NtRp1384
(dp1385
g72
(dp1386
sg81
g832
sg74
(lp1387
g67
(g88
g69
NtRp1388
(dp1389
g72
(dp1390
g92
g93
ssg81
g1384
sg74
(lp1391
S'server_software'
p1392
asbag67
(g88
g69
NtRp1393
(dp1394
g72
(dp1395
g99
g100
ssg81
g1384
sg74
(lp1396
S':'
asbag67
(g88
g69
NtRp1397
(dp1398
g72
(dp1399
sg81
g1384
sg74
(lp1400
g67
(g68
g69
NtRp1401
(dp1402
g72
(dp1403
g80
I4
ssg81
g1397
sg74
(lp1404
S'Rocket 1.2.4'
p1405
asbasbasbag67
(g83
g69
NtRp1406
(dp1407
g72
(dp1408
sg81
g832
sg74
(lp1409
g67
(g88
g69
NtRp1410
(dp1411
g72
(dp1412
g92
g93
ssg81
g1406
sg74
(lp1413
S'web2py_crontype'
p1414
asbag67
(g88
g69
NtRp1415
(dp1416
g72
(dp1417
g99
g100
ssg81
g1406
sg74
(lp1418
S':'
asbag67
(g88
g69
NtRp1419
(dp1420
g72
(dp1421
sg81
g1406
sg74
(lp1422
g67
(g68
g69
NtRp1423
(dp1424
g72
(dp1425
g80
I4
ssg81
g1419
sg74
(lp1426
S'hard'
p1427
asbasbasbag67
(g83
g69
NtRp1428
(dp1429
g72
(dp1430
sg81
g832
sg74
(lp1431
g67
(g88
g69
NtRp1432
(dp1433
g72
(dp1434
g92
g93
ssg81
g1428
sg74
(lp1435
S'web2py_path'
p1436
asbag67
(g88
g69
NtRp1437
(dp1438
g72
(dp1439
g99
g100
ssg81
g1428
sg74
(lp1440
S':'
asbag67
(g88
g69
NtRp1441
(dp1442
g72
(dp1443
sg81
g1428
sg74
(lp1444
g67
(g68
g69
NtRp1445
(dp1446
g72
(dp1447
g80
I4
ssg81
g1441
sg74
(lp1448
g879
asbasbasbag67
(g83
g69
NtRp1449
(dp1450
g72
(dp1451
sg81
g832
sg74
(lp1452
g67
(g88
g69
NtRp1453
(dp1454
g72
(dp1455
g92
g93
ssg81
g1449
sg74
(lp1456
S'web2py_version'
p1457
asbag67
(g88
g69
NtRp1458
(dp1459
g72
(dp1460
g99
g100
ssg81
g1449
sg74
(lp1461
S':'
asbag67
(g88
g69
NtRp1462
(dp1463
g72
(dp1464
sg81
g1449
sg74
(lp1465
g67
(g68
g69
NtRp1466
(dp1467
g72
(dp1468
g80
I4
ssg81
g1462
sg74
(lp1469
g67
(g76
g69
NtRp1470
(dp1471
g72
(dp1472
g80
I3
ssg81
Nsg74
(lp1473
g67
(g83
g69
NtRp1474
(dp1475
g72
(dp1476
sg81
g1470
sg74
(lp1477
g67
(g88
g69
NtRp1478
(dp1479
g72
(dp1480
sg81
g1474
sg74
(lp1481
g67
(g68
g69
NtRp1482
(dp1483
g72
(dp1484
g80
I3
ssg81
g1478
sg74
(lp1485
S'1'
asbasbasbag67
(g83
g69
NtRp1486
(dp1487
g72
(dp1488
sg81
g1470
sg74
(lp1489
g67
(g88
g69
NtRp1490
(dp1491
g72
(dp1492
sg81
g1486
sg74
(lp1493
g67
(g68
g69
NtRp1494
(dp1495
g72
(dp1496
g80
I3
ssg81
g1490
sg74
(lp1497
S'99'
p1498
asbasbasbag67
(g83
g69
NtRp1499
(dp1500
g72
(dp1501
sg81
g1470
sg74
(lp1502
g67
(g88
g69
NtRp1503
(dp1504
g72
(dp1505
sg81
g1499
sg74
(lp1506
g67
(g68
g69
NtRp1507
(dp1508
g72
(dp1509
g80
I3
ssg81
g1503
sg74
(lp1510
S'2'
asbasbasbag67
(g83
g69
NtRp1511
(dp1512
g72
(dp1513
sg81
g1470
sg74
(lp1514
g67
(g88
g69
NtRp1515
(dp1516
g72
(dp1517
sg81
g1511
sg74
(lp1518
g67
(g68
g69
NtRp1519
(dp1520
g72
(dp1521
g80
I3
ssg81
g1515
sg74
(lp1522
S'datetime.datetime(2011, 9, 26, 6, 55, 33)'
p1523
asbasbasbag67
(g83
g69
NtRp1524
(dp1525
g72
(dp1526
sg81
g1470
sg74
(lp1527
g67
(g88
g69
NtRp1528
(dp1529
g72
(dp1530
sg81
g1524
sg74
(lp1531
g67
(g68
g69
NtRp1532
(dp1533
g72
(dp1534
g80
I3
ssg81
g1528
sg74
(lp1535
S'stable'
p1536
asbasbasbasbasbasbasbag67
(g83
g69
NtRp1537
(dp1538
g72
(dp1539
sg81
g832
sg74
(lp1540
g67
(g88
g69
NtRp1541
(dp1542
g72
(dp1543
g92
g93
ssg81
g1537
sg74
(lp1544
S'wsgi_errors'
p1545
asbag67
(g88
g69
NtRp1546
(dp1547
g72
(dp1548
g99
g100
ssg81
g1537
sg74
(lp1549
S':'
asbag67
(g88
g69
NtRp1550
(dp1551
g72
(dp1552
sg81
g1537
sg74
(lp1553
g67
(g68
g69
NtRp1554
(dp1555
g72
(dp1556
g80
I4
ssg81
g1550
sg74
(lp1557
S"<open file '<stderr>', mode 'w' at 0x7f84db3ff270>"
p1558
asbasbasbag67
(g83
g69
NtRp1559
(dp1560
g72
(dp1561
sg81
g832
sg74
(lp1562
g67
(g88
g69
NtRp1563
(dp1564
g72
(dp1565
g92
g93
ssg81
g1559
sg74
(lp1566
S'wsgi_file_wrapper'
p1567
asbag67
(g88
g69
NtRp1568
(dp1569
g72
(dp1570
g99
g100
ssg81
g1559
sg74
(lp1571
S':'
asbag67
(g88
g69
NtRp1572
(dp1573
g72
(dp1574
sg81
g1559
sg74
(lp1575
g67
(g68
g69
NtRp1576
(dp1577
g72
(dp1578
g80
I4
ssg81
g1572
sg74
(lp1579
S'<class wsgiref.util.FileWrapper at 0x1b96d50>'
p1580
asbasbasbag67
(g83
g69
NtRp1581
(dp1582
g72
(dp1583
sg81
g832
sg74
(lp1584
g67
(g88
g69
NtRp1585
(dp1586
g72
(dp1587
g92
g93
ssg81
g1581
sg74
(lp1588
S'wsgi_input'
p1589
asbag67
(g88
g69
NtRp1590
(dp1591
g72
(dp1592
g99
g100
ssg81
g1581
sg74
(lp1593
S':'
asbag67
(g88
g69
NtRp1594
(dp1595
g72
(dp1596
sg81
g1581
sg74
(lp1597
g67
(g68
g69
NtRp1598
(dp1599
g72
(dp1600
g80
I4
ssg81
g1594
sg74
(lp1601
S'<socket._fileobject object at 0x44b9dd0>'
p1602
asbasbasbag67
(g83
g69
NtRp1603
(dp1604
g72
(dp1605
sg81
g832
sg74
(lp1606
g67
(g88
g69
NtRp1607
(dp1608
g72
(dp1609
g92
g93
ssg81
g1603
sg74
(lp1610
S'wsgi_multiprocess'
p1611
asbag67
(g88
g69
NtRp1612
(dp1613
g72
(dp1614
g99
g100
ssg81
g1603
sg74
(lp1615
S':'
asbag67
(g88
g69
NtRp1616
(dp1617
g72
(dp1618
sg81
g1603
sg74
(lp1619
g67
(g68
g69
NtRp1620
(dp1621
g72
(dp1622
g80
I4
ssg81
g1616
sg74
(lp1623
g110
asbasbasbag67
(g83
g69
NtRp1624
(dp1625
g72
(dp1626
sg81
g832
sg74
(lp1627
g67
(g88
g69
NtRp1628
(dp1629
g72
(dp1630
g92
g93
ssg81
g1624
sg74
(lp1631
S'wsgi_multithread'
p1632
asbag67
(g88
g69
NtRp1633
(dp1634
g72
(dp1635
g99
g100
ssg81
g1624
sg74
(lp1636
S':'
asbag67
(g88
g69
NtRp1637
(dp1638
g72
(dp1639
sg81
g1624
sg74
(lp1640
g67
(g68
g69
NtRp1641
(dp1642
g72
(dp1643
g80
I4
ssg81
g1637
sg74
(lp1644
S'True'
p1645
asbasbasbag67
(g83
g69
NtRp1646
(dp1647
g72
(dp1648
sg81
g832
sg74
(lp1649
g67
(g88
g69
NtRp1650
(dp1651
g72
(dp1652
g92
g93
ssg81
g1646
sg74
(lp1653
S'wsgi_run_once'
p1654
asbag67
(g88
g69
NtRp1655
(dp1656
g72
(dp1657
g99
g100
ssg81
g1646
sg74
(lp1658
S':'
asbag67
(g88
g69
NtRp1659
(dp1660
g72
(dp1661
sg81
g1646
sg74
(lp1662
g67
(g68
g69
NtRp1663
(dp1664
g72
(dp1665
g80
I4
ssg81
g1659
sg74
(lp1666
g110
asbasbasbag67
(g83
g69
NtRp1667
(dp1668
g72
(dp1669
sg81
g832
sg74
(lp1670
g67
(g88
g69
NtRp1671
(dp1672
g72
(dp1673
g92
g93
ssg81
g1667
sg74
(lp1674
S'wsgi_url_scheme'
p1675
asbag67
(g88
g69
NtRp1676
(dp1677
g72
(dp1678
g99
g100
ssg81
g1667
sg74
(lp1679
S':'
asbag67
(g88
g69
NtRp1680
(dp1681
g72
(dp1682
sg81
g1667
sg74
(lp1683
g67
(g68
g69
NtRp1684
(dp1685
g72
(dp1686
g80
I4
ssg81
g1680
sg74
(lp1687
S'http'
p1688
asbasbasbag67
(g83
g69
NtRp1689
(dp1690
g72
(dp1691
sg81
g832
sg74
(lp1692
g67
(g88
g69
NtRp1693
(dp1694
g72
(dp1695
g92
g93
ssg81
g1689
sg74
(lp1696
S'wsgi_version'
p1697
asbag67
(g88
g69
NtRp1698
(dp1699
g72
(dp1700
g99
g100
ssg81
g1689
sg74
(lp1701
S':'
asbag67
(g88
g69
NtRp1702
(dp1703
g72
(dp1704
sg81
g1689
sg74
(lp1705
g67
(g68
g69
NtRp1706
(dp1707
g72
(dp1708
g80
I4
ssg81
g1702
sg74
(lp1709
g67
(g76
g69
NtRp1710
(dp1711
g72
(dp1712
g80
I3
ssg81
Nsg74
(lp1713
g67
(g83
g69
NtRp1714
(dp1715
g72
(dp1716
sg81
g1710
sg74
(lp1717
g67
(g88
g69
NtRp1718
(dp1719
g72
(dp1720
sg81
g1714
sg74
(lp1721
g67
(g68
g69
NtRp1722
(dp1723
g72
(dp1724
g80
I3
ssg81
g1718
sg74
(lp1725
S'1'
asbasbasbag67
(g83
g69
NtRp1726
(dp1727
g72
(dp1728
sg81
g1710
sg74
(lp1729
g67
(g88
g69
NtRp1730
(dp1731
g72
(dp1732
sg81
g1726
sg74
(lp1733
g67
(g68
g69
NtRp1734
(dp1735
g72
(dp1736
g80
I3
ssg81
g1730
sg74
(lp1737
S'0'
asbasbasbasbasbasbasbasbasbasbasbag67
(g83
g69
NtRp1738
(dp1739
g72
(dp1740
sg81
g77
sg74
(lp1741
g67
(g88
g69
NtRp1742
(dp1743
g72
(dp1744
g92
g93
ssg81
g1738
sg74
(lp1745
S'extension'
p1746
asbag67
(g88
g69
NtRp1747
(dp1748
g72
(dp1749
g99
g100
ssg81
g1738
sg74
(lp1750
S':'
asbag67
(g88
g69
NtRp1751
(dp1752
g72
(dp1753
sg81
g1738
sg74
(lp1754
g67
(g68
g69
NtRp1755
(dp1756
g72
(dp1757
g80
I5
ssg81
g1751
sg74
(lp1758
S'html'
p1759
asbasbasbag67
(g83
g69
NtRp1760
(dp1761
g72
(dp1762
sg81
g77
sg74
(lp1763
g67
(g88
g69
NtRp1764
(dp1765
g72
(dp1766
g92
g93
ssg81
g1760
sg74
(lp1767
S'folder'
p1768
asbag67
(g88
g69
NtRp1769
(dp1770
g72
(dp1771
g99
g100
ssg81
g1760
sg74
(lp1772
S':'
asbag67
(g88
g69
NtRp1773
(dp1774
g72
(dp1775
sg81
g1760
sg74
(lp1776
g67
(g68
g69
NtRp1777
(dp1778
g72
(dp1779
g80
I5
ssg81
g1773
sg74
(lp1780
S'/home/jose/DESARROLLO/web2py199/applications/streamlog/'
p1781
asbasbasbag67
(g83
g69
NtRp1782
(dp1783
g72
(dp1784
sg81
g77
sg74
(lp1785
g67
(g88
g69
NtRp1786
(dp1787
g72
(dp1788
g92
g93
ssg81
g1782
sg74
(lp1789
S'function'
p1790
asbag67
(g88
g69
NtRp1791
(dp1792
g72
(dp1793
g99
g100
ssg81
g1782
sg74
(lp1794
S':'
asbag67
(g88
g69
NtRp1795
(dp1796
g72
(dp1797
sg81
g1782
sg74
(lp1798
g67
(g68
g69
NtRp1799
(dp1800
g72
(dp1801
g80
I5
ssg81
g1795
sg74
(lp1802
S'index'
p1803
asbasbasbag67
(g83
g69
NtRp1804
(dp1805
g72
(dp1806
sg81
g77
sg74
(lp1807
g67
(g88
g69
NtRp1808
(dp1809
g72
(dp1810
g92
g93
ssg81
g1804
sg74
(lp1811
S'get_vars'
p1812
asbag67
(g88
g69
NtRp1813
(dp1814
g72
(dp1815
g99
g100
ssg81
g1804
sg74
(lp1816
S':'
asbag67
(g88
g69
NtRp1817
(dp1818
g72
(dp1819
sg81
g1804
sg74
(lp1820
g67
(g68
g69
NtRp1821
(dp1822
g72
(dp1823
g80
I5
ssg81
g1817
sg74
(lp1824
g67
(g76
g69
NtRp1825
(dp1826
g72
(dp1827
g80
I4
ssg81
Nsg74
(lp1828
sbasbasbasbag67
(g83
g69
NtRp1829
(dp1830
g72
(dp1831
sg81
g77
sg74
(lp1832
g67
(g88
g69
NtRp1833
(dp1834
g72
(dp1835
g92
g93
ssg81
g1829
sg74
(lp1836
S'global_settings'
p1837
asbag67
(g88
g69
NtRp1838
(dp1839
g72
(dp1840
g99
g100
ssg81
g1829
sg74
(lp1841
S':'
asbag67
(g88
g69
NtRp1842
(dp1843
g72
(dp1844
sg81
g1829
sg74
(lp1845
g67
(g68
g69
NtRp1846
(dp1847
g72
(dp1848
g80
I5
ssg81
g1842
sg74
(lp1849
g67
(g76
g69
NtRp1850
(dp1851
g72
(dp1852
g80
I4
ssg81
Nsg74
(lp1853
g67
(g83
g69
NtRp1854
(dp1855
g72
(dp1856
sg81
g1850
sg74
(lp1857
g67
(g88
g69
NtRp1858
(dp1859
g72
(dp1860
g92
g93
ssg81
g1854
sg74
(lp1861
g844
asbag67
(g88
g69
NtRp1862
(dp1863
g72
(dp1864
g99
g100
ssg81
g1854
sg74
(lp1865
S':'
asbag67
(g88
g69
NtRp1866
(dp1867
g72
(dp1868
sg81
g1854
sg74
(lp1869
g67
(g68
g69
NtRp1870
(dp1871
g72
(dp1872
g80
I4
ssg81
g1866
sg74
(lp1873
S"set(['/home/jose/DESARROLLO/web2py199/applications/streamlog/', '/home/jose/DESARROLLO/web2py199/applications/admin/'])"
p1874
asbasbasbag67
(g83
g69
NtRp1875
(dp1876
g72
(dp1877
sg81
g1850
sg74
(lp1878
g67
(g88
g69
NtRp1879
(dp1880
g72
(dp1881
g92
g93
ssg81
g1875
sg74
(lp1882
g866
asbag67
(g88
g69
NtRp1883
(dp1884
g72
(dp1885
g99
g100
ssg81
g1875
sg74
(lp1886
S':'
asbag67
(g88
g69
NtRp1887
(dp1888
g72
(dp1889
sg81
g1875
sg74
(lp1890
g67
(g68
g69
NtRp1891
(dp1892
g72
(dp1893
g80
I4
ssg81
g1887
sg74
(lp1894
g879
asbasbasbag67
(g83
g69
NtRp1895
(dp1896
g72
(dp1897
sg81
g1850
sg74
(lp1898
g67
(g88
g69
NtRp1899
(dp1900
g72
(dp1901
g92
g93
ssg81
g1895
sg74
(lp1902
g888
asbag67
(g88
g69
NtRp1903
(dp1904
g72
(dp1905
g99
g100
ssg81
g1895
sg74
(lp1906
S':'
asbag67
(g88
g69
NtRp1907
(dp1908
g72
(dp1909
sg81
g1895
sg74
(lp1910
g67
(g68
g69
NtRp1911
(dp1912
g72
(dp1913
g80
I4
ssg81
g1907
sg74
(lp1914
g67
(g76
g69
NtRp1915
(dp1916
g72
(dp1917
g80
I3
ssg81
Nsg74
(lp1918
sbasbasbasbag67
(g83
g69
NtRp1919
(dp1920
g72
(dp1921
sg81
g1850
sg74
(lp1922
g67
(g88
g69
NtRp1923
(dp1924
g72
(dp1925
g92
g93
ssg81
g1919
sg74
(lp1926
g913
asbag67
(g88
g69
NtRp1927
(dp1928
g72
(dp1929
g99
g100
ssg81
g1919
sg74
(lp1930
S':'
asbag67
(g88
g69
NtRp1931
(dp1932
g72
(dp1933
sg81
g1919
sg74
(lp1934
g67
(g68
g69
NtRp1935
(dp1936
g72
(dp1937
g80
I4
ssg81
g1931
sg74
(lp1938
S"<Values at 0x1c79f80: {'verbose': False, 'ip': '127.0.0.1', 'shutdown_timeout': 5, 'taskbar': False, 'nocron': False, 'pid_filename': 'httpserver.pid', 'maxthreads': None, 'softcron': False, 'server_name': 'jose', 'bpython': False, 'nogui': False, 'port': 8000, 'extcron': False, 'debuglevel': 30, 'test': None, 'folder': '/home/jose/DESARROLLO/web2py199', 'config': '', 'import_models': False, 'winservice': '', 'shell': None, 'run': '', 'log_filename': 'httpserver.log', 'args': [''], 'ssl_ca_certificate': None, 'scheduler': None, 'profiler_filename': None, 'ssl_private_key': '', 'password': 't', 'request_queue_size': 5, 'ssl_certificate': '', 'cronjob': False, 'plain': False, 'quiet': False, 'interfaces': None, 'minthreads': None, 'timeout': 10, 'numthreads': None, 'nobanner': False}>"
p1939
asbasbasbag67
(g83
g69
NtRp1940
(dp1941
g72
(dp1942
sg81
g1850
sg74
(lp1943
g67
(g88
g69
NtRp1944
(dp1945
g72
(dp1946
g92
g93
ssg81
g1940
sg74
(lp1947
g935
asbag67
(g88
g69
NtRp1948
(dp1949
g72
(dp1950
g99
g100
ssg81
g1940
sg74
(lp1951
S':'
asbag67
(g88
g69
NtRp1952
(dp1953
g72
(dp1954
sg81
g1940
sg74
(lp1955
g67
(g68
g69
NtRp1956
(dp1957
g72
(dp1958
g80
I4
ssg81
g1952
sg74
(lp1959
S'set([])'
p1960
asbasbasbag67
(g83
g69
NtRp1961
(dp1962
g72
(dp1963
sg81
g1850
sg74
(lp1964
g67
(g88
g69
NtRp1965
(dp1966
g72
(dp1967
g92
g93
ssg81
g1961
sg74
(lp1968
g957
asbag67
(g88
g69
NtRp1969
(dp1970
g72
(dp1971
g99
g100
ssg81
g1961
sg74
(lp1972
S':'
asbag67
(g88
g69
NtRp1973
(dp1974
g72
(dp1975
sg81
g1961
sg74
(lp1976
g67
(g68
g69
NtRp1977
(dp1978
g72
(dp1979
g80
I4
ssg81
g1973
sg74
(lp1980
g110
asbasbasbag67
(g83
g69
NtRp1981
(dp1982
g72
(dp1983
sg81
g1850
sg74
(lp1984
g67
(g88
g69
NtRp1985
(dp1986
g72
(dp1987
g92
g93
ssg81
g1981
sg74
(lp1988
g978
asbag67
(g88
g69
NtRp1989
(dp1990
g72
(dp1991
g99
g100
ssg81
g1981
sg74
(lp1992
S':'
asbag67
(g88
g69
NtRp1993
(dp1994
g72
(dp1995
sg81
g1981
sg74
(lp1996
g67
(g68
g69
NtRp1997
(dp1998
g72
(dp1999
g80
I4
ssg81
g1993
sg74
(lp2000
g991
asbasbasbag67
(g83
g69
NtRp2001
(dp2002
g72
(dp2003
sg81
g1850
sg74
(lp2004
g67
(g88
g69
NtRp2005
(dp2006
g72
(dp2007
g92
g93
ssg81
g2001
sg74
(lp2008
g1176
asbag67
(g88
g69
NtRp2009
(dp2010
g72
(dp2011
g99
g100
ssg81
g2001
sg74
(lp2012
S':'
asbag67
(g88
g69
NtRp2013
(dp2014
g72
(dp2015
sg81
g2001
sg74
(lp2016
g67
(g68
g69
NtRp2017
(dp2018
g72
(dp2019
g80
I4
ssg81
g2013
sg74
(lp2020
g110
asbasbasbag67
(g83
g69
NtRp2021
(dp2022
g72
(dp2023
sg81
g1850
sg74
(lp2024
g67
(g88
g69
NtRp2025
(dp2026
g72
(dp2027
g92
g93
ssg81
g2021
sg74
(lp2028
g1414
asbag67
(g88
g69
NtRp2029
(dp2030
g72
(dp2031
g99
g100
ssg81
g2021
sg74
(lp2032
S':'
asbag67
(g88
g69
NtRp2033
(dp2034
g72
(dp2035
sg81
g2021
sg74
(lp2036
g67
(g68
g69
NtRp2037
(dp2038
g72
(dp2039
g80
I4
ssg81
g2033
sg74
(lp2040
g1427
asbasbasbag67
(g83
g69
NtRp2041
(dp2042
g72
(dp2043
sg81
g1850
sg74
(lp2044
g67
(g88
g69
NtRp2045
(dp2046
g72
(dp2047
g92
g93
ssg81
g2041
sg74
(lp2048
g1457
asbag67
(g88
g69
NtRp2049
(dp2050
g72
(dp2051
g99
g100
ssg81
g2041
sg74
(lp2052
S':'
asbag67
(g88
g69
NtRp2053
(dp2054
g72
(dp2055
sg81
g2041
sg74
(lp2056
g67
(g68
g69
NtRp2057
(dp2058
g72
(dp2059
g80
I4
ssg81
g2053
sg74
(lp2060
g67
(g76
g69
NtRp2061
(dp2062
g72
(dp2063
g80
I3
ssg81
Nsg74
(lp2064
g67
(g83
g69
NtRp2065
(dp2066
g72
(dp2067
sg81
g2061
sg74
(lp2068
g67
(g88
g69
NtRp2069
(dp2070
g72
(dp2071
sg81
g2065
sg74
(lp2072
g67
(g68
g69
NtRp2073
(dp2074
g72
(dp2075
g80
I3
ssg81
g2069
sg74
(lp2076
S'1'
asbasbasbag67
(g83
g69
NtRp2077
(dp2078
g72
(dp2079
sg81
g2061
sg74
(lp2080
g67
(g88
g69
NtRp2081
(dp2082
g72
(dp2083
sg81
g2077
sg74
(lp2084
g67
(g68
g69
NtRp2085
(dp2086
g72
(dp2087
g80
I3
ssg81
g2081
sg74
(lp2088
S'99'
p2089
asbasbasbag67
(g83
g69
NtRp2090
(dp2091
g72
(dp2092
sg81
g2061
sg74
(lp2093
g67
(g88
g69
NtRp2094
(dp2095
g72
(dp2096
sg81
g2090
sg74
(lp2097
g67
(g68
g69
NtRp2098
(dp2099
g72
(dp2100
g80
I3
ssg81
g2094
sg74
(lp2101
S'2'
asbasbasbag67
(g83
g69
NtRp2102
(dp2103
g72
(dp2104
sg81
g2061
sg74
(lp2105
g67
(g88
g69
NtRp2106
(dp2107
g72
(dp2108
sg81
g2102
sg74
(lp2109
g67
(g68
g69
NtRp2110
(dp2111
g72
(dp2112
g80
I3
ssg81
g2106
sg74
(lp2113
S'datetime.datetime(2011, 9, 26, 6, 55, 33)'
p2114
asbasbasbag67
(g83
g69
NtRp2115
(dp2116
g72
(dp2117
sg81
g2061
sg74
(lp2118
g67
(g88
g69
NtRp2119
(dp2120
g72
(dp2121
sg81
g2115
sg74
(lp2122
g67
(g68
g69
NtRp2123
(dp2124
g72
(dp2125
g80
I3
ssg81
g2119
sg74
(lp2126
g1536
asbasbasbasbasbasbasbasbasbasbasbag67
(g83
g69
NtRp2127
(dp2128
g72
(dp2129
sg81
g77
sg74
(lp2130
g67
(g88
g69
NtRp2131
(dp2132
g72
(dp2133
g92
g93
ssg81
g2127
sg74
(lp2134
S'is_https'
p2135
asbag67
(g88
g69
NtRp2136
(dp2137
g72
(dp2138
g99
g100
ssg81
g2127
sg74
(lp2139
S':'
asbag67
(g88
g69
NtRp2140
(dp2141
g72
(dp2142
sg81
g2127
sg74
(lp2143
g67
(g68
g69
NtRp2144
(dp2145
g72
(dp2146
g80
I5
ssg81
g2140
sg74
(lp2147
g110
asbasbasbag67
(g83
g69
NtRp2148
(dp2149
g72
(dp2150
sg81
g77
sg74
(lp2151
g67
(g88
g69
NtRp2152
(dp2153
g72
(dp2154
g92
g93
ssg81
g2148
sg74
(lp2155
S'is_local'
p2156
asbag67
(g88
g69
NtRp2157
(dp2158
g72
(dp2159
g99
g100
ssg81
g2148
sg74
(lp2160
S':'
asbag67
(g88
g69
NtRp2161
(dp2162
g72
(dp2163
sg81
g2148
sg74
(lp2164
g67
(g68
g69
NtRp2165
(dp2166
g72
(dp2167
g80
I5
ssg81
g2161
sg74
(lp2168
g1645
asbasbasbag67
(g83
g69
NtRp2169
(dp2170
g72
(dp2171
sg81
g77
sg74
(lp2172
g67
(g88
g69
NtRp2173
(dp2174
g72
(dp2175
g92
g93
ssg81
g2169
sg74
(lp2176
S'is_restful'
p2177
asbag67
(g88
g69
NtRp2178
(dp2179
g72
(dp2180
g99
g100
ssg81
g2169
sg74
(lp2181
S':'
asbag67
(g88
g69
NtRp2182
(dp2183
g72
(dp2184
sg81
g2169
sg74
(lp2185
g67
(g68
g69
NtRp2186
(dp2187
g72
(dp2188
g80
I5
ssg81
g2182
sg74
(lp2189
g110
asbasbasbag67
(g83
g69
NtRp2190
(dp2191
g72
(dp2192
sg81
g77
sg74
(lp2193
g67
(g88
g69
NtRp2194
(dp2195
g72
(dp2196
g92
g93
ssg81
g2190
sg74
(lp2197
S'now'
p2198
asbag67
(g88
g69
NtRp2199
(dp2200
g72
(dp2201
g99
g100
ssg81
g2190
sg74
(lp2202
S':'
asbag67
(g88
g69
NtRp2203
(dp2204
g72
(dp2205
sg81
g2190
sg74
(lp2206
g67
(g68
g69
NtRp2207
(dp2208
g72
(dp2209
g80
I5
ssg81
g2203
sg74
(lp2210
S'datetime.datetime(2012, 5, 26, 21, 26, 59, 718042)'
p2211
asbasbasbag67
(g83
g69
NtRp2212
(dp2213
g72
(dp2214
sg81
g77
sg74
(lp2215
g67
(g88
g69
NtRp2216
(dp2217
g72
(dp2218
g92
g93
ssg81
g2212
sg74
(lp2219
S'post_vars'
p2220
asbag67
(g88
g69
NtRp2221
(dp2222
g72
(dp2223
g99
g100
ssg81
g2212
sg74
(lp2224
S':'
asbag67
(g88
g69
NtRp2225
(dp2226
g72
(dp2227
sg81
g2212
sg74
(lp2228
g67
(g68
g69
NtRp2229
(dp2230
g72
(dp2231
g80
I5
ssg81
g2225
sg74
(lp2232
g67
(g76
g69
NtRp2233
(dp2234
g72
(dp2235
g80
I4
ssg81
Nsg74
(lp2236
sbasbasbasbag67
(g83
g69
NtRp2237
(dp2238
g72
(dp2239
sg81
g77
sg74
(lp2240
g67
(g88
g69
NtRp2241
(dp2242
g72
(dp2243
g92
g93
ssg81
g2237
sg74
(lp2244
S'url'
p2245
asbag67
(g88
g69
NtRp2246
(dp2247
g72
(dp2248
g99
g100
ssg81
g2237
sg74
(lp2249
S':'
asbag67
(g88
g69
NtRp2250
(dp2251
g72
(dp2252
sg81
g2237
sg74
(lp2253
g67
(g68
g69
NtRp2254
(dp2255
g72
(dp2256
g80
I5
ssg81
g2250
sg74
(lp2257
S'/streamlog/default/index'
p2258
asbasbasbag67
(g83
g69
NtRp2259
(dp2260
g72
(dp2261
sg81
g77
sg74
(lp2262
g67
(g88
g69
NtRp2263
(dp2264
g72
(dp2265
g92
g93
ssg81
g2259
sg74
(lp2266
S'utcnow'
p2267
asbag67
(g88
g69
NtRp2268
(dp2269
g72
(dp2270
g99
g100
ssg81
g2259
sg74
(lp2271
S':'
asbag67
(g88
g69
NtRp2272
(dp2273
g72
(dp2274
sg81
g2259
sg74
(lp2275
g67
(g68
g69
NtRp2276
(dp2277
g72
(dp2278
g80
I5
ssg81
g2272
sg74
(lp2279
S'datetime.datetime(2012, 5, 26, 14, 26, 59, 718126)'
p2280
asbasbasbag67
(g83
g69
NtRp2281
(dp2282
g72
(dp2283
sg81
g77
sg74
(lp2284
g67
(g88
g69
NtRp2285
(dp2286
g72
(dp2287
g92
g93
ssg81
g2281
sg74
(lp2288
S'uuid'
p2289
asbag67
(g88
g69
NtRp2290
(dp2291
g72
(dp2292
g99
g100
ssg81
g2281
sg74
(lp2293
S':'
asbag67
(g88
g69
NtRp2294
(dp2295
g72
(dp2296
sg81
g2281
sg74
(lp2297
g67
(g68
g69
NtRp2298
(dp2299
g72
(dp2300
g80
I5
ssg81
g2294
sg74
(lp2301
S'streamlog/127.0.0.1.2012-05-26.21-26-59.b6724c52-f6f1-4cec-bcc0-3cc2e7a88b7c'
p2302
asbasbasbag67
(g83
g69
NtRp2303
(dp2304
g72
(dp2305
sg81
g77
sg74
(lp2306
g67
(g88
g69
NtRp2307
(dp2308
g72
(dp2309
g92
g93
ssg81
g2303
sg74
(lp2310
S'vars'
p2311
asbag67
(g88
g69
NtRp2312
(dp2313
g72
(dp2314
g99
g100
ssg81
g2303
sg74
(lp2315
S':'
asbag67
(g88
g69
NtRp2316
(dp2317
g72
(dp2318
sg81
g2303
sg74
(lp2319
g67
(g68
g69
NtRp2320
(dp2321
g72
(dp2322
g80
I5
ssg81
g2316
sg74
(lp2323
g67
(g76
g69
NtRp2324
(dp2325
g72
(dp2326
g80
I4
ssg81
Nsg74
(lp2327
sbasbasbasbag67
(g83
g69
NtRp2328
(dp2329
g72
(dp2330
sg81
g77
sg74
(lp2331
g67
(g88
g69
NtRp2332
(dp2333
g72
(dp2334
g92
g93
ssg81
g2328
sg74
(lp2335
S'wsgi'
p2336
asbag67
(g88
g69
NtRp2337
(dp2338
g72
(dp2339
g99
g100
ssg81
g2328
sg74
(lp2340
S':'
asbag67
(g88
g69
NtRp2341
(dp2342
g72
(dp2343
sg81
g2328
sg74
(lp2344
g67
(g68
g69
NtRp2345
(dp2346
g72
(dp2347
g80
I5
ssg81
g2341
sg74
(lp2348
g67
(g76
g69
NtRp2349
(dp2350
g72
(dp2351
g80
I4
ssg81
Nsg74
(lp2352
g67
(g83
g69
NtRp2353
(dp2354
g72
(dp2355
sg81
g2349
sg74
(lp2356
g67
(g88
g69
NtRp2357
(dp2358
g72
(dp2359
g92
g93
ssg81
g2353
sg74
(lp2360
S'environ'
p2361
asbag67
(g88
g69
NtRp2362
(dp2363
g72
(dp2364
g99
g100
ssg81
g2353
sg74
(lp2365
S':'
asbag67
(g88
g69
NtRp2366
(dp2367
g72
(dp2368
sg81
g2353
sg74
(lp2369
g67
(g68
g69
NtRp2370
(dp2371
g72
(dp2372
g80
I4
ssg81
g2366
sg74
(lp2373
g67
(g76
g69
NtRp2374
(dp2375
g72
(dp2376
g80
I3
ssg81
Nsg74
(lp2377
g67
(g83
g69
NtRp2378
(dp2379
g72
(dp2380
sg81
g2374
sg74
(lp2381
g67
(g88
g69
NtRp2382
(dp2383
g72
(dp2384
g92
g93
ssg81
g2378
sg74
(lp2385
S'HTTP_ACCEPT'
p2386
asbag67
(g88
g69
NtRp2387
(dp2388
g72
(dp2389
g99
g100
ssg81
g2378
sg74
(lp2390
S':'
asbag67
(g88
g69
NtRp2391
(dp2392
g72
(dp2393
sg81
g2378
sg74
(lp2394
g67
(g68
g69
NtRp2395
(dp2396
g72
(dp2397
g80
I3
ssg81
g2391
sg74
(lp2398
g1013
asbasbasbag67
(g83
g69
NtRp2399
(dp2400
g72
(dp2401
sg81
g2374
sg74
(lp2402
g67
(g88
g69
NtRp2403
(dp2404
g72
(dp2405
g92
g93
ssg81
g2399
sg74
(lp2406
S'HTTP_ACCEPT_ENCODING'
p2407
asbag67
(g88
g69
NtRp2408
(dp2409
g72
(dp2410
g99
g100
ssg81
g2399
sg74
(lp2411
S':'
asbag67
(g88
g69
NtRp2412
(dp2413
g72
(dp2414
sg81
g2399
sg74
(lp2415
g67
(g68
g69
NtRp2416
(dp2417
g72
(dp2418
g80
I3
ssg81
g2412
sg74
(lp2419
g1035
asbasbasbag67
(g83
g69
NtRp2420
(dp2421
g72
(dp2422
sg81
g2374
sg74
(lp2423
g67
(g88
g69
NtRp2424
(dp2425
g72
(dp2426
g92
g93
ssg81
g2420
sg74
(lp2427
S'HTTP_ACCEPT_LANGUAGE'
p2428
asbag67
(g88
g69
NtRp2429
(dp2430
g72
(dp2431
g99
g100
ssg81
g2420
sg74
(lp2432
S':'
asbag67
(g88
g69
NtRp2433
(dp2434
g72
(dp2435
sg81
g2420
sg74
(lp2436
g67
(g68
g69
NtRp2437
(dp2438
g72
(dp2439
g80
I3
ssg81
g2433
sg74
(lp2440
g1057
asbasbasbag67
(g83
g69
NtRp2441
(dp2442
g72
(dp2443
sg81
g2374
sg74
(lp2444
g67
(g88
g69
NtRp2445
(dp2446
g72
(dp2447
g92
g93
ssg81
g2441
sg74
(lp2448
S'HTTP_CACHE_CONTROL'
p2449
asbag67
(g88
g69
NtRp2450
(dp2451
g72
(dp2452
g99
g100
ssg81
g2441
sg74
(lp2453
S':'
asbag67
(g88
g69
NtRp2454
(dp2455
g72
(dp2456
sg81
g2441
sg74
(lp2457
g67
(g68
g69
NtRp2458
(dp2459
g72
(dp2460
g80
I3
ssg81
g2454
sg74
(lp2461
g1079
asbasbasbag67
(g83
g69
NtRp2462
(dp2463
g72
(dp2464
sg81
g2374
sg74
(lp2465
g67
(g88
g69
NtRp2466
(dp2467
g72
(dp2468
g92
g93
ssg81
g2462
sg74
(lp2469
S'HTTP_CONNECTION'
p2470
asbag67
(g88
g69
NtRp2471
(dp2472
g72
(dp2473
g99
g100
ssg81
g2462
sg74
(lp2474
S':'
asbag67
(g88
g69
NtRp2475
(dp2476
g72
(dp2477
sg81
g2462
sg74
(lp2478
g67
(g68
g69
NtRp2479
(dp2480
g72
(dp2481
g80
I3
ssg81
g2475
sg74
(lp2482
g1101
asbasbasbag67
(g83
g69
NtRp2483
(dp2484
g72
(dp2485
sg81
g2374
sg74
(lp2486
g67
(g88
g69
NtRp2487
(dp2488
g72
(dp2489
g92
g93
ssg81
g2483
sg74
(lp2490
S'HTTP_COOKIE'
p2491
asbag67
(g88
g69
NtRp2492
(dp2493
g72
(dp2494
g99
g100
ssg81
g2483
sg74
(lp2495
S':'
asbag67
(g88
g69
NtRp2496
(dp2497
g72
(dp2498
sg81
g2483
sg74
(lp2499
g67
(g68
g69
NtRp2500
(dp2501
g72
(dp2502
g80
I3
ssg81
g2496
sg74
(lp2503
g1123
asbasbasbag67
(g83
g69
NtRp2504
(dp2505
g72
(dp2506
sg81
g2374
sg74
(lp2507
g67
(g88
g69
NtRp2508
(dp2509
g72
(dp2510
g92
g93
ssg81
g2504
sg74
(lp2511
S'HTTP_HOST'
p2512
asbag67
(g88
g69
NtRp2513
(dp2514
g72
(dp2515
g99
g100
ssg81
g2504
sg74
(lp2516
S':'
asbag67
(g88
g69
NtRp2517
(dp2518
g72
(dp2519
sg81
g2504
sg74
(lp2520
g67
(g68
g69
NtRp2521
(dp2522
g72
(dp2523
g80
I3
ssg81
g2517
sg74
(lp2524
g1145
asbasbasbag67
(g83
g69
NtRp2525
(dp2526
g72
(dp2527
sg81
g2374
sg74
(lp2528
g67
(g88
g69
NtRp2529
(dp2530
g72
(dp2531
g92
g93
ssg81
g2525
sg74
(lp2532
S'HTTP_USER_AGENT'
p2533
asbag67
(g88
g69
NtRp2534
(dp2535
g72
(dp2536
g99
g100
ssg81
g2525
sg74
(lp2537
S':'
asbag67
(g88
g69
NtRp2538
(dp2539
g72
(dp2540
sg81
g2525
sg74
(lp2541
g67
(g68
g69
NtRp2542
(dp2543
g72
(dp2544
g80
I3
ssg81
g2538
sg74
(lp2545
g1167
asbasbasbag67
(g83
g69
NtRp2546
(dp2547
g72
(dp2548
sg81
g2374
sg74
(lp2549
g67
(g88
g69
NtRp2550
(dp2551
g72
(dp2552
g92
g93
ssg81
g2546
sg74
(lp2553
S'PATH_INFO'
p2554
asbag67
(g88
g69
NtRp2555
(dp2556
g72
(dp2557
g99
g100
ssg81
g2546
sg74
(lp2558
S':'
asbag67
(g88
g69
NtRp2559
(dp2560
g72
(dp2561
sg81
g2546
sg74
(lp2562
g67
(g68
g69
NtRp2563
(dp2564
g72
(dp2565
g80
I3
ssg81
g2559
sg74
(lp2566
g1210
asbasbasbag67
(g83
g69
NtRp2567
(dp2568
g72
(dp2569
sg81
g2374
sg74
(lp2570
g67
(g88
g69
NtRp2571
(dp2572
g72
(dp2573
g92
g93
ssg81
g2567
sg74
(lp2574
S'QUERY_STRING'
p2575
asbag67
(g88
g69
NtRp2576
(dp2577
g72
(dp2578
g99
g100
ssg81
g2567
sg74
(lp2579
S':'
asbag67
(g88
g69
NtRp2580
(dp2581
g72
(dp2582
sg81
g2567
sg74
(lp2583
g67
(g68
g69
NtRp2584
(dp2585
g72
(dp2586
g80
I3
ssg81
g2580
sg74
(lp2587
S''
asbasbasbag67
(g83
g69
NtRp2588
(dp2589
g72
(dp2590
sg81
g2374
sg74
(lp2591
g67
(g88
g69
NtRp2592
(dp2593
g72
(dp2594
g92
g93
ssg81
g2588
sg74
(lp2595
S'REMOTE_ADDR'
p2596
asbag67
(g88
g69
NtRp2597
(dp2598
g72
(dp2599
g99
g100
ssg81
g2588
sg74
(lp2600
S':'
asbag67
(g88
g69
NtRp2601
(dp2602
g72
(dp2603
sg81
g2588
sg74
(lp2604
g67
(g68
g69
NtRp2605
(dp2606
g72
(dp2607
g80
I3
ssg81
g2601
sg74
(lp2608
g200
asbasbasbag67
(g83
g69
NtRp2609
(dp2610
g72
(dp2611
sg81
g2374
sg74
(lp2612
g67
(g88
g69
NtRp2613
(dp2614
g72
(dp2615
g92
g93
ssg81
g2609
sg74
(lp2616
S'REMOTE_PORT'
p2617
asbag67
(g88
g69
NtRp2618
(dp2619
g72
(dp2620
g99
g100
ssg81
g2609
sg74
(lp2621
S':'
asbag67
(g88
g69
NtRp2622
(dp2623
g72
(dp2624
sg81
g2609
sg74
(lp2625
g67
(g68
g69
NtRp2626
(dp2627
g72
(dp2628
g80
I3
ssg81
g2622
sg74
(lp2629
g1274
asbasbasbag67
(g83
g69
NtRp2630
(dp2631
g72
(dp2632
sg81
g2374
sg74
(lp2633
g67
(g88
g69
NtRp2634
(dp2635
g72
(dp2636
g92
g93
ssg81
g2630
sg74
(lp2637
S'REQUEST_METHOD'
p2638
asbag67
(g88
g69
NtRp2639
(dp2640
g72
(dp2641
g99
g100
ssg81
g2630
sg74
(lp2642
S':'
asbag67
(g88
g69
NtRp2643
(dp2644
g72
(dp2645
sg81
g2630
sg74
(lp2646
g67
(g68
g69
NtRp2647
(dp2648
g72
(dp2649
g80
I3
ssg81
g2643
sg74
(lp2650
g1296
asbasbasbag67
(g83
g69
NtRp2651
(dp2652
g72
(dp2653
sg81
g2374
sg74
(lp2654
g67
(g88
g69
NtRp2655
(dp2656
g72
(dp2657
g92
g93
ssg81
g2651
sg74
(lp2658
S'SCRIPT_NAME'
p2659
asbag67
(g88
g69
NtRp2660
(dp2661
g72
(dp2662
g99
g100
ssg81
g2651
sg74
(lp2663
S':'
asbag67
(g88
g69
NtRp2664
(dp2665
g72
(dp2666
sg81
g2651
sg74
(lp2667
g67
(g68
g69
NtRp2668
(dp2669
g72
(dp2670
g80
I3
ssg81
g2664
sg74
(lp2671
S''
asbasbasbag67
(g83
g69
NtRp2672
(dp2673
g72
(dp2674
sg81
g2374
sg74
(lp2675
g67
(g88
g69
NtRp2676
(dp2677
g72
(dp2678
g92
g93
ssg81
g2672
sg74
(lp2679
S'SERVER_NAME'
p2680
asbag67
(g88
g69
NtRp2681
(dp2682
g72
(dp2683
g99
g100
ssg81
g2672
sg74
(lp2684
S':'
asbag67
(g88
g69
NtRp2685
(dp2686
g72
(dp2687
sg81
g2672
sg74
(lp2688
g67
(g68
g69
NtRp2689
(dp2690
g72
(dp2691
g80
I3
ssg81
g2685
sg74
(lp2692
g1339
asbasbasbag67
(g83
g69
NtRp2693
(dp2694
g72
(dp2695
sg81
g2374
sg74
(lp2696
g67
(g88
g69
NtRp2697
(dp2698
g72
(dp2699
g92
g93
ssg81
g2693
sg74
(lp2700
S'SERVER_PORT'
p2701
asbag67
(g88
g69
NtRp2702
(dp2703
g72
(dp2704
g99
g100
ssg81
g2693
sg74
(lp2705
S':'
asbag67
(g88
g69
NtRp2706
(dp2707
g72
(dp2708
sg81
g2693
sg74
(lp2709
g67
(g68
g69
NtRp2710
(dp2711
g72
(dp2712
g80
I3
ssg81
g2706
sg74
(lp2713
g1361
asbasbasbag67
(g83
g69
NtRp2714
(dp2715
g72
(dp2716
sg81
g2374
sg74
(lp2717
g67
(g88
g69
NtRp2718
(dp2719
g72
(dp2720
g92
g93
ssg81
g2714
sg74
(lp2721
S'SERVER_PROTOCOL'
p2722
asbag67
(g88
g69
NtRp2723
(dp2724
g72
(dp2725
g99
g100
ssg81
g2714
sg74
(lp2726
S':'
asbag67
(g88
g69
NtRp2727
(dp2728
g72
(dp2729
sg81
g2714
sg74
(lp2730
g67
(g68
g69
NtRp2731
(dp2732
g72
(dp2733
g80
I3
ssg81
g2727
sg74
(lp2734
g1383
asbasbasbag67
(g83
g69
NtRp2735
(dp2736
g72
(dp2737
sg81
g2374
sg74
(lp2738
g67
(g88
g69
NtRp2739
(dp2740
g72
(dp2741
g92
g93
ssg81
g2735
sg74
(lp2742
S'SERVER_SOFTWARE'
p2743
asbag67
(g88
g69
NtRp2744
(dp2745
g72
(dp2746
g99
g100
ssg81
g2735
sg74
(lp2747
S':'
asbag67
(g88
g69
NtRp2748
(dp2749
g72
(dp2750
sg81
g2735
sg74
(lp2751
g67
(g68
g69
NtRp2752
(dp2753
g72
(dp2754
g80
I3
ssg81
g2748
sg74
(lp2755
g1405
asbasbasbag67
(g83
g69
NtRp2756
(dp2757
g72
(dp2758
sg81
g2374
sg74
(lp2759
g67
(g88
g69
NtRp2760
(dp2761
g72
(dp2762
g92
g93
ssg81
g2756
sg74
(lp2763
S'wsgi.errors'
p2764
asbag67
(g88
g69
NtRp2765
(dp2766
g72
(dp2767
g99
g100
ssg81
g2756
sg74
(lp2768
S':'
asbag67
(g88
g69
NtRp2769
(dp2770
g72
(dp2771
sg81
g2756
sg74
(lp2772
g67
(g68
g69
NtRp2773
(dp2774
g72
(dp2775
g80
I3
ssg81
g2769
sg74
(lp2776
S"<open file '<stderr>', mode 'w' at 0x7f84db3ff270>"
p2777
asbasbasbag67
(g83
g69
NtRp2778
(dp2779
g72
(dp2780
sg81
g2374
sg74
(lp2781
g67
(g88
g69
NtRp2782
(dp2783
g72
(dp2784
g92
g93
ssg81
g2778
sg74
(lp2785
S'wsgi.file_wrapper'
p2786
asbag67
(g88
g69
NtRp2787
(dp2788
g72
(dp2789
g99
g100
ssg81
g2778
sg74
(lp2790
S':'
asbag67
(g88
g69
NtRp2791
(dp2792
g72
(dp2793
sg81
g2778
sg74
(lp2794
g67
(g68
g69
NtRp2795
(dp2796
g72
(dp2797
g80
I3
ssg81
g2791
sg74
(lp2798
S'<class wsgiref.util.FileWrapper at 0x1b96d50>'
p2799
asbasbasbag67
(g83
g69
NtRp2800
(dp2801
g72
(dp2802
sg81
g2374
sg74
(lp2803
g67
(g88
g69
NtRp2804
(dp2805
g72
(dp2806
g92
g93
ssg81
g2800
sg74
(lp2807
S'wsgi.input'
p2808
asbag67
(g88
g69
NtRp2809
(dp2810
g72
(dp2811
g99
g100
ssg81
g2800
sg74
(lp2812
S':'
asbag67
(g88
g69
NtRp2813
(dp2814
g72
(dp2815
sg81
g2800
sg74
(lp2816
g67
(g68
g69
NtRp2817
(dp2818
g72
(dp2819
g80
I3
ssg81
g2813
sg74
(lp2820
S'<cStringIO.StringO object at 0x2a43ed8>'
p2821
asbasbasbag67
(g83
g69
NtRp2822
(dp2823
g72
(dp2824
sg81
g2374
sg74
(lp2825
g67
(g88
g69
NtRp2826
(dp2827
g72
(dp2828
g92
g93
ssg81
g2822
sg74
(lp2829
S'wsgi.multiprocess'
p2830
asbag67
(g88
g69
NtRp2831
(dp2832
g72
(dp2833
g99
g100
ssg81
g2822
sg74
(lp2834
S':'
asbag67
(g88
g69
NtRp2835
(dp2836
g72
(dp2837
sg81
g2822
sg74
(lp2838
g67
(g68
g69
NtRp2839
(dp2840
g72
(dp2841
g80
I3
ssg81
g2835
sg74
(lp2842
g110
asbasbasbag67
(g83
g69
NtRp2843
(dp2844
g72
(dp2845
sg81
g2374
sg74
(lp2846
g67
(g88
g69
NtRp2847
(dp2848
g72
(dp2849
g92
g93
ssg81
g2843
sg74
(lp2850
S'wsgi.multithread'
p2851
asbag67
(g88
g69
NtRp2852
(dp2853
g72
(dp2854
g99
g100
ssg81
g2843
sg74
(lp2855
S':'
asbag67
(g88
g69
NtRp2856
(dp2857
g72
(dp2858
sg81
g2843
sg74
(lp2859
g67
(g68
g69
NtRp2860
(dp2861
g72
(dp2862
g80
I3
ssg81
g2856
sg74
(lp2863
g1645
asbasbasbag67
(g83
g69
NtRp2864
(dp2865
g72
(dp2866
sg81
g2374
sg74
(lp2867
g67
(g88
g69
NtRp2868
(dp2869
g72
(dp2870
g92
g93
ssg81
g2864
sg74
(lp2871
S'wsgi.run_once'
p2872
asbag67
(g88
g69
NtRp2873
(dp2874
g72
(dp2875
g99
g100
ssg81
g2864
sg74
(lp2876
S':'
asbag67
(g88
g69
NtRp2877
(dp2878
g72
(dp2879
sg81
g2864
sg74
(lp2880
g67
(g68
g69
NtRp2881
(dp2882
g72
(dp2883
g80
I3
ssg81
g2877
sg74
(lp2884
g110
asbasbasbag67
(g83
g69
NtRp2885
(dp2886
g72
(dp2887
sg81
g2374
sg74
(lp2888
g67
(g88
g69
NtRp2889
(dp2890
g72
(dp2891
g92
g93
ssg81
g2885
sg74
(lp2892
S'wsgi.url_scheme'
p2893
asbag67
(g88
g69
NtRp2894
(dp2895
g72
(dp2896
g99
g100
ssg81
g2885
sg74
(lp2897
S':'
asbag67
(g88
g69
NtRp2898
(dp2899
g72
(dp2900
sg81
g2885
sg74
(lp2901
g67
(g68
g69
NtRp2902
(dp2903
g72
(dp2904
g80
I3
ssg81
g2898
sg74
(lp2905
g1688
asbasbasbag67
(g83
g69
NtRp2906
(dp2907
g72
(dp2908
sg81
g2374
sg74
(lp2909
g67
(g88
g69
NtRp2910
(dp2911
g72
(dp2912
g92
g93
ssg81
g2906
sg74
(lp2913
S'wsgi.version'
p2914
asbag67
(g88
g69
NtRp2915
(dp2916
g72
(dp2917
g99
g100
ssg81
g2906
sg74
(lp2918
S':'
asbag67
(g88
g69
NtRp2919
(dp2920
g72
(dp2921
sg81
g2906
sg74
(lp2922
g67
(g68
g69
NtRp2923
(dp2924
g72
(dp2925
g80
I3
ssg81
g2919
sg74
(lp2926
S'1'
asbasbasbasbasbasbasbasbasbasbasbasbasbsS'frames'
p2927
(lp2928
(dp2929
S'file'
p2930
S'/home/jose/DESARROLLO/web2py199/gluon/restricted.py'
p2931
sS'dump'
p2932
(dp2933
S'code'
p2934
S"'# -*- coding: utf-8 -*-\\n# this file is released ...=crud())\\n\\nresponse._vars=response._caller(index)\\n'"
p2935
sS'layer'
p2936
S"'/home/jose/DESARROLLO/web2py199/applications/streamlog/controllers/default.py'"
p2937
sS'global compile2'
p2938
S'<function compile2>'
p2939
sS'ccode'
p2940
S'undefined'
p2941
ssS'lnum'
p2942
I193
sS'lines'
p2943
(dp2944
I192
S'        else:'
p2945
sI193
S'            ccode = compile2(code,layer)'
p2946
sI194
S'        exec ccode in environment'
p2947
sI195
S'    except HTTP:'
p2948
sI196
S'        raise'
p2949
sI197
S'    except Exception, error:'
p2950
sI188
S"    environment['__file__'] = layer"
p2951
sI189
S'    try:'
p2952
sI190
S'        if type(code) == types.CodeType:'
p2953
sI191
S'            ccode = code'
p2954
ssS'call'
p2955
S"(code='# -*- coding: utf-8 -*-\\n# this file is released ...=crud())\\n\\nresponse._vars=response._caller(index)\\n', environment={'A': <class 'gluon.html.A'>, 'Auth': <class 'gluon.tools.Auth'>, 'B': <class 'gluon.html.B'>, 'BEAUTIFY': <class 'gluon.html.BEAUTIFY'>, 'BODY': <class 'gluon.html.BODY'>, 'BR': <class 'gluon.html.BR'>, 'BUTTON': <class 'gluon.html.BUTTON'>, 'CAT': <class 'gluon.html.CAT'>, 'CENTER': <class 'gluon.html.CENTER'>, 'CLEANUP': <class 'gluon.validators.CLEANUP'>, ...}, layer='/home/jose/DESARROLLO/web2py199/applications/streamlog/controllers/default.py')"
p2956
sS'func'
p2957
S'restricted'
p2958
sa(dp2959
g2930
S'/home/jose/DESARROLLO/web2py199/gluon/restricted.py'
p2960
sg2932
(dp2961
S'builtincompile'
p2962
S'<built-in function compile>'
p2963
sS'code'
p2964
S"'# -*- coding: utf-8 -*-\\n# this file is released ...=crud())\\n\\nresponse._vars=response._caller(index)\\n'"
p2965
sS'code.rstrip'
p2966
S'<built-in method rstrip of str object>'
p2967
sS').replace'
p2968
g2941
sS'layer'
p2969
S"'/home/jose/DESARROLLO/web2py199/applications/streamlog/controllers/default.py'"
p2970
ssg2942
I179
sg2943
(dp2971
I174
S''
sI175
S'def compile2(code,layer):'
p2972
sI176
S'    """'
p2973
sI177
S"    The +'\\n' is necessary else compile fails when code ends in a comment."
p2974
sI178
S'    """'
p2975
sI179
S"    return compile(code.rstrip().replace('\\r\\n','\\n')+'\\n', layer, 'exec')"
p2976
sI180
S''
sI181
S"def restricted(code, environment=None, layer='Unknown'):"
p2977
sI182
S'    """'
p2978
sI183
S'    runs code in environment and returns the output. if an exception occurs'
p2979
ssg2955
S"(code='# -*- coding: utf-8 -*-\\n# this file is released ...=crud())\\n\\nresponse._vars=response._caller(index)\\n', layer='/home/jose/DESARROLLO/web2py199/applications/streamlog/controllers/default.py')"
p2980
sg2957
S'compile2'
p2981
sasS'pyver'
p2982
S'Python 2.7.2+: /usr/bin/python'
p2983
sS'session'
p2984
g67
(g68
g69
NtRp2985
(dp2986
g72
(dp2987
sg74
(lp2988
g67
(g76
g69
NtRp2989
(dp2990
g72
(dp2991
g80
I5
ssg81
Nsg74
(lp2992
g67
(g83
g69
NtRp2993
(dp2994
g72
(dp2995
sg81
g2989
sg74
(lp2996
g67
(g88
g69
NtRp2997
(dp2998
g72
(dp2999
g92
g93
ssg81
g2993
sg74
(lp3000
S'auth'
p3001
asbag67
(g88
g69
NtRp3002
(dp3003
g72
(dp3004
g99
g100
ssg81
g2993
sg74
(lp3005
S':'
asbag67
(g88
g69
NtRp3006
(dp3007
g72
(dp3008
sg81
g2993
sg74
(lp3009
g67
(g68
g69
NtRp3010
(dp3011
g72
(dp3012
g80
I5
ssg81
g3006
sg74
(lp3013
g67
(g76
g69
NtRp3014
(dp3015
g72
(dp3016
g80
I4
ssg81
Nsg74
(lp3017
g67
(g83
g69
NtRp3018
(dp3019
g72
(dp3020
sg81
g3014
sg74
(lp3021
g67
(g88
g69
NtRp3022
(dp3023
g72
(dp3024
g92
g93
ssg81
g3018
sg74
(lp3025
S'expiration'
p3026
asbag67
(g88
g69
NtRp3027
(dp3028
g72
(dp3029
g99
g100
ssg81
g3018
sg74
(lp3030
S':'
asbag67
(g88
g69
NtRp3031
(dp3032
g72
(dp3033
sg81
g3018
sg74
(lp3034
g67
(g68
g69
NtRp3035
(dp3036
g72
(dp3037
g80
I4
ssg81
g3031
sg74
(lp3038
S'2592000'
p3039
asbasbasbag67
(g83
g69
NtRp3040
(dp3041
g72
(dp3042
sg81
g3014
sg74
(lp3043
g67
(g88
g69
NtRp3044
(dp3045
g72
(dp3046
g92
g93
ssg81
g3040
sg74
(lp3047
S'hmac_key'
p3048
asbag67
(g88
g69
NtRp3049
(dp3050
g72
(dp3051
g99
g100
ssg81
g3040
sg74
(lp3052
S':'
asbag67
(g88
g69
NtRp3053
(dp3054
g72
(dp3055
sg81
g3040
sg74
(lp3056
g67
(g68
g69
NtRp3057
(dp3058
g72
(dp3059
g80
I4
ssg81
g3053
sg74
(lp3060
S'b954f0e8-95b3-42d2-829e-2e50e94d8454'
p3061
asbasbasbag67
(g83
g69
NtRp3062
(dp3063
g72
(dp3064
sg81
g3014
sg74
(lp3065
g67
(g88
g69
NtRp3066
(dp3067
g72
(dp3068
g92
g93
ssg81
g3062
sg74
(lp3069
S'last_visit'
p3070
asbag67
(g88
g69
NtRp3071
(dp3072
g72
(dp3073
g99
g100
ssg81
g3062
sg74
(lp3074
S':'
asbag67
(g88
g69
NtRp3075
(dp3076
g72
(dp3077
sg81
g3062
sg74
(lp3078
g67
(g68
g69
NtRp3079
(dp3080
g72
(dp3081
g80
I4
ssg81
g3075
sg74
(lp3082
S'datetime.datetime(2012, 5, 26, 18, 42, 33, 844375)'
p3083
asbasbasbag67
(g83
g69
NtRp3084
(dp3085
g72
(dp3086
sg81
g3014
sg74
(lp3087
g67
(g88
g69
NtRp3088
(dp3089
g72
(dp3090
g92
g93
ssg81
g3084
sg74
(lp3091
S'remember'
p3092
asbag67
(g88
g69
NtRp3093
(dp3094
g72
(dp3095
g99
g100
ssg81
g3084
sg74
(lp3096
S':'
asbag67
(g88
g69
NtRp3097
(dp3098
g72
(dp3099
sg81
g3084
sg74
(lp3100
g67
(g68
g69
NtRp3101
(dp3102
g72
(dp3103
g80
I4
ssg81
g3097
sg74
(lp3104
g110
asbasbasbag67
(g83
g69
NtRp3105
(dp3106
g72
(dp3107
sg81
g3014
sg74
(lp3108
g67
(g88
g69
NtRp3109
(dp3110
g72
(dp3111
g92
g93
ssg81
g3105
sg74
(lp3112
S'user'
p3113
asbag67
(g88
g69
NtRp3114
(dp3115
g72
(dp3116
g99
g100
ssg81
g3105
sg74
(lp3117
S':'
asbag67
(g88
g69
NtRp3118
(dp3119
g72
(dp3120
sg81
g3105
sg74
(lp3121
g67
(g68
g69
NtRp3122
(dp3123
g72
(dp3124
g80
I4
ssg81
g3118
sg74
(lp3125
g67
(g76
g69
NtRp3126
(dp3127
g72
(dp3128
g80
I3
ssg81
Nsg74
(lp3129
g67
(g83
g69
NtRp3130
(dp3131
g72
(dp3132
sg81
g3126
sg74
(lp3133
g67
(g88
g69
NtRp3134
(dp3135
g72
(dp3136
g92
g93
ssg81
g3130
sg74
(lp3137
S'email'
p3138
asbag67
(g88
g69
NtRp3139
(dp3140
g72
(dp3141
g99
g100
ssg81
g3130
sg74
(lp3142
S':'
asbag67
(g88
g69
NtRp3143
(dp3144
g72
(dp3145
sg81
g3130
sg74
(lp3146
g67
(g68
g69
NtRp3147
(dp3148
g72
(dp3149
g80
I3
ssg81
g3143
sg74
(lp3150
S'josedesoto@gmail.com'
p3151
asbasbasbag67
(g83
g69
NtRp3152
(dp3153
g72
(dp3154
sg81
g3126
sg74
(lp3155
g67
(g88
g69
NtRp3156
(dp3157
g72
(dp3158
g92
g93
ssg81
g3152
sg74
(lp3159
S'first_name'
p3160
asbag67
(g88
g69
NtRp3161
(dp3162
g72
(dp3163
g99
g100
ssg81
g3152
sg74
(lp3164
S':'
asbag67
(g88
g69
NtRp3165
(dp3166
g72
(dp3167
sg81
g3152
sg74
(lp3168
g67
(g68
g69
NtRp3169
(dp3170
g72
(dp3171
g80
I3
ssg81
g3165
sg74
(lp3172
S'jose'
p3173
asbasbasbag67
(g83
g69
NtRp3174
(dp3175
g72
(dp3176
sg81
g3126
sg74
(lp3177
g67
(g88
g69
NtRp3178
(dp3179
g72
(dp3180
g92
g93
ssg81
g3174
sg74
(lp3181
S'id'
p3182
asbag67
(g88
g69
NtRp3183
(dp3184
g72
(dp3185
g99
g100
ssg81
g3174
sg74
(lp3186
S':'
asbag67
(g88
g69
NtRp3187
(dp3188
g72
(dp3189
sg81
g3174
sg74
(lp3190
g67
(g68
g69
NtRp3191
(dp3192
g72
(dp3193
g80
I3
ssg81
g3187
sg74
(lp3194
S'1'
asbasbasbag67
(g83
g69
NtRp3195
(dp3196
g72
(dp3197
sg81
g3126
sg74
(lp3198
g67
(g88
g69
NtRp3199
(dp3200
g72
(dp3201
g92
g93
ssg81
g3195
sg74
(lp3202
S'last_name'
p3203
asbag67
(g88
g69
NtRp3204
(dp3205
g72
(dp3206
g99
g100
ssg81
g3195
sg74
(lp3207
S':'
asbag67
(g88
g69
NtRp3208
(dp3209
g72
(dp3210
sg81
g3195
sg74
(lp3211
g67
(g68
g69
NtRp3212
(dp3213
g72
(dp3214
g80
I3
ssg81
g3208
sg74
(lp3215
S'jose'
p3216
asbasbasbag67
(g83
g69
NtRp3217
(dp3218
g72
(dp3219
sg81
g3126
sg74
(lp3220
g67
(g88
g69
NtRp3221
(dp3222
g72
(dp3223
g92
g93
ssg81
g3217
sg74
(lp3224
S'password'
p3225
asbag67
(g88
g69
NtRp3226
(dp3227
g72
(dp3228
g99
g100
ssg81
g3217
sg74
(lp3229
S':'
asbag67
(g88
g69
NtRp3230
(dp3231
g72
(dp3232
sg81
g3217
sg74
(lp3233
g67
(g68
g69
NtRp3234
(dp3235
g72
(dp3236
g80
I3
ssg81
g3230
sg74
(lp3237
S'2b32eaa2baa0c63b755a4cde1e4dda83'
p3238
asbasbasbag67
(g83
g69
NtRp3239
(dp3240
g72
(dp3241
sg81
g3126
sg74
(lp3242
g67
(g88
g69
NtRp3243
(dp3244
g72
(dp3245
g92
g93
ssg81
g3239
sg74
(lp3246
S'registration_key'
p3247
asbag67
(g88
g69
NtRp3248
(dp3249
g72
(dp3250
g99
g100
ssg81
g3239
sg74
(lp3251
S':'
asbag67
(g88
g69
NtRp3252
(dp3253
g72
(dp3254
sg81
g3239
sg74
(lp3255
g67
(g68
g69
NtRp3256
(dp3257
g72
(dp3258
g80
I3
ssg81
g3252
sg74
(lp3259
S''
asbasbasbag67
(g83
g69
NtRp3260
(dp3261
g72
(dp3262
sg81
g3126
sg74
(lp3263
g67
(g88
g69
NtRp3264
(dp3265
g72
(dp3266
g92
g93
ssg81
g3260
sg74
(lp3267
S'reset_password_key'
p3268
asbag67
(g88
g69
NtRp3269
(dp3270
g72
(dp3271
g99
g100
ssg81
g3260
sg74
(lp3272
S':'
asbag67
(g88
g69
NtRp3273
(dp3274
g72
(dp3275
sg81
g3260
sg74
(lp3276
g67
(g68
g69
NtRp3277
(dp3278
g72
(dp3279
g80
I3
ssg81
g3273
sg74
(lp3280
S''
asbasbasbasbasbasbasbasbasbasbasbag67
(g83
g69
NtRp3281
(dp3282
g72
(dp3283
sg81
g2989
sg74
(lp3284
g67
(g88
g69
NtRp3285
(dp3286
g72
(dp3287
g92
g93
ssg81
g3281
sg74
(lp3288
S'last_query'
p3289
asbag67
(g88
g69
NtRp3290
(dp3291
g72
(dp3292
g99
g100
ssg81
g3281
sg74
(lp3293
S':'
asbag67
(g88
g69
NtRp3294
(dp3295
g72
(dp3296
sg81
g3281
sg74
(lp3297
g67
(g68
g69
NtRp3298
(dp3299
g72
(dp3300
g80
I5
ssg81
g3294
sg74
(lp3301
S'((db.t_project.user==me)&(db.t_server.project==db.t_project.id)&(db.t_log.server==db.t_server.id))'
p3302
asbasbasbasbasbsS'etype'
p3303
S"<type 'exceptions.IndentationError'>"
p3304
sS'date'
p3305
S'Sat May 26 21:26:59 2012'
p3306
sS'response'
p3307
g67
(g68
g69
NtRp3308
(dp3309
g72
(dp3310
sg74
(lp3311
g67
(g76
g69
NtRp3312
(dp3313
g72
(dp3314
g80
I5
ssg81
Nsg74
(lp3315
g67
(g83
g69
NtRp3316
(dp3317
g72
(dp3318
sg81
g3312
sg74
(lp3319
g67
(g88
g69
NtRp3320
(dp3321
g72
(dp3322
g92
g93
ssg81
g3316
sg74
(lp3323
g165
asbag67
(g88
g69
NtRp3324
(dp3325
g72
(dp3326
g99
g100
ssg81
g3316
sg74
(lp3327
S':'
asbag67
(g88
g69
NtRp3328
(dp3329
g72
(dp3330
sg81
g3316
sg74
(lp3331
g67
(g68
g69
NtRp3332
(dp3333
g72
(dp3334
g80
I5
ssg81
g3328
sg74
(lp3335
S'<cStringIO.StringO object at 0x2a431f0>'
p3336
asbasbasbag67
(g83
g69
NtRp3337
(dp3338
g72
(dp3339
sg81
g3312
sg74
(lp3340
g67
(g88
g69
NtRp3341
(dp3342
g72
(dp3343
g92
g93
ssg81
g3337
sg74
(lp3344
g231
asbag67
(g88
g69
NtRp3345
(dp3346
g72
(dp3347
g99
g100
ssg81
g3337
sg74
(lp3348
S':'
asbag67
(g88
g69
NtRp3349
(dp3350
g72
(dp3351
sg81
g3337
sg74
(lp3352
g67
(g68
g69
NtRp3353
(dp3354
g72
(dp3355
g80
I5
ssg81
g3349
sg74
(lp3356
g67
(g76
g69
NtRp3357
(dp3358
g72
(dp3359
g80
I4
ssg81
Nsg74
(lp3360
g67
(g83
g69
NtRp3361
(dp3362
g72
(dp3363
sg81
g3357
sg74
(lp3364
g67
(g88
g69
NtRp3365
(dp3366
g72
(dp3367
g92
g93
ssg81
g3361
sg74
(lp3368
S'session_id_streamlog'
p3369
asbag67
(g88
g69
NtRp3370
(dp3371
g72
(dp3372
g99
g100
ssg81
g3361
sg74
(lp3373
S':'
asbag67
(g88
g69
NtRp3374
(dp3375
g72
(dp3376
sg81
g3361
sg74
(lp3377
g67
(g68
g69
NtRp3378
(dp3379
g72
(dp3380
g80
I4
ssg81
g3374
sg74
(lp3381
g67
(g76
g69
NtRp3382
(dp3383
g72
(dp3384
g80
I3
ssg81
Nsg74
(lp3385
g67
(g83
g69
NtRp3386
(dp3387
g72
(dp3388
sg81
g3382
sg74
(lp3389
g67
(g88
g69
NtRp3390
(dp3391
g72
(dp3392
g92
g93
ssg81
g3386
sg74
(lp3393
g281
asbag67
(g88
g69
NtRp3394
(dp3395
g72
(dp3396
g99
g100
ssg81
g3386
sg74
(lp3397
S':'
asbag67
(g88
g69
NtRp3398
(dp3399
g72
(dp3400
sg81
g3386
sg74
(lp3401
g67
(g68
g69
NtRp3402
(dp3403
g72
(dp3404
g80
I3
ssg81
g3398
sg74
(lp3405
S''
asbasbasbag67
(g83
g69
NtRp3406
(dp3407
g72
(dp3408
sg81
g3382
sg74
(lp3409
g67
(g88
g69
NtRp3410
(dp3411
g72
(dp3412
g92
g93
ssg81
g3406
sg74
(lp3413
g302
asbag67
(g88
g69
NtRp3414
(dp3415
g72
(dp3416
g99
g100
ssg81
g3406
sg74
(lp3417
S':'
asbag67
(g88
g69
NtRp3418
(dp3419
g72
(dp3420
sg81
g3406
sg74
(lp3421
g67
(g68
g69
NtRp3422
(dp3423
g72
(dp3424
g80
I3
ssg81
g3418
sg74
(lp3425
S''
asbasbasbag67
(g83
g69
NtRp3426
(dp3427
g72
(dp3428
sg81
g3382
sg74
(lp3429
g67
(g88
g69
NtRp3430
(dp3431
g72
(dp3432
g92
g93
ssg81
g3426
sg74
(lp3433
g323
asbag67
(g88
g69
NtRp3434
(dp3435
g72
(dp3436
g99
g100
ssg81
g3426
sg74
(lp3437
S':'
asbag67
(g88
g69
NtRp3438
(dp3439
g72
(dp3440
sg81
g3426
sg74
(lp3441
g67
(g68
g69
NtRp3442
(dp3443
g72
(dp3444
g80
I3
ssg81
g3438
sg74
(lp3445
S''
asbasbasbag67
(g83
g69
NtRp3446
(dp3447
g72
(dp3448
sg81
g3382
sg74
(lp3449
g67
(g88
g69
NtRp3450
(dp3451
g72
(dp3452
g92
g93
ssg81
g3446
sg74
(lp3453
g344
asbag67
(g88
g69
NtRp3454
(dp3455
g72
(dp3456
g99
g100
ssg81
g3446
sg74
(lp3457
S':'
asbag67
(g88
g69
NtRp3458
(dp3459
g72
(dp3460
sg81
g3446
sg74
(lp3461
g67
(g68
g69
NtRp3462
(dp3463
g72
(dp3464
g80
I3
ssg81
g3458
sg74
(lp3465
S''
asbasbasbag67
(g83
g69
NtRp3466
(dp3467
g72
(dp3468
sg81
g3382
sg74
(lp3469
g67
(g88
g69
NtRp3470
(dp3471
g72
(dp3472
g92
g93
ssg81
g3466
sg74
(lp3473
g365
asbag67
(g88
g69
NtRp3474
(dp3475
g72
(dp3476
g99
g100
ssg81
g3466
sg74
(lp3477
S':'
asbag67
(g88
g69
NtRp3478
(dp3479
g72
(dp3480
sg81
g3466
sg74
(lp3481
g67
(g68
g69
NtRp3482
(dp3483
g72
(dp3484
g80
I3
ssg81
g3478
sg74
(lp3485
S''
asbasbasbag67
(g83
g69
NtRp3486
(dp3487
g72
(dp3488
sg81
g3382
sg74
(lp3489
g67
(g88
g69
NtRp3490
(dp3491
g72
(dp3492
g92
g93
ssg81
g3486
sg74
(lp3493
g386
asbag67
(g88
g69
NtRp3494
(dp3495
g72
(dp3496
g99
g100
ssg81
g3486
sg74
(lp3497
S':'
asbag67
(g88
g69
NtRp3498
(dp3499
g72
(dp3500
sg81
g3486
sg74
(lp3501
g67
(g68
g69
NtRp3502
(dp3503
g72
(dp3504
g80
I3
ssg81
g3498
sg74
(lp3505
S'/'
asbasbasbag67
(g83
g69
NtRp3506
(dp3507
g72
(dp3508
sg81
g3382
sg74
(lp3509
g67
(g88
g69
NtRp3510
(dp3511
g72
(dp3512
g92
g93
ssg81
g3506
sg74
(lp3513
g407
asbag67
(g88
g69
NtRp3514
(dp3515
g72
(dp3516
g99
g100
ssg81
g3506
sg74
(lp3517
S':'
asbag67
(g88
g69
NtRp3518
(dp3519
g72
(dp3520
sg81
g3506
sg74
(lp3521
g67
(g68
g69
NtRp3522
(dp3523
g72
(dp3524
g80
I3
ssg81
g3518
sg74
(lp3525
S''
asbasbasbag67
(g83
g69
NtRp3526
(dp3527
g72
(dp3528
sg81
g3382
sg74
(lp3529
g67
(g88
g69
NtRp3530
(dp3531
g72
(dp3532
g92
g93
ssg81
g3526
sg74
(lp3533
g428
asbag67
(g88
g69
NtRp3534
(dp3535
g72
(dp3536
g99
g100
ssg81
g3526
sg74
(lp3537
S':'
asbag67
(g88
g69
NtRp3538
(dp3539
g72
(dp3540
sg81
g3526
sg74
(lp3541
g67
(g68
g69
NtRp3542
(dp3543
g72
(dp3544
g80
I3
ssg81
g3538
sg74
(lp3545
S''
asbasbasbasbasbasbasbasbasbasbasbag67
(g83
g69
NtRp3546
(dp3547
g72
(dp3548
sg81
g3312
sg74
(lp3549
g67
(g88
g69
NtRp3550
(dp3551
g72
(dp3552
g92
g93
ssg81
g3546
sg74
(lp3553
S'files'
p3554
asbag67
(g88
g69
NtRp3555
(dp3556
g72
(dp3557
g99
g100
ssg81
g3546
sg74
(lp3558
S':'
asbag67
(g88
g69
NtRp3559
(dp3560
g72
(dp3561
sg81
g3546
sg74
(lp3562
g67
(g68
g69
NtRp3563
(dp3564
g72
(dp3565
g80
I5
ssg81
g3559
sg74
(lp3566
g67
(g76
g69
NtRp3567
(dp3568
g72
(dp3569
g80
I4
ssg81
Nsg74
(lp3570
sbasbasbasbag67
(g83
g69
NtRp3571
(dp3572
g72
(dp3573
sg81
g3312
sg74
(lp3574
g67
(g88
g69
NtRp3575
(dp3576
g72
(dp3577
g92
g93
ssg81
g3571
sg74
(lp3578
S'flash'
p3579
asbag67
(g88
g69
NtRp3580
(dp3581
g72
(dp3582
g99
g100
ssg81
g3571
sg74
(lp3583
S':'
asbag67
(g88
g69
NtRp3584
(dp3585
g72
(dp3586
sg81
g3571
sg74
(lp3587
g67
(g68
g69
NtRp3588
(dp3589
g72
(dp3590
g80
I5
ssg81
g3584
sg74
(lp3591
S''
asbasbasbag67
(g83
g69
NtRp3592
(dp3593
g72
(dp3594
sg81
g3312
sg74
(lp3595
g67
(g88
g69
NtRp3596
(dp3597
g72
(dp3598
g92
g93
ssg81
g3592
sg74
(lp3599
S'generic_patterns'
p3600
asbag67
(g88
g69
NtRp3601
(dp3602
g72
(dp3603
g99
g100
ssg81
g3592
sg74
(lp3604
S':'
asbag67
(g88
g69
NtRp3605
(dp3606
g72
(dp3607
sg81
g3592
sg74
(lp3608
g67
(g68
g69
NtRp3609
(dp3610
g72
(dp3611
g80
I5
ssg81
g3605
sg74
(lp3612
g67
(g76
g69
NtRp3613
(dp3614
g72
(dp3615
g80
I4
ssg81
Nsg74
(lp3616
g67
(g83
g69
NtRp3617
(dp3618
g72
(dp3619
sg81
g3613
sg74
(lp3620
g67
(g88
g69
NtRp3621
(dp3622
g72
(dp3623
sg81
g3617
sg74
(lp3624
g67
(g68
g69
NtRp3625
(dp3626
g72
(dp3627
g80
I4
ssg81
g3621
sg74
(lp3628
S'*'
asbasbasbasbasbasbasbag67
(g83
g69
NtRp3629
(dp3630
g72
(dp3631
sg81
g3312
sg74
(lp3632
g67
(g88
g69
NtRp3633
(dp3634
g72
(dp3635
g92
g93
ssg81
g3629
sg74
(lp3636
S'headers'
p3637
asbag67
(g88
g69
NtRp3638
(dp3639
g72
(dp3640
g99
g100
ssg81
g3629
sg74
(lp3641
S':'
asbag67
(g88
g69
NtRp3642
(dp3643
g72
(dp3644
sg81
g3629
sg74
(lp3645
g67
(g68
g69
NtRp3646
(dp3647
g72
(dp3648
g80
I5
ssg81
g3642
sg74
(lp3649
g67
(g76
g69
NtRp3650
(dp3651
g72
(dp3652
g80
I4
ssg81
Nsg74
(lp3653
g67
(g83
g69
NtRp3654
(dp3655
g72
(dp3656
sg81
g3650
sg74
(lp3657
g67
(g88
g69
NtRp3658
(dp3659
g72
(dp3660
g92
g93
ssg81
g3654
sg74
(lp3661
S'Cache-Control'
p3662
asbag67
(g88
g69
NtRp3663
(dp3664
g72
(dp3665
g99
g100
ssg81
g3654
sg74
(lp3666
S':'
asbag67
(g88
g69
NtRp3667
(dp3668
g72
(dp3669
sg81
g3654
sg74
(lp3670
g67
(g68
g69
NtRp3671
(dp3672
g72
(dp3673
g80
I4
ssg81
g3667
sg74
(lp3674
S'no-store, no-cache, must-revalidate, post-check=0, pre-check=0'
p3675
asbasbasbag67
(g83
g69
NtRp3676
(dp3677
g72
(dp3678
sg81
g3650
sg74
(lp3679
g67
(g88
g69
NtRp3680
(dp3681
g72
(dp3682
g92
g93
ssg81
g3676
sg74
(lp3683
S'Content-Type'
p3684
asbag67
(g88
g69
NtRp3685
(dp3686
g72
(dp3687
g99
g100
ssg81
g3676
sg74
(lp3688
S':'
asbag67
(g88
g69
NtRp3689
(dp3690
g72
(dp3691
sg81
g3676
sg74
(lp3692
g67
(g68
g69
NtRp3693
(dp3694
g72
(dp3695
g80
I4
ssg81
g3689
sg74
(lp3696
S'text/html; charset=utf-8'
p3697
asbasbasbag67
(g83
g69
NtRp3698
(dp3699
g72
(dp3700
sg81
g3650
sg74
(lp3701
g67
(g88
g69
NtRp3702
(dp3703
g72
(dp3704
g92
g93
ssg81
g3698
sg74
(lp3705
S'Expires'
p3706
asbag67
(g88
g69
NtRp3707
(dp3708
g72
(dp3709
g99
g100
ssg81
g3698
sg74
(lp3710
S':'
asbag67
(g88
g69
NtRp3711
(dp3712
g72
(dp3713
sg81
g3698
sg74
(lp3714
g67
(g68
g69
NtRp3715
(dp3716
g72
(dp3717
g80
I4
ssg81
g3711
sg74
(lp3718
S'Sat, 26 May 2012 14:26:59 GMT'
p3719
asbasbasbag67
(g83
g69
NtRp3720
(dp3721
g72
(dp3722
sg81
g3650
sg74
(lp3723
g67
(g88
g69
NtRp3724
(dp3725
g72
(dp3726
g92
g93
ssg81
g3720
sg74
(lp3727
S'Pragma'
p3728
asbag67
(g88
g69
NtRp3729
(dp3730
g72
(dp3731
g99
g100
ssg81
g3720
sg74
(lp3732
S':'
asbag67
(g88
g69
NtRp3733
(dp3734
g72
(dp3735
sg81
g3720
sg74
(lp3736
g67
(g68
g69
NtRp3737
(dp3738
g72
(dp3739
g80
I4
ssg81
g3733
sg74
(lp3740
S'no-cache'
p3741
asbasbasbag67
(g83
g69
NtRp3742
(dp3743
g72
(dp3744
sg81
g3650
sg74
(lp3745
g67
(g88
g69
NtRp3746
(dp3747
g72
(dp3748
g92
g93
ssg81
g3742
sg74
(lp3749
S'X-Powered-By'
p3750
asbag67
(g88
g69
NtRp3751
(dp3752
g72
(dp3753
g99
g100
ssg81
g3742
sg74
(lp3754
S':'
asbag67
(g88
g69
NtRp3755
(dp3756
g72
(dp3757
sg81
g3742
sg74
(lp3758
g67
(g68
g69
NtRp3759
(dp3760
g72
(dp3761
g80
I4
ssg81
g3755
sg74
(lp3762
S'web2py'
p3763
asbasbasbasbasbasbasbag67
(g83
g69
NtRp3764
(dp3765
g72
(dp3766
sg81
g3312
sg74
(lp3767
g67
(g88
g69
NtRp3768
(dp3769
g72
(dp3770
g92
g93
ssg81
g3764
sg74
(lp3771
S'menu'
p3772
asbag67
(g88
g69
NtRp3773
(dp3774
g72
(dp3775
g99
g100
ssg81
g3764
sg74
(lp3776
S':'
asbag67
(g88
g69
NtRp3777
(dp3778
g72
(dp3779
sg81
g3764
sg74
(lp3780
g67
(g68
g69
NtRp3781
(dp3782
g72
(dp3783
g80
I5
ssg81
g3777
sg74
(lp3784
g67
(g76
g69
NtRp3785
(dp3786
g72
(dp3787
g80
I4
ssg81
Nsg74
(lp3788
g67
(g83
g69
NtRp3789
(dp3790
g72
(dp3791
sg81
g3785
sg74
(lp3792
g67
(g88
g69
NtRp3793
(dp3794
g72
(dp3795
sg81
g3789
sg74
(lp3796
g67
(g68
g69
NtRp3797
(dp3798
g72
(dp3799
g80
I4
ssg81
g3793
sg74
(lp3800
g67
(g76
g69
NtRp3801
(dp3802
g72
(dp3803
g80
I3
ssg81
Nsg74
(lp3804
g67
(g83
g69
NtRp3805
(dp3806
g72
(dp3807
sg81
g3801
sg74
(lp3808
g67
(g88
g69
NtRp3809
(dp3810
g72
(dp3811
sg81
g3805
sg74
(lp3812
g67
(g68
g69
NtRp3813
(dp3814
g72
(dp3815
g80
I3
ssg81
g3809
sg74
(lp3816
cgluon.languages
lazyT_unpickle
p3817
(S's\n\x00\x00\x00Clear Page'
tRp3818
asbasbasbag67
(g83
g69
NtRp3819
(dp3820
g72
(dp3821
sg81
g3801
sg74
(lp3822
g67
(g88
g69
NtRp3823
(dp3824
g72
(dp3825
sg81
g3819
sg74
(lp3826
g67
(g68
g69
NtRp3827
(dp3828
g72
(dp3829
g80
I3
ssg81
g3823
sg74
(lp3830
g110
asbasbasbag67
(g83
g69
NtRp3831
(dp3832
g72
(dp3833
sg81
g3801
sg74
(lp3834
g67
(g88
g69
NtRp3835
(dp3836
g72
(dp3837
sg81
g3831
sg74
(lp3838
g67
(g68
g69
NtRp3839
(dp3840
g72
(dp3841
g80
I3
ssg81
g3835
sg74
(lp3842
S'/streamlog/default/index'
p3843
asbasbasbag67
(g83
g69
NtRp3844
(dp3845
g72
(dp3846
sg81
g3801
sg74
(lp3847
g67
(g88
g69
NtRp3848
(dp3849
g72
(dp3850
sg81
g3844
sg74
(lp3851
g67
(g68
g69
NtRp3852
(dp3853
g72
(dp3854
g80
I3
ssg81
g3848
sg74
(lp3855
g67
(g76
g69
NtRp3856
(dp3857
g72
(dp3858
g80
I2
ssg81
Nsg74
(lp3859
sbasbasbasbasbasbasbasbag67
(g83
g69
NtRp3860
(dp3861
g72
(dp3862
sg81
g3785
sg74
(lp3863
g67
(g88
g69
NtRp3864
(dp3865
g72
(dp3866
sg81
g3860
sg74
(lp3867
g67
(g68
g69
NtRp3868
(dp3869
g72
(dp3870
g80
I4
ssg81
g3864
sg74
(lp3871
g67
(g76
g69
NtRp3872
(dp3873
g72
(dp3874
g80
I3
ssg81
Nsg74
(lp3875
g67
(g83
g69
NtRp3876
(dp3877
g72
(dp3878
sg81
g3872
sg74
(lp3879
g67
(g88
g69
NtRp3880
(dp3881
g72
(dp3882
sg81
g3876
sg74
(lp3883
g67
(g68
g69
NtRp3884
(dp3885
g72
(dp3886
g80
I3
ssg81
g3880
sg74
(lp3887
g3817
(S't\x06\x00\x00\x00Manage'
tRp3888
asbasbasbag67
(g83
g69
NtRp3889
(dp3890
g72
(dp3891
sg81
g3872
sg74
(lp3892
g67
(g88
g69
NtRp3893
(dp3894
g72
(dp3895
sg81
g3889
sg74
(lp3896
g67
(g68
g69
NtRp3897
(dp3898
g72
(dp3899
g80
I3
ssg81
g3893
sg74
(lp3900
g110
asbasbasbag67
(g83
g69
NtRp3901
(dp3902
g72
(dp3903
sg81
g3872
sg74
(lp3904
g67
(g88
g69
NtRp3905
(dp3906
g72
(dp3907
sg81
g3901
sg74
(lp3908
g67
(g68
g69
NtRp3909
(dp3910
g72
(dp3911
g80
I3
ssg81
g3905
sg74
(lp3912
S'None'
p3913
asbasbasbag67
(g83
g69
NtRp3914
(dp3915
g72
(dp3916
sg81
g3872
sg74
(lp3917
g67
(g88
g69
NtRp3918
(dp3919
g72
(dp3920
sg81
g3914
sg74
(lp3921
g67
(g68
g69
NtRp3922
(dp3923
g72
(dp3924
g80
I3
ssg81
g3918
sg74
(lp3925
g67
(g76
g69
NtRp3926
(dp3927
g72
(dp3928
g80
I2
ssg81
Nsg74
(lp3929
g67
(g83
g69
NtRp3930
(dp3931
g72
(dp3932
sg81
g3926
sg74
(lp3933
g67
(g88
g69
NtRp3934
(dp3935
g72
(dp3936
sg81
g3930
sg74
(lp3937
g67
(g68
g69
NtRp3938
(dp3939
g72
(dp3940
g80
I2
ssg81
g3934
sg74
(lp3941
g67
(g76
g69
NtRp3942
(dp3943
g72
(dp3944
g80
I1
ssg81
Nsg74
(lp3945
g67
(g83
g69
NtRp3946
(dp3947
g72
(dp3948
sg81
g3942
sg74
(lp3949
g67
(g88
g69
NtRp3950
(dp3951
g72
(dp3952
sg81
g3946
sg74
(lp3953
g67
(g68
g69
NtRp3954
(dp3955
g72
(dp3956
g80
I1
ssg81
g3950
sg74
(lp3957
g3817
(S't\x04\x00\x00\x00Logs'
tRp3958
asbasbasbag67
(g83
g69
NtRp3959
(dp3960
g72
(dp3961
sg81
g3942
sg74
(lp3962
g67
(g88
g69
NtRp3963
(dp3964
g72
(dp3965
sg81
g3959
sg74
(lp3966
g67
(g68
g69
NtRp3967
(dp3968
g72
(dp3969
g80
I1
ssg81
g3963
sg74
(lp3970
I00
asbasbasbag67
(g83
g69
NtRp3971
(dp3972
g72
(dp3973
sg81
g3942
sg74
(lp3974
g67
(g88
g69
NtRp3975
(dp3976
g72
(dp3977
sg81
g3971
sg74
(lp3978
g67
(g68
g69
NtRp3979
(dp3980
g72
(dp3981
g80
I1
ssg81
g3975
sg74
(lp3982
S'/streamlog/default/log_manage'
p3983
asbasbasbag67
(g83
g69
NtRp3984
(dp3985
g72
(dp3986
sg81
g3942
sg74
(lp3987
g67
(g88
g69
NtRp3988
(dp3989
g72
(dp3990
sg81
g3984
sg74
(lp3991
g67
(g68
g69
NtRp3992
(dp3993
g72
(dp3994
g80
I1
ssg81
g3988
sg74
(lp3995
(lp3996
asbasbasbasbasbasbasbag67
(g83
g69
NtRp3997
(dp3998
g72
(dp3999
sg81
g3926
sg74
(lp4000
g67
(g88
g69
NtRp4001
(dp4002
g72
(dp4003
sg81
g3997
sg74
(lp4004
g67
(g68
g69
NtRp4005
(dp4006
g72
(dp4007
g80
I2
ssg81
g4001
sg74
(lp4008
g67
(g76
g69
NtRp4009
(dp4010
g72
(dp4011
g80
I1
ssg81
Nsg74
(lp4012
g67
(g83
g69
NtRp4013
(dp4014
g72
(dp4015
sg81
g4009
sg74
(lp4016
g67
(g88
g69
NtRp4017
(dp4018
g72
(dp4019
sg81
g4013
sg74
(lp4020
g67
(g68
g69
NtRp4021
(dp4022
g72
(dp4023
g80
I1
ssg81
g4017
sg74
(lp4024
g3817
(S't\x07\x00\x00\x00Servers'
tRp4025
asbasbasbag67
(g83
g69
NtRp4026
(dp4027
g72
(dp4028
sg81
g4009
sg74
(lp4029
g67
(g88
g69
NtRp4030
(dp4031
g72
(dp4032
sg81
g4026
sg74
(lp4033
g67
(g68
g69
NtRp4034
(dp4035
g72
(dp4036
g80
I1
ssg81
g4030
sg74
(lp4037
I00
asbasbasbag67
(g83
g69
NtRp4038
(dp4039
g72
(dp4040
sg81
g4009
sg74
(lp4041
g67
(g88
g69
NtRp4042
(dp4043
g72
(dp4044
sg81
g4038
sg74
(lp4045
g67
(g68
g69
NtRp4046
(dp4047
g72
(dp4048
g80
I1
ssg81
g4042
sg74
(lp4049
S'/streamlog/default/server_manage'
p4050
asbasbasbag67
(g83
g69
NtRp4051
(dp4052
g72
(dp4053
sg81
g4009
sg74
(lp4054
g67
(g88
g69
NtRp4055
(dp4056
g72
(dp4057
sg81
g4051
sg74
(lp4058
g67
(g68
g69
NtRp4059
(dp4060
g72
(dp4061
g80
I1
ssg81
g4055
sg74
(lp4062
(lp4063
asbasbasbasbasbasbasbag67
(g83
g69
NtRp4064
(dp4065
g72
(dp4066
sg81
g3926
sg74
(lp4067
g67
(g88
g69
NtRp4068
(dp4069
g72
(dp4070
sg81
g4064
sg74
(lp4071
g67
(g68
g69
NtRp4072
(dp4073
g72
(dp4074
g80
I2
ssg81
g4068
sg74
(lp4075
g67
(g76
g69
NtRp4076
(dp4077
g72
(dp4078
g80
I1
ssg81
Nsg74
(lp4079
g67
(g83
g69
NtRp4080
(dp4081
g72
(dp4082
sg81
g4076
sg74
(lp4083
g67
(g88
g69
NtRp4084
(dp4085
g72
(dp4086
sg81
g4080
sg74
(lp4087
g67
(g68
g69
NtRp4088
(dp4089
g72
(dp4090
g80
I1
ssg81
g4084
sg74
(lp4091
g3817
(S't\x08\x00\x00\x00Projects'
tRp4092
asbasbasbag67
(g83
g69
NtRp4093
(dp4094
g72
(dp4095
sg81
g4076
sg74
(lp4096
g67
(g88
g69
NtRp4097
(dp4098
g72
(dp4099
sg81
g4093
sg74
(lp4100
g67
(g68
g69
NtRp4101
(dp4102
g72
(dp4103
g80
I1
ssg81
g4097
sg74
(lp4104
I00
asbasbasbag67
(g83
g69
NtRp4105
(dp4106
g72
(dp4107
sg81
g4076
sg74
(lp4108
g67
(g88
g69
NtRp4109
(dp4110
g72
(dp4111
sg81
g4105
sg74
(lp4112
g67
(g68
g69
NtRp4113
(dp4114
g72
(dp4115
g80
I1
ssg81
g4109
sg74
(lp4116
S'/streamlog/default/project_manage'
p4117
asbasbasbag67
(g83
g69
NtRp4118
(dp4119
g72
(dp4120
sg81
g4076
sg74
(lp4121
g67
(g88
g69
NtRp4122
(dp4123
g72
(dp4124
sg81
g4118
sg74
(lp4125
g67
(g68
g69
NtRp4126
(dp4127
g72
(dp4128
g80
I1
ssg81
g4122
sg74
(lp4129
(lp4130
asbasbasbasbasbasbasbag67
(g83
g69
NtRp4131
(dp4132
g72
(dp4133
sg81
g3926
sg74
(lp4134
g67
(g88
g69
NtRp4135
(dp4136
g72
(dp4137
sg81
g4131
sg74
(lp4138
g67
(g68
g69
NtRp4139
(dp4140
g72
(dp4141
g80
I2
ssg81
g4135
sg74
(lp4142
g67
(g76
g69
NtRp4143
(dp4144
g72
(dp4145
g80
I1
ssg81
Nsg74
(lp4146
g67
(g83
g69
NtRp4147
(dp4148
g72
(dp4149
sg81
g4143
sg74
(lp4150
g67
(g88
g69
NtRp4151
(dp4152
g72
(dp4153
sg81
g4147
sg74
(lp4154
g67
(g68
g69
NtRp4155
(dp4156
g72
(dp4157
g80
I1
ssg81
g4151
sg74
(lp4158
g3817
(S's\t\x00\x00\x00Type Logs'
tRp4159
asbasbasbag67
(g83
g69
NtRp4160
(dp4161
g72
(dp4162
sg81
g4143
sg74
(lp4163
g67
(g88
g69
NtRp4164
(dp4165
g72
(dp4166
sg81
g4160
sg74
(lp4167
g67
(g68
g69
NtRp4168
(dp4169
g72
(dp4170
g80
I1
ssg81
g4164
sg74
(lp4171
I00
asbasbasbag67
(g83
g69
NtRp4172
(dp4173
g72
(dp4174
sg81
g4143
sg74
(lp4175
g67
(g88
g69
NtRp4176
(dp4177
g72
(dp4178
sg81
g4172
sg74
(lp4179
g67
(g68
g69
NtRp4180
(dp4181
g72
(dp4182
g80
I1
ssg81
g4176
sg74
(lp4183
S'/streamlog/default/type_log_manage'
p4184
asbasbasbag67
(g83
g69
NtRp4185
(dp4186
g72
(dp4187
sg81
g4143
sg74
(lp4188
g67
(g88
g69
NtRp4189
(dp4190
g72
(dp4191
sg81
g4185
sg74
(lp4192
g67
(g68
g69
NtRp4193
(dp4194
g72
(dp4195
g80
I1
ssg81
g4189
sg74
(lp4196
(lp4197
asbasbasbasbasbasbasbasbasbasbasbasbasbasbasbasbasbasbasbag67
(g83
g69
NtRp4198
(dp4199
g72
(dp4200
sg81
g3312
sg74
(lp4201
g67
(g88
g69
NtRp4202
(dp4203
g72
(dp4204
g92
g93
ssg81
g4198
sg74
(lp4205
S'meta'
p4206
asbag67
(g88
g69
NtRp4207
(dp4208
g72
(dp4209
g99
g100
ssg81
g4198
sg74
(lp4210
S':'
asbag67
(g88
g69
NtRp4211
(dp4212
g72
(dp4213
sg81
g4198
sg74
(lp4214
g67
(g68
g69
NtRp4215
(dp4216
g72
(dp4217
g80
I5
ssg81
g4211
sg74
(lp4218
g67
(g76
g69
NtRp4219
(dp4220
g72
(dp4221
g80
I4
ssg81
Nsg74
(lp4222
g67
(g83
g69
NtRp4223
(dp4224
g72
(dp4225
sg81
g4219
sg74
(lp4226
g67
(g88
g69
NtRp4227
(dp4228
g72
(dp4229
g92
g93
ssg81
g4223
sg74
(lp4230
S'author'
p4231
asbag67
(g88
g69
NtRp4232
(dp4233
g72
(dp4234
g99
g100
ssg81
g4223
sg74
(lp4235
S':'
asbag67
(g88
g69
NtRp4236
(dp4237
g72
(dp4238
sg81
g4223
sg74
(lp4239
g67
(g68
g69
NtRp4240
(dp4241
g72
(dp4242
g80
I4
ssg81
g4236
sg74
(lp4243
S'Jose de Soto <josedesoto@gmail.com>'
p4244
asbasbasbag67
(g83
g69
NtRp4245
(dp4246
g72
(dp4247
sg81
g4219
sg74
(lp4248
g67
(g88
g69
NtRp4249
(dp4250
g72
(dp4251
g92
g93
ssg81
g4245
sg74
(lp4252
S'copyright'
p4253
asbag67
(g88
g69
NtRp4254
(dp4255
g72
(dp4256
g99
g100
ssg81
g4245
sg74
(lp4257
S':'
asbag67
(g88
g69
NtRp4258
(dp4259
g72
(dp4260
sg81
g4245
sg74
(lp4261
g67
(g68
g69
NtRp4262
(dp4263
g72
(dp4264
g80
I4
ssg81
g4258
sg74
(lp4265
S'Copyright 2011'
p4266
asbasbasbag67
(g83
g69
NtRp4267
(dp4268
g72
(dp4269
sg81
g4219
sg74
(lp4270
g67
(g88
g69
NtRp4271
(dp4272
g72
(dp4273
g92
g93
ssg81
g4267
sg74
(lp4274
S'description'
p4275
asbag67
(g88
g69
NtRp4276
(dp4277
g72
(dp4278
g99
g100
ssg81
g4267
sg74
(lp4279
S':'
asbag67
(g88
g69
NtRp4280
(dp4281
g72
(dp4282
sg81
g4267
sg74
(lp4283
g67
(g68
g69
NtRp4284
(dp4285
g72
(dp4286
g80
I4
ssg81
g4280
sg74
(lp4287
S'a cool new app'
p4288
asbasbasbag67
(g83
g69
NtRp4289
(dp4290
g72
(dp4291
sg81
g4219
sg74
(lp4292
g67
(g88
g69
NtRp4293
(dp4294
g72
(dp4295
g92
g93
ssg81
g4289
sg74
(lp4296
S'generator'
p4297
asbag67
(g88
g69
NtRp4298
(dp4299
g72
(dp4300
g99
g100
ssg81
g4289
sg74
(lp4301
S':'
asbag67
(g88
g69
NtRp4302
(dp4303
g72
(dp4304
sg81
g4289
sg74
(lp4305
g67
(g68
g69
NtRp4306
(dp4307
g72
(dp4308
g80
I4
ssg81
g4302
sg74
(lp4309
S'Web2py Web Framework'
p4310
asbasbasbag67
(g83
g69
NtRp4311
(dp4312
g72
(dp4313
sg81
g4219
sg74
(lp4314
g67
(g88
g69
NtRp4315
(dp4316
g72
(dp4317
g92
g93
ssg81
g4311
sg74
(lp4318
S'keywords'
p4319
asbag67
(g88
g69
NtRp4320
(dp4321
g72
(dp4322
g99
g100
ssg81
g4311
sg74
(lp4323
S':'
asbag67
(g88
g69
NtRp4324
(dp4325
g72
(dp4326
sg81
g4311
sg74
(lp4327
g67
(g68
g69
NtRp4328
(dp4329
g72
(dp4330
g80
I4
ssg81
g4324
sg74
(lp4331
S'web2py, python, framework'
p4332
asbasbasbasbasbasbasbag67
(g83
g69
NtRp4333
(dp4334
g72
(dp4335
sg81
g3312
sg74
(lp4336
g67
(g88
g69
NtRp4337
(dp4338
g72
(dp4339
g92
g93
ssg81
g4333
sg74
(lp4340
S'postprocessing'
p4341
asbag67
(g88
g69
NtRp4342
(dp4343
g72
(dp4344
g99
g100
ssg81
g4333
sg74
(lp4345
S':'
asbag67
(g88
g69
NtRp4346
(dp4347
g72
(dp4348
sg81
g4333
sg74
(lp4349
g67
(g68
g69
NtRp4350
(dp4351
g72
(dp4352
g80
I5
ssg81
g4346
sg74
(lp4353
g67
(g76
g69
NtRp4354
(dp4355
g72
(dp4356
g80
I4
ssg81
Nsg74
(lp4357
sbasbasbasbag67
(g83
g69
NtRp4358
(dp4359
g72
(dp4360
sg81
g3312
sg74
(lp4361
g67
(g88
g69
NtRp4362
(dp4363
g72
(dp4364
g92
g93
ssg81
g4358
sg74
(lp4365
S'session_file'
p4366
asbag67
(g88
g69
NtRp4367
(dp4368
g72
(dp4369
g99
g100
ssg81
g4358
sg74
(lp4370
S':'
asbag67
(g88
g69
NtRp4371
(dp4372
g72
(dp4373
sg81
g4358
sg74
(lp4374
g67
(g68
g69
NtRp4375
(dp4376
g72
(dp4377
g80
I5
ssg81
g4371
sg74
(lp4378
S"<open file '/home/jose/DESARROLLO/web2py199/applications/streamlog/sessions/127.0.0.1-610b0c7d-3f6f-4500-a76a-b095fb30f7fd', mode 'rb+' at 0x2ab66f0>"
p4379
asbasbasbag67
(g83
g69
NtRp4380
(dp4381
g72
(dp4382
sg81
g3312
sg74
(lp4383
g67
(g88
g69
NtRp4384
(dp4385
g72
(dp4386
g92
g93
ssg81
g4380
sg74
(lp4387
S'session_filename'
p4388
asbag67
(g88
g69
NtRp4389
(dp4390
g72
(dp4391
g99
g100
ssg81
g4380
sg74
(lp4392
S':'
asbag67
(g88
g69
NtRp4393
(dp4394
g72
(dp4395
sg81
g4380
sg74
(lp4396
g67
(g68
g69
NtRp4397
(dp4398
g72
(dp4399
g80
I5
ssg81
g4393
sg74
(lp4400
S'/home/jose/DESARROLLO/web2py199/applications/streamlog/sessions/127.0.0.1-610b0c7d-3f6f-4500-a76a-b095fb30f7fd'
p4401
asbasbasbag67
(g83
g69
NtRp4402
(dp4403
g72
(dp4404
sg81
g3312
sg74
(lp4405
g67
(g88
g69
NtRp4406
(dp4407
g72
(dp4408
g92
g93
ssg81
g4402
sg74
(lp4409
S'session_id'
p4410
asbag67
(g88
g69
NtRp4411
(dp4412
g72
(dp4413
g99
g100
ssg81
g4402
sg74
(lp4414
S':'
asbag67
(g88
g69
NtRp4415
(dp4416
g72
(dp4417
sg81
g4402
sg74
(lp4418
g67
(g68
g69
NtRp4419
(dp4420
g72
(dp4421
g80
I5
ssg81
g4415
sg74
(lp4422
S'127.0.0.1-610b0c7d-3f6f-4500-a76a-b095fb30f7fd'
p4423
asbasbasbag67
(g83
g69
NtRp4424
(dp4425
g72
(dp4426
sg81
g3312
sg74
(lp4427
g67
(g88
g69
NtRp4428
(dp4429
g72
(dp4430
g92
g93
ssg81
g4424
sg74
(lp4431
S'session_id_name'
p4432
asbag67
(g88
g69
NtRp4433
(dp4434
g72
(dp4435
g99
g100
ssg81
g4424
sg74
(lp4436
S':'
asbag67
(g88
g69
NtRp4437
(dp4438
g72
(dp4439
sg81
g4424
sg74
(lp4440
g67
(g68
g69
NtRp4441
(dp4442
g72
(dp4443
g80
I5
ssg81
g4437
sg74
(lp4444
g3369
asbasbasbag67
(g83
g69
NtRp4445
(dp4446
g72
(dp4447
sg81
g3312
sg74
(lp4448
g67
(g88
g69
NtRp4449
(dp4450
g72
(dp4451
g92
g93
ssg81
g4445
sg74
(lp4452
S'session_locked'
p4453
asbag67
(g88
g69
NtRp4454
(dp4455
g72
(dp4456
g99
g100
ssg81
g4445
sg74
(lp4457
S':'
asbag67
(g88
g69
NtRp4458
(dp4459
g72
(dp4460
sg81
g4445
sg74
(lp4461
g67
(g68
g69
NtRp4462
(dp4463
g72
(dp4464
g80
I5
ssg81
g4458
sg74
(lp4465
g1645
asbasbasbag67
(g83
g69
NtRp4466
(dp4467
g72
(dp4468
sg81
g3312
sg74
(lp4469
g67
(g88
g69
NtRp4470
(dp4471
g72
(dp4472
g92
g93
ssg81
g4466
sg74
(lp4473
S'session_new'
p4474
asbag67
(g88
g69
NtRp4475
(dp4476
g72
(dp4477
g99
g100
ssg81
g4466
sg74
(lp4478
S':'
asbag67
(g88
g69
NtRp4479
(dp4480
g72
(dp4481
sg81
g4466
sg74
(lp4482
g67
(g68
g69
NtRp4483
(dp4484
g72
(dp4485
g80
I5
ssg81
g4479
sg74
(lp4486
g110
asbasbasbag67
(g83
g69
NtRp4487
(dp4488
g72
(dp4489
sg81
g3312
sg74
(lp4490
g67
(g88
g69
NtRp4491
(dp4492
g72
(dp4493
g92
g93
ssg81
g4487
sg74
(lp4494
S'status'
p4495
asbag67
(g88
g69
NtRp4496
(dp4497
g72
(dp4498
g99
g100
ssg81
g4487
sg74
(lp4499
S':'
asbag67
(g88
g69
NtRp4500
(dp4501
g72
(dp4502
sg81
g4487
sg74
(lp4503
g67
(g68
g69
NtRp4504
(dp4505
g72
(dp4506
g80
I5
ssg81
g4500
sg74
(lp4507
S'200'
p4508
asbasbasbag67
(g83
g69
NtRp4509
(dp4510
g72
(dp4511
sg81
g3312
sg74
(lp4512
g67
(g88
g69
NtRp4513
(dp4514
g72
(dp4515
g92
g93
ssg81
g4509
sg74
(lp4516
S'subtitle'
p4517
asbag67
(g88
g69
NtRp4518
(dp4519
g72
(dp4520
g99
g100
ssg81
g4509
sg74
(lp4521
S':'
asbag67
(g88
g69
NtRp4522
(dp4523
g72
(dp4524
sg81
g4509
sg74
(lp4525
g67
(g68
g69
NtRp4526
(dp4527
g72
(dp4528
g80
I5
ssg81
g4522
sg74
(lp4529
g3817
(S's\x12\x00\x00\x00Stream Log Client!'
tRp4530
asbasbasbag67
(g83
g69
NtRp4531
(dp4532
g72
(dp4533
sg81
g3312
sg74
(lp4534
g67
(g88
g69
NtRp4535
(dp4536
g72
(dp4537
g92
g93
ssg81
g4531
sg74
(lp4538
S'title'
p4539
asbag67
(g88
g69
NtRp4540
(dp4541
g72
(dp4542
g99
g100
ssg81
g4531
sg74
(lp4543
S':'
asbag67
(g88
g69
NtRp4544
(dp4545
g72
(dp4546
sg81
g4531
sg74
(lp4547
g67
(g68
g69
NtRp4548
(dp4549
g72
(dp4550
g80
I5
ssg81
g4544
sg74
(lp4551
g132
asbasbasbag67
(g83
g69
NtRp4552
(dp4553
g72
(dp4554
sg81
g3312
sg74
(lp4555
g67
(g88
g69
NtRp4556
(dp4557
g72
(dp4558
g92
g93
ssg81
g4552
sg74
(lp4559
g2289
asbag67
(g88
g69
NtRp4560
(dp4561
g72
(dp4562
g99
g100
ssg81
g4552
sg74
(lp4563
S':'
asbag67
(g88
g69
NtRp4564
(dp4565
g72
(dp4566
sg81
g4552
sg74
(lp4567
g67
(g68
g69
NtRp4568
(dp4569
g72
(dp4570
g80
I5
ssg81
g4564
sg74
(lp4571
g2302
asbasbasbag67
(g83
g69
NtRp4572
(dp4573
g72
(dp4574
sg81
g3312
sg74
(lp4575
g67
(g88
g69
NtRp4576
(dp4577
g72
(dp4578
g92
g93
ssg81
g4572
sg74
(lp4579
S'view'
p4580
asbag67
(g88
g69
NtRp4581
(dp4582
g72
(dp4583
g99
g100
ssg81
g4572
sg74
(lp4584
S':'
asbag67
(g88
g69
NtRp4585
(dp4586
g72
(dp4587
sg81
g4572
sg74
(lp4588
g67
(g68
g69
NtRp4589
(dp4590
g72
(dp4591
g80
I5
ssg81
g4585
sg74
(lp4592
S'default/index.html'
p4593
asbasbasbasbasbsS'locals'
p4594
(dp4595
g3
S"'/home/jose/DESARROLLO/web2py199/applications/streamlog/controllers/default.py'"
p4596
sg5
S"'# -*- coding: utf-8 -*-\\n# this file is released ...=crud())\\n\\nresponse._vars=response._caller(index)\\n'"
p4597
sssS'traceback'
p4598
S'Traceback (most recent call last):\n  File "/home/jose/DESARROLLO/web2py199/gluon/restricted.py", line 193, in restricted\n    ccode = compile2(code,layer)\n  File "/home/jose/DESARROLLO/web2py199/gluon/restricted.py", line 179, in compile2\n    return compile(code.rstrip().replace(\'\\r\\n\',\'\\n\')+\'\\n\', layer, \'exec\')\n  File "/home/jose/DESARROLLO/web2py199/applications/streamlog/controllers/default.py", line 42\n    return response.json({"connection": [{\'name_log\': \'xhtml\',\'IP\': \'127.0.0.1\',\'port\': \'8888\'}]})\n   ^\nIndentationError: unexpected indent\n'
p4599
s.