(dp1
S'output'
p2
S''
sS'layer'
p3
S'/home/jose/DESARROLLO/web2py199/applications/streamlog/controllers/default.py'
p4
sS'code'
p5
S'# -*- coding: utf-8 -*-\n# this file is released under public domain and you can use without limitations\n\n#########################################################################\n## This is a samples controller\n## - index is the default action of any application\n## - user is required for authentication and authorization\n## - download is for downloading files uploaded in the db (does streaming)\n## - call exposes all registered services (none by default)\n#########################################################################\n\n\n\ndef index():\n    """\n    example action using the internationalization operator T and flash\n    rendered by views/default/index.html or views/generic.html\n    """\n    form=SQLFORM.grid(db.t_log, selectable=True csv=False,create=False, deletable=False, editable=False)\n    return dict(message=T(\'Hello World2\'), form=form)\n\n\ndef choose_log():\n    """\n    example action using the internationalization operator T and flash\n    rendered by views/default/index.html or views/generic.html\n    """\n    \n    \n    return dict(message="log")\n\n\ndef type_table():\n    """\n    example action using the internationalization operator T and flash\n    rendered by views/default/index.html or views/generic.html\n    """\n    \n    table=\'<table cellpadding="0" cellspacing="0" border="0" class="display" id="tablelog"> \\\n    <thead> \\\n        <tr> \\\n            <th>IP</th> \\\n            <th>hyphen</th> \\\n            <th>userid</th> \\\n            <th>Time Request</th> \\\n        <th>Request Time</th> \\\n        <th>Status Code</th> \\\n        <th>Size Object</th> \\\n        </tr>\\\n    </thead> \\\n    <tfoot> \\\n        <tr> \\\n            <th>IP</th> \\\n            <th>hyphen</th> \\\n            <th>userid</th>\\\n            <th>Time Request</th> \\\n        <th>Request Time</th> \\\n        <th>Status Code</th> \\\n        <th>Size Object</th> \\\n        </tr>  \\\n    </tfoot>  \\\n        <tbody> \\\n        </tbody> \\\n    </table>\'\n    \n    return table\n\n\ndef user():\n    """\n    exposes:\n    http://..../[app]/default/user/login\n    http://..../[app]/default/user/logout\n    http://..../[app]/default/user/register\n    http://..../[app]/default/user/profile\n    http://..../[app]/default/user/retrieve_password\n    http://..../[app]/default/user/change_password\n    use @auth.requires_login()\n        @auth.requires_membership(\'group name\')\n        @auth.requires_permission(\'read\',\'table name\',record_id)\n    to decorate functions that need access control\n    """\n    return dict(form=auth())\n\ndef error():\n    return dict()\n\n\ndef project_manage():\n    \n    form = SQLFORM.smartgrid(db.t_project)\n    return locals()\n\n\n\ndef server_manage():\n\n    form=SQLFORM.grid(db.t_server)\n    return locals()\n\ndef log_manage():\n \n    #form = SQLFORM.smartgrid(db.t_log,constraints=dict(t_log=query), selectable=True,searchable=False, csv=False,showbuttontext=True,onupdate=auth.archive)\n    #form = SQLFORM.smartgrid(db.t_log)\n    form=SQLFORM.grid(db.t_log)\n    return locals()\n\ndef type_log_manage():\n\n    form=SQLFORM.grid(db.t_type_log)\n    return locals()\n\ndef download():\n    """\n    allows downloading of uploaded files\n    http://..../[app]/default/download/[filename]\n    """\n    return response.download(request,db)\n\n\ndef call():\n    """\n    exposes services. for example:\n    http://..../[app]/default/call/jsonrpc\n    decorate with @services.jsonrpc the functions to expose\n    supports xml, json, xmlrpc, jsonrpc, amfrpc, rss, csv\n    """\n    return service()\n\n\n@auth.requires_signature()\ndef data():\n    """\n    http://..../[app]/default/data/tables\n    http://..../[app]/default/data/create/[table]\n    http://..../[app]/default/data/read/[table]/[id]\n    http://..../[app]/default/data/update/[table]/[id]\n    http://..../[app]/default/data/delete/[table]/[id]\n    http://..../[app]/default/data/select/[table]\n    http://..../[app]/default/data/search/[table]\n    but URLs bust be signed, i.e. linked with\n      A(\'table\',_href=URL(\'data/tables\',user_signature=True))\n    or with the signed load operator\n      LOAD(\'default\',\'data.load\',args=\'tables\',ajax=True,user_signature=True)\n    """\n    return dict(form=crud())\n\nresponse._vars=response._caller(index)\n'
p6
sS'snapshot'
p7
(dp8
S'exception'
p9
(dp10
S'__getslice__'
p11
S"<method-wrapper '__getslice__' of exceptions.SyntaxError object>"
p12
sS'text'
p13
S"'    form=SQLFORM.grid(db.t_log, selectable=True ...e,create=False, deletable=False, editable=False)\\n'"
p14
sS'__str__'
p15
S"<method-wrapper '__str__' of exceptions.SyntaxError object>"
p16
sS'__reduce__'
p17
S'<built-in method __reduce__ of exceptions.SyntaxError object>'
p18
sS'__dict__'
p19
S'{}'
p20
sS'__sizeof__'
p21
S'<built-in method __sizeof__ of exceptions.SyntaxError object>'
p22
sS'__init__'
p23
S"<method-wrapper '__init__' of exceptions.SyntaxError object>"
p24
sS'__setattr__'
p25
S"<method-wrapper '__setattr__' of exceptions.SyntaxError object>"
p26
sS'__reduce_ex__'
p27
S'<built-in method __reduce_ex__ of exceptions.SyntaxError object>'
p28
sS'__new__'
p29
S'<built-in method __new__ of type object>'
p30
sS'__format__'
p31
S'<built-in method __format__ of exceptions.SyntaxError object>'
p32
sS'__class__'
p33
S"<type 'exceptions.SyntaxError'>"
p34
sS'filename'
p35
S"'/home/jose/DESARROLLO/web2py199/applications/streamlog/controllers/default.py'"
p36
sS'lineno'
p37
S'19'
p38
sS'msg'
p39
S"'invalid syntax'"
p40
sS'__doc__'
p41
S"'Invalid syntax.'"
p42
sS'__getitem__'
p43
S"<method-wrapper '__getitem__' of exceptions.SyntaxError object>"
p44
sS'__setstate__'
p45
S'<built-in method __setstate__ of exceptions.SyntaxError object>'
p46
sS'__getattribute__'
p47
S"<method-wrapper '__getattribute__' of exceptions.SyntaxError object>"
p48
sS'print_file_and_line'
p49
S'None'
p50
sS'args'
p51
S"('invalid syntax', ('/home/jose/DESARROLLO/web2py199/applications/streamlog/controllers/default.py', 19, 51, '    form=SQLFORM.grid(db.t_log, selectable=True ...e,create=False, deletable=False, editable=False)\\n'))"
p52
sS'__subclasshook__'
p53
S'<built-in method __subclasshook__ of type object>'
p54
sS'offset'
p55
S'51'
p56
sS'__unicode__'
p57
S'<built-in method __unicode__ of exceptions.SyntaxError object>'
p58
sS'__delattr__'
p59
S"<method-wrapper '__delattr__' of exceptions.SyntaxError object>"
p60
sS'__repr__'
p61
S"<method-wrapper '__repr__' of exceptions.SyntaxError object>"
p62
sS'__hash__'
p63
S"<method-wrapper '__hash__' of exceptions.SyntaxError object>"
p64
ssS'evalue'
p65
S'invalid syntax (default.py, line 19)'
p66
sS'request'
p67
ccopy_reg
_reconstructor
p68
(cgluon.html
BEAUTIFY
p69
c__builtin__
object
p70
NtRp71
(dp72
S'attributes'
p73
(dp74
sS'components'
p75
(lp76
g68
(cgluon.html
TABLE
p77
g70
NtRp78
(dp79
g73
(dp80
S'level'
p81
I5
ssS'parent'
p82
Nsg75
(lp83
g68
(cgluon.html
TR
p84
g70
NtRp85
(dp86
g73
(dp87
sg82
g78
sg75
(lp88
g68
(cgluon.html
TD
p89
g70
NtRp90
(dp91
g73
(dp92
S'_style'
p93
S'font-weight:bold;'
p94
ssg82
g85
sg75
(lp95
S'ajax'
p96
asbag68
(g89
g70
NtRp97
(dp98
g73
(dp99
S'_valign'
p100
S'top'
p101
ssg82
g85
sg75
(lp102
S':'
asbag68
(g89
g70
NtRp103
(dp104
g73
(dp105
sg82
g85
sg75
(lp106
g68
(g69
g70
NtRp107
(dp108
g73
(dp109
g81
I5
ssg82
g103
sg75
(lp110
S'False'
p111
asbasbasbag68
(g84
g70
NtRp112
(dp113
g73
(dp114
sg82
g78
sg75
(lp115
g68
(g89
g70
NtRp116
(dp117
g73
(dp118
g93
g94
ssg82
g112
sg75
(lp119
S'application'
p120
asbag68
(g89
g70
NtRp121
(dp122
g73
(dp123
g100
g101
ssg82
g112
sg75
(lp124
S':'
asbag68
(g89
g70
NtRp125
(dp126
g73
(dp127
sg82
g112
sg75
(lp128
g68
(g69
g70
NtRp129
(dp130
g73
(dp131
g81
I5
ssg82
g125
sg75
(lp132
S'streamlog'
p133
asbasbasbag68
(g84
g70
NtRp134
(dp135
g73
(dp136
sg82
g78
sg75
(lp137
g68
(g89
g70
NtRp138
(dp139
g73
(dp140
g93
g94
ssg82
g134
sg75
(lp141
g51
asbag68
(g89
g70
NtRp142
(dp143
g73
(dp144
g100
g101
ssg82
g134
sg75
(lp145
S':'
asbag68
(g89
g70
NtRp146
(dp147
g73
(dp148
sg82
g134
sg75
(lp149
g68
(g69
g70
NtRp150
(dp151
g73
(dp152
g81
I5
ssg82
g146
sg75
(lp153
g68
(g77
g70
NtRp154
(dp155
g73
(dp156
g81
I4
ssg82
Nsg75
(lp157
sbasbasbasbag68
(g84
g70
NtRp158
(dp159
g73
(dp160
sg82
g78
sg75
(lp161
g68
(g89
g70
NtRp162
(dp163
g73
(dp164
g93
g94
ssg82
g158
sg75
(lp165
S'body'
p166
asbag68
(g89
g70
NtRp167
(dp168
g73
(dp169
g100
g101
ssg82
g158
sg75
(lp170
S':'
asbag68
(g89
g70
NtRp171
(dp172
g73
(dp173
sg82
g158
sg75
(lp174
g68
(g69
g70
NtRp175
(dp176
g73
(dp177
g81
I5
ssg82
g171
sg75
(lp178
S'<cStringIO.StringO object at 0x2750068>'
p179
asbasbasbag68
(g84
g70
NtRp180
(dp181
g73
(dp182
sg82
g78
sg75
(lp183
g68
(g89
g70
NtRp184
(dp185
g73
(dp186
g93
g94
ssg82
g180
sg75
(lp187
S'client'
p188
asbag68
(g89
g70
NtRp189
(dp190
g73
(dp191
g100
g101
ssg82
g180
sg75
(lp192
S':'
asbag68
(g89
g70
NtRp193
(dp194
g73
(dp195
sg82
g180
sg75
(lp196
g68
(g69
g70
NtRp197
(dp198
g73
(dp199
g81
I5
ssg82
g193
sg75
(lp200
S'127.0.0.1'
p201
asbasbasbag68
(g84
g70
NtRp202
(dp203
g73
(dp204
sg82
g78
sg75
(lp205
g68
(g89
g70
NtRp206
(dp207
g73
(dp208
g93
g94
ssg82
g202
sg75
(lp209
S'controller'
p210
asbag68
(g89
g70
NtRp211
(dp212
g73
(dp213
g100
g101
ssg82
g202
sg75
(lp214
S':'
asbag68
(g89
g70
NtRp215
(dp216
g73
(dp217
sg82
g202
sg75
(lp218
g68
(g69
g70
NtRp219
(dp220
g73
(dp221
g81
I5
ssg82
g215
sg75
(lp222
S'default'
p223
asbasbasbag68
(g84
g70
NtRp224
(dp225
g73
(dp226
sg82
g78
sg75
(lp227
g68
(g89
g70
NtRp228
(dp229
g73
(dp230
g93
g94
ssg82
g224
sg75
(lp231
S'cookies'
p232
asbag68
(g89
g70
NtRp233
(dp234
g73
(dp235
g100
g101
ssg82
g224
sg75
(lp236
S':'
asbag68
(g89
g70
NtRp237
(dp238
g73
(dp239
sg82
g224
sg75
(lp240
g68
(g69
g70
NtRp241
(dp242
g73
(dp243
g81
I5
ssg82
g237
sg75
(lp244
g68
(g77
g70
NtRp245
(dp246
g73
(dp247
g81
I4
ssg82
Nsg75
(lp248
g68
(g84
g70
NtRp249
(dp250
g73
(dp251
sg82
g245
sg75
(lp252
g68
(g89
g70
NtRp253
(dp254
g73
(dp255
g93
g94
ssg82
g249
sg75
(lp256
S'session_id_admin'
p257
asbag68
(g89
g70
NtRp258
(dp259
g73
(dp260
g100
g101
ssg82
g249
sg75
(lp261
S':'
asbag68
(g89
g70
NtRp262
(dp263
g73
(dp264
sg82
g249
sg75
(lp265
g68
(g69
g70
NtRp266
(dp267
g73
(dp268
g81
I4
ssg82
g262
sg75
(lp269
g68
(g77
g70
NtRp270
(dp271
g73
(dp272
g81
I3
ssg82
Nsg75
(lp273
g68
(g84
g70
NtRp274
(dp275
g73
(dp276
sg82
g270
sg75
(lp277
g68
(g89
g70
NtRp278
(dp279
g73
(dp280
g93
g94
ssg82
g274
sg75
(lp281
S'comment'
p282
asbag68
(g89
g70
NtRp283
(dp284
g73
(dp285
g100
g101
ssg82
g274
sg75
(lp286
S':'
asbag68
(g89
g70
NtRp287
(dp288
g73
(dp289
sg82
g274
sg75
(lp290
g68
(g69
g70
NtRp291
(dp292
g73
(dp293
g81
I3
ssg82
g287
sg75
(lp294
S''
asbasbasbag68
(g84
g70
NtRp295
(dp296
g73
(dp297
sg82
g270
sg75
(lp298
g68
(g89
g70
NtRp299
(dp300
g73
(dp301
g93
g94
ssg82
g295
sg75
(lp302
S'domain'
p303
asbag68
(g89
g70
NtRp304
(dp305
g73
(dp306
g100
g101
ssg82
g295
sg75
(lp307
S':'
asbag68
(g89
g70
NtRp308
(dp309
g73
(dp310
sg82
g295
sg75
(lp311
g68
(g69
g70
NtRp312
(dp313
g73
(dp314
g81
I3
ssg82
g308
sg75
(lp315
S''
asbasbasbag68
(g84
g70
NtRp316
(dp317
g73
(dp318
sg82
g270
sg75
(lp319
g68
(g89
g70
NtRp320
(dp321
g73
(dp322
g93
g94
ssg82
g316
sg75
(lp323
S'expires'
p324
asbag68
(g89
g70
NtRp325
(dp326
g73
(dp327
g100
g101
ssg82
g316
sg75
(lp328
S':'
asbag68
(g89
g70
NtRp329
(dp330
g73
(dp331
sg82
g316
sg75
(lp332
g68
(g69
g70
NtRp333
(dp334
g73
(dp335
g81
I3
ssg82
g329
sg75
(lp336
S''
asbasbasbag68
(g84
g70
NtRp337
(dp338
g73
(dp339
sg82
g270
sg75
(lp340
g68
(g89
g70
NtRp341
(dp342
g73
(dp343
g93
g94
ssg82
g337
sg75
(lp344
S'httponly'
p345
asbag68
(g89
g70
NtRp346
(dp347
g73
(dp348
g100
g101
ssg82
g337
sg75
(lp349
S':'
asbag68
(g89
g70
NtRp350
(dp351
g73
(dp352
sg82
g337
sg75
(lp353
g68
(g69
g70
NtRp354
(dp355
g73
(dp356
g81
I3
ssg82
g350
sg75
(lp357
S''
asbasbasbag68
(g84
g70
NtRp358
(dp359
g73
(dp360
sg82
g270
sg75
(lp361
g68
(g89
g70
NtRp362
(dp363
g73
(dp364
g93
g94
ssg82
g358
sg75
(lp365
S'max-age'
p366
asbag68
(g89
g70
NtRp367
(dp368
g73
(dp369
g100
g101
ssg82
g358
sg75
(lp370
S':'
asbag68
(g89
g70
NtRp371
(dp372
g73
(dp373
sg82
g358
sg75
(lp374
g68
(g69
g70
NtRp375
(dp376
g73
(dp377
g81
I3
ssg82
g371
sg75
(lp378
S''
asbasbasbag68
(g84
g70
NtRp379
(dp380
g73
(dp381
sg82
g270
sg75
(lp382
g68
(g89
g70
NtRp383
(dp384
g73
(dp385
g93
g94
ssg82
g379
sg75
(lp386
S'path'
p387
asbag68
(g89
g70
NtRp388
(dp389
g73
(dp390
g100
g101
ssg82
g379
sg75
(lp391
S':'
asbag68
(g89
g70
NtRp392
(dp393
g73
(dp394
sg82
g379
sg75
(lp395
g68
(g69
g70
NtRp396
(dp397
g73
(dp398
g81
I3
ssg82
g392
sg75
(lp399
S''
asbasbasbag68
(g84
g70
NtRp400
(dp401
g73
(dp402
sg82
g270
sg75
(lp403
g68
(g89
g70
NtRp404
(dp405
g73
(dp406
g93
g94
ssg82
g400
sg75
(lp407
S'secure'
p408
asbag68
(g89
g70
NtRp409
(dp410
g73
(dp411
g100
g101
ssg82
g400
sg75
(lp412
S':'
asbag68
(g89
g70
NtRp413
(dp414
g73
(dp415
sg82
g400
sg75
(lp416
g68
(g69
g70
NtRp417
(dp418
g73
(dp419
g81
I3
ssg82
g413
sg75
(lp420
S''
asbasbasbag68
(g84
g70
NtRp421
(dp422
g73
(dp423
sg82
g270
sg75
(lp424
g68
(g89
g70
NtRp425
(dp426
g73
(dp427
g93
g94
ssg82
g421
sg75
(lp428
S'version'
p429
asbag68
(g89
g70
NtRp430
(dp431
g73
(dp432
g100
g101
ssg82
g421
sg75
(lp433
S':'
asbag68
(g89
g70
NtRp434
(dp435
g73
(dp436
sg82
g421
sg75
(lp437
g68
(g69
g70
NtRp438
(dp439
g73
(dp440
g81
I3
ssg82
g434
sg75
(lp441
S''
asbasbasbasbasbasbasbag68
(g84
g70
NtRp442
(dp443
g73
(dp444
sg82
g245
sg75
(lp445
g68
(g89
g70
NtRp446
(dp447
g73
(dp448
g93
g94
ssg82
g442
sg75
(lp449
S'session_id_streamlog'
p450
asbag68
(g89
g70
NtRp451
(dp452
g73
(dp453
g100
g101
ssg82
g442
sg75
(lp454
S':'
asbag68
(g89
g70
NtRp455
(dp456
g73
(dp457
sg82
g442
sg75
(lp458
g68
(g69
g70
NtRp459
(dp460
g73
(dp461
g81
I4
ssg82
g455
sg75
(lp462
g68
(g77
g70
NtRp463
(dp464
g73
(dp465
g81
I3
ssg82
Nsg75
(lp466
g68
(g84
g70
NtRp467
(dp468
g73
(dp469
sg82
g463
sg75
(lp470
g68
(g89
g70
NtRp471
(dp472
g73
(dp473
g93
g94
ssg82
g467
sg75
(lp474
g282
asbag68
(g89
g70
NtRp475
(dp476
g73
(dp477
g100
g101
ssg82
g467
sg75
(lp478
S':'
asbag68
(g89
g70
NtRp479
(dp480
g73
(dp481
sg82
g467
sg75
(lp482
g68
(g69
g70
NtRp483
(dp484
g73
(dp485
g81
I3
ssg82
g479
sg75
(lp486
S''
asbasbasbag68
(g84
g70
NtRp487
(dp488
g73
(dp489
sg82
g463
sg75
(lp490
g68
(g89
g70
NtRp491
(dp492
g73
(dp493
g93
g94
ssg82
g487
sg75
(lp494
g303
asbag68
(g89
g70
NtRp495
(dp496
g73
(dp497
g100
g101
ssg82
g487
sg75
(lp498
S':'
asbag68
(g89
g70
NtRp499
(dp500
g73
(dp501
sg82
g487
sg75
(lp502
g68
(g69
g70
NtRp503
(dp504
g73
(dp505
g81
I3
ssg82
g499
sg75
(lp506
S''
asbasbasbag68
(g84
g70
NtRp507
(dp508
g73
(dp509
sg82
g463
sg75
(lp510
g68
(g89
g70
NtRp511
(dp512
g73
(dp513
g93
g94
ssg82
g507
sg75
(lp514
g324
asbag68
(g89
g70
NtRp515
(dp516
g73
(dp517
g100
g101
ssg82
g507
sg75
(lp518
S':'
asbag68
(g89
g70
NtRp519
(dp520
g73
(dp521
sg82
g507
sg75
(lp522
g68
(g69
g70
NtRp523
(dp524
g73
(dp525
g81
I3
ssg82
g519
sg75
(lp526
S''
asbasbasbag68
(g84
g70
NtRp527
(dp528
g73
(dp529
sg82
g463
sg75
(lp530
g68
(g89
g70
NtRp531
(dp532
g73
(dp533
g93
g94
ssg82
g527
sg75
(lp534
g345
asbag68
(g89
g70
NtRp535
(dp536
g73
(dp537
g100
g101
ssg82
g527
sg75
(lp538
S':'
asbag68
(g89
g70
NtRp539
(dp540
g73
(dp541
sg82
g527
sg75
(lp542
g68
(g69
g70
NtRp543
(dp544
g73
(dp545
g81
I3
ssg82
g539
sg75
(lp546
S''
asbasbasbag68
(g84
g70
NtRp547
(dp548
g73
(dp549
sg82
g463
sg75
(lp550
g68
(g89
g70
NtRp551
(dp552
g73
(dp553
g93
g94
ssg82
g547
sg75
(lp554
g366
asbag68
(g89
g70
NtRp555
(dp556
g73
(dp557
g100
g101
ssg82
g547
sg75
(lp558
S':'
asbag68
(g89
g70
NtRp559
(dp560
g73
(dp561
sg82
g547
sg75
(lp562
g68
(g69
g70
NtRp563
(dp564
g73
(dp565
g81
I3
ssg82
g559
sg75
(lp566
S''
asbasbasbag68
(g84
g70
NtRp567
(dp568
g73
(dp569
sg82
g463
sg75
(lp570
g68
(g89
g70
NtRp571
(dp572
g73
(dp573
g93
g94
ssg82
g567
sg75
(lp574
g387
asbag68
(g89
g70
NtRp575
(dp576
g73
(dp577
g100
g101
ssg82
g567
sg75
(lp578
S':'
asbag68
(g89
g70
NtRp579
(dp580
g73
(dp581
sg82
g567
sg75
(lp582
g68
(g69
g70
NtRp583
(dp584
g73
(dp585
g81
I3
ssg82
g579
sg75
(lp586
S''
asbasbasbag68
(g84
g70
NtRp587
(dp588
g73
(dp589
sg82
g463
sg75
(lp590
g68
(g89
g70
NtRp591
(dp592
g73
(dp593
g93
g94
ssg82
g587
sg75
(lp594
g408
asbag68
(g89
g70
NtRp595
(dp596
g73
(dp597
g100
g101
ssg82
g587
sg75
(lp598
S':'
asbag68
(g89
g70
NtRp599
(dp600
g73
(dp601
sg82
g587
sg75
(lp602
g68
(g69
g70
NtRp603
(dp604
g73
(dp605
g81
I3
ssg82
g599
sg75
(lp606
S''
asbasbasbag68
(g84
g70
NtRp607
(dp608
g73
(dp609
sg82
g463
sg75
(lp610
g68
(g89
g70
NtRp611
(dp612
g73
(dp613
g93
g94
ssg82
g607
sg75
(lp614
g429
asbag68
(g89
g70
NtRp615
(dp616
g73
(dp617
g100
g101
ssg82
g607
sg75
(lp618
S':'
asbag68
(g89
g70
NtRp619
(dp620
g73
(dp621
sg82
g607
sg75
(lp622
g68
(g69
g70
NtRp623
(dp624
g73
(dp625
g81
I3
ssg82
g619
sg75
(lp626
S''
asbasbasbasbasbasbasbag68
(g84
g70
NtRp627
(dp628
g73
(dp629
sg82
g245
sg75
(lp630
g68
(g89
g70
NtRp631
(dp632
g73
(dp633
g93
g94
ssg82
g627
sg75
(lp634
S'session_id_test3'
p635
asbag68
(g89
g70
NtRp636
(dp637
g73
(dp638
g100
g101
ssg82
g627
sg75
(lp639
S':'
asbag68
(g89
g70
NtRp640
(dp641
g73
(dp642
sg82
g627
sg75
(lp643
g68
(g69
g70
NtRp644
(dp645
g73
(dp646
g81
I4
ssg82
g640
sg75
(lp647
g68
(g77
g70
NtRp648
(dp649
g73
(dp650
g81
I3
ssg82
Nsg75
(lp651
g68
(g84
g70
NtRp652
(dp653
g73
(dp654
sg82
g648
sg75
(lp655
g68
(g89
g70
NtRp656
(dp657
g73
(dp658
g93
g94
ssg82
g652
sg75
(lp659
g282
asbag68
(g89
g70
NtRp660
(dp661
g73
(dp662
g100
g101
ssg82
g652
sg75
(lp663
S':'
asbag68
(g89
g70
NtRp664
(dp665
g73
(dp666
sg82
g652
sg75
(lp667
g68
(g69
g70
NtRp668
(dp669
g73
(dp670
g81
I3
ssg82
g664
sg75
(lp671
S''
asbasbasbag68
(g84
g70
NtRp672
(dp673
g73
(dp674
sg82
g648
sg75
(lp675
g68
(g89
g70
NtRp676
(dp677
g73
(dp678
g93
g94
ssg82
g672
sg75
(lp679
g303
asbag68
(g89
g70
NtRp680
(dp681
g73
(dp682
g100
g101
ssg82
g672
sg75
(lp683
S':'
asbag68
(g89
g70
NtRp684
(dp685
g73
(dp686
sg82
g672
sg75
(lp687
g68
(g69
g70
NtRp688
(dp689
g73
(dp690
g81
I3
ssg82
g684
sg75
(lp691
S''
asbasbasbag68
(g84
g70
NtRp692
(dp693
g73
(dp694
sg82
g648
sg75
(lp695
g68
(g89
g70
NtRp696
(dp697
g73
(dp698
g93
g94
ssg82
g692
sg75
(lp699
g324
asbag68
(g89
g70
NtRp700
(dp701
g73
(dp702
g100
g101
ssg82
g692
sg75
(lp703
S':'
asbag68
(g89
g70
NtRp704
(dp705
g73
(dp706
sg82
g692
sg75
(lp707
g68
(g69
g70
NtRp708
(dp709
g73
(dp710
g81
I3
ssg82
g704
sg75
(lp711
S''
asbasbasbag68
(g84
g70
NtRp712
(dp713
g73
(dp714
sg82
g648
sg75
(lp715
g68
(g89
g70
NtRp716
(dp717
g73
(dp718
g93
g94
ssg82
g712
sg75
(lp719
g345
asbag68
(g89
g70
NtRp720
(dp721
g73
(dp722
g100
g101
ssg82
g712
sg75
(lp723
S':'
asbag68
(g89
g70
NtRp724
(dp725
g73
(dp726
sg82
g712
sg75
(lp727
g68
(g69
g70
NtRp728
(dp729
g73
(dp730
g81
I3
ssg82
g724
sg75
(lp731
S''
asbasbasbag68
(g84
g70
NtRp732
(dp733
g73
(dp734
sg82
g648
sg75
(lp735
g68
(g89
g70
NtRp736
(dp737
g73
(dp738
g93
g94
ssg82
g732
sg75
(lp739
g366
asbag68
(g89
g70
NtRp740
(dp741
g73
(dp742
g100
g101
ssg82
g732
sg75
(lp743
S':'
asbag68
(g89
g70
NtRp744
(dp745
g73
(dp746
sg82
g732
sg75
(lp747
g68
(g69
g70
NtRp748
(dp749
g73
(dp750
g81
I3
ssg82
g744
sg75
(lp751
S''
asbasbasbag68
(g84
g70
NtRp752
(dp753
g73
(dp754
sg82
g648
sg75
(lp755
g68
(g89
g70
NtRp756
(dp757
g73
(dp758
g93
g94
ssg82
g752
sg75
(lp759
g387
asbag68
(g89
g70
NtRp760
(dp761
g73
(dp762
g100
g101
ssg82
g752
sg75
(lp763
S':'
asbag68
(g89
g70
NtRp764
(dp765
g73
(dp766
sg82
g752
sg75
(lp767
g68
(g69
g70
NtRp768
(dp769
g73
(dp770
g81
I3
ssg82
g764
sg75
(lp771
S''
asbasbasbag68
(g84
g70
NtRp772
(dp773
g73
(dp774
sg82
g648
sg75
(lp775
g68
(g89
g70
NtRp776
(dp777
g73
(dp778
g93
g94
ssg82
g772
sg75
(lp779
g408
asbag68
(g89
g70
NtRp780
(dp781
g73
(dp782
g100
g101
ssg82
g772
sg75
(lp783
S':'
asbag68
(g89
g70
NtRp784
(dp785
g73
(dp786
sg82
g772
sg75
(lp787
g68
(g69
g70
NtRp788
(dp789
g73
(dp790
g81
I3
ssg82
g784
sg75
(lp791
S''
asbasbasbag68
(g84
g70
NtRp792
(dp793
g73
(dp794
sg82
g648
sg75
(lp795
g68
(g89
g70
NtRp796
(dp797
g73
(dp798
g93
g94
ssg82
g792
sg75
(lp799
g429
asbag68
(g89
g70
NtRp800
(dp801
g73
(dp802
g100
g101
ssg82
g792
sg75
(lp803
S':'
asbag68
(g89
g70
NtRp804
(dp805
g73
(dp806
sg82
g792
sg75
(lp807
g68
(g69
g70
NtRp808
(dp809
g73
(dp810
g81
I3
ssg82
g804
sg75
(lp811
S''
asbasbasbasbasbasbasbasbasbasbasbag68
(g84
g70
NtRp812
(dp813
g73
(dp814
sg82
g78
sg75
(lp815
g68
(g89
g70
NtRp816
(dp817
g73
(dp818
g93
g94
ssg82
g812
sg75
(lp819
S'env'
p820
asbag68
(g89
g70
NtRp821
(dp822
g73
(dp823
g100
g101
ssg82
g812
sg75
(lp824
S':'
asbag68
(g89
g70
NtRp825
(dp826
g73
(dp827
sg82
g812
sg75
(lp828
g68
(g69
g70
NtRp829
(dp830
g73
(dp831
g81
I5
ssg82
g825
sg75
(lp832
g68
(g77
g70
NtRp833
(dp834
g73
(dp835
g81
I4
ssg82
Nsg75
(lp836
g68
(g84
g70
NtRp837
(dp838
g73
(dp839
sg82
g833
sg75
(lp840
g68
(g89
g70
NtRp841
(dp842
g73
(dp843
g93
g94
ssg82
g837
sg75
(lp844
S'app_folders'
p845
asbag68
(g89
g70
NtRp846
(dp847
g73
(dp848
g100
g101
ssg82
g837
sg75
(lp849
S':'
asbag68
(g89
g70
NtRp850
(dp851
g73
(dp852
sg82
g837
sg75
(lp853
g68
(g69
g70
NtRp854
(dp855
g73
(dp856
g81
I4
ssg82
g850
sg75
(lp857
S"set(['/home/jose/DESARROLLO/web2py199/applications/streamlog/', '/home/jose/DESARROLLO/web2py199/applications/admin/'])"
p858
asbasbasbag68
(g84
g70
NtRp859
(dp860
g73
(dp861
sg82
g833
sg75
(lp862
g68
(g89
g70
NtRp863
(dp864
g73
(dp865
g93
g94
ssg82
g859
sg75
(lp866
S'applications_parent'
p867
asbag68
(g89
g70
NtRp868
(dp869
g73
(dp870
g100
g101
ssg82
g859
sg75
(lp871
S':'
asbag68
(g89
g70
NtRp872
(dp873
g73
(dp874
sg82
g859
sg75
(lp875
g68
(g69
g70
NtRp876
(dp877
g73
(dp878
g81
I4
ssg82
g872
sg75
(lp879
S'/home/jose/DESARROLLO/web2py199'
p880
asbasbasbag68
(g84
g70
NtRp881
(dp882
g73
(dp883
sg82
g833
sg75
(lp884
g68
(g89
g70
NtRp885
(dp886
g73
(dp887
g93
g94
ssg82
g881
sg75
(lp888
S'cmd_args'
p889
asbag68
(g89
g70
NtRp890
(dp891
g73
(dp892
g100
g101
ssg82
g881
sg75
(lp893
S':'
asbag68
(g89
g70
NtRp894
(dp895
g73
(dp896
sg82
g881
sg75
(lp897
g68
(g69
g70
NtRp898
(dp899
g73
(dp900
g81
I4
ssg82
g894
sg75
(lp901
g68
(g77
g70
NtRp902
(dp903
g73
(dp904
g81
I3
ssg82
Nsg75
(lp905
sbasbasbasbag68
(g84
g70
NtRp906
(dp907
g73
(dp908
sg82
g833
sg75
(lp909
g68
(g89
g70
NtRp910
(dp911
g73
(dp912
g93
g94
ssg82
g906
sg75
(lp913
S'cmd_options'
p914
asbag68
(g89
g70
NtRp915
(dp916
g73
(dp917
g100
g101
ssg82
g906
sg75
(lp918
S':'
asbag68
(g89
g70
NtRp919
(dp920
g73
(dp921
sg82
g906
sg75
(lp922
g68
(g69
g70
NtRp923
(dp924
g73
(dp925
g81
I4
ssg82
g919
sg75
(lp926
S"<Values at 0x1c79f80: {'verbose': False, 'ip': '127.0.0.1', 'shutdown_timeout': 5, 'taskbar': False, 'nocron': False, 'pid_filename': 'httpserver.pid', 'maxthreads': None, 'softcron': False, 'server_name': 'jose', 'bpython': False, 'nogui': False, 'port': 8000, 'extcron': False, 'debuglevel': 30, 'test': None, 'folder': '/home/jose/DESARROLLO/web2py199', 'config': '', 'import_models': False, 'winservice': '', 'shell': None, 'run': '', 'log_filename': 'httpserver.log', 'args': [''], 'ssl_ca_certificate': None, 'scheduler': None, 'profiler_filename': None, 'ssl_private_key': '', 'password': 't', 'request_queue_size': 5, 'ssl_certificate': '', 'cronjob': False, 'plain': False, 'quiet': False, 'interfaces': None, 'minthreads': None, 'timeout': 10, 'numthreads': None, 'nobanner': False}>"
p927
asbasbasbag68
(g84
g70
NtRp928
(dp929
g73
(dp930
sg82
g833
sg75
(lp931
g68
(g89
g70
NtRp932
(dp933
g73
(dp934
g93
g94
ssg82
g928
sg75
(lp935
S'db_sessions'
p936
asbag68
(g89
g70
NtRp937
(dp938
g73
(dp939
g100
g101
ssg82
g928
sg75
(lp940
S':'
asbag68
(g89
g70
NtRp941
(dp942
g73
(dp943
sg82
g928
sg75
(lp944
g68
(g69
g70
NtRp945
(dp946
g73
(dp947
g81
I4
ssg82
g941
sg75
(lp948
S'set([])'
p949
asbasbasbag68
(g84
g70
NtRp950
(dp951
g73
(dp952
sg82
g833
sg75
(lp953
g68
(g89
g70
NtRp954
(dp955
g73
(dp956
g93
g94
ssg82
g950
sg75
(lp957
S'debugging'
p958
asbag68
(g89
g70
NtRp959
(dp960
g73
(dp961
g100
g101
ssg82
g950
sg75
(lp962
S':'
asbag68
(g89
g70
NtRp963
(dp964
g73
(dp965
sg82
g950
sg75
(lp966
g68
(g69
g70
NtRp967
(dp968
g73
(dp969
g81
I4
ssg82
g963
sg75
(lp970
g111
asbasbasbag68
(g84
g70
NtRp971
(dp972
g73
(dp973
sg82
g833
sg75
(lp974
g68
(g89
g70
NtRp975
(dp976
g73
(dp977
g93
g94
ssg82
g971
sg75
(lp978
S'gluon_parent'
p979
asbag68
(g89
g70
NtRp980
(dp981
g73
(dp982
g100
g101
ssg82
g971
sg75
(lp983
S':'
asbag68
(g89
g70
NtRp984
(dp985
g73
(dp986
sg82
g971
sg75
(lp987
g68
(g69
g70
NtRp988
(dp989
g73
(dp990
g81
I4
ssg82
g984
sg75
(lp991
S'/home/jose/DESARROLLO/web2py199'
p992
asbasbasbag68
(g84
g70
NtRp993
(dp994
g73
(dp995
sg82
g833
sg75
(lp996
g68
(g89
g70
NtRp997
(dp998
g73
(dp999
g93
g94
ssg82
g993
sg75
(lp1000
S'http_accept'
p1001
asbag68
(g89
g70
NtRp1002
(dp1003
g73
(dp1004
g100
g101
ssg82
g993
sg75
(lp1005
S':'
asbag68
(g89
g70
NtRp1006
(dp1007
g73
(dp1008
sg82
g993
sg75
(lp1009
g68
(g69
g70
NtRp1010
(dp1011
g73
(dp1012
g81
I4
ssg82
g1006
sg75
(lp1013
S'text/html,application/xhtml+xml,application/xml;q=0.9,*/*;q=0.8'
p1014
asbasbasbag68
(g84
g70
NtRp1015
(dp1016
g73
(dp1017
sg82
g833
sg75
(lp1018
g68
(g89
g70
NtRp1019
(dp1020
g73
(dp1021
g93
g94
ssg82
g1015
sg75
(lp1022
S'http_accept_encoding'
p1023
asbag68
(g89
g70
NtRp1024
(dp1025
g73
(dp1026
g100
g101
ssg82
g1015
sg75
(lp1027
S':'
asbag68
(g89
g70
NtRp1028
(dp1029
g73
(dp1030
sg82
g1015
sg75
(lp1031
g68
(g69
g70
NtRp1032
(dp1033
g73
(dp1034
g81
I4
ssg82
g1028
sg75
(lp1035
S'gzip, deflate'
p1036
asbasbasbag68
(g84
g70
NtRp1037
(dp1038
g73
(dp1039
sg82
g833
sg75
(lp1040
g68
(g89
g70
NtRp1041
(dp1042
g73
(dp1043
g93
g94
ssg82
g1037
sg75
(lp1044
S'http_accept_language'
p1045
asbag68
(g89
g70
NtRp1046
(dp1047
g73
(dp1048
g100
g101
ssg82
g1037
sg75
(lp1049
S':'
asbag68
(g89
g70
NtRp1050
(dp1051
g73
(dp1052
sg82
g1037
sg75
(lp1053
g68
(g69
g70
NtRp1054
(dp1055
g73
(dp1056
g81
I4
ssg82
g1050
sg75
(lp1057
S'en-us,en;q=0.5'
p1058
asbasbasbag68
(g84
g70
NtRp1059
(dp1060
g73
(dp1061
sg82
g833
sg75
(lp1062
g68
(g89
g70
NtRp1063
(dp1064
g73
(dp1065
g93
g94
ssg82
g1059
sg75
(lp1066
S'http_connection'
p1067
asbag68
(g89
g70
NtRp1068
(dp1069
g73
(dp1070
g100
g101
ssg82
g1059
sg75
(lp1071
S':'
asbag68
(g89
g70
NtRp1072
(dp1073
g73
(dp1074
sg82
g1059
sg75
(lp1075
g68
(g69
g70
NtRp1076
(dp1077
g73
(dp1078
g81
I4
ssg82
g1072
sg75
(lp1079
S'keep-alive'
p1080
asbasbasbag68
(g84
g70
NtRp1081
(dp1082
g73
(dp1083
sg82
g833
sg75
(lp1084
g68
(g89
g70
NtRp1085
(dp1086
g73
(dp1087
g93
g94
ssg82
g1081
sg75
(lp1088
S'http_cookie'
p1089
asbag68
(g89
g70
NtRp1090
(dp1091
g73
(dp1092
g100
g101
ssg82
g1081
sg75
(lp1093
S':'
asbag68
(g89
g70
NtRp1094
(dp1095
g73
(dp1096
sg82
g1081
sg75
(lp1097
g68
(g69
g70
NtRp1098
(dp1099
g73
(dp1100
g81
I4
ssg82
g1094
sg75
(lp1101
S'session_id_streamlog=127.0.0.1-610b0c7d-3f6f-4500-a76a-b095fb30f7fd; session_id_admin=127.0.0.1-87ac9729-f9fb-412b-aa6d-428ca5932487; session_id_test3=127.0.0.1-380e7b29-b635-4690-b9ca-812870d6a061'
p1102
asbasbasbag68
(g84
g70
NtRp1103
(dp1104
g73
(dp1105
sg82
g833
sg75
(lp1106
g68
(g89
g70
NtRp1107
(dp1108
g73
(dp1109
g93
g94
ssg82
g1103
sg75
(lp1110
S'http_host'
p1111
asbag68
(g89
g70
NtRp1112
(dp1113
g73
(dp1114
g100
g101
ssg82
g1103
sg75
(lp1115
S':'
asbag68
(g89
g70
NtRp1116
(dp1117
g73
(dp1118
sg82
g1103
sg75
(lp1119
g68
(g69
g70
NtRp1120
(dp1121
g73
(dp1122
g81
I4
ssg82
g1116
sg75
(lp1123
S'localhost:8000'
p1124
asbasbasbag68
(g84
g70
NtRp1125
(dp1126
g73
(dp1127
sg82
g833
sg75
(lp1128
g68
(g89
g70
NtRp1129
(dp1130
g73
(dp1131
g93
g94
ssg82
g1125
sg75
(lp1132
S'http_user_agent'
p1133
asbag68
(g89
g70
NtRp1134
(dp1135
g73
(dp1136
g100
g101
ssg82
g1125
sg75
(lp1137
S':'
asbag68
(g89
g70
NtRp1138
(dp1139
g73
(dp1140
sg82
g1125
sg75
(lp1141
g68
(g69
g70
NtRp1142
(dp1143
g73
(dp1144
g81
I4
ssg82
g1138
sg75
(lp1145
S'Mozilla/5.0 (X11; Ubuntu; Linux x86_64; rv:12.0) Gecko/20100101 Firefox/12.0'
p1146
asbasbasbag68
(g84
g70
NtRp1147
(dp1148
g73
(dp1149
sg82
g833
sg75
(lp1150
g68
(g89
g70
NtRp1151
(dp1152
g73
(dp1153
g93
g94
ssg82
g1147
sg75
(lp1154
S'is_jython'
p1155
asbag68
(g89
g70
NtRp1156
(dp1157
g73
(dp1158
g100
g101
ssg82
g1147
sg75
(lp1159
S':'
asbag68
(g89
g70
NtRp1160
(dp1161
g73
(dp1162
sg82
g1147
sg75
(lp1163
g68
(g69
g70
NtRp1164
(dp1165
g73
(dp1166
g81
I4
ssg82
g1160
sg75
(lp1167
g111
asbasbasbag68
(g84
g70
NtRp1168
(dp1169
g73
(dp1170
sg82
g833
sg75
(lp1171
g68
(g89
g70
NtRp1172
(dp1173
g73
(dp1174
g93
g94
ssg82
g1168
sg75
(lp1175
S'path_info'
p1176
asbag68
(g89
g70
NtRp1177
(dp1178
g73
(dp1179
g100
g101
ssg82
g1168
sg75
(lp1180
S':'
asbag68
(g89
g70
NtRp1181
(dp1182
g73
(dp1183
sg82
g1168
sg75
(lp1184
g68
(g69
g70
NtRp1185
(dp1186
g73
(dp1187
g81
I4
ssg82
g1181
sg75
(lp1188
S'/streamlog/default/index'
p1189
asbasbasbag68
(g84
g70
NtRp1190
(dp1191
g73
(dp1192
sg82
g833
sg75
(lp1193
g68
(g89
g70
NtRp1194
(dp1195
g73
(dp1196
g93
g94
ssg82
g1190
sg75
(lp1197
S'query_string'
p1198
asbag68
(g89
g70
NtRp1199
(dp1200
g73
(dp1201
g100
g101
ssg82
g1190
sg75
(lp1202
S':'
asbag68
(g89
g70
NtRp1203
(dp1204
g73
(dp1205
sg82
g1190
sg75
(lp1206
g68
(g69
g70
NtRp1207
(dp1208
g73
(dp1209
g81
I4
ssg82
g1203
sg75
(lp1210
S''
asbasbasbag68
(g84
g70
NtRp1211
(dp1212
g73
(dp1213
sg82
g833
sg75
(lp1214
g68
(g89
g70
NtRp1215
(dp1216
g73
(dp1217
g93
g94
ssg82
g1211
sg75
(lp1218
S'remote_addr'
p1219
asbag68
(g89
g70
NtRp1220
(dp1221
g73
(dp1222
g100
g101
ssg82
g1211
sg75
(lp1223
S':'
asbag68
(g89
g70
NtRp1224
(dp1225
g73
(dp1226
sg82
g1211
sg75
(lp1227
g68
(g69
g70
NtRp1228
(dp1229
g73
(dp1230
g81
I4
ssg82
g1224
sg75
(lp1231
g201
asbasbasbag68
(g84
g70
NtRp1232
(dp1233
g73
(dp1234
sg82
g833
sg75
(lp1235
g68
(g89
g70
NtRp1236
(dp1237
g73
(dp1238
g93
g94
ssg82
g1232
sg75
(lp1239
S'remote_port'
p1240
asbag68
(g89
g70
NtRp1241
(dp1242
g73
(dp1243
g100
g101
ssg82
g1232
sg75
(lp1244
S':'
asbag68
(g89
g70
NtRp1245
(dp1246
g73
(dp1247
sg82
g1232
sg75
(lp1248
g68
(g69
g70
NtRp1249
(dp1250
g73
(dp1251
g81
I4
ssg82
g1245
sg75
(lp1252
S'34203'
p1253
asbasbasbag68
(g84
g70
NtRp1254
(dp1255
g73
(dp1256
sg82
g833
sg75
(lp1257
g68
(g89
g70
NtRp1258
(dp1259
g73
(dp1260
g93
g94
ssg82
g1254
sg75
(lp1261
S'request_method'
p1262
asbag68
(g89
g70
NtRp1263
(dp1264
g73
(dp1265
g100
g101
ssg82
g1254
sg75
(lp1266
S':'
asbag68
(g89
g70
NtRp1267
(dp1268
g73
(dp1269
sg82
g1254
sg75
(lp1270
g68
(g69
g70
NtRp1271
(dp1272
g73
(dp1273
g81
I4
ssg82
g1267
sg75
(lp1274
S'GET'
p1275
asbasbasbag68
(g84
g70
NtRp1276
(dp1277
g73
(dp1278
sg82
g833
sg75
(lp1279
g68
(g89
g70
NtRp1280
(dp1281
g73
(dp1282
g93
g94
ssg82
g1276
sg75
(lp1283
S'script_name'
p1284
asbag68
(g89
g70
NtRp1285
(dp1286
g73
(dp1287
g100
g101
ssg82
g1276
sg75
(lp1288
S':'
asbag68
(g89
g70
NtRp1289
(dp1290
g73
(dp1291
sg82
g1276
sg75
(lp1292
g68
(g69
g70
NtRp1293
(dp1294
g73
(dp1295
g81
I4
ssg82
g1289
sg75
(lp1296
S''
asbasbasbag68
(g84
g70
NtRp1297
(dp1298
g73
(dp1299
sg82
g833
sg75
(lp1300
g68
(g89
g70
NtRp1301
(dp1302
g73
(dp1303
g93
g94
ssg82
g1297
sg75
(lp1304
S'server_name'
p1305
asbag68
(g89
g70
NtRp1306
(dp1307
g73
(dp1308
g100
g101
ssg82
g1297
sg75
(lp1309
S':'
asbag68
(g89
g70
NtRp1310
(dp1311
g73
(dp1312
sg82
g1297
sg75
(lp1313
g68
(g69
g70
NtRp1314
(dp1315
g73
(dp1316
g81
I4
ssg82
g1310
sg75
(lp1317
S'jose'
p1318
asbasbasbag68
(g84
g70
NtRp1319
(dp1320
g73
(dp1321
sg82
g833
sg75
(lp1322
g68
(g89
g70
NtRp1323
(dp1324
g73
(dp1325
g93
g94
ssg82
g1319
sg75
(lp1326
S'server_port'
p1327
asbag68
(g89
g70
NtRp1328
(dp1329
g73
(dp1330
g100
g101
ssg82
g1319
sg75
(lp1331
S':'
asbag68
(g89
g70
NtRp1332
(dp1333
g73
(dp1334
sg82
g1319
sg75
(lp1335
g68
(g69
g70
NtRp1336
(dp1337
g73
(dp1338
g81
I4
ssg82
g1332
sg75
(lp1339
S'8000'
p1340
asbasbasbag68
(g84
g70
NtRp1341
(dp1342
g73
(dp1343
sg82
g833
sg75
(lp1344
g68
(g89
g70
NtRp1345
(dp1346
g73
(dp1347
g93
g94
ssg82
g1341
sg75
(lp1348
S'server_protocol'
p1349
asbag68
(g89
g70
NtRp1350
(dp1351
g73
(dp1352
g100
g101
ssg82
g1341
sg75
(lp1353
S':'
asbag68
(g89
g70
NtRp1354
(dp1355
g73
(dp1356
sg82
g1341
sg75
(lp1357
g68
(g69
g70
NtRp1358
(dp1359
g73
(dp1360
g81
I4
ssg82
g1354
sg75
(lp1361
S'HTTP/1.1'
p1362
asbasbasbag68
(g84
g70
NtRp1363
(dp1364
g73
(dp1365
sg82
g833
sg75
(lp1366
g68
(g89
g70
NtRp1367
(dp1368
g73
(dp1369
g93
g94
ssg82
g1363
sg75
(lp1370
S'server_software'
p1371
asbag68
(g89
g70
NtRp1372
(dp1373
g73
(dp1374
g100
g101
ssg82
g1363
sg75
(lp1375
S':'
asbag68
(g89
g70
NtRp1376
(dp1377
g73
(dp1378
sg82
g1363
sg75
(lp1379
g68
(g69
g70
NtRp1380
(dp1381
g73
(dp1382
g81
I4
ssg82
g1376
sg75
(lp1383
S'Rocket 1.2.4'
p1384
asbasbasbag68
(g84
g70
NtRp1385
(dp1386
g73
(dp1387
sg82
g833
sg75
(lp1388
g68
(g89
g70
NtRp1389
(dp1390
g73
(dp1391
g93
g94
ssg82
g1385
sg75
(lp1392
S'web2py_crontype'
p1393
asbag68
(g89
g70
NtRp1394
(dp1395
g73
(dp1396
g100
g101
ssg82
g1385
sg75
(lp1397
S':'
asbag68
(g89
g70
NtRp1398
(dp1399
g73
(dp1400
sg82
g1385
sg75
(lp1401
g68
(g69
g70
NtRp1402
(dp1403
g73
(dp1404
g81
I4
ssg82
g1398
sg75
(lp1405
S'hard'
p1406
asbasbasbag68
(g84
g70
NtRp1407
(dp1408
g73
(dp1409
sg82
g833
sg75
(lp1410
g68
(g89
g70
NtRp1411
(dp1412
g73
(dp1413
g93
g94
ssg82
g1407
sg75
(lp1414
S'web2py_path'
p1415
asbag68
(g89
g70
NtRp1416
(dp1417
g73
(dp1418
g100
g101
ssg82
g1407
sg75
(lp1419
S':'
asbag68
(g89
g70
NtRp1420
(dp1421
g73
(dp1422
sg82
g1407
sg75
(lp1423
g68
(g69
g70
NtRp1424
(dp1425
g73
(dp1426
g81
I4
ssg82
g1420
sg75
(lp1427
g880
asbasbasbag68
(g84
g70
NtRp1428
(dp1429
g73
(dp1430
sg82
g833
sg75
(lp1431
g68
(g89
g70
NtRp1432
(dp1433
g73
(dp1434
g93
g94
ssg82
g1428
sg75
(lp1435
S'web2py_version'
p1436
asbag68
(g89
g70
NtRp1437
(dp1438
g73
(dp1439
g100
g101
ssg82
g1428
sg75
(lp1440
S':'
asbag68
(g89
g70
NtRp1441
(dp1442
g73
(dp1443
sg82
g1428
sg75
(lp1444
g68
(g69
g70
NtRp1445
(dp1446
g73
(dp1447
g81
I4
ssg82
g1441
sg75
(lp1448
g68
(g77
g70
NtRp1449
(dp1450
g73
(dp1451
g81
I3
ssg82
Nsg75
(lp1452
g68
(g84
g70
NtRp1453
(dp1454
g73
(dp1455
sg82
g1449
sg75
(lp1456
g68
(g89
g70
NtRp1457
(dp1458
g73
(dp1459
sg82
g1453
sg75
(lp1460
g68
(g69
g70
NtRp1461
(dp1462
g73
(dp1463
g81
I3
ssg82
g1457
sg75
(lp1464
S'1'
asbasbasbag68
(g84
g70
NtRp1465
(dp1466
g73
(dp1467
sg82
g1449
sg75
(lp1468
g68
(g89
g70
NtRp1469
(dp1470
g73
(dp1471
sg82
g1465
sg75
(lp1472
g68
(g69
g70
NtRp1473
(dp1474
g73
(dp1475
g81
I3
ssg82
g1469
sg75
(lp1476
S'99'
p1477
asbasbasbag68
(g84
g70
NtRp1478
(dp1479
g73
(dp1480
sg82
g1449
sg75
(lp1481
g68
(g89
g70
NtRp1482
(dp1483
g73
(dp1484
sg82
g1478
sg75
(lp1485
g68
(g69
g70
NtRp1486
(dp1487
g73
(dp1488
g81
I3
ssg82
g1482
sg75
(lp1489
S'2'
asbasbasbag68
(g84
g70
NtRp1490
(dp1491
g73
(dp1492
sg82
g1449
sg75
(lp1493
g68
(g89
g70
NtRp1494
(dp1495
g73
(dp1496
sg82
g1490
sg75
(lp1497
g68
(g69
g70
NtRp1498
(dp1499
g73
(dp1500
g81
I3
ssg82
g1494
sg75
(lp1501
S'datetime.datetime(2011, 9, 26, 6, 55, 33)'
p1502
asbasbasbag68
(g84
g70
NtRp1503
(dp1504
g73
(dp1505
sg82
g1449
sg75
(lp1506
g68
(g89
g70
NtRp1507
(dp1508
g73
(dp1509
sg82
g1503
sg75
(lp1510
g68
(g69
g70
NtRp1511
(dp1512
g73
(dp1513
g81
I3
ssg82
g1507
sg75
(lp1514
S'stable'
p1515
asbasbasbasbasbasbasbag68
(g84
g70
NtRp1516
(dp1517
g73
(dp1518
sg82
g833
sg75
(lp1519
g68
(g89
g70
NtRp1520
(dp1521
g73
(dp1522
g93
g94
ssg82
g1516
sg75
(lp1523
S'wsgi_errors'
p1524
asbag68
(g89
g70
NtRp1525
(dp1526
g73
(dp1527
g100
g101
ssg82
g1516
sg75
(lp1528
S':'
asbag68
(g89
g70
NtRp1529
(dp1530
g73
(dp1531
sg82
g1516
sg75
(lp1532
g68
(g69
g70
NtRp1533
(dp1534
g73
(dp1535
g81
I4
ssg82
g1529
sg75
(lp1536
S"<open file '<stderr>', mode 'w' at 0x7f84db3ff270>"
p1537
asbasbasbag68
(g84
g70
NtRp1538
(dp1539
g73
(dp1540
sg82
g833
sg75
(lp1541
g68
(g89
g70
NtRp1542
(dp1543
g73
(dp1544
g93
g94
ssg82
g1538
sg75
(lp1545
S'wsgi_file_wrapper'
p1546
asbag68
(g89
g70
NtRp1547
(dp1548
g73
(dp1549
g100
g101
ssg82
g1538
sg75
(lp1550
S':'
asbag68
(g89
g70
NtRp1551
(dp1552
g73
(dp1553
sg82
g1538
sg75
(lp1554
g68
(g69
g70
NtRp1555
(dp1556
g73
(dp1557
g81
I4
ssg82
g1551
sg75
(lp1558
S'<class wsgiref.util.FileWrapper at 0x1b96d50>'
p1559
asbasbasbag68
(g84
g70
NtRp1560
(dp1561
g73
(dp1562
sg82
g833
sg75
(lp1563
g68
(g89
g70
NtRp1564
(dp1565
g73
(dp1566
g93
g94
ssg82
g1560
sg75
(lp1567
S'wsgi_input'
p1568
asbag68
(g89
g70
NtRp1569
(dp1570
g73
(dp1571
g100
g101
ssg82
g1560
sg75
(lp1572
S':'
asbag68
(g89
g70
NtRp1573
(dp1574
g73
(dp1575
sg82
g1560
sg75
(lp1576
g68
(g69
g70
NtRp1577
(dp1578
g73
(dp1579
g81
I4
ssg82
g1573
sg75
(lp1580
S'<socket._fileobject object at 0x24ea7d0>'
p1581
asbasbasbag68
(g84
g70
NtRp1582
(dp1583
g73
(dp1584
sg82
g833
sg75
(lp1585
g68
(g89
g70
NtRp1586
(dp1587
g73
(dp1588
g93
g94
ssg82
g1582
sg75
(lp1589
S'wsgi_multiprocess'
p1590
asbag68
(g89
g70
NtRp1591
(dp1592
g73
(dp1593
g100
g101
ssg82
g1582
sg75
(lp1594
S':'
asbag68
(g89
g70
NtRp1595
(dp1596
g73
(dp1597
sg82
g1582
sg75
(lp1598
g68
(g69
g70
NtRp1599
(dp1600
g73
(dp1601
g81
I4
ssg82
g1595
sg75
(lp1602
g111
asbasbasbag68
(g84
g70
NtRp1603
(dp1604
g73
(dp1605
sg82
g833
sg75
(lp1606
g68
(g89
g70
NtRp1607
(dp1608
g73
(dp1609
g93
g94
ssg82
g1603
sg75
(lp1610
S'wsgi_multithread'
p1611
asbag68
(g89
g70
NtRp1612
(dp1613
g73
(dp1614
g100
g101
ssg82
g1603
sg75
(lp1615
S':'
asbag68
(g89
g70
NtRp1616
(dp1617
g73
(dp1618
sg82
g1603
sg75
(lp1619
g68
(g69
g70
NtRp1620
(dp1621
g73
(dp1622
g81
I4
ssg82
g1616
sg75
(lp1623
S'True'
p1624
asbasbasbag68
(g84
g70
NtRp1625
(dp1626
g73
(dp1627
sg82
g833
sg75
(lp1628
g68
(g89
g70
NtRp1629
(dp1630
g73
(dp1631
g93
g94
ssg82
g1625
sg75
(lp1632
S'wsgi_run_once'
p1633
asbag68
(g89
g70
NtRp1634
(dp1635
g73
(dp1636
g100
g101
ssg82
g1625
sg75
(lp1637
S':'
asbag68
(g89
g70
NtRp1638
(dp1639
g73
(dp1640
sg82
g1625
sg75
(lp1641
g68
(g69
g70
NtRp1642
(dp1643
g73
(dp1644
g81
I4
ssg82
g1638
sg75
(lp1645
g111
asbasbasbag68
(g84
g70
NtRp1646
(dp1647
g73
(dp1648
sg82
g833
sg75
(lp1649
g68
(g89
g70
NtRp1650
(dp1651
g73
(dp1652
g93
g94
ssg82
g1646
sg75
(lp1653
S'wsgi_url_scheme'
p1654
asbag68
(g89
g70
NtRp1655
(dp1656
g73
(dp1657
g100
g101
ssg82
g1646
sg75
(lp1658
S':'
asbag68
(g89
g70
NtRp1659
(dp1660
g73
(dp1661
sg82
g1646
sg75
(lp1662
g68
(g69
g70
NtRp1663
(dp1664
g73
(dp1665
g81
I4
ssg82
g1659
sg75
(lp1666
S'http'
p1667
asbasbasbag68
(g84
g70
NtRp1668
(dp1669
g73
(dp1670
sg82
g833
sg75
(lp1671
g68
(g89
g70
NtRp1672
(dp1673
g73
(dp1674
g93
g94
ssg82
g1668
sg75
(lp1675
S'wsgi_version'
p1676
asbag68
(g89
g70
NtRp1677
(dp1678
g73
(dp1679
g100
g101
ssg82
g1668
sg75
(lp1680
S':'
asbag68
(g89
g70
NtRp1681
(dp1682
g73
(dp1683
sg82
g1668
sg75
(lp1684
g68
(g69
g70
NtRp1685
(dp1686
g73
(dp1687
g81
I4
ssg82
g1681
sg75
(lp1688
g68
(g77
g70
NtRp1689
(dp1690
g73
(dp1691
g81
I3
ssg82
Nsg75
(lp1692
g68
(g84
g70
NtRp1693
(dp1694
g73
(dp1695
sg82
g1689
sg75
(lp1696
g68
(g89
g70
NtRp1697
(dp1698
g73
(dp1699
sg82
g1693
sg75
(lp1700
g68
(g69
g70
NtRp1701
(dp1702
g73
(dp1703
g81
I3
ssg82
g1697
sg75
(lp1704
S'1'
asbasbasbag68
(g84
g70
NtRp1705
(dp1706
g73
(dp1707
sg82
g1689
sg75
(lp1708
g68
(g89
g70
NtRp1709
(dp1710
g73
(dp1711
sg82
g1705
sg75
(lp1712
g68
(g69
g70
NtRp1713
(dp1714
g73
(dp1715
g81
I3
ssg82
g1709
sg75
(lp1716
S'0'
asbasbasbasbasbasbasbasbasbasbasbag68
(g84
g70
NtRp1717
(dp1718
g73
(dp1719
sg82
g78
sg75
(lp1720
g68
(g89
g70
NtRp1721
(dp1722
g73
(dp1723
g93
g94
ssg82
g1717
sg75
(lp1724
S'extension'
p1725
asbag68
(g89
g70
NtRp1726
(dp1727
g73
(dp1728
g100
g101
ssg82
g1717
sg75
(lp1729
S':'
asbag68
(g89
g70
NtRp1730
(dp1731
g73
(dp1732
sg82
g1717
sg75
(lp1733
g68
(g69
g70
NtRp1734
(dp1735
g73
(dp1736
g81
I5
ssg82
g1730
sg75
(lp1737
S'html'
p1738
asbasbasbag68
(g84
g70
NtRp1739
(dp1740
g73
(dp1741
sg82
g78
sg75
(lp1742
g68
(g89
g70
NtRp1743
(dp1744
g73
(dp1745
g93
g94
ssg82
g1739
sg75
(lp1746
S'folder'
p1747
asbag68
(g89
g70
NtRp1748
(dp1749
g73
(dp1750
g100
g101
ssg82
g1739
sg75
(lp1751
S':'
asbag68
(g89
g70
NtRp1752
(dp1753
g73
(dp1754
sg82
g1739
sg75
(lp1755
g68
(g69
g70
NtRp1756
(dp1757
g73
(dp1758
g81
I5
ssg82
g1752
sg75
(lp1759
S'/home/jose/DESARROLLO/web2py199/applications/streamlog/'
p1760
asbasbasbag68
(g84
g70
NtRp1761
(dp1762
g73
(dp1763
sg82
g78
sg75
(lp1764
g68
(g89
g70
NtRp1765
(dp1766
g73
(dp1767
g93
g94
ssg82
g1761
sg75
(lp1768
S'function'
p1769
asbag68
(g89
g70
NtRp1770
(dp1771
g73
(dp1772
g100
g101
ssg82
g1761
sg75
(lp1773
S':'
asbag68
(g89
g70
NtRp1774
(dp1775
g73
(dp1776
sg82
g1761
sg75
(lp1777
g68
(g69
g70
NtRp1778
(dp1779
g73
(dp1780
g81
I5
ssg82
g1774
sg75
(lp1781
S'index'
p1782
asbasbasbag68
(g84
g70
NtRp1783
(dp1784
g73
(dp1785
sg82
g78
sg75
(lp1786
g68
(g89
g70
NtRp1787
(dp1788
g73
(dp1789
g93
g94
ssg82
g1783
sg75
(lp1790
S'get_vars'
p1791
asbag68
(g89
g70
NtRp1792
(dp1793
g73
(dp1794
g100
g101
ssg82
g1783
sg75
(lp1795
S':'
asbag68
(g89
g70
NtRp1796
(dp1797
g73
(dp1798
sg82
g1783
sg75
(lp1799
g68
(g69
g70
NtRp1800
(dp1801
g73
(dp1802
g81
I5
ssg82
g1796
sg75
(lp1803
g68
(g77
g70
NtRp1804
(dp1805
g73
(dp1806
g81
I4
ssg82
Nsg75
(lp1807
sbasbasbasbag68
(g84
g70
NtRp1808
(dp1809
g73
(dp1810
sg82
g78
sg75
(lp1811
g68
(g89
g70
NtRp1812
(dp1813
g73
(dp1814
g93
g94
ssg82
g1808
sg75
(lp1815
S'global_settings'
p1816
asbag68
(g89
g70
NtRp1817
(dp1818
g73
(dp1819
g100
g101
ssg82
g1808
sg75
(lp1820
S':'
asbag68
(g89
g70
NtRp1821
(dp1822
g73
(dp1823
sg82
g1808
sg75
(lp1824
g68
(g69
g70
NtRp1825
(dp1826
g73
(dp1827
g81
I5
ssg82
g1821
sg75
(lp1828
g68
(g77
g70
NtRp1829
(dp1830
g73
(dp1831
g81
I4
ssg82
Nsg75
(lp1832
g68
(g84
g70
NtRp1833
(dp1834
g73
(dp1835
sg82
g1829
sg75
(lp1836
g68
(g89
g70
NtRp1837
(dp1838
g73
(dp1839
g93
g94
ssg82
g1833
sg75
(lp1840
g845
asbag68
(g89
g70
NtRp1841
(dp1842
g73
(dp1843
g100
g101
ssg82
g1833
sg75
(lp1844
S':'
asbag68
(g89
g70
NtRp1845
(dp1846
g73
(dp1847
sg82
g1833
sg75
(lp1848
g68
(g69
g70
NtRp1849
(dp1850
g73
(dp1851
g81
I4
ssg82
g1845
sg75
(lp1852
S"set(['/home/jose/DESARROLLO/web2py199/applications/streamlog/', '/home/jose/DESARROLLO/web2py199/applications/admin/'])"
p1853
asbasbasbag68
(g84
g70
NtRp1854
(dp1855
g73
(dp1856
sg82
g1829
sg75
(lp1857
g68
(g89
g70
NtRp1858
(dp1859
g73
(dp1860
g93
g94
ssg82
g1854
sg75
(lp1861
g867
asbag68
(g89
g70
NtRp1862
(dp1863
g73
(dp1864
g100
g101
ssg82
g1854
sg75
(lp1865
S':'
asbag68
(g89
g70
NtRp1866
(dp1867
g73
(dp1868
sg82
g1854
sg75
(lp1869
g68
(g69
g70
NtRp1870
(dp1871
g73
(dp1872
g81
I4
ssg82
g1866
sg75
(lp1873
g880
asbasbasbag68
(g84
g70
NtRp1874
(dp1875
g73
(dp1876
sg82
g1829
sg75
(lp1877
g68
(g89
g70
NtRp1878
(dp1879
g73
(dp1880
g93
g94
ssg82
g1874
sg75
(lp1881
g889
asbag68
(g89
g70
NtRp1882
(dp1883
g73
(dp1884
g100
g101
ssg82
g1874
sg75
(lp1885
S':'
asbag68
(g89
g70
NtRp1886
(dp1887
g73
(dp1888
sg82
g1874
sg75
(lp1889
g68
(g69
g70
NtRp1890
(dp1891
g73
(dp1892
g81
I4
ssg82
g1886
sg75
(lp1893
g68
(g77
g70
NtRp1894
(dp1895
g73
(dp1896
g81
I3
ssg82
Nsg75
(lp1897
sbasbasbasbag68
(g84
g70
NtRp1898
(dp1899
g73
(dp1900
sg82
g1829
sg75
(lp1901
g68
(g89
g70
NtRp1902
(dp1903
g73
(dp1904
g93
g94
ssg82
g1898
sg75
(lp1905
g914
asbag68
(g89
g70
NtRp1906
(dp1907
g73
(dp1908
g100
g101
ssg82
g1898
sg75
(lp1909
S':'
asbag68
(g89
g70
NtRp1910
(dp1911
g73
(dp1912
sg82
g1898
sg75
(lp1913
g68
(g69
g70
NtRp1914
(dp1915
g73
(dp1916
g81
I4
ssg82
g1910
sg75
(lp1917
S"<Values at 0x1c79f80: {'verbose': False, 'ip': '127.0.0.1', 'shutdown_timeout': 5, 'taskbar': False, 'nocron': False, 'pid_filename': 'httpserver.pid', 'maxthreads': None, 'softcron': False, 'server_name': 'jose', 'bpython': False, 'nogui': False, 'port': 8000, 'extcron': False, 'debuglevel': 30, 'test': None, 'folder': '/home/jose/DESARROLLO/web2py199', 'config': '', 'import_models': False, 'winservice': '', 'shell': None, 'run': '', 'log_filename': 'httpserver.log', 'args': [''], 'ssl_ca_certificate': None, 'scheduler': None, 'profiler_filename': None, 'ssl_private_key': '', 'password': 't', 'request_queue_size': 5, 'ssl_certificate': '', 'cronjob': False, 'plain': False, 'quiet': False, 'interfaces': None, 'minthreads': None, 'timeout': 10, 'numthreads': None, 'nobanner': False}>"
p1918
asbasbasbag68
(g84
g70
NtRp1919
(dp1920
g73
(dp1921
sg82
g1829
sg75
(lp1922
g68
(g89
g70
NtRp1923
(dp1924
g73
(dp1925
g93
g94
ssg82
g1919
sg75
(lp1926
g936
asbag68
(g89
g70
NtRp1927
(dp1928
g73
(dp1929
g100
g101
ssg82
g1919
sg75
(lp1930
S':'
asbag68
(g89
g70
NtRp1931
(dp1932
g73
(dp1933
sg82
g1919
sg75
(lp1934
g68
(g69
g70
NtRp1935
(dp1936
g73
(dp1937
g81
I4
ssg82
g1931
sg75
(lp1938
S'set([])'
p1939
asbasbasbag68
(g84
g70
NtRp1940
(dp1941
g73
(dp1942
sg82
g1829
sg75
(lp1943
g68
(g89
g70
NtRp1944
(dp1945
g73
(dp1946
g93
g94
ssg82
g1940
sg75
(lp1947
g958
asbag68
(g89
g70
NtRp1948
(dp1949
g73
(dp1950
g100
g101
ssg82
g1940
sg75
(lp1951
S':'
asbag68
(g89
g70
NtRp1952
(dp1953
g73
(dp1954
sg82
g1940
sg75
(lp1955
g68
(g69
g70
NtRp1956
(dp1957
g73
(dp1958
g81
I4
ssg82
g1952
sg75
(lp1959
g111
asbasbasbag68
(g84
g70
NtRp1960
(dp1961
g73
(dp1962
sg82
g1829
sg75
(lp1963
g68
(g89
g70
NtRp1964
(dp1965
g73
(dp1966
g93
g94
ssg82
g1960
sg75
(lp1967
g979
asbag68
(g89
g70
NtRp1968
(dp1969
g73
(dp1970
g100
g101
ssg82
g1960
sg75
(lp1971
S':'
asbag68
(g89
g70
NtRp1972
(dp1973
g73
(dp1974
sg82
g1960
sg75
(lp1975
g68
(g69
g70
NtRp1976
(dp1977
g73
(dp1978
g81
I4
ssg82
g1972
sg75
(lp1979
g992
asbasbasbag68
(g84
g70
NtRp1980
(dp1981
g73
(dp1982
sg82
g1829
sg75
(lp1983
g68
(g89
g70
NtRp1984
(dp1985
g73
(dp1986
g93
g94
ssg82
g1980
sg75
(lp1987
g1155
asbag68
(g89
g70
NtRp1988
(dp1989
g73
(dp1990
g100
g101
ssg82
g1980
sg75
(lp1991
S':'
asbag68
(g89
g70
NtRp1992
(dp1993
g73
(dp1994
sg82
g1980
sg75
(lp1995
g68
(g69
g70
NtRp1996
(dp1997
g73
(dp1998
g81
I4
ssg82
g1992
sg75
(lp1999
g111
asbasbasbag68
(g84
g70
NtRp2000
(dp2001
g73
(dp2002
sg82
g1829
sg75
(lp2003
g68
(g89
g70
NtRp2004
(dp2005
g73
(dp2006
g93
g94
ssg82
g2000
sg75
(lp2007
g1393
asbag68
(g89
g70
NtRp2008
(dp2009
g73
(dp2010
g100
g101
ssg82
g2000
sg75
(lp2011
S':'
asbag68
(g89
g70
NtRp2012
(dp2013
g73
(dp2014
sg82
g2000
sg75
(lp2015
g68
(g69
g70
NtRp2016
(dp2017
g73
(dp2018
g81
I4
ssg82
g2012
sg75
(lp2019
g1406
asbasbasbag68
(g84
g70
NtRp2020
(dp2021
g73
(dp2022
sg82
g1829
sg75
(lp2023
g68
(g89
g70
NtRp2024
(dp2025
g73
(dp2026
g93
g94
ssg82
g2020
sg75
(lp2027
g1436
asbag68
(g89
g70
NtRp2028
(dp2029
g73
(dp2030
g100
g101
ssg82
g2020
sg75
(lp2031
S':'
asbag68
(g89
g70
NtRp2032
(dp2033
g73
(dp2034
sg82
g2020
sg75
(lp2035
g68
(g69
g70
NtRp2036
(dp2037
g73
(dp2038
g81
I4
ssg82
g2032
sg75
(lp2039
g68
(g77
g70
NtRp2040
(dp2041
g73
(dp2042
g81
I3
ssg82
Nsg75
(lp2043
g68
(g84
g70
NtRp2044
(dp2045
g73
(dp2046
sg82
g2040
sg75
(lp2047
g68
(g89
g70
NtRp2048
(dp2049
g73
(dp2050
sg82
g2044
sg75
(lp2051
g68
(g69
g70
NtRp2052
(dp2053
g73
(dp2054
g81
I3
ssg82
g2048
sg75
(lp2055
S'1'
asbasbasbag68
(g84
g70
NtRp2056
(dp2057
g73
(dp2058
sg82
g2040
sg75
(lp2059
g68
(g89
g70
NtRp2060
(dp2061
g73
(dp2062
sg82
g2056
sg75
(lp2063
g68
(g69
g70
NtRp2064
(dp2065
g73
(dp2066
g81
I3
ssg82
g2060
sg75
(lp2067
S'99'
p2068
asbasbasbag68
(g84
g70
NtRp2069
(dp2070
g73
(dp2071
sg82
g2040
sg75
(lp2072
g68
(g89
g70
NtRp2073
(dp2074
g73
(dp2075
sg82
g2069
sg75
(lp2076
g68
(g69
g70
NtRp2077
(dp2078
g73
(dp2079
g81
I3
ssg82
g2073
sg75
(lp2080
S'2'
asbasbasbag68
(g84
g70
NtRp2081
(dp2082
g73
(dp2083
sg82
g2040
sg75
(lp2084
g68
(g89
g70
NtRp2085
(dp2086
g73
(dp2087
sg82
g2081
sg75
(lp2088
g68
(g69
g70
NtRp2089
(dp2090
g73
(dp2091
g81
I3
ssg82
g2085
sg75
(lp2092
S'datetime.datetime(2011, 9, 26, 6, 55, 33)'
p2093
asbasbasbag68
(g84
g70
NtRp2094
(dp2095
g73
(dp2096
sg82
g2040
sg75
(lp2097
g68
(g89
g70
NtRp2098
(dp2099
g73
(dp2100
sg82
g2094
sg75
(lp2101
g68
(g69
g70
NtRp2102
(dp2103
g73
(dp2104
g81
I3
ssg82
g2098
sg75
(lp2105
g1515
asbasbasbasbasbasbasbasbasbasbasbag68
(g84
g70
NtRp2106
(dp2107
g73
(dp2108
sg82
g78
sg75
(lp2109
g68
(g89
g70
NtRp2110
(dp2111
g73
(dp2112
g93
g94
ssg82
g2106
sg75
(lp2113
S'is_https'
p2114
asbag68
(g89
g70
NtRp2115
(dp2116
g73
(dp2117
g100
g101
ssg82
g2106
sg75
(lp2118
S':'
asbag68
(g89
g70
NtRp2119
(dp2120
g73
(dp2121
sg82
g2106
sg75
(lp2122
g68
(g69
g70
NtRp2123
(dp2124
g73
(dp2125
g81
I5
ssg82
g2119
sg75
(lp2126
g111
asbasbasbag68
(g84
g70
NtRp2127
(dp2128
g73
(dp2129
sg82
g78
sg75
(lp2130
g68
(g89
g70
NtRp2131
(dp2132
g73
(dp2133
g93
g94
ssg82
g2127
sg75
(lp2134
S'is_local'
p2135
asbag68
(g89
g70
NtRp2136
(dp2137
g73
(dp2138
g100
g101
ssg82
g2127
sg75
(lp2139
S':'
asbag68
(g89
g70
NtRp2140
(dp2141
g73
(dp2142
sg82
g2127
sg75
(lp2143
g68
(g69
g70
NtRp2144
(dp2145
g73
(dp2146
g81
I5
ssg82
g2140
sg75
(lp2147
g1624
asbasbasbag68
(g84
g70
NtRp2148
(dp2149
g73
(dp2150
sg82
g78
sg75
(lp2151
g68
(g89
g70
NtRp2152
(dp2153
g73
(dp2154
g93
g94
ssg82
g2148
sg75
(lp2155
S'is_restful'
p2156
asbag68
(g89
g70
NtRp2157
(dp2158
g73
(dp2159
g100
g101
ssg82
g2148
sg75
(lp2160
S':'
asbag68
(g89
g70
NtRp2161
(dp2162
g73
(dp2163
sg82
g2148
sg75
(lp2164
g68
(g69
g70
NtRp2165
(dp2166
g73
(dp2167
g81
I5
ssg82
g2161
sg75
(lp2168
g111
asbasbasbag68
(g84
g70
NtRp2169
(dp2170
g73
(dp2171
sg82
g78
sg75
(lp2172
g68
(g89
g70
NtRp2173
(dp2174
g73
(dp2175
g93
g94
ssg82
g2169
sg75
(lp2176
S'now'
p2177
asbag68
(g89
g70
NtRp2178
(dp2179
g73
(dp2180
g100
g101
ssg82
g2169
sg75
(lp2181
S':'
asbag68
(g89
g70
NtRp2182
(dp2183
g73
(dp2184
sg82
g2169
sg75
(lp2185
g68
(g69
g70
NtRp2186
(dp2187
g73
(dp2188
g81
I5
ssg82
g2182
sg75
(lp2189
S'datetime.datetime(2012, 5, 26, 16, 27, 25, 452960)'
p2190
asbasbasbag68
(g84
g70
NtRp2191
(dp2192
g73
(dp2193
sg82
g78
sg75
(lp2194
g68
(g89
g70
NtRp2195
(dp2196
g73
(dp2197
g93
g94
ssg82
g2191
sg75
(lp2198
S'post_vars'
p2199
asbag68
(g89
g70
NtRp2200
(dp2201
g73
(dp2202
g100
g101
ssg82
g2191
sg75
(lp2203
S':'
asbag68
(g89
g70
NtRp2204
(dp2205
g73
(dp2206
sg82
g2191
sg75
(lp2207
g68
(g69
g70
NtRp2208
(dp2209
g73
(dp2210
g81
I5
ssg82
g2204
sg75
(lp2211
g68
(g77
g70
NtRp2212
(dp2213
g73
(dp2214
g81
I4
ssg82
Nsg75
(lp2215
sbasbasbasbag68
(g84
g70
NtRp2216
(dp2217
g73
(dp2218
sg82
g78
sg75
(lp2219
g68
(g89
g70
NtRp2220
(dp2221
g73
(dp2222
g93
g94
ssg82
g2216
sg75
(lp2223
S'url'
p2224
asbag68
(g89
g70
NtRp2225
(dp2226
g73
(dp2227
g100
g101
ssg82
g2216
sg75
(lp2228
S':'
asbag68
(g89
g70
NtRp2229
(dp2230
g73
(dp2231
sg82
g2216
sg75
(lp2232
g68
(g69
g70
NtRp2233
(dp2234
g73
(dp2235
g81
I5
ssg82
g2229
sg75
(lp2236
S'/streamlog/default/index'
p2237
asbasbasbag68
(g84
g70
NtRp2238
(dp2239
g73
(dp2240
sg82
g78
sg75
(lp2241
g68
(g89
g70
NtRp2242
(dp2243
g73
(dp2244
g93
g94
ssg82
g2238
sg75
(lp2245
S'utcnow'
p2246
asbag68
(g89
g70
NtRp2247
(dp2248
g73
(dp2249
g100
g101
ssg82
g2238
sg75
(lp2250
S':'
asbag68
(g89
g70
NtRp2251
(dp2252
g73
(dp2253
sg82
g2238
sg75
(lp2254
g68
(g69
g70
NtRp2255
(dp2256
g73
(dp2257
g81
I5
ssg82
g2251
sg75
(lp2258
S'datetime.datetime(2012, 5, 26, 9, 27, 25, 452989)'
p2259
asbasbasbag68
(g84
g70
NtRp2260
(dp2261
g73
(dp2262
sg82
g78
sg75
(lp2263
g68
(g89
g70
NtRp2264
(dp2265
g73
(dp2266
g93
g94
ssg82
g2260
sg75
(lp2267
S'uuid'
p2268
asbag68
(g89
g70
NtRp2269
(dp2270
g73
(dp2271
g100
g101
ssg82
g2260
sg75
(lp2272
S':'
asbag68
(g89
g70
NtRp2273
(dp2274
g73
(dp2275
sg82
g2260
sg75
(lp2276
g68
(g69
g70
NtRp2277
(dp2278
g73
(dp2279
g81
I5
ssg82
g2273
sg75
(lp2280
S'streamlog/127.0.0.1.2012-05-26.16-27-25.9be8ee31-45a0-426e-a41a-1d2256274af8'
p2281
asbasbasbag68
(g84
g70
NtRp2282
(dp2283
g73
(dp2284
sg82
g78
sg75
(lp2285
g68
(g89
g70
NtRp2286
(dp2287
g73
(dp2288
g93
g94
ssg82
g2282
sg75
(lp2289
S'vars'
p2290
asbag68
(g89
g70
NtRp2291
(dp2292
g73
(dp2293
g100
g101
ssg82
g2282
sg75
(lp2294
S':'
asbag68
(g89
g70
NtRp2295
(dp2296
g73
(dp2297
sg82
g2282
sg75
(lp2298
g68
(g69
g70
NtRp2299
(dp2300
g73
(dp2301
g81
I5
ssg82
g2295
sg75
(lp2302
g68
(g77
g70
NtRp2303
(dp2304
g73
(dp2305
g81
I4
ssg82
Nsg75
(lp2306
sbasbasbasbag68
(g84
g70
NtRp2307
(dp2308
g73
(dp2309
sg82
g78
sg75
(lp2310
g68
(g89
g70
NtRp2311
(dp2312
g73
(dp2313
g93
g94
ssg82
g2307
sg75
(lp2314
S'wsgi'
p2315
asbag68
(g89
g70
NtRp2316
(dp2317
g73
(dp2318
g100
g101
ssg82
g2307
sg75
(lp2319
S':'
asbag68
(g89
g70
NtRp2320
(dp2321
g73
(dp2322
sg82
g2307
sg75
(lp2323
g68
(g69
g70
NtRp2324
(dp2325
g73
(dp2326
g81
I5
ssg82
g2320
sg75
(lp2327
g68
(g77
g70
NtRp2328
(dp2329
g73
(dp2330
g81
I4
ssg82
Nsg75
(lp2331
g68
(g84
g70
NtRp2332
(dp2333
g73
(dp2334
sg82
g2328
sg75
(lp2335
g68
(g89
g70
NtRp2336
(dp2337
g73
(dp2338
g93
g94
ssg82
g2332
sg75
(lp2339
S'environ'
p2340
asbag68
(g89
g70
NtRp2341
(dp2342
g73
(dp2343
g100
g101
ssg82
g2332
sg75
(lp2344
S':'
asbag68
(g89
g70
NtRp2345
(dp2346
g73
(dp2347
sg82
g2332
sg75
(lp2348
g68
(g69
g70
NtRp2349
(dp2350
g73
(dp2351
g81
I4
ssg82
g2345
sg75
(lp2352
g68
(g77
g70
NtRp2353
(dp2354
g73
(dp2355
g81
I3
ssg82
Nsg75
(lp2356
g68
(g84
g70
NtRp2357
(dp2358
g73
(dp2359
sg82
g2353
sg75
(lp2360
g68
(g89
g70
NtRp2361
(dp2362
g73
(dp2363
g93
g94
ssg82
g2357
sg75
(lp2364
S'HTTP_ACCEPT'
p2365
asbag68
(g89
g70
NtRp2366
(dp2367
g73
(dp2368
g100
g101
ssg82
g2357
sg75
(lp2369
S':'
asbag68
(g89
g70
NtRp2370
(dp2371
g73
(dp2372
sg82
g2357
sg75
(lp2373
g68
(g69
g70
NtRp2374
(dp2375
g73
(dp2376
g81
I3
ssg82
g2370
sg75
(lp2377
g1014
asbasbasbag68
(g84
g70
NtRp2378
(dp2379
g73
(dp2380
sg82
g2353
sg75
(lp2381
g68
(g89
g70
NtRp2382
(dp2383
g73
(dp2384
g93
g94
ssg82
g2378
sg75
(lp2385
S'HTTP_ACCEPT_ENCODING'
p2386
asbag68
(g89
g70
NtRp2387
(dp2388
g73
(dp2389
g100
g101
ssg82
g2378
sg75
(lp2390
S':'
asbag68
(g89
g70
NtRp2391
(dp2392
g73
(dp2393
sg82
g2378
sg75
(lp2394
g68
(g69
g70
NtRp2395
(dp2396
g73
(dp2397
g81
I3
ssg82
g2391
sg75
(lp2398
g1036
asbasbasbag68
(g84
g70
NtRp2399
(dp2400
g73
(dp2401
sg82
g2353
sg75
(lp2402
g68
(g89
g70
NtRp2403
(dp2404
g73
(dp2405
g93
g94
ssg82
g2399
sg75
(lp2406
S'HTTP_ACCEPT_LANGUAGE'
p2407
asbag68
(g89
g70
NtRp2408
(dp2409
g73
(dp2410
g100
g101
ssg82
g2399
sg75
(lp2411
S':'
asbag68
(g89
g70
NtRp2412
(dp2413
g73
(dp2414
sg82
g2399
sg75
(lp2415
g68
(g69
g70
NtRp2416
(dp2417
g73
(dp2418
g81
I3
ssg82
g2412
sg75
(lp2419
g1058
asbasbasbag68
(g84
g70
NtRp2420
(dp2421
g73
(dp2422
sg82
g2353
sg75
(lp2423
g68
(g89
g70
NtRp2424
(dp2425
g73
(dp2426
g93
g94
ssg82
g2420
sg75
(lp2427
S'HTTP_CONNECTION'
p2428
asbag68
(g89
g70
NtRp2429
(dp2430
g73
(dp2431
g100
g101
ssg82
g2420
sg75
(lp2432
S':'
asbag68
(g89
g70
NtRp2433
(dp2434
g73
(dp2435
sg82
g2420
sg75
(lp2436
g68
(g69
g70
NtRp2437
(dp2438
g73
(dp2439
g81
I3
ssg82
g2433
sg75
(lp2440
g1080
asbasbasbag68
(g84
g70
NtRp2441
(dp2442
g73
(dp2443
sg82
g2353
sg75
(lp2444
g68
(g89
g70
NtRp2445
(dp2446
g73
(dp2447
g93
g94
ssg82
g2441
sg75
(lp2448
S'HTTP_COOKIE'
p2449
asbag68
(g89
g70
NtRp2450
(dp2451
g73
(dp2452
g100
g101
ssg82
g2441
sg75
(lp2453
S':'
asbag68
(g89
g70
NtRp2454
(dp2455
g73
(dp2456
sg82
g2441
sg75
(lp2457
g68
(g69
g70
NtRp2458
(dp2459
g73
(dp2460
g81
I3
ssg82
g2454
sg75
(lp2461
g1102
asbasbasbag68
(g84
g70
NtRp2462
(dp2463
g73
(dp2464
sg82
g2353
sg75
(lp2465
g68
(g89
g70
NtRp2466
(dp2467
g73
(dp2468
g93
g94
ssg82
g2462
sg75
(lp2469
S'HTTP_HOST'
p2470
asbag68
(g89
g70
NtRp2471
(dp2472
g73
(dp2473
g100
g101
ssg82
g2462
sg75
(lp2474
S':'
asbag68
(g89
g70
NtRp2475
(dp2476
g73
(dp2477
sg82
g2462
sg75
(lp2478
g68
(g69
g70
NtRp2479
(dp2480
g73
(dp2481
g81
I3
ssg82
g2475
sg75
(lp2482
g1124
asbasbasbag68
(g84
g70
NtRp2483
(dp2484
g73
(dp2485
sg82
g2353
sg75
(lp2486
g68
(g89
g70
NtRp2487
(dp2488
g73
(dp2489
g93
g94
ssg82
g2483
sg75
(lp2490
S'HTTP_USER_AGENT'
p2491
asbag68
(g89
g70
NtRp2492
(dp2493
g73
(dp2494
g100
g101
ssg82
g2483
sg75
(lp2495
S':'
asbag68
(g89
g70
NtRp2496
(dp2497
g73
(dp2498
sg82
g2483
sg75
(lp2499
g68
(g69
g70
NtRp2500
(dp2501
g73
(dp2502
g81
I3
ssg82
g2496
sg75
(lp2503
g1146
asbasbasbag68
(g84
g70
NtRp2504
(dp2505
g73
(dp2506
sg82
g2353
sg75
(lp2507
g68
(g89
g70
NtRp2508
(dp2509
g73
(dp2510
g93
g94
ssg82
g2504
sg75
(lp2511
S'PATH_INFO'
p2512
asbag68
(g89
g70
NtRp2513
(dp2514
g73
(dp2515
g100
g101
ssg82
g2504
sg75
(lp2516
S':'
asbag68
(g89
g70
NtRp2517
(dp2518
g73
(dp2519
sg82
g2504
sg75
(lp2520
g68
(g69
g70
NtRp2521
(dp2522
g73
(dp2523
g81
I3
ssg82
g2517
sg75
(lp2524
g1189
asbasbasbag68
(g84
g70
NtRp2525
(dp2526
g73
(dp2527
sg82
g2353
sg75
(lp2528
g68
(g89
g70
NtRp2529
(dp2530
g73
(dp2531
g93
g94
ssg82
g2525
sg75
(lp2532
S'QUERY_STRING'
p2533
asbag68
(g89
g70
NtRp2534
(dp2535
g73
(dp2536
g100
g101
ssg82
g2525
sg75
(lp2537
S':'
asbag68
(g89
g70
NtRp2538
(dp2539
g73
(dp2540
sg82
g2525
sg75
(lp2541
g68
(g69
g70
NtRp2542
(dp2543
g73
(dp2544
g81
I3
ssg82
g2538
sg75
(lp2545
S''
asbasbasbag68
(g84
g70
NtRp2546
(dp2547
g73
(dp2548
sg82
g2353
sg75
(lp2549
g68
(g89
g70
NtRp2550
(dp2551
g73
(dp2552
g93
g94
ssg82
g2546
sg75
(lp2553
S'REMOTE_ADDR'
p2554
asbag68
(g89
g70
NtRp2555
(dp2556
g73
(dp2557
g100
g101
ssg82
g2546
sg75
(lp2558
S':'
asbag68
(g89
g70
NtRp2559
(dp2560
g73
(dp2561
sg82
g2546
sg75
(lp2562
g68
(g69
g70
NtRp2563
(dp2564
g73
(dp2565
g81
I3
ssg82
g2559
sg75
(lp2566
g201
asbasbasbag68
(g84
g70
NtRp2567
(dp2568
g73
(dp2569
sg82
g2353
sg75
(lp2570
g68
(g89
g70
NtRp2571
(dp2572
g73
(dp2573
g93
g94
ssg82
g2567
sg75
(lp2574
S'REMOTE_PORT'
p2575
asbag68
(g89
g70
NtRp2576
(dp2577
g73
(dp2578
g100
g101
ssg82
g2567
sg75
(lp2579
S':'
asbag68
(g89
g70
NtRp2580
(dp2581
g73
(dp2582
sg82
g2567
sg75
(lp2583
g68
(g69
g70
NtRp2584
(dp2585
g73
(dp2586
g81
I3
ssg82
g2580
sg75
(lp2587
g1253
asbasbasbag68
(g84
g70
NtRp2588
(dp2589
g73
(dp2590
sg82
g2353
sg75
(lp2591
g68
(g89
g70
NtRp2592
(dp2593
g73
(dp2594
g93
g94
ssg82
g2588
sg75
(lp2595
S'REQUEST_METHOD'
p2596
asbag68
(g89
g70
NtRp2597
(dp2598
g73
(dp2599
g100
g101
ssg82
g2588
sg75
(lp2600
S':'
asbag68
(g89
g70
NtRp2601
(dp2602
g73
(dp2603
sg82
g2588
sg75
(lp2604
g68
(g69
g70
NtRp2605
(dp2606
g73
(dp2607
g81
I3
ssg82
g2601
sg75
(lp2608
g1275
asbasbasbag68
(g84
g70
NtRp2609
(dp2610
g73
(dp2611
sg82
g2353
sg75
(lp2612
g68
(g89
g70
NtRp2613
(dp2614
g73
(dp2615
g93
g94
ssg82
g2609
sg75
(lp2616
S'SCRIPT_NAME'
p2617
asbag68
(g89
g70
NtRp2618
(dp2619
g73
(dp2620
g100
g101
ssg82
g2609
sg75
(lp2621
S':'
asbag68
(g89
g70
NtRp2622
(dp2623
g73
(dp2624
sg82
g2609
sg75
(lp2625
g68
(g69
g70
NtRp2626
(dp2627
g73
(dp2628
g81
I3
ssg82
g2622
sg75
(lp2629
S''
asbasbasbag68
(g84
g70
NtRp2630
(dp2631
g73
(dp2632
sg82
g2353
sg75
(lp2633
g68
(g89
g70
NtRp2634
(dp2635
g73
(dp2636
g93
g94
ssg82
g2630
sg75
(lp2637
S'SERVER_NAME'
p2638
asbag68
(g89
g70
NtRp2639
(dp2640
g73
(dp2641
g100
g101
ssg82
g2630
sg75
(lp2642
S':'
asbag68
(g89
g70
NtRp2643
(dp2644
g73
(dp2645
sg82
g2630
sg75
(lp2646
g68
(g69
g70
NtRp2647
(dp2648
g73
(dp2649
g81
I3
ssg82
g2643
sg75
(lp2650
g1318
asbasbasbag68
(g84
g70
NtRp2651
(dp2652
g73
(dp2653
sg82
g2353
sg75
(lp2654
g68
(g89
g70
NtRp2655
(dp2656
g73
(dp2657
g93
g94
ssg82
g2651
sg75
(lp2658
S'SERVER_PORT'
p2659
asbag68
(g89
g70
NtRp2660
(dp2661
g73
(dp2662
g100
g101
ssg82
g2651
sg75
(lp2663
S':'
asbag68
(g89
g70
NtRp2664
(dp2665
g73
(dp2666
sg82
g2651
sg75
(lp2667
g68
(g69
g70
NtRp2668
(dp2669
g73
(dp2670
g81
I3
ssg82
g2664
sg75
(lp2671
g1340
asbasbasbag68
(g84
g70
NtRp2672
(dp2673
g73
(dp2674
sg82
g2353
sg75
(lp2675
g68
(g89
g70
NtRp2676
(dp2677
g73
(dp2678
g93
g94
ssg82
g2672
sg75
(lp2679
S'SERVER_PROTOCOL'
p2680
asbag68
(g89
g70
NtRp2681
(dp2682
g73
(dp2683
g100
g101
ssg82
g2672
sg75
(lp2684
S':'
asbag68
(g89
g70
NtRp2685
(dp2686
g73
(dp2687
sg82
g2672
sg75
(lp2688
g68
(g69
g70
NtRp2689
(dp2690
g73
(dp2691
g81
I3
ssg82
g2685
sg75
(lp2692
g1362
asbasbasbag68
(g84
g70
NtRp2693
(dp2694
g73
(dp2695
sg82
g2353
sg75
(lp2696
g68
(g89
g70
NtRp2697
(dp2698
g73
(dp2699
g93
g94
ssg82
g2693
sg75
(lp2700
S'SERVER_SOFTWARE'
p2701
asbag68
(g89
g70
NtRp2702
(dp2703
g73
(dp2704
g100
g101
ssg82
g2693
sg75
(lp2705
S':'
asbag68
(g89
g70
NtRp2706
(dp2707
g73
(dp2708
sg82
g2693
sg75
(lp2709
g68
(g69
g70
NtRp2710
(dp2711
g73
(dp2712
g81
I3
ssg82
g2706
sg75
(lp2713
g1384
asbasbasbag68
(g84
g70
NtRp2714
(dp2715
g73
(dp2716
sg82
g2353
sg75
(lp2717
g68
(g89
g70
NtRp2718
(dp2719
g73
(dp2720
g93
g94
ssg82
g2714
sg75
(lp2721
S'wsgi.errors'
p2722
asbag68
(g89
g70
NtRp2723
(dp2724
g73
(dp2725
g100
g101
ssg82
g2714
sg75
(lp2726
S':'
asbag68
(g89
g70
NtRp2727
(dp2728
g73
(dp2729
sg82
g2714
sg75
(lp2730
g68
(g69
g70
NtRp2731
(dp2732
g73
(dp2733
g81
I3
ssg82
g2727
sg75
(lp2734
S"<open file '<stderr>', mode 'w' at 0x7f84db3ff270>"
p2735
asbasbasbag68
(g84
g70
NtRp2736
(dp2737
g73
(dp2738
sg82
g2353
sg75
(lp2739
g68
(g89
g70
NtRp2740
(dp2741
g73
(dp2742
g93
g94
ssg82
g2736
sg75
(lp2743
S'wsgi.file_wrapper'
p2744
asbag68
(g89
g70
NtRp2745
(dp2746
g73
(dp2747
g100
g101
ssg82
g2736
sg75
(lp2748
S':'
asbag68
(g89
g70
NtRp2749
(dp2750
g73
(dp2751
sg82
g2736
sg75
(lp2752
g68
(g69
g70
NtRp2753
(dp2754
g73
(dp2755
g81
I3
ssg82
g2749
sg75
(lp2756
S'<class wsgiref.util.FileWrapper at 0x1b96d50>'
p2757
asbasbasbag68
(g84
g70
NtRp2758
(dp2759
g73
(dp2760
sg82
g2353
sg75
(lp2761
g68
(g89
g70
NtRp2762
(dp2763
g73
(dp2764
g93
g94
ssg82
g2758
sg75
(lp2765
S'wsgi.input'
p2766
asbag68
(g89
g70
NtRp2767
(dp2768
g73
(dp2769
g100
g101
ssg82
g2758
sg75
(lp2770
S':'
asbag68
(g89
g70
NtRp2771
(dp2772
g73
(dp2773
sg82
g2758
sg75
(lp2774
g68
(g69
g70
NtRp2775
(dp2776
g73
(dp2777
g81
I3
ssg82
g2771
sg75
(lp2778
S'<cStringIO.StringO object at 0x2750068>'
p2779
asbasbasbag68
(g84
g70
NtRp2780
(dp2781
g73
(dp2782
sg82
g2353
sg75
(lp2783
g68
(g89
g70
NtRp2784
(dp2785
g73
(dp2786
g93
g94
ssg82
g2780
sg75
(lp2787
S'wsgi.multiprocess'
p2788
asbag68
(g89
g70
NtRp2789
(dp2790
g73
(dp2791
g100
g101
ssg82
g2780
sg75
(lp2792
S':'
asbag68
(g89
g70
NtRp2793
(dp2794
g73
(dp2795
sg82
g2780
sg75
(lp2796
g68
(g69
g70
NtRp2797
(dp2798
g73
(dp2799
g81
I3
ssg82
g2793
sg75
(lp2800
g111
asbasbasbag68
(g84
g70
NtRp2801
(dp2802
g73
(dp2803
sg82
g2353
sg75
(lp2804
g68
(g89
g70
NtRp2805
(dp2806
g73
(dp2807
g93
g94
ssg82
g2801
sg75
(lp2808
S'wsgi.multithread'
p2809
asbag68
(g89
g70
NtRp2810
(dp2811
g73
(dp2812
g100
g101
ssg82
g2801
sg75
(lp2813
S':'
asbag68
(g89
g70
NtRp2814
(dp2815
g73
(dp2816
sg82
g2801
sg75
(lp2817
g68
(g69
g70
NtRp2818
(dp2819
g73
(dp2820
g81
I3
ssg82
g2814
sg75
(lp2821
g1624
asbasbasbag68
(g84
g70
NtRp2822
(dp2823
g73
(dp2824
sg82
g2353
sg75
(lp2825
g68
(g89
g70
NtRp2826
(dp2827
g73
(dp2828
g93
g94
ssg82
g2822
sg75
(lp2829
S'wsgi.run_once'
p2830
asbag68
(g89
g70
NtRp2831
(dp2832
g73
(dp2833
g100
g101
ssg82
g2822
sg75
(lp2834
S':'
asbag68
(g89
g70
NtRp2835
(dp2836
g73
(dp2837
sg82
g2822
sg75
(lp2838
g68
(g69
g70
NtRp2839
(dp2840
g73
(dp2841
g81
I3
ssg82
g2835
sg75
(lp2842
g111
asbasbasbag68
(g84
g70
NtRp2843
(dp2844
g73
(dp2845
sg82
g2353
sg75
(lp2846
g68
(g89
g70
NtRp2847
(dp2848
g73
(dp2849
g93
g94
ssg82
g2843
sg75
(lp2850
S'wsgi.url_scheme'
p2851
asbag68
(g89
g70
NtRp2852
(dp2853
g73
(dp2854
g100
g101
ssg82
g2843
sg75
(lp2855
S':'
asbag68
(g89
g70
NtRp2856
(dp2857
g73
(dp2858
sg82
g2843
sg75
(lp2859
g68
(g69
g70
NtRp2860
(dp2861
g73
(dp2862
g81
I3
ssg82
g2856
sg75
(lp2863
g1667
asbasbasbag68
(g84
g70
NtRp2864
(dp2865
g73
(dp2866
sg82
g2353
sg75
(lp2867
g68
(g89
g70
NtRp2868
(dp2869
g73
(dp2870
g93
g94
ssg82
g2864
sg75
(lp2871
S'wsgi.version'
p2872
asbag68
(g89
g70
NtRp2873
(dp2874
g73
(dp2875
g100
g101
ssg82
g2864
sg75
(lp2876
S':'
asbag68
(g89
g70
NtRp2877
(dp2878
g73
(dp2879
sg82
g2864
sg75
(lp2880
g68
(g69
g70
NtRp2881
(dp2882
g73
(dp2883
g81
I3
ssg82
g2877
sg75
(lp2884
S'1'
asbasbasbasbasbasbasbasbasbasbasbasbasbsS'frames'
p2885
(lp2886
(dp2887
S'file'
p2888
S'/home/jose/DESARROLLO/web2py199/gluon/restricted.py'
p2889
sS'dump'
p2890
(dp2891
S'code'
p2892
S"'# -*- coding: utf-8 -*-\\n# this file is released ...=crud())\\n\\nresponse._vars=response._caller(index)\\n'"
p2893
sS'layer'
p2894
S"'/home/jose/DESARROLLO/web2py199/applications/streamlog/controllers/default.py'"
p2895
sS'global compile2'
p2896
S'<function compile2>'
p2897
sS'ccode'
p2898
S'undefined'
p2899
ssS'lnum'
p2900
I193
sS'lines'
p2901
(dp2902
I192
S'        else:'
p2903
sI193
S'            ccode = compile2(code,layer)'
p2904
sI194
S'        exec ccode in environment'
p2905
sI195
S'    except HTTP:'
p2906
sI196
S'        raise'
p2907
sI197
S'    except Exception, error:'
p2908
sI188
S"    environment['__file__'] = layer"
p2909
sI189
S'    try:'
p2910
sI190
S'        if type(code) == types.CodeType:'
p2911
sI191
S'            ccode = code'
p2912
ssS'call'
p2913
S"(code='# -*- coding: utf-8 -*-\\n# this file is released ...=crud())\\n\\nresponse._vars=response._caller(index)\\n', environment={'A': <class 'gluon.html.A'>, 'Auth': <class 'gluon.tools.Auth'>, 'B': <class 'gluon.html.B'>, 'BEAUTIFY': <class 'gluon.html.BEAUTIFY'>, 'BODY': <class 'gluon.html.BODY'>, 'BR': <class 'gluon.html.BR'>, 'BUTTON': <class 'gluon.html.BUTTON'>, 'CAT': <class 'gluon.html.CAT'>, 'CENTER': <class 'gluon.html.CENTER'>, 'CLEANUP': <class 'gluon.validators.CLEANUP'>, ...}, layer='/home/jose/DESARROLLO/web2py199/applications/streamlog/controllers/default.py')"
p2914
sS'func'
p2915
S'restricted'
p2916
sa(dp2917
g2888
S'/home/jose/DESARROLLO/web2py199/gluon/restricted.py'
p2918
sg2890
(dp2919
S'builtincompile'
p2920
S'<built-in function compile>'
p2921
sS'code'
p2922
S"'# -*- coding: utf-8 -*-\\n# this file is released ...=crud())\\n\\nresponse._vars=response._caller(index)\\n'"
p2923
sS'code.rstrip'
p2924
S'<built-in method rstrip of str object>'
p2925
sS').replace'
p2926
g2899
sS'layer'
p2927
S"'/home/jose/DESARROLLO/web2py199/applications/streamlog/controllers/default.py'"
p2928
ssg2900
I179
sg2901
(dp2929
I174
S''
sI175
S'def compile2(code,layer):'
p2930
sI176
S'    """'
p2931
sI177
S"    The +'\\n' is necessary else compile fails when code ends in a comment."
p2932
sI178
S'    """'
p2933
sI179
S"    return compile(code.rstrip().replace('\\r\\n','\\n')+'\\n', layer, 'exec')"
p2934
sI180
S''
sI181
S"def restricted(code, environment=None, layer='Unknown'):"
p2935
sI182
S'    """'
p2936
sI183
S'    runs code in environment and returns the output. if an exception occurs'
p2937
ssg2913
S"(code='# -*- coding: utf-8 -*-\\n# this file is released ...=crud())\\n\\nresponse._vars=response._caller(index)\\n', layer='/home/jose/DESARROLLO/web2py199/applications/streamlog/controllers/default.py')"
p2938
sg2915
S'compile2'
p2939
sasS'pyver'
p2940
S'Python 2.7.2+: /usr/bin/python'
p2941
sS'session'
p2942
g68
(g69
g70
NtRp2943
(dp2944
g73
(dp2945
sg75
(lp2946
g68
(g77
g70
NtRp2947
(dp2948
g73
(dp2949
g81
I5
ssg82
Nsg75
(lp2950
g68
(g84
g70
NtRp2951
(dp2952
g73
(dp2953
sg82
g2947
sg75
(lp2954
g68
(g89
g70
NtRp2955
(dp2956
g73
(dp2957
g93
g94
ssg82
g2951
sg75
(lp2958
S'auth'
p2959
asbag68
(g89
g70
NtRp2960
(dp2961
g73
(dp2962
g100
g101
ssg82
g2951
sg75
(lp2963
S':'
asbag68
(g89
g70
NtRp2964
(dp2965
g73
(dp2966
sg82
g2951
sg75
(lp2967
g68
(g69
g70
NtRp2968
(dp2969
g73
(dp2970
g81
I5
ssg82
g2964
sg75
(lp2971
g68
(g77
g70
NtRp2972
(dp2973
g73
(dp2974
g81
I4
ssg82
Nsg75
(lp2975
g68
(g84
g70
NtRp2976
(dp2977
g73
(dp2978
sg82
g2972
sg75
(lp2979
g68
(g89
g70
NtRp2980
(dp2981
g73
(dp2982
g93
g94
ssg82
g2976
sg75
(lp2983
S'expiration'
p2984
asbag68
(g89
g70
NtRp2985
(dp2986
g73
(dp2987
g100
g101
ssg82
g2976
sg75
(lp2988
S':'
asbag68
(g89
g70
NtRp2989
(dp2990
g73
(dp2991
sg82
g2976
sg75
(lp2992
g68
(g69
g70
NtRp2993
(dp2994
g73
(dp2995
g81
I4
ssg82
g2989
sg75
(lp2996
S'3600'
p2997
asbasbasbag68
(g84
g70
NtRp2998
(dp2999
g73
(dp3000
sg82
g2972
sg75
(lp3001
g68
(g89
g70
NtRp3002
(dp3003
g73
(dp3004
g93
g94
ssg82
g2998
sg75
(lp3005
S'hmac_key'
p3006
asbag68
(g89
g70
NtRp3007
(dp3008
g73
(dp3009
g100
g101
ssg82
g2998
sg75
(lp3010
S':'
asbag68
(g89
g70
NtRp3011
(dp3012
g73
(dp3013
sg82
g2998
sg75
(lp3014
g68
(g69
g70
NtRp3015
(dp3016
g73
(dp3017
g81
I4
ssg82
g3011
sg75
(lp3018
S'4939d400-e4c9-4a5c-be3b-b030e1657229'
p3019
asbasbasbag68
(g84
g70
NtRp3020
(dp3021
g73
(dp3022
sg82
g2972
sg75
(lp3023
g68
(g89
g70
NtRp3024
(dp3025
g73
(dp3026
g93
g94
ssg82
g3020
sg75
(lp3027
S'last_visit'
p3028
asbag68
(g89
g70
NtRp3029
(dp3030
g73
(dp3031
g100
g101
ssg82
g3020
sg75
(lp3032
S':'
asbag68
(g89
g70
NtRp3033
(dp3034
g73
(dp3035
sg82
g3020
sg75
(lp3036
g68
(g69
g70
NtRp3037
(dp3038
g73
(dp3039
g81
I4
ssg82
g3033
sg75
(lp3040
S'datetime.datetime(2012, 5, 26, 16, 26, 0, 103509)'
p3041
asbasbasbag68
(g84
g70
NtRp3042
(dp3043
g73
(dp3044
sg82
g2972
sg75
(lp3045
g68
(g89
g70
NtRp3046
(dp3047
g73
(dp3048
g93
g94
ssg82
g3042
sg75
(lp3049
S'user'
p3050
asbag68
(g89
g70
NtRp3051
(dp3052
g73
(dp3053
g100
g101
ssg82
g3042
sg75
(lp3054
S':'
asbag68
(g89
g70
NtRp3055
(dp3056
g73
(dp3057
sg82
g3042
sg75
(lp3058
g68
(g69
g70
NtRp3059
(dp3060
g73
(dp3061
g81
I4
ssg82
g3055
sg75
(lp3062
g68
(g77
g70
NtRp3063
(dp3064
g73
(dp3065
g81
I3
ssg82
Nsg75
(lp3066
g68
(g84
g70
NtRp3067
(dp3068
g73
(dp3069
sg82
g3063
sg75
(lp3070
g68
(g89
g70
NtRp3071
(dp3072
g73
(dp3073
g93
g94
ssg82
g3067
sg75
(lp3074
S'email'
p3075
asbag68
(g89
g70
NtRp3076
(dp3077
g73
(dp3078
g100
g101
ssg82
g3067
sg75
(lp3079
S':'
asbag68
(g89
g70
NtRp3080
(dp3081
g73
(dp3082
sg82
g3067
sg75
(lp3083
g68
(g69
g70
NtRp3084
(dp3085
g73
(dp3086
g81
I3
ssg82
g3080
sg75
(lp3087
S'josedesoto@gmail.com'
p3088
asbasbasbag68
(g84
g70
NtRp3089
(dp3090
g73
(dp3091
sg82
g3063
sg75
(lp3092
g68
(g89
g70
NtRp3093
(dp3094
g73
(dp3095
g93
g94
ssg82
g3089
sg75
(lp3096
S'first_name'
p3097
asbag68
(g89
g70
NtRp3098
(dp3099
g73
(dp3100
g100
g101
ssg82
g3089
sg75
(lp3101
S':'
asbag68
(g89
g70
NtRp3102
(dp3103
g73
(dp3104
sg82
g3089
sg75
(lp3105
g68
(g69
g70
NtRp3106
(dp3107
g73
(dp3108
g81
I3
ssg82
g3102
sg75
(lp3109
S'jose'
p3110
asbasbasbag68
(g84
g70
NtRp3111
(dp3112
g73
(dp3113
sg82
g3063
sg75
(lp3114
g68
(g89
g70
NtRp3115
(dp3116
g73
(dp3117
g93
g94
ssg82
g3111
sg75
(lp3118
S'id'
p3119
asbag68
(g89
g70
NtRp3120
(dp3121
g73
(dp3122
g100
g101
ssg82
g3111
sg75
(lp3123
S':'
asbag68
(g89
g70
NtRp3124
(dp3125
g73
(dp3126
sg82
g3111
sg75
(lp3127
g68
(g69
g70
NtRp3128
(dp3129
g73
(dp3130
g81
I3
ssg82
g3124
sg75
(lp3131
S'1'
asbasbasbag68
(g84
g70
NtRp3132
(dp3133
g73
(dp3134
sg82
g3063
sg75
(lp3135
g68
(g89
g70
NtRp3136
(dp3137
g73
(dp3138
g93
g94
ssg82
g3132
sg75
(lp3139
S'last_name'
p3140
asbag68
(g89
g70
NtRp3141
(dp3142
g73
(dp3143
g100
g101
ssg82
g3132
sg75
(lp3144
S':'
asbag68
(g89
g70
NtRp3145
(dp3146
g73
(dp3147
sg82
g3132
sg75
(lp3148
g68
(g69
g70
NtRp3149
(dp3150
g73
(dp3151
g81
I3
ssg82
g3145
sg75
(lp3152
S'jose'
p3153
asbasbasbag68
(g84
g70
NtRp3154
(dp3155
g73
(dp3156
sg82
g3063
sg75
(lp3157
g68
(g89
g70
NtRp3158
(dp3159
g73
(dp3160
g93
g94
ssg82
g3154
sg75
(lp3161
S'password'
p3162
asbag68
(g89
g70
NtRp3163
(dp3164
g73
(dp3165
g100
g101
ssg82
g3154
sg75
(lp3166
S':'
asbag68
(g89
g70
NtRp3167
(dp3168
g73
(dp3169
sg82
g3154
sg75
(lp3170
g68
(g69
g70
NtRp3171
(dp3172
g73
(dp3173
g81
I3
ssg82
g3167
sg75
(lp3174
S'2b32eaa2baa0c63b755a4cde1e4dda83'
p3175
asbasbasbag68
(g84
g70
NtRp3176
(dp3177
g73
(dp3178
sg82
g3063
sg75
(lp3179
g68
(g89
g70
NtRp3180
(dp3181
g73
(dp3182
g93
g94
ssg82
g3176
sg75
(lp3183
S'registration_key'
p3184
asbag68
(g89
g70
NtRp3185
(dp3186
g73
(dp3187
g100
g101
ssg82
g3176
sg75
(lp3188
S':'
asbag68
(g89
g70
NtRp3189
(dp3190
g73
(dp3191
sg82
g3176
sg75
(lp3192
g68
(g69
g70
NtRp3193
(dp3194
g73
(dp3195
g81
I3
ssg82
g3189
sg75
(lp3196
S''
asbasbasbag68
(g84
g70
NtRp3197
(dp3198
g73
(dp3199
sg82
g3063
sg75
(lp3200
g68
(g89
g70
NtRp3201
(dp3202
g73
(dp3203
g93
g94
ssg82
g3197
sg75
(lp3204
S'reset_password_key'
p3205
asbag68
(g89
g70
NtRp3206
(dp3207
g73
(dp3208
g100
g101
ssg82
g3197
sg75
(lp3209
S':'
asbag68
(g89
g70
NtRp3210
(dp3211
g73
(dp3212
sg82
g3197
sg75
(lp3213
g68
(g69
g70
NtRp3214
(dp3215
g73
(dp3216
g81
I3
ssg82
g3210
sg75
(lp3217
S''
asbasbasbasbasbasbasbasbasbasbasbag68
(g84
g70
NtRp3218
(dp3219
g73
(dp3220
sg82
g2947
sg75
(lp3221
g68
(g89
g70
NtRp3222
(dp3223
g73
(dp3224
g93
g94
ssg82
g3218
sg75
(lp3225
S'last_query'
p3226
asbag68
(g89
g70
NtRp3227
(dp3228
g73
(dp3229
g100
g101
ssg82
g3218
sg75
(lp3230
S':'
asbag68
(g89
g70
NtRp3231
(dp3232
g73
(dp3233
sg82
g3218
sg75
(lp3234
g68
(g69
g70
NtRp3235
(dp3236
g73
(dp3237
g81
I5
ssg82
g3231
sg75
(lp3238
S'((db.t_project.user==me)&(db.t_server.project==db.t_project.id)&(db.t_log.server==db.t_server.id))'
p3239
asbasbasbasbasbsS'etype'
p3240
S"<type 'exceptions.SyntaxError'>"
p3241
sS'date'
p3242
S'Sat May 26 16:27:25 2012'
p3243
sS'response'
p3244
g68
(g69
g70
NtRp3245
(dp3246
g73
(dp3247
sg75
(lp3248
g68
(g77
g70
NtRp3249
(dp3250
g73
(dp3251
g81
I5
ssg82
Nsg75
(lp3252
g68
(g84
g70
NtRp3253
(dp3254
g73
(dp3255
sg82
g3249
sg75
(lp3256
g68
(g89
g70
NtRp3257
(dp3258
g73
(dp3259
g93
g94
ssg82
g3253
sg75
(lp3260
g166
asbag68
(g89
g70
NtRp3261
(dp3262
g73
(dp3263
g100
g101
ssg82
g3253
sg75
(lp3264
S':'
asbag68
(g89
g70
NtRp3265
(dp3266
g73
(dp3267
sg82
g3253
sg75
(lp3268
g68
(g69
g70
NtRp3269
(dp3270
g73
(dp3271
g81
I5
ssg82
g3265
sg75
(lp3272
S'<cStringIO.StringO object at 0x29e3490>'
p3273
asbasbasbag68
(g84
g70
NtRp3274
(dp3275
g73
(dp3276
sg82
g3249
sg75
(lp3277
g68
(g89
g70
NtRp3278
(dp3279
g73
(dp3280
g93
g94
ssg82
g3274
sg75
(lp3281
g232
asbag68
(g89
g70
NtRp3282
(dp3283
g73
(dp3284
g100
g101
ssg82
g3274
sg75
(lp3285
S':'
asbag68
(g89
g70
NtRp3286
(dp3287
g73
(dp3288
sg82
g3274
sg75
(lp3289
g68
(g69
g70
NtRp3290
(dp3291
g73
(dp3292
g81
I5
ssg82
g3286
sg75
(lp3293
g68
(g77
g70
NtRp3294
(dp3295
g73
(dp3296
g81
I4
ssg82
Nsg75
(lp3297
g68
(g84
g70
NtRp3298
(dp3299
g73
(dp3300
sg82
g3294
sg75
(lp3301
g68
(g89
g70
NtRp3302
(dp3303
g73
(dp3304
g93
g94
ssg82
g3298
sg75
(lp3305
S'session_id_streamlog'
p3306
asbag68
(g89
g70
NtRp3307
(dp3308
g73
(dp3309
g100
g101
ssg82
g3298
sg75
(lp3310
S':'
asbag68
(g89
g70
NtRp3311
(dp3312
g73
(dp3313
sg82
g3298
sg75
(lp3314
g68
(g69
g70
NtRp3315
(dp3316
g73
(dp3317
g81
I4
ssg82
g3311
sg75
(lp3318
g68
(g77
g70
NtRp3319
(dp3320
g73
(dp3321
g81
I3
ssg82
Nsg75
(lp3322
g68
(g84
g70
NtRp3323
(dp3324
g73
(dp3325
sg82
g3319
sg75
(lp3326
g68
(g89
g70
NtRp3327
(dp3328
g73
(dp3329
g93
g94
ssg82
g3323
sg75
(lp3330
g282
asbag68
(g89
g70
NtRp3331
(dp3332
g73
(dp3333
g100
g101
ssg82
g3323
sg75
(lp3334
S':'
asbag68
(g89
g70
NtRp3335
(dp3336
g73
(dp3337
sg82
g3323
sg75
(lp3338
g68
(g69
g70
NtRp3339
(dp3340
g73
(dp3341
g81
I3
ssg82
g3335
sg75
(lp3342
S''
asbasbasbag68
(g84
g70
NtRp3343
(dp3344
g73
(dp3345
sg82
g3319
sg75
(lp3346
g68
(g89
g70
NtRp3347
(dp3348
g73
(dp3349
g93
g94
ssg82
g3343
sg75
(lp3350
g303
asbag68
(g89
g70
NtRp3351
(dp3352
g73
(dp3353
g100
g101
ssg82
g3343
sg75
(lp3354
S':'
asbag68
(g89
g70
NtRp3355
(dp3356
g73
(dp3357
sg82
g3343
sg75
(lp3358
g68
(g69
g70
NtRp3359
(dp3360
g73
(dp3361
g81
I3
ssg82
g3355
sg75
(lp3362
S''
asbasbasbag68
(g84
g70
NtRp3363
(dp3364
g73
(dp3365
sg82
g3319
sg75
(lp3366
g68
(g89
g70
NtRp3367
(dp3368
g73
(dp3369
g93
g94
ssg82
g3363
sg75
(lp3370
g324
asbag68
(g89
g70
NtRp3371
(dp3372
g73
(dp3373
g100
g101
ssg82
g3363
sg75
(lp3374
S':'
asbag68
(g89
g70
NtRp3375
(dp3376
g73
(dp3377
sg82
g3363
sg75
(lp3378
g68
(g69
g70
NtRp3379
(dp3380
g73
(dp3381
g81
I3
ssg82
g3375
sg75
(lp3382
S''
asbasbasbag68
(g84
g70
NtRp3383
(dp3384
g73
(dp3385
sg82
g3319
sg75
(lp3386
g68
(g89
g70
NtRp3387
(dp3388
g73
(dp3389
g93
g94
ssg82
g3383
sg75
(lp3390
g345
asbag68
(g89
g70
NtRp3391
(dp3392
g73
(dp3393
g100
g101
ssg82
g3383
sg75
(lp3394
S':'
asbag68
(g89
g70
NtRp3395
(dp3396
g73
(dp3397
sg82
g3383
sg75
(lp3398
g68
(g69
g70
NtRp3399
(dp3400
g73
(dp3401
g81
I3
ssg82
g3395
sg75
(lp3402
S''
asbasbasbag68
(g84
g70
NtRp3403
(dp3404
g73
(dp3405
sg82
g3319
sg75
(lp3406
g68
(g89
g70
NtRp3407
(dp3408
g73
(dp3409
g93
g94
ssg82
g3403
sg75
(lp3410
g366
asbag68
(g89
g70
NtRp3411
(dp3412
g73
(dp3413
g100
g101
ssg82
g3403
sg75
(lp3414
S':'
asbag68
(g89
g70
NtRp3415
(dp3416
g73
(dp3417
sg82
g3403
sg75
(lp3418
g68
(g69
g70
NtRp3419
(dp3420
g73
(dp3421
g81
I3
ssg82
g3415
sg75
(lp3422
S''
asbasbasbag68
(g84
g70
NtRp3423
(dp3424
g73
(dp3425
sg82
g3319
sg75
(lp3426
g68
(g89
g70
NtRp3427
(dp3428
g73
(dp3429
g93
g94
ssg82
g3423
sg75
(lp3430
g387
asbag68
(g89
g70
NtRp3431
(dp3432
g73
(dp3433
g100
g101
ssg82
g3423
sg75
(lp3434
S':'
asbag68
(g89
g70
NtRp3435
(dp3436
g73
(dp3437
sg82
g3423
sg75
(lp3438
g68
(g69
g70
NtRp3439
(dp3440
g73
(dp3441
g81
I3
ssg82
g3435
sg75
(lp3442
S'/'
asbasbasbag68
(g84
g70
NtRp3443
(dp3444
g73
(dp3445
sg82
g3319
sg75
(lp3446
g68
(g89
g70
NtRp3447
(dp3448
g73
(dp3449
g93
g94
ssg82
g3443
sg75
(lp3450
g408
asbag68
(g89
g70
NtRp3451
(dp3452
g73
(dp3453
g100
g101
ssg82
g3443
sg75
(lp3454
S':'
asbag68
(g89
g70
NtRp3455
(dp3456
g73
(dp3457
sg82
g3443
sg75
(lp3458
g68
(g69
g70
NtRp3459
(dp3460
g73
(dp3461
g81
I3
ssg82
g3455
sg75
(lp3462
S''
asbasbasbag68
(g84
g70
NtRp3463
(dp3464
g73
(dp3465
sg82
g3319
sg75
(lp3466
g68
(g89
g70
NtRp3467
(dp3468
g73
(dp3469
g93
g94
ssg82
g3463
sg75
(lp3470
g429
asbag68
(g89
g70
NtRp3471
(dp3472
g73
(dp3473
g100
g101
ssg82
g3463
sg75
(lp3474
S':'
asbag68
(g89
g70
NtRp3475
(dp3476
g73
(dp3477
sg82
g3463
sg75
(lp3478
g68
(g69
g70
NtRp3479
(dp3480
g73
(dp3481
g81
I3
ssg82
g3475
sg75
(lp3482
S''
asbasbasbasbasbasbasbasbasbasbasbag68
(g84
g70
NtRp3483
(dp3484
g73
(dp3485
sg82
g3249
sg75
(lp3486
g68
(g89
g70
NtRp3487
(dp3488
g73
(dp3489
g93
g94
ssg82
g3483
sg75
(lp3490
S'files'
p3491
asbag68
(g89
g70
NtRp3492
(dp3493
g73
(dp3494
g100
g101
ssg82
g3483
sg75
(lp3495
S':'
asbag68
(g89
g70
NtRp3496
(dp3497
g73
(dp3498
sg82
g3483
sg75
(lp3499
g68
(g69
g70
NtRp3500
(dp3501
g73
(dp3502
g81
I5
ssg82
g3496
sg75
(lp3503
g68
(g77
g70
NtRp3504
(dp3505
g73
(dp3506
g81
I4
ssg82
Nsg75
(lp3507
sbasbasbasbag68
(g84
g70
NtRp3508
(dp3509
g73
(dp3510
sg82
g3249
sg75
(lp3511
g68
(g89
g70
NtRp3512
(dp3513
g73
(dp3514
g93
g94
ssg82
g3508
sg75
(lp3515
S'flash'
p3516
asbag68
(g89
g70
NtRp3517
(dp3518
g73
(dp3519
g100
g101
ssg82
g3508
sg75
(lp3520
S':'
asbag68
(g89
g70
NtRp3521
(dp3522
g73
(dp3523
sg82
g3508
sg75
(lp3524
g68
(g69
g70
NtRp3525
(dp3526
g73
(dp3527
g81
I5
ssg82
g3521
sg75
(lp3528
S''
asbasbasbag68
(g84
g70
NtRp3529
(dp3530
g73
(dp3531
sg82
g3249
sg75
(lp3532
g68
(g89
g70
NtRp3533
(dp3534
g73
(dp3535
g93
g94
ssg82
g3529
sg75
(lp3536
S'generic_patterns'
p3537
asbag68
(g89
g70
NtRp3538
(dp3539
g73
(dp3540
g100
g101
ssg82
g3529
sg75
(lp3541
S':'
asbag68
(g89
g70
NtRp3542
(dp3543
g73
(dp3544
sg82
g3529
sg75
(lp3545
g68
(g69
g70
NtRp3546
(dp3547
g73
(dp3548
g81
I5
ssg82
g3542
sg75
(lp3549
g68
(g77
g70
NtRp3550
(dp3551
g73
(dp3552
g81
I4
ssg82
Nsg75
(lp3553
g68
(g84
g70
NtRp3554
(dp3555
g73
(dp3556
sg82
g3550
sg75
(lp3557
g68
(g89
g70
NtRp3558
(dp3559
g73
(dp3560
sg82
g3554
sg75
(lp3561
g68
(g69
g70
NtRp3562
(dp3563
g73
(dp3564
g81
I4
ssg82
g3558
sg75
(lp3565
S'*'
asbasbasbasbasbasbasbag68
(g84
g70
NtRp3566
(dp3567
g73
(dp3568
sg82
g3249
sg75
(lp3569
g68
(g89
g70
NtRp3570
(dp3571
g73
(dp3572
g93
g94
ssg82
g3566
sg75
(lp3573
S'headers'
p3574
asbag68
(g89
g70
NtRp3575
(dp3576
g73
(dp3577
g100
g101
ssg82
g3566
sg75
(lp3578
S':'
asbag68
(g89
g70
NtRp3579
(dp3580
g73
(dp3581
sg82
g3566
sg75
(lp3582
g68
(g69
g70
NtRp3583
(dp3584
g73
(dp3585
g81
I5
ssg82
g3579
sg75
(lp3586
g68
(g77
g70
NtRp3587
(dp3588
g73
(dp3589
g81
I4
ssg82
Nsg75
(lp3590
g68
(g84
g70
NtRp3591
(dp3592
g73
(dp3593
sg82
g3587
sg75
(lp3594
g68
(g89
g70
NtRp3595
(dp3596
g73
(dp3597
g93
g94
ssg82
g3591
sg75
(lp3598
S'Cache-Control'
p3599
asbag68
(g89
g70
NtRp3600
(dp3601
g73
(dp3602
g100
g101
ssg82
g3591
sg75
(lp3603
S':'
asbag68
(g89
g70
NtRp3604
(dp3605
g73
(dp3606
sg82
g3591
sg75
(lp3607
g68
(g69
g70
NtRp3608
(dp3609
g73
(dp3610
g81
I4
ssg82
g3604
sg75
(lp3611
S'no-store, no-cache, must-revalidate, post-check=0, pre-check=0'
p3612
asbasbasbag68
(g84
g70
NtRp3613
(dp3614
g73
(dp3615
sg82
g3587
sg75
(lp3616
g68
(g89
g70
NtRp3617
(dp3618
g73
(dp3619
g93
g94
ssg82
g3613
sg75
(lp3620
S'Content-Type'
p3621
asbag68
(g89
g70
NtRp3622
(dp3623
g73
(dp3624
g100
g101
ssg82
g3613
sg75
(lp3625
S':'
asbag68
(g89
g70
NtRp3626
(dp3627
g73
(dp3628
sg82
g3613
sg75
(lp3629
g68
(g69
g70
NtRp3630
(dp3631
g73
(dp3632
g81
I4
ssg82
g3626
sg75
(lp3633
S'text/html; charset=utf-8'
p3634
asbasbasbag68
(g84
g70
NtRp3635
(dp3636
g73
(dp3637
sg82
g3587
sg75
(lp3638
g68
(g89
g70
NtRp3639
(dp3640
g73
(dp3641
g93
g94
ssg82
g3635
sg75
(lp3642
S'Expires'
p3643
asbag68
(g89
g70
NtRp3644
(dp3645
g73
(dp3646
g100
g101
ssg82
g3635
sg75
(lp3647
S':'
asbag68
(g89
g70
NtRp3648
(dp3649
g73
(dp3650
sg82
g3635
sg75
(lp3651
g68
(g69
g70
NtRp3652
(dp3653
g73
(dp3654
g81
I4
ssg82
g3648
sg75
(lp3655
S'Sat, 26 May 2012 09:27:25 GMT'
p3656
asbasbasbag68
(g84
g70
NtRp3657
(dp3658
g73
(dp3659
sg82
g3587
sg75
(lp3660
g68
(g89
g70
NtRp3661
(dp3662
g73
(dp3663
g93
g94
ssg82
g3657
sg75
(lp3664
S'Pragma'
p3665
asbag68
(g89
g70
NtRp3666
(dp3667
g73
(dp3668
g100
g101
ssg82
g3657
sg75
(lp3669
S':'
asbag68
(g89
g70
NtRp3670
(dp3671
g73
(dp3672
sg82
g3657
sg75
(lp3673
g68
(g69
g70
NtRp3674
(dp3675
g73
(dp3676
g81
I4
ssg82
g3670
sg75
(lp3677
S'no-cache'
p3678
asbasbasbag68
(g84
g70
NtRp3679
(dp3680
g73
(dp3681
sg82
g3587
sg75
(lp3682
g68
(g89
g70
NtRp3683
(dp3684
g73
(dp3685
g93
g94
ssg82
g3679
sg75
(lp3686
S'X-Powered-By'
p3687
asbag68
(g89
g70
NtRp3688
(dp3689
g73
(dp3690
g100
g101
ssg82
g3679
sg75
(lp3691
S':'
asbag68
(g89
g70
NtRp3692
(dp3693
g73
(dp3694
sg82
g3679
sg75
(lp3695
g68
(g69
g70
NtRp3696
(dp3697
g73
(dp3698
g81
I4
ssg82
g3692
sg75
(lp3699
S'web2py'
p3700
asbasbasbasbasbasbasbag68
(g84
g70
NtRp3701
(dp3702
g73
(dp3703
sg82
g3249
sg75
(lp3704
g68
(g89
g70
NtRp3705
(dp3706
g73
(dp3707
g93
g94
ssg82
g3701
sg75
(lp3708
S'menu'
p3709
asbag68
(g89
g70
NtRp3710
(dp3711
g73
(dp3712
g100
g101
ssg82
g3701
sg75
(lp3713
S':'
asbag68
(g89
g70
NtRp3714
(dp3715
g73
(dp3716
sg82
g3701
sg75
(lp3717
g68
(g69
g70
NtRp3718
(dp3719
g73
(dp3720
g81
I5
ssg82
g3714
sg75
(lp3721
g68
(g77
g70
NtRp3722
(dp3723
g73
(dp3724
g81
I4
ssg82
Nsg75
(lp3725
g68
(g84
g70
NtRp3726
(dp3727
g73
(dp3728
sg82
g3722
sg75
(lp3729
g68
(g89
g70
NtRp3730
(dp3731
g73
(dp3732
sg82
g3726
sg75
(lp3733
g68
(g69
g70
NtRp3734
(dp3735
g73
(dp3736
g81
I4
ssg82
g3730
sg75
(lp3737
g68
(g77
g70
NtRp3738
(dp3739
g73
(dp3740
g81
I3
ssg82
Nsg75
(lp3741
g68
(g84
g70
NtRp3742
(dp3743
g73
(dp3744
sg82
g3738
sg75
(lp3745
g68
(g89
g70
NtRp3746
(dp3747
g73
(dp3748
sg82
g3742
sg75
(lp3749
g68
(g69
g70
NtRp3750
(dp3751
g73
(dp3752
g81
I3
ssg82
g3746
sg75
(lp3753
cgluon.languages
lazyT_unpickle
p3754
(S's\n\x00\x00\x00Clear Page'
tRp3755
asbasbasbag68
(g84
g70
NtRp3756
(dp3757
g73
(dp3758
sg82
g3738
sg75
(lp3759
g68
(g89
g70
NtRp3760
(dp3761
g73
(dp3762
sg82
g3756
sg75
(lp3763
g68
(g69
g70
NtRp3764
(dp3765
g73
(dp3766
g81
I3
ssg82
g3760
sg75
(lp3767
g111
asbasbasbag68
(g84
g70
NtRp3768
(dp3769
g73
(dp3770
sg82
g3738
sg75
(lp3771
g68
(g89
g70
NtRp3772
(dp3773
g73
(dp3774
sg82
g3768
sg75
(lp3775
g68
(g69
g70
NtRp3776
(dp3777
g73
(dp3778
g81
I3
ssg82
g3772
sg75
(lp3779
S'/streamlog/default/index'
p3780
asbasbasbag68
(g84
g70
NtRp3781
(dp3782
g73
(dp3783
sg82
g3738
sg75
(lp3784
g68
(g89
g70
NtRp3785
(dp3786
g73
(dp3787
sg82
g3781
sg75
(lp3788
g68
(g69
g70
NtRp3789
(dp3790
g73
(dp3791
g81
I3
ssg82
g3785
sg75
(lp3792
g68
(g77
g70
NtRp3793
(dp3794
g73
(dp3795
g81
I2
ssg82
Nsg75
(lp3796
sbasbasbasbasbasbasbasbag68
(g84
g70
NtRp3797
(dp3798
g73
(dp3799
sg82
g3722
sg75
(lp3800
g68
(g89
g70
NtRp3801
(dp3802
g73
(dp3803
sg82
g3797
sg75
(lp3804
g68
(g69
g70
NtRp3805
(dp3806
g73
(dp3807
g81
I4
ssg82
g3801
sg75
(lp3808
g68
(g77
g70
NtRp3809
(dp3810
g73
(dp3811
g81
I3
ssg82
Nsg75
(lp3812
g68
(g84
g70
NtRp3813
(dp3814
g73
(dp3815
sg82
g3809
sg75
(lp3816
g68
(g89
g70
NtRp3817
(dp3818
g73
(dp3819
sg82
g3813
sg75
(lp3820
g68
(g69
g70
NtRp3821
(dp3822
g73
(dp3823
g81
I3
ssg82
g3817
sg75
(lp3824
g3754
(S't\x06\x00\x00\x00Manage'
tRp3825
asbasbasbag68
(g84
g70
NtRp3826
(dp3827
g73
(dp3828
sg82
g3809
sg75
(lp3829
g68
(g89
g70
NtRp3830
(dp3831
g73
(dp3832
sg82
g3826
sg75
(lp3833
g68
(g69
g70
NtRp3834
(dp3835
g73
(dp3836
g81
I3
ssg82
g3830
sg75
(lp3837
g111
asbasbasbag68
(g84
g70
NtRp3838
(dp3839
g73
(dp3840
sg82
g3809
sg75
(lp3841
g68
(g89
g70
NtRp3842
(dp3843
g73
(dp3844
sg82
g3838
sg75
(lp3845
g68
(g69
g70
NtRp3846
(dp3847
g73
(dp3848
g81
I3
ssg82
g3842
sg75
(lp3849
S'None'
p3850
asbasbasbag68
(g84
g70
NtRp3851
(dp3852
g73
(dp3853
sg82
g3809
sg75
(lp3854
g68
(g89
g70
NtRp3855
(dp3856
g73
(dp3857
sg82
g3851
sg75
(lp3858
g68
(g69
g70
NtRp3859
(dp3860
g73
(dp3861
g81
I3
ssg82
g3855
sg75
(lp3862
g68
(g77
g70
NtRp3863
(dp3864
g73
(dp3865
g81
I2
ssg82
Nsg75
(lp3866
g68
(g84
g70
NtRp3867
(dp3868
g73
(dp3869
sg82
g3863
sg75
(lp3870
g68
(g89
g70
NtRp3871
(dp3872
g73
(dp3873
sg82
g3867
sg75
(lp3874
g68
(g69
g70
NtRp3875
(dp3876
g73
(dp3877
g81
I2
ssg82
g3871
sg75
(lp3878
g68
(g77
g70
NtRp3879
(dp3880
g73
(dp3881
g81
I1
ssg82
Nsg75
(lp3882
g68
(g84
g70
NtRp3883
(dp3884
g73
(dp3885
sg82
g3879
sg75
(lp3886
g68
(g89
g70
NtRp3887
(dp3888
g73
(dp3889
sg82
g3883
sg75
(lp3890
g68
(g69
g70
NtRp3891
(dp3892
g73
(dp3893
g81
I1
ssg82
g3887
sg75
(lp3894
g3754
(S't\x04\x00\x00\x00Logs'
tRp3895
asbasbasbag68
(g84
g70
NtRp3896
(dp3897
g73
(dp3898
sg82
g3879
sg75
(lp3899
g68
(g89
g70
NtRp3900
(dp3901
g73
(dp3902
sg82
g3896
sg75
(lp3903
g68
(g69
g70
NtRp3904
(dp3905
g73
(dp3906
g81
I1
ssg82
g3900
sg75
(lp3907
I00
asbasbasbag68
(g84
g70
NtRp3908
(dp3909
g73
(dp3910
sg82
g3879
sg75
(lp3911
g68
(g89
g70
NtRp3912
(dp3913
g73
(dp3914
sg82
g3908
sg75
(lp3915
g68
(g69
g70
NtRp3916
(dp3917
g73
(dp3918
g81
I1
ssg82
g3912
sg75
(lp3919
S'/streamlog/default/log_manage'
p3920
asbasbasbag68
(g84
g70
NtRp3921
(dp3922
g73
(dp3923
sg82
g3879
sg75
(lp3924
g68
(g89
g70
NtRp3925
(dp3926
g73
(dp3927
sg82
g3921
sg75
(lp3928
g68
(g69
g70
NtRp3929
(dp3930
g73
(dp3931
g81
I1
ssg82
g3925
sg75
(lp3932
(lp3933
asbasbasbasbasbasbasbag68
(g84
g70
NtRp3934
(dp3935
g73
(dp3936
sg82
g3863
sg75
(lp3937
g68
(g89
g70
NtRp3938
(dp3939
g73
(dp3940
sg82
g3934
sg75
(lp3941
g68
(g69
g70
NtRp3942
(dp3943
g73
(dp3944
g81
I2
ssg82
g3938
sg75
(lp3945
g68
(g77
g70
NtRp3946
(dp3947
g73
(dp3948
g81
I1
ssg82
Nsg75
(lp3949
g68
(g84
g70
NtRp3950
(dp3951
g73
(dp3952
sg82
g3946
sg75
(lp3953
g68
(g89
g70
NtRp3954
(dp3955
g73
(dp3956
sg82
g3950
sg75
(lp3957
g68
(g69
g70
NtRp3958
(dp3959
g73
(dp3960
g81
I1
ssg82
g3954
sg75
(lp3961
g3754
(S't\x07\x00\x00\x00Servers'
tRp3962
asbasbasbag68
(g84
g70
NtRp3963
(dp3964
g73
(dp3965
sg82
g3946
sg75
(lp3966
g68
(g89
g70
NtRp3967
(dp3968
g73
(dp3969
sg82
g3963
sg75
(lp3970
g68
(g69
g70
NtRp3971
(dp3972
g73
(dp3973
g81
I1
ssg82
g3967
sg75
(lp3974
I00
asbasbasbag68
(g84
g70
NtRp3975
(dp3976
g73
(dp3977
sg82
g3946
sg75
(lp3978
g68
(g89
g70
NtRp3979
(dp3980
g73
(dp3981
sg82
g3975
sg75
(lp3982
g68
(g69
g70
NtRp3983
(dp3984
g73
(dp3985
g81
I1
ssg82
g3979
sg75
(lp3986
S'/streamlog/default/server_manage'
p3987
asbasbasbag68
(g84
g70
NtRp3988
(dp3989
g73
(dp3990
sg82
g3946
sg75
(lp3991
g68
(g89
g70
NtRp3992
(dp3993
g73
(dp3994
sg82
g3988
sg75
(lp3995
g68
(g69
g70
NtRp3996
(dp3997
g73
(dp3998
g81
I1
ssg82
g3992
sg75
(lp3999
(lp4000
asbasbasbasbasbasbasbag68
(g84
g70
NtRp4001
(dp4002
g73
(dp4003
sg82
g3863
sg75
(lp4004
g68
(g89
g70
NtRp4005
(dp4006
g73
(dp4007
sg82
g4001
sg75
(lp4008
g68
(g69
g70
NtRp4009
(dp4010
g73
(dp4011
g81
I2
ssg82
g4005
sg75
(lp4012
g68
(g77
g70
NtRp4013
(dp4014
g73
(dp4015
g81
I1
ssg82
Nsg75
(lp4016
g68
(g84
g70
NtRp4017
(dp4018
g73
(dp4019
sg82
g4013
sg75
(lp4020
g68
(g89
g70
NtRp4021
(dp4022
g73
(dp4023
sg82
g4017
sg75
(lp4024
g68
(g69
g70
NtRp4025
(dp4026
g73
(dp4027
g81
I1
ssg82
g4021
sg75
(lp4028
g3754
(S't\x08\x00\x00\x00Projects'
tRp4029
asbasbasbag68
(g84
g70
NtRp4030
(dp4031
g73
(dp4032
sg82
g4013
sg75
(lp4033
g68
(g89
g70
NtRp4034
(dp4035
g73
(dp4036
sg82
g4030
sg75
(lp4037
g68
(g69
g70
NtRp4038
(dp4039
g73
(dp4040
g81
I1
ssg82
g4034
sg75
(lp4041
I00
asbasbasbag68
(g84
g70
NtRp4042
(dp4043
g73
(dp4044
sg82
g4013
sg75
(lp4045
g68
(g89
g70
NtRp4046
(dp4047
g73
(dp4048
sg82
g4042
sg75
(lp4049
g68
(g69
g70
NtRp4050
(dp4051
g73
(dp4052
g81
I1
ssg82
g4046
sg75
(lp4053
S'/streamlog/default/project_manage'
p4054
asbasbasbag68
(g84
g70
NtRp4055
(dp4056
g73
(dp4057
sg82
g4013
sg75
(lp4058
g68
(g89
g70
NtRp4059
(dp4060
g73
(dp4061
sg82
g4055
sg75
(lp4062
g68
(g69
g70
NtRp4063
(dp4064
g73
(dp4065
g81
I1
ssg82
g4059
sg75
(lp4066
(lp4067
asbasbasbasbasbasbasbag68
(g84
g70
NtRp4068
(dp4069
g73
(dp4070
sg82
g3863
sg75
(lp4071
g68
(g89
g70
NtRp4072
(dp4073
g73
(dp4074
sg82
g4068
sg75
(lp4075
g68
(g69
g70
NtRp4076
(dp4077
g73
(dp4078
g81
I2
ssg82
g4072
sg75
(lp4079
g68
(g77
g70
NtRp4080
(dp4081
g73
(dp4082
g81
I1
ssg82
Nsg75
(lp4083
g68
(g84
g70
NtRp4084
(dp4085
g73
(dp4086
sg82
g4080
sg75
(lp4087
g68
(g89
g70
NtRp4088
(dp4089
g73
(dp4090
sg82
g4084
sg75
(lp4091
g68
(g69
g70
NtRp4092
(dp4093
g73
(dp4094
g81
I1
ssg82
g4088
sg75
(lp4095
g3754
(S's\t\x00\x00\x00Type Logs'
tRp4096
asbasbasbag68
(g84
g70
NtRp4097
(dp4098
g73
(dp4099
sg82
g4080
sg75
(lp4100
g68
(g89
g70
NtRp4101
(dp4102
g73
(dp4103
sg82
g4097
sg75
(lp4104
g68
(g69
g70
NtRp4105
(dp4106
g73
(dp4107
g81
I1
ssg82
g4101
sg75
(lp4108
I00
asbasbasbag68
(g84
g70
NtRp4109
(dp4110
g73
(dp4111
sg82
g4080
sg75
(lp4112
g68
(g89
g70
NtRp4113
(dp4114
g73
(dp4115
sg82
g4109
sg75
(lp4116
g68
(g69
g70
NtRp4117
(dp4118
g73
(dp4119
g81
I1
ssg82
g4113
sg75
(lp4120
S'/streamlog/default/type_log_manage'
p4121
asbasbasbag68
(g84
g70
NtRp4122
(dp4123
g73
(dp4124
sg82
g4080
sg75
(lp4125
g68
(g89
g70
NtRp4126
(dp4127
g73
(dp4128
sg82
g4122
sg75
(lp4129
g68
(g69
g70
NtRp4130
(dp4131
g73
(dp4132
g81
I1
ssg82
g4126
sg75
(lp4133
(lp4134
asbasbasbasbasbasbasbasbasbasbasbasbasbasbasbasbasbasbasbag68
(g84
g70
NtRp4135
(dp4136
g73
(dp4137
sg82
g3249
sg75
(lp4138
g68
(g89
g70
NtRp4139
(dp4140
g73
(dp4141
g93
g94
ssg82
g4135
sg75
(lp4142
S'meta'
p4143
asbag68
(g89
g70
NtRp4144
(dp4145
g73
(dp4146
g100
g101
ssg82
g4135
sg75
(lp4147
S':'
asbag68
(g89
g70
NtRp4148
(dp4149
g73
(dp4150
sg82
g4135
sg75
(lp4151
g68
(g69
g70
NtRp4152
(dp4153
g73
(dp4154
g81
I5
ssg82
g4148
sg75
(lp4155
g68
(g77
g70
NtRp4156
(dp4157
g73
(dp4158
g81
I4
ssg82
Nsg75
(lp4159
g68
(g84
g70
NtRp4160
(dp4161
g73
(dp4162
sg82
g4156
sg75
(lp4163
g68
(g89
g70
NtRp4164
(dp4165
g73
(dp4166
g93
g94
ssg82
g4160
sg75
(lp4167
S'author'
p4168
asbag68
(g89
g70
NtRp4169
(dp4170
g73
(dp4171
g100
g101
ssg82
g4160
sg75
(lp4172
S':'
asbag68
(g89
g70
NtRp4173
(dp4174
g73
(dp4175
sg82
g4160
sg75
(lp4176
g68
(g69
g70
NtRp4177
(dp4178
g73
(dp4179
g81
I4
ssg82
g4173
sg75
(lp4180
S'Jose de Soto <josedesoto@gmail.com>'
p4181
asbasbasbag68
(g84
g70
NtRp4182
(dp4183
g73
(dp4184
sg82
g4156
sg75
(lp4185
g68
(g89
g70
NtRp4186
(dp4187
g73
(dp4188
g93
g94
ssg82
g4182
sg75
(lp4189
S'copyright'
p4190
asbag68
(g89
g70
NtRp4191
(dp4192
g73
(dp4193
g100
g101
ssg82
g4182
sg75
(lp4194
S':'
asbag68
(g89
g70
NtRp4195
(dp4196
g73
(dp4197
sg82
g4182
sg75
(lp4198
g68
(g69
g70
NtRp4199
(dp4200
g73
(dp4201
g81
I4
ssg82
g4195
sg75
(lp4202
S'Copyright 2011'
p4203
asbasbasbag68
(g84
g70
NtRp4204
(dp4205
g73
(dp4206
sg82
g4156
sg75
(lp4207
g68
(g89
g70
NtRp4208
(dp4209
g73
(dp4210
g93
g94
ssg82
g4204
sg75
(lp4211
S'description'
p4212
asbag68
(g89
g70
NtRp4213
(dp4214
g73
(dp4215
g100
g101
ssg82
g4204
sg75
(lp4216
S':'
asbag68
(g89
g70
NtRp4217
(dp4218
g73
(dp4219
sg82
g4204
sg75
(lp4220
g68
(g69
g70
NtRp4221
(dp4222
g73
(dp4223
g81
I4
ssg82
g4217
sg75
(lp4224
S'a cool new app'
p4225
asbasbasbag68
(g84
g70
NtRp4226
(dp4227
g73
(dp4228
sg82
g4156
sg75
(lp4229
g68
(g89
g70
NtRp4230
(dp4231
g73
(dp4232
g93
g94
ssg82
g4226
sg75
(lp4233
S'generator'
p4234
asbag68
(g89
g70
NtRp4235
(dp4236
g73
(dp4237
g100
g101
ssg82
g4226
sg75
(lp4238
S':'
asbag68
(g89
g70
NtRp4239
(dp4240
g73
(dp4241
sg82
g4226
sg75
(lp4242
g68
(g69
g70
NtRp4243
(dp4244
g73
(dp4245
g81
I4
ssg82
g4239
sg75
(lp4246
S'Web2py Web Framework'
p4247
asbasbasbag68
(g84
g70
NtRp4248
(dp4249
g73
(dp4250
sg82
g4156
sg75
(lp4251
g68
(g89
g70
NtRp4252
(dp4253
g73
(dp4254
g93
g94
ssg82
g4248
sg75
(lp4255
S'keywords'
p4256
asbag68
(g89
g70
NtRp4257
(dp4258
g73
(dp4259
g100
g101
ssg82
g4248
sg75
(lp4260
S':'
asbag68
(g89
g70
NtRp4261
(dp4262
g73
(dp4263
sg82
g4248
sg75
(lp4264
g68
(g69
g70
NtRp4265
(dp4266
g73
(dp4267
g81
I4
ssg82
g4261
sg75
(lp4268
S'web2py, python, framework'
p4269
asbasbasbasbasbasbasbag68
(g84
g70
NtRp4270
(dp4271
g73
(dp4272
sg82
g3249
sg75
(lp4273
g68
(g89
g70
NtRp4274
(dp4275
g73
(dp4276
g93
g94
ssg82
g4270
sg75
(lp4277
S'postprocessing'
p4278
asbag68
(g89
g70
NtRp4279
(dp4280
g73
(dp4281
g100
g101
ssg82
g4270
sg75
(lp4282
S':'
asbag68
(g89
g70
NtRp4283
(dp4284
g73
(dp4285
sg82
g4270
sg75
(lp4286
g68
(g69
g70
NtRp4287
(dp4288
g73
(dp4289
g81
I5
ssg82
g4283
sg75
(lp4290
g68
(g77
g70
NtRp4291
(dp4292
g73
(dp4293
g81
I4
ssg82
Nsg75
(lp4294
sbasbasbasbag68
(g84
g70
NtRp4295
(dp4296
g73
(dp4297
sg82
g3249
sg75
(lp4298
g68
(g89
g70
NtRp4299
(dp4300
g73
(dp4301
g93
g94
ssg82
g4295
sg75
(lp4302
S'session_file'
p4303
asbag68
(g89
g70
NtRp4304
(dp4305
g73
(dp4306
g100
g101
ssg82
g4295
sg75
(lp4307
S':'
asbag68
(g89
g70
NtRp4308
(dp4309
g73
(dp4310
sg82
g4295
sg75
(lp4311
g68
(g69
g70
NtRp4312
(dp4313
g73
(dp4314
g81
I5
ssg82
g4308
sg75
(lp4315
S"<open file '/home/jose/DESARROLLO/web2py199/applications/streamlog/sessions/127.0.0.1-610b0c7d-3f6f-4500-a76a-b095fb30f7fd', mode 'rb+' at 0x220b1e0>"
p4316
asbasbasbag68
(g84
g70
NtRp4317
(dp4318
g73
(dp4319
sg82
g3249
sg75
(lp4320
g68
(g89
g70
NtRp4321
(dp4322
g73
(dp4323
g93
g94
ssg82
g4317
sg75
(lp4324
S'session_filename'
p4325
asbag68
(g89
g70
NtRp4326
(dp4327
g73
(dp4328
g100
g101
ssg82
g4317
sg75
(lp4329
S':'
asbag68
(g89
g70
NtRp4330
(dp4331
g73
(dp4332
sg82
g4317
sg75
(lp4333
g68
(g69
g70
NtRp4334
(dp4335
g73
(dp4336
g81
I5
ssg82
g4330
sg75
(lp4337
S'/home/jose/DESARROLLO/web2py199/applications/streamlog/sessions/127.0.0.1-610b0c7d-3f6f-4500-a76a-b095fb30f7fd'
p4338
asbasbasbag68
(g84
g70
NtRp4339
(dp4340
g73
(dp4341
sg82
g3249
sg75
(lp4342
g68
(g89
g70
NtRp4343
(dp4344
g73
(dp4345
g93
g94
ssg82
g4339
sg75
(lp4346
S'session_id'
p4347
asbag68
(g89
g70
NtRp4348
(dp4349
g73
(dp4350
g100
g101
ssg82
g4339
sg75
(lp4351
S':'
asbag68
(g89
g70
NtRp4352
(dp4353
g73
(dp4354
sg82
g4339
sg75
(lp4355
g68
(g69
g70
NtRp4356
(dp4357
g73
(dp4358
g81
I5
ssg82
g4352
sg75
(lp4359
S'127.0.0.1-610b0c7d-3f6f-4500-a76a-b095fb30f7fd'
p4360
asbasbasbag68
(g84
g70
NtRp4361
(dp4362
g73
(dp4363
sg82
g3249
sg75
(lp4364
g68
(g89
g70
NtRp4365
(dp4366
g73
(dp4367
g93
g94
ssg82
g4361
sg75
(lp4368
S'session_id_name'
p4369
asbag68
(g89
g70
NtRp4370
(dp4371
g73
(dp4372
g100
g101
ssg82
g4361
sg75
(lp4373
S':'
asbag68
(g89
g70
NtRp4374
(dp4375
g73
(dp4376
sg82
g4361
sg75
(lp4377
g68
(g69
g70
NtRp4378
(dp4379
g73
(dp4380
g81
I5
ssg82
g4374
sg75
(lp4381
g3306
asbasbasbag68
(g84
g70
NtRp4382
(dp4383
g73
(dp4384
sg82
g3249
sg75
(lp4385
g68
(g89
g70
NtRp4386
(dp4387
g73
(dp4388
g93
g94
ssg82
g4382
sg75
(lp4389
S'session_locked'
p4390
asbag68
(g89
g70
NtRp4391
(dp4392
g73
(dp4393
g100
g101
ssg82
g4382
sg75
(lp4394
S':'
asbag68
(g89
g70
NtRp4395
(dp4396
g73
(dp4397
sg82
g4382
sg75
(lp4398
g68
(g69
g70
NtRp4399
(dp4400
g73
(dp4401
g81
I5
ssg82
g4395
sg75
(lp4402
g1624
asbasbasbag68
(g84
g70
NtRp4403
(dp4404
g73
(dp4405
sg82
g3249
sg75
(lp4406
g68
(g89
g70
NtRp4407
(dp4408
g73
(dp4409
g93
g94
ssg82
g4403
sg75
(lp4410
S'session_new'
p4411
asbag68
(g89
g70
NtRp4412
(dp4413
g73
(dp4414
g100
g101
ssg82
g4403
sg75
(lp4415
S':'
asbag68
(g89
g70
NtRp4416
(dp4417
g73
(dp4418
sg82
g4403
sg75
(lp4419
g68
(g69
g70
NtRp4420
(dp4421
g73
(dp4422
g81
I5
ssg82
g4416
sg75
(lp4423
g111
asbasbasbag68
(g84
g70
NtRp4424
(dp4425
g73
(dp4426
sg82
g3249
sg75
(lp4427
g68
(g89
g70
NtRp4428
(dp4429
g73
(dp4430
g93
g94
ssg82
g4424
sg75
(lp4431
S'status'
p4432
asbag68
(g89
g70
NtRp4433
(dp4434
g73
(dp4435
g100
g101
ssg82
g4424
sg75
(lp4436
S':'
asbag68
(g89
g70
NtRp4437
(dp4438
g73
(dp4439
sg82
g4424
sg75
(lp4440
g68
(g69
g70
NtRp4441
(dp4442
g73
(dp4443
g81
I5
ssg82
g4437
sg75
(lp4444
S'200'
p4445
asbasbasbag68
(g84
g70
NtRp4446
(dp4447
g73
(dp4448
sg82
g3249
sg75
(lp4449
g68
(g89
g70
NtRp4450
(dp4451
g73
(dp4452
g93
g94
ssg82
g4446
sg75
(lp4453
S'subtitle'
p4454
asbag68
(g89
g70
NtRp4455
(dp4456
g73
(dp4457
g100
g101
ssg82
g4446
sg75
(lp4458
S':'
asbag68
(g89
g70
NtRp4459
(dp4460
g73
(dp4461
sg82
g4446
sg75
(lp4462
g68
(g69
g70
NtRp4463
(dp4464
g73
(dp4465
g81
I5
ssg82
g4459
sg75
(lp4466
g3754
(S's\x12\x00\x00\x00Stream Log Client!'
tRp4467
asbasbasbag68
(g84
g70
NtRp4468
(dp4469
g73
(dp4470
sg82
g3249
sg75
(lp4471
g68
(g89
g70
NtRp4472
(dp4473
g73
(dp4474
g93
g94
ssg82
g4468
sg75
(lp4475
S'title'
p4476
asbag68
(g89
g70
NtRp4477
(dp4478
g73
(dp4479
g100
g101
ssg82
g4468
sg75
(lp4480
S':'
asbag68
(g89
g70
NtRp4481
(dp4482
g73
(dp4483
sg82
g4468
sg75
(lp4484
g68
(g69
g70
NtRp4485
(dp4486
g73
(dp4487
g81
I5
ssg82
g4481
sg75
(lp4488
g133
asbasbasbag68
(g84
g70
NtRp4489
(dp4490
g73
(dp4491
sg82
g3249
sg75
(lp4492
g68
(g89
g70
NtRp4493
(dp4494
g73
(dp4495
g93
g94
ssg82
g4489
sg75
(lp4496
g2268
asbag68
(g89
g70
NtRp4497
(dp4498
g73
(dp4499
g100
g101
ssg82
g4489
sg75
(lp4500
S':'
asbag68
(g89
g70
NtRp4501
(dp4502
g73
(dp4503
sg82
g4489
sg75
(lp4504
g68
(g69
g70
NtRp4505
(dp4506
g73
(dp4507
g81
I5
ssg82
g4501
sg75
(lp4508
g2281
asbasbasbag68
(g84
g70
NtRp4509
(dp4510
g73
(dp4511
sg82
g3249
sg75
(lp4512
g68
(g89
g70
NtRp4513
(dp4514
g73
(dp4515
g93
g94
ssg82
g4509
sg75
(lp4516
S'view'
p4517
asbag68
(g89
g70
NtRp4518
(dp4519
g73
(dp4520
g100
g101
ssg82
g4509
sg75
(lp4521
S':'
asbag68
(g89
g70
NtRp4522
(dp4523
g73
(dp4524
sg82
g4509
sg75
(lp4525
g68
(g69
g70
NtRp4526
(dp4527
g73
(dp4528
g81
I5
ssg82
g4522
sg75
(lp4529
S'default/index.html'
p4530
asbasbasbasbasbsS'locals'
p4531
(dp4532
g3
S"'/home/jose/DESARROLLO/web2py199/applications/streamlog/controllers/default.py'"
p4533
sg5
S"'# -*- coding: utf-8 -*-\\n# this file is released ...=crud())\\n\\nresponse._vars=response._caller(index)\\n'"
p4534
sssS'traceback'
p4535
S'Traceback (most recent call last):\n  File "/home/jose/DESARROLLO/web2py199/gluon/restricted.py", line 193, in restricted\n    ccode = compile2(code,layer)\n  File "/home/jose/DESARROLLO/web2py199/gluon/restricted.py", line 179, in compile2\n    return compile(code.rstrip().replace(\'\\r\\n\',\'\\n\')+\'\\n\', layer, \'exec\')\n  File "/home/jose/DESARROLLO/web2py199/applications/streamlog/controllers/default.py", line 19\n    form=SQLFORM.grid(db.t_log, selectable=True csv=False,create=False, deletable=False, editable=False)\n                                                  ^\nSyntaxError: invalid syntax\n'
p4536
s.