(dp1
S'output'
p2
S''
sS'layer'
p3
S'/home/jose/DESARROLLO/web2py199/applications/streamlog/controllers/default.py'
p4
sS'code'
p5
S'# -*- coding: utf-8 -*-\n# this file is released under public domain and you can use without limitations\n\n#########################################################################\n## This is a samples controller\n## - index is the default action of any application\n## - user is required for authentication and authorization\n## - download is for downloading files uploaded in the db (does streaming)\n## - call exposes all registered services (none by default)\n#########################################################################\n\n\n\ndef index():\n    """\n    example action using the internationalization operator T and flash\n    rendered by views/default/index.html or views/generic.html\n    """\n    links = [lambda row:  INPUT(_type=\'button\',_value=\'START STREAM\', _onclick=\'createStream(\'+str(row.id)+\')\')]\n    form=SQLFORM.grid(db.t_log, selectable=False, csv=False,create=False, deletable=False, editable=False, links=links, user_signature=False)\n    return dict(message=T(\'Hello World2\'), form=form)\n\n@service.json\ndef getConnectionData():\n    \n    id_log=request.args[0]\n    ip=\'\'\n    port=\'\'\n    name_log=\'\'\n    \n    data_connection=db((db.t_log.id==id_log)&(db.t_log.server==db.t_server.id)).select(db.t_log.name,db.t_server.IP,db.t_server.port)\n  \n    for row in data_connection:\n        ip=row.IP\n        port=row.port\n        name_log=row.name\n        \n    print ip\n    print port\n    print name_log\n    \n    return response.json({"connection": [{\'name_log\': \'xhtml\',\'IP\': \'127.0.0.1\',\'port\': \'8888\'}]})\n\ndef choose_log():\n    """\n    example action using the internationalization operator T and flash\n    rendered by views/default/index.html or views/generic.html\n    """\n    \n    \n    return dict(message="log")\n\n\ndef getTypeTable():\n    """\n    example action using the internationalization operator T and flash\n    rendered by views/default/index.html or views/generic.html\n    """\n    table=\'\'\n    id_log=request.args[0]\n    type_table=db((db.t_log.id==id_log)&(db.t_log.type_log==db.t_type_log.id)).select(db.t_type_log.html_table)\n    for row in type_table:\n        table=row.html_table\n        \n    \'\'\'\n    table=\'<table cellpadding="0" cellspacing="0" border="0" class="display" id="tablelog"> \\\n    <thead> \\\n        <tr> \\\n            <th>IP</th> \\\n            <th>hyphen</th> \\\n            <th>userid</th> \\\n            <th>Time Request</th> \\\n        <th>Request Time</th> \\\n        <th>Status Code</th> \\\n        <th>Size Object</th> \\\n        </tr>\\\n    </thead> \\\n    <tfoot> \\\n        <tr> \\\n            <th>IP</th> \\\n            <th>hyphen</th> \\\n            <th>userid</th>\\\n            <th>Time Request</th> \\\n        <th>Request Time</th> \\\n        <th>Status Code</th> \\\n        <th>Size Object</th> \\\n        </tr>  \\\n    </tfoot>  \\\n        <tbody> \\\n        </tbody> \\\n    </table>\'\n    \'\'\'\n    \n    return table\n\n\ndef user():\n    """\n    exposes:\n    http://..../[app]/default/user/login\n    http://..../[app]/default/user/logout\n    http://..../[app]/default/user/register\n    http://..../[app]/default/user/profile\n    http://..../[app]/default/user/retrieve_password\n    http://..../[app]/default/user/change_password\n    use @auth.requires_login()\n        @auth.requires_membership(\'group name\')\n        @auth.requires_permission(\'read\',\'table name\',record_id)\n    to decorate functions that need access control\n    """\n    return dict(form=auth())\n\ndef error():\n    return dict()\n\n\ndef project_manage():\n    \n    form = SQLFORM.smartgrid(db.t_project)\n    return locals()\n\n\n\ndef server_manage():\n\n    form=SQLFORM.grid(db.t_server)\n    return locals()\n\ndef log_manage():\n \n    #form = SQLFORM.smartgrid(db.t_log,constraints=dict(t_log=query), selectable=True,searchable=False, csv=False,showbuttontext=True,onupdate=auth.archive)\n    #form = SQLFORM.smartgrid(db.t_log)\n    form=SQLFORM.grid(db.t_log)\n    return locals()\n\ndef type_log_manage():\n\n    form=SQLFORM.grid(db.t_type_log)\n    return locals()\n\ndef download():\n    """\n    allows downloading of uploaded files\n    http://..../[app]/default/download/[filename]\n    """\n    return response.download(request,db)\n\n\ndef call():\n    """\n    exposes services. for example:\n    http://..../[app]/default/call/jsonrpc\n    decorate with @services.jsonrpc the functions to expose\n    supports xml, json, xmlrpc, jsonrpc, amfrpc, rss, csv\n    """\n    return service()\n\n\n@auth.requires_signature()\ndef data():\n    """\n    http://..../[app]/default/data/tables\n    http://..../[app]/default/data/create/[table]\n    http://..../[app]/default/data/read/[table]/[id]\n    http://..../[app]/default/data/update/[table]/[id]\n    http://..../[app]/default/data/delete/[table]/[id]\n    http://..../[app]/default/data/select/[table]\n    http://..../[app]/default/data/search/[table]\n    but URLs bust be signed, i.e. linked with\n      A(\'table\',_href=URL(\'data/tables\',user_signature=True))\n    or with the signed load operator\n      LOAD(\'default\',\'data.load\',args=\'tables\',ajax=True,user_signature=True)\n    """\n    return dict(form=crud())\n\nresponse._vars=response._caller(call)\n'
p6
sS'snapshot'
p7
(dp8
S'exception'
p9
(dp10
S'__hash__'
p11
S"<method-wrapper '__hash__' of exceptions.ValueError object>"
p12
sS'__setattr__'
p13
S"<method-wrapper '__setattr__' of exceptions.ValueError object>"
p14
sS'__reduce_ex__'
p15
S'<built-in method __reduce_ex__ of exceptions.ValueError object>'
p16
sS'__getslice__'
p17
S"<method-wrapper '__getslice__' of exceptions.ValueError object>"
p18
sS'__getitem__'
p19
S"<method-wrapper '__getitem__' of exceptions.ValueError object>"
p20
sS'__setstate__'
p21
S'<built-in method __setstate__ of exceptions.ValueError object>'
p22
sS'args'
p23
S'("invalid literal for int() with base 10: \'json\'",)'
p24
sS'__reduce__'
p25
S'<built-in method __reduce__ of exceptions.ValueError object>'
p26
sS'__str__'
p27
S"<method-wrapper '__str__' of exceptions.ValueError object>"
p28
sS'__format__'
p29
S'<built-in method __format__ of exceptions.ValueError object>'
p30
sS'__getattribute__'
p31
S"<method-wrapper '__getattribute__' of exceptions.ValueError object>"
p32
sS'__class__'
p33
S"<type 'exceptions.ValueError'>"
p34
sS'__unicode__'
p35
S'<built-in method __unicode__ of exceptions.ValueError object>'
p36
sS'__delattr__'
p37
S"<method-wrapper '__delattr__' of exceptions.ValueError object>"
p38
sS'__subclasshook__'
p39
S'<built-in method __subclasshook__ of type object>'
p40
sS'__repr__'
p41
S"<method-wrapper '__repr__' of exceptions.ValueError object>"
p42
sS'__dict__'
p43
S'{}'
p44
sS'__sizeof__'
p45
S'<built-in method __sizeof__ of exceptions.ValueError object>'
p46
sS'__doc__'
p47
S"'Inappropriate argument value (of correct type).'"
p48
sS'__init__'
p49
S"<method-wrapper '__init__' of exceptions.ValueError object>"
p50
sS'__new__'
p51
S'<built-in method __new__ of type object>'
p52
ssS'evalue'
p53
S"invalid literal for int() with base 10: 'json'"
p54
sS'request'
p55
ccopy_reg
_reconstructor
p56
(cgluon.html
BEAUTIFY
p57
c__builtin__
object
p58
NtRp59
(dp60
S'attributes'
p61
(dp62
sS'components'
p63
(lp64
g56
(cgluon.html
TABLE
p65
g58
NtRp66
(dp67
g61
(dp68
S'level'
p69
I5
ssS'parent'
p70
Nsg63
(lp71
g56
(cgluon.html
TR
p72
g58
NtRp73
(dp74
g61
(dp75
sg70
g66
sg63
(lp76
g56
(cgluon.html
TD
p77
g58
NtRp78
(dp79
g61
(dp80
S'_style'
p81
S'font-weight:bold;'
p82
ssg70
g73
sg63
(lp83
S'ajax'
p84
asbag56
(g77
g58
NtRp85
(dp86
g61
(dp87
S'_valign'
p88
S'top'
p89
ssg70
g73
sg63
(lp90
S':'
asbag56
(g77
g58
NtRp91
(dp92
g61
(dp93
sg70
g73
sg63
(lp94
g56
(g57
g58
NtRp95
(dp96
g61
(dp97
g69
I5
ssg70
g91
sg63
(lp98
S'False'
p99
asbasbasbag56
(g72
g58
NtRp100
(dp101
g61
(dp102
sg70
g66
sg63
(lp103
g56
(g77
g58
NtRp104
(dp105
g61
(dp106
g81
g82
ssg70
g100
sg63
(lp107
S'application'
p108
asbag56
(g77
g58
NtRp109
(dp110
g61
(dp111
g88
g89
ssg70
g100
sg63
(lp112
S':'
asbag56
(g77
g58
NtRp113
(dp114
g61
(dp115
sg70
g100
sg63
(lp116
g56
(g57
g58
NtRp117
(dp118
g61
(dp119
g69
I5
ssg70
g113
sg63
(lp120
S'streamlog'
p121
asbasbasbag56
(g72
g58
NtRp122
(dp123
g61
(dp124
sg70
g66
sg63
(lp125
g56
(g77
g58
NtRp126
(dp127
g61
(dp128
g81
g82
ssg70
g122
sg63
(lp129
g23
asbag56
(g77
g58
NtRp130
(dp131
g61
(dp132
g88
g89
ssg70
g122
sg63
(lp133
S':'
asbag56
(g77
g58
NtRp134
(dp135
g61
(dp136
sg70
g122
sg63
(lp137
g56
(g57
g58
NtRp138
(dp139
g61
(dp140
g69
I5
ssg70
g134
sg63
(lp141
g56
(g65
g58
NtRp142
(dp143
g61
(dp144
g69
I4
ssg70
Nsg63
(lp145
g56
(g72
g58
NtRp146
(dp147
g61
(dp148
sg70
g142
sg63
(lp149
g56
(g77
g58
NtRp150
(dp151
g61
(dp152
sg70
g146
sg63
(lp153
g56
(g57
g58
NtRp154
(dp155
g61
(dp156
g69
I4
ssg70
g150
sg63
(lp157
S'json'
p158
asbasbasbag56
(g72
g58
NtRp159
(dp160
g61
(dp161
sg70
g142
sg63
(lp162
g56
(g77
g58
NtRp163
(dp164
g61
(dp165
sg70
g159
sg63
(lp166
g56
(g57
g58
NtRp167
(dp168
g61
(dp169
g69
I4
ssg70
g163
sg63
(lp170
S'getConnectionData'
p171
asbasbasbag56
(g72
g58
NtRp172
(dp173
g61
(dp174
sg70
g142
sg63
(lp175
g56
(g77
g58
NtRp176
(dp177
g61
(dp178
sg70
g172
sg63
(lp179
g56
(g57
g58
NtRp180
(dp181
g61
(dp182
g69
I4
ssg70
g176
sg63
(lp183
S'2'
asbasbasbasbasbasbasbag56
(g72
g58
NtRp184
(dp185
g61
(dp186
sg70
g66
sg63
(lp187
g56
(g77
g58
NtRp188
(dp189
g61
(dp190
g81
g82
ssg70
g184
sg63
(lp191
S'body'
p192
asbag56
(g77
g58
NtRp193
(dp194
g61
(dp195
g88
g89
ssg70
g184
sg63
(lp196
S':'
asbag56
(g77
g58
NtRp197
(dp198
g61
(dp199
sg70
g184
sg63
(lp200
g56
(g57
g58
NtRp201
(dp202
g61
(dp203
g69
I5
ssg70
g197
sg63
(lp204
S'<cStringIO.StringO object at 0x285f3b0>'
p205
asbasbasbag56
(g72
g58
NtRp206
(dp207
g61
(dp208
sg70
g66
sg63
(lp209
g56
(g77
g58
NtRp210
(dp211
g61
(dp212
g81
g82
ssg70
g206
sg63
(lp213
S'client'
p214
asbag56
(g77
g58
NtRp215
(dp216
g61
(dp217
g88
g89
ssg70
g206
sg63
(lp218
S':'
asbag56
(g77
g58
NtRp219
(dp220
g61
(dp221
sg70
g206
sg63
(lp222
g56
(g57
g58
NtRp223
(dp224
g61
(dp225
g69
I5
ssg70
g219
sg63
(lp226
S'127.0.0.1'
p227
asbasbasbag56
(g72
g58
NtRp228
(dp229
g61
(dp230
sg70
g66
sg63
(lp231
g56
(g77
g58
NtRp232
(dp233
g61
(dp234
g81
g82
ssg70
g228
sg63
(lp235
S'controller'
p236
asbag56
(g77
g58
NtRp237
(dp238
g61
(dp239
g88
g89
ssg70
g228
sg63
(lp240
S':'
asbag56
(g77
g58
NtRp241
(dp242
g61
(dp243
sg70
g228
sg63
(lp244
g56
(g57
g58
NtRp245
(dp246
g61
(dp247
g69
I5
ssg70
g241
sg63
(lp248
S'default'
p249
asbasbasbag56
(g72
g58
NtRp250
(dp251
g61
(dp252
sg70
g66
sg63
(lp253
g56
(g77
g58
NtRp254
(dp255
g61
(dp256
g81
g82
ssg70
g250
sg63
(lp257
S'cookies'
p258
asbag56
(g77
g58
NtRp259
(dp260
g61
(dp261
g88
g89
ssg70
g250
sg63
(lp262
S':'
asbag56
(g77
g58
NtRp263
(dp264
g61
(dp265
sg70
g250
sg63
(lp266
g56
(g57
g58
NtRp267
(dp268
g61
(dp269
g69
I5
ssg70
g263
sg63
(lp270
g56
(g65
g58
NtRp271
(dp272
g61
(dp273
g69
I4
ssg70
Nsg63
(lp274
g56
(g72
g58
NtRp275
(dp276
g61
(dp277
sg70
g271
sg63
(lp278
g56
(g77
g58
NtRp279
(dp280
g61
(dp281
g81
g82
ssg70
g275
sg63
(lp282
S'session_id_admin'
p283
asbag56
(g77
g58
NtRp284
(dp285
g61
(dp286
g88
g89
ssg70
g275
sg63
(lp287
S':'
asbag56
(g77
g58
NtRp288
(dp289
g61
(dp290
sg70
g275
sg63
(lp291
g56
(g57
g58
NtRp292
(dp293
g61
(dp294
g69
I4
ssg70
g288
sg63
(lp295
g56
(g65
g58
NtRp296
(dp297
g61
(dp298
g69
I3
ssg70
Nsg63
(lp299
g56
(g72
g58
NtRp300
(dp301
g61
(dp302
sg70
g296
sg63
(lp303
g56
(g77
g58
NtRp304
(dp305
g61
(dp306
g81
g82
ssg70
g300
sg63
(lp307
S'comment'
p308
asbag56
(g77
g58
NtRp309
(dp310
g61
(dp311
g88
g89
ssg70
g300
sg63
(lp312
S':'
asbag56
(g77
g58
NtRp313
(dp314
g61
(dp315
sg70
g300
sg63
(lp316
g56
(g57
g58
NtRp317
(dp318
g61
(dp319
g69
I3
ssg70
g313
sg63
(lp320
S''
asbasbasbag56
(g72
g58
NtRp321
(dp322
g61
(dp323
sg70
g296
sg63
(lp324
g56
(g77
g58
NtRp325
(dp326
g61
(dp327
g81
g82
ssg70
g321
sg63
(lp328
S'domain'
p329
asbag56
(g77
g58
NtRp330
(dp331
g61
(dp332
g88
g89
ssg70
g321
sg63
(lp333
S':'
asbag56
(g77
g58
NtRp334
(dp335
g61
(dp336
sg70
g321
sg63
(lp337
g56
(g57
g58
NtRp338
(dp339
g61
(dp340
g69
I3
ssg70
g334
sg63
(lp341
S''
asbasbasbag56
(g72
g58
NtRp342
(dp343
g61
(dp344
sg70
g296
sg63
(lp345
g56
(g77
g58
NtRp346
(dp347
g61
(dp348
g81
g82
ssg70
g342
sg63
(lp349
S'expires'
p350
asbag56
(g77
g58
NtRp351
(dp352
g61
(dp353
g88
g89
ssg70
g342
sg63
(lp354
S':'
asbag56
(g77
g58
NtRp355
(dp356
g61
(dp357
sg70
g342
sg63
(lp358
g56
(g57
g58
NtRp359
(dp360
g61
(dp361
g69
I3
ssg70
g355
sg63
(lp362
S''
asbasbasbag56
(g72
g58
NtRp363
(dp364
g61
(dp365
sg70
g296
sg63
(lp366
g56
(g77
g58
NtRp367
(dp368
g61
(dp369
g81
g82
ssg70
g363
sg63
(lp370
S'httponly'
p371
asbag56
(g77
g58
NtRp372
(dp373
g61
(dp374
g88
g89
ssg70
g363
sg63
(lp375
S':'
asbag56
(g77
g58
NtRp376
(dp377
g61
(dp378
sg70
g363
sg63
(lp379
g56
(g57
g58
NtRp380
(dp381
g61
(dp382
g69
I3
ssg70
g376
sg63
(lp383
S''
asbasbasbag56
(g72
g58
NtRp384
(dp385
g61
(dp386
sg70
g296
sg63
(lp387
g56
(g77
g58
NtRp388
(dp389
g61
(dp390
g81
g82
ssg70
g384
sg63
(lp391
S'max-age'
p392
asbag56
(g77
g58
NtRp393
(dp394
g61
(dp395
g88
g89
ssg70
g384
sg63
(lp396
S':'
asbag56
(g77
g58
NtRp397
(dp398
g61
(dp399
sg70
g384
sg63
(lp400
g56
(g57
g58
NtRp401
(dp402
g61
(dp403
g69
I3
ssg70
g397
sg63
(lp404
S''
asbasbasbag56
(g72
g58
NtRp405
(dp406
g61
(dp407
sg70
g296
sg63
(lp408
g56
(g77
g58
NtRp409
(dp410
g61
(dp411
g81
g82
ssg70
g405
sg63
(lp412
S'path'
p413
asbag56
(g77
g58
NtRp414
(dp415
g61
(dp416
g88
g89
ssg70
g405
sg63
(lp417
S':'
asbag56
(g77
g58
NtRp418
(dp419
g61
(dp420
sg70
g405
sg63
(lp421
g56
(g57
g58
NtRp422
(dp423
g61
(dp424
g69
I3
ssg70
g418
sg63
(lp425
S''
asbasbasbag56
(g72
g58
NtRp426
(dp427
g61
(dp428
sg70
g296
sg63
(lp429
g56
(g77
g58
NtRp430
(dp431
g61
(dp432
g81
g82
ssg70
g426
sg63
(lp433
S'secure'
p434
asbag56
(g77
g58
NtRp435
(dp436
g61
(dp437
g88
g89
ssg70
g426
sg63
(lp438
S':'
asbag56
(g77
g58
NtRp439
(dp440
g61
(dp441
sg70
g426
sg63
(lp442
g56
(g57
g58
NtRp443
(dp444
g61
(dp445
g69
I3
ssg70
g439
sg63
(lp446
S''
asbasbasbag56
(g72
g58
NtRp447
(dp448
g61
(dp449
sg70
g296
sg63
(lp450
g56
(g77
g58
NtRp451
(dp452
g61
(dp453
g81
g82
ssg70
g447
sg63
(lp454
S'version'
p455
asbag56
(g77
g58
NtRp456
(dp457
g61
(dp458
g88
g89
ssg70
g447
sg63
(lp459
S':'
asbag56
(g77
g58
NtRp460
(dp461
g61
(dp462
sg70
g447
sg63
(lp463
g56
(g57
g58
NtRp464
(dp465
g61
(dp466
g69
I3
ssg70
g460
sg63
(lp467
S''
asbasbasbasbasbasbasbag56
(g72
g58
NtRp468
(dp469
g61
(dp470
sg70
g271
sg63
(lp471
g56
(g77
g58
NtRp472
(dp473
g61
(dp474
g81
g82
ssg70
g468
sg63
(lp475
S'session_id_streamlog'
p476
asbag56
(g77
g58
NtRp477
(dp478
g61
(dp479
g88
g89
ssg70
g468
sg63
(lp480
S':'
asbag56
(g77
g58
NtRp481
(dp482
g61
(dp483
sg70
g468
sg63
(lp484
g56
(g57
g58
NtRp485
(dp486
g61
(dp487
g69
I4
ssg70
g481
sg63
(lp488
g56
(g65
g58
NtRp489
(dp490
g61
(dp491
g69
I3
ssg70
Nsg63
(lp492
g56
(g72
g58
NtRp493
(dp494
g61
(dp495
sg70
g489
sg63
(lp496
g56
(g77
g58
NtRp497
(dp498
g61
(dp499
g81
g82
ssg70
g493
sg63
(lp500
g308
asbag56
(g77
g58
NtRp501
(dp502
g61
(dp503
g88
g89
ssg70
g493
sg63
(lp504
S':'
asbag56
(g77
g58
NtRp505
(dp506
g61
(dp507
sg70
g493
sg63
(lp508
g56
(g57
g58
NtRp509
(dp510
g61
(dp511
g69
I3
ssg70
g505
sg63
(lp512
S''
asbasbasbag56
(g72
g58
NtRp513
(dp514
g61
(dp515
sg70
g489
sg63
(lp516
g56
(g77
g58
NtRp517
(dp518
g61
(dp519
g81
g82
ssg70
g513
sg63
(lp520
g329
asbag56
(g77
g58
NtRp521
(dp522
g61
(dp523
g88
g89
ssg70
g513
sg63
(lp524
S':'
asbag56
(g77
g58
NtRp525
(dp526
g61
(dp527
sg70
g513
sg63
(lp528
g56
(g57
g58
NtRp529
(dp530
g61
(dp531
g69
I3
ssg70
g525
sg63
(lp532
S''
asbasbasbag56
(g72
g58
NtRp533
(dp534
g61
(dp535
sg70
g489
sg63
(lp536
g56
(g77
g58
NtRp537
(dp538
g61
(dp539
g81
g82
ssg70
g533
sg63
(lp540
g350
asbag56
(g77
g58
NtRp541
(dp542
g61
(dp543
g88
g89
ssg70
g533
sg63
(lp544
S':'
asbag56
(g77
g58
NtRp545
(dp546
g61
(dp547
sg70
g533
sg63
(lp548
g56
(g57
g58
NtRp549
(dp550
g61
(dp551
g69
I3
ssg70
g545
sg63
(lp552
S''
asbasbasbag56
(g72
g58
NtRp553
(dp554
g61
(dp555
sg70
g489
sg63
(lp556
g56
(g77
g58
NtRp557
(dp558
g61
(dp559
g81
g82
ssg70
g553
sg63
(lp560
g371
asbag56
(g77
g58
NtRp561
(dp562
g61
(dp563
g88
g89
ssg70
g553
sg63
(lp564
S':'
asbag56
(g77
g58
NtRp565
(dp566
g61
(dp567
sg70
g553
sg63
(lp568
g56
(g57
g58
NtRp569
(dp570
g61
(dp571
g69
I3
ssg70
g565
sg63
(lp572
S''
asbasbasbag56
(g72
g58
NtRp573
(dp574
g61
(dp575
sg70
g489
sg63
(lp576
g56
(g77
g58
NtRp577
(dp578
g61
(dp579
g81
g82
ssg70
g573
sg63
(lp580
g392
asbag56
(g77
g58
NtRp581
(dp582
g61
(dp583
g88
g89
ssg70
g573
sg63
(lp584
S':'
asbag56
(g77
g58
NtRp585
(dp586
g61
(dp587
sg70
g573
sg63
(lp588
g56
(g57
g58
NtRp589
(dp590
g61
(dp591
g69
I3
ssg70
g585
sg63
(lp592
S''
asbasbasbag56
(g72
g58
NtRp593
(dp594
g61
(dp595
sg70
g489
sg63
(lp596
g56
(g77
g58
NtRp597
(dp598
g61
(dp599
g81
g82
ssg70
g593
sg63
(lp600
g413
asbag56
(g77
g58
NtRp601
(dp602
g61
(dp603
g88
g89
ssg70
g593
sg63
(lp604
S':'
asbag56
(g77
g58
NtRp605
(dp606
g61
(dp607
sg70
g593
sg63
(lp608
g56
(g57
g58
NtRp609
(dp610
g61
(dp611
g69
I3
ssg70
g605
sg63
(lp612
S''
asbasbasbag56
(g72
g58
NtRp613
(dp614
g61
(dp615
sg70
g489
sg63
(lp616
g56
(g77
g58
NtRp617
(dp618
g61
(dp619
g81
g82
ssg70
g613
sg63
(lp620
g434
asbag56
(g77
g58
NtRp621
(dp622
g61
(dp623
g88
g89
ssg70
g613
sg63
(lp624
S':'
asbag56
(g77
g58
NtRp625
(dp626
g61
(dp627
sg70
g613
sg63
(lp628
g56
(g57
g58
NtRp629
(dp630
g61
(dp631
g69
I3
ssg70
g625
sg63
(lp632
S''
asbasbasbag56
(g72
g58
NtRp633
(dp634
g61
(dp635
sg70
g489
sg63
(lp636
g56
(g77
g58
NtRp637
(dp638
g61
(dp639
g81
g82
ssg70
g633
sg63
(lp640
g455
asbag56
(g77
g58
NtRp641
(dp642
g61
(dp643
g88
g89
ssg70
g633
sg63
(lp644
S':'
asbag56
(g77
g58
NtRp645
(dp646
g61
(dp647
sg70
g633
sg63
(lp648
g56
(g57
g58
NtRp649
(dp650
g61
(dp651
g69
I3
ssg70
g645
sg63
(lp652
S''
asbasbasbasbasbasbasbag56
(g72
g58
NtRp653
(dp654
g61
(dp655
sg70
g271
sg63
(lp656
g56
(g77
g58
NtRp657
(dp658
g61
(dp659
g81
g82
ssg70
g653
sg63
(lp660
S'session_id_test3'
p661
asbag56
(g77
g58
NtRp662
(dp663
g61
(dp664
g88
g89
ssg70
g653
sg63
(lp665
S':'
asbag56
(g77
g58
NtRp666
(dp667
g61
(dp668
sg70
g653
sg63
(lp669
g56
(g57
g58
NtRp670
(dp671
g61
(dp672
g69
I4
ssg70
g666
sg63
(lp673
g56
(g65
g58
NtRp674
(dp675
g61
(dp676
g69
I3
ssg70
Nsg63
(lp677
g56
(g72
g58
NtRp678
(dp679
g61
(dp680
sg70
g674
sg63
(lp681
g56
(g77
g58
NtRp682
(dp683
g61
(dp684
g81
g82
ssg70
g678
sg63
(lp685
g308
asbag56
(g77
g58
NtRp686
(dp687
g61
(dp688
g88
g89
ssg70
g678
sg63
(lp689
S':'
asbag56
(g77
g58
NtRp690
(dp691
g61
(dp692
sg70
g678
sg63
(lp693
g56
(g57
g58
NtRp694
(dp695
g61
(dp696
g69
I3
ssg70
g690
sg63
(lp697
S''
asbasbasbag56
(g72
g58
NtRp698
(dp699
g61
(dp700
sg70
g674
sg63
(lp701
g56
(g77
g58
NtRp702
(dp703
g61
(dp704
g81
g82
ssg70
g698
sg63
(lp705
g329
asbag56
(g77
g58
NtRp706
(dp707
g61
(dp708
g88
g89
ssg70
g698
sg63
(lp709
S':'
asbag56
(g77
g58
NtRp710
(dp711
g61
(dp712
sg70
g698
sg63
(lp713
g56
(g57
g58
NtRp714
(dp715
g61
(dp716
g69
I3
ssg70
g710
sg63
(lp717
S''
asbasbasbag56
(g72
g58
NtRp718
(dp719
g61
(dp720
sg70
g674
sg63
(lp721
g56
(g77
g58
NtRp722
(dp723
g61
(dp724
g81
g82
ssg70
g718
sg63
(lp725
g350
asbag56
(g77
g58
NtRp726
(dp727
g61
(dp728
g88
g89
ssg70
g718
sg63
(lp729
S':'
asbag56
(g77
g58
NtRp730
(dp731
g61
(dp732
sg70
g718
sg63
(lp733
g56
(g57
g58
NtRp734
(dp735
g61
(dp736
g69
I3
ssg70
g730
sg63
(lp737
S''
asbasbasbag56
(g72
g58
NtRp738
(dp739
g61
(dp740
sg70
g674
sg63
(lp741
g56
(g77
g58
NtRp742
(dp743
g61
(dp744
g81
g82
ssg70
g738
sg63
(lp745
g371
asbag56
(g77
g58
NtRp746
(dp747
g61
(dp748
g88
g89
ssg70
g738
sg63
(lp749
S':'
asbag56
(g77
g58
NtRp750
(dp751
g61
(dp752
sg70
g738
sg63
(lp753
g56
(g57
g58
NtRp754
(dp755
g61
(dp756
g69
I3
ssg70
g750
sg63
(lp757
S''
asbasbasbag56
(g72
g58
NtRp758
(dp759
g61
(dp760
sg70
g674
sg63
(lp761
g56
(g77
g58
NtRp762
(dp763
g61
(dp764
g81
g82
ssg70
g758
sg63
(lp765
g392
asbag56
(g77
g58
NtRp766
(dp767
g61
(dp768
g88
g89
ssg70
g758
sg63
(lp769
S':'
asbag56
(g77
g58
NtRp770
(dp771
g61
(dp772
sg70
g758
sg63
(lp773
g56
(g57
g58
NtRp774
(dp775
g61
(dp776
g69
I3
ssg70
g770
sg63
(lp777
S''
asbasbasbag56
(g72
g58
NtRp778
(dp779
g61
(dp780
sg70
g674
sg63
(lp781
g56
(g77
g58
NtRp782
(dp783
g61
(dp784
g81
g82
ssg70
g778
sg63
(lp785
g413
asbag56
(g77
g58
NtRp786
(dp787
g61
(dp788
g88
g89
ssg70
g778
sg63
(lp789
S':'
asbag56
(g77
g58
NtRp790
(dp791
g61
(dp792
sg70
g778
sg63
(lp793
g56
(g57
g58
NtRp794
(dp795
g61
(dp796
g69
I3
ssg70
g790
sg63
(lp797
S''
asbasbasbag56
(g72
g58
NtRp798
(dp799
g61
(dp800
sg70
g674
sg63
(lp801
g56
(g77
g58
NtRp802
(dp803
g61
(dp804
g81
g82
ssg70
g798
sg63
(lp805
g434
asbag56
(g77
g58
NtRp806
(dp807
g61
(dp808
g88
g89
ssg70
g798
sg63
(lp809
S':'
asbag56
(g77
g58
NtRp810
(dp811
g61
(dp812
sg70
g798
sg63
(lp813
g56
(g57
g58
NtRp814
(dp815
g61
(dp816
g69
I3
ssg70
g810
sg63
(lp817
S''
asbasbasbag56
(g72
g58
NtRp818
(dp819
g61
(dp820
sg70
g674
sg63
(lp821
g56
(g77
g58
NtRp822
(dp823
g61
(dp824
g81
g82
ssg70
g818
sg63
(lp825
g455
asbag56
(g77
g58
NtRp826
(dp827
g61
(dp828
g88
g89
ssg70
g818
sg63
(lp829
S':'
asbag56
(g77
g58
NtRp830
(dp831
g61
(dp832
sg70
g818
sg63
(lp833
g56
(g57
g58
NtRp834
(dp835
g61
(dp836
g69
I3
ssg70
g830
sg63
(lp837
S''
asbasbasbasbasbasbasbasbasbasbasbag56
(g72
g58
NtRp838
(dp839
g61
(dp840
sg70
g66
sg63
(lp841
g56
(g77
g58
NtRp842
(dp843
g61
(dp844
g81
g82
ssg70
g838
sg63
(lp845
S'env'
p846
asbag56
(g77
g58
NtRp847
(dp848
g61
(dp849
g88
g89
ssg70
g838
sg63
(lp850
S':'
asbag56
(g77
g58
NtRp851
(dp852
g61
(dp853
sg70
g838
sg63
(lp854
g56
(g57
g58
NtRp855
(dp856
g61
(dp857
g69
I5
ssg70
g851
sg63
(lp858
g56
(g65
g58
NtRp859
(dp860
g61
(dp861
g69
I4
ssg70
Nsg63
(lp862
g56
(g72
g58
NtRp863
(dp864
g61
(dp865
sg70
g859
sg63
(lp866
g56
(g77
g58
NtRp867
(dp868
g61
(dp869
g81
g82
ssg70
g863
sg63
(lp870
S'app_folders'
p871
asbag56
(g77
g58
NtRp872
(dp873
g61
(dp874
g88
g89
ssg70
g863
sg63
(lp875
S':'
asbag56
(g77
g58
NtRp876
(dp877
g61
(dp878
sg70
g863
sg63
(lp879
g56
(g57
g58
NtRp880
(dp881
g61
(dp882
g69
I4
ssg70
g876
sg63
(lp883
S"set(['/home/jose/DESARROLLO/web2py199/applications/streamlog/', '/home/jose/DESARROLLO/web2py199/applications/admin/'])"
p884
asbasbasbag56
(g72
g58
NtRp885
(dp886
g61
(dp887
sg70
g859
sg63
(lp888
g56
(g77
g58
NtRp889
(dp890
g61
(dp891
g81
g82
ssg70
g885
sg63
(lp892
S'applications_parent'
p893
asbag56
(g77
g58
NtRp894
(dp895
g61
(dp896
g88
g89
ssg70
g885
sg63
(lp897
S':'
asbag56
(g77
g58
NtRp898
(dp899
g61
(dp900
sg70
g885
sg63
(lp901
g56
(g57
g58
NtRp902
(dp903
g61
(dp904
g69
I4
ssg70
g898
sg63
(lp905
S'/home/jose/DESARROLLO/web2py199'
p906
asbasbasbag56
(g72
g58
NtRp907
(dp908
g61
(dp909
sg70
g859
sg63
(lp910
g56
(g77
g58
NtRp911
(dp912
g61
(dp913
g81
g82
ssg70
g907
sg63
(lp914
S'cmd_args'
p915
asbag56
(g77
g58
NtRp916
(dp917
g61
(dp918
g88
g89
ssg70
g907
sg63
(lp919
S':'
asbag56
(g77
g58
NtRp920
(dp921
g61
(dp922
sg70
g907
sg63
(lp923
g56
(g57
g58
NtRp924
(dp925
g61
(dp926
g69
I4
ssg70
g920
sg63
(lp927
g56
(g65
g58
NtRp928
(dp929
g61
(dp930
g69
I3
ssg70
Nsg63
(lp931
sbasbasbasbag56
(g72
g58
NtRp932
(dp933
g61
(dp934
sg70
g859
sg63
(lp935
g56
(g77
g58
NtRp936
(dp937
g61
(dp938
g81
g82
ssg70
g932
sg63
(lp939
S'cmd_options'
p940
asbag56
(g77
g58
NtRp941
(dp942
g61
(dp943
g88
g89
ssg70
g932
sg63
(lp944
S':'
asbag56
(g77
g58
NtRp945
(dp946
g61
(dp947
sg70
g932
sg63
(lp948
g56
(g57
g58
NtRp949
(dp950
g61
(dp951
g69
I4
ssg70
g945
sg63
(lp952
S"<Values at 0x1c79f80: {'verbose': False, 'ip': '127.0.0.1', 'shutdown_timeout': 5, 'taskbar': False, 'nocron': False, 'pid_filename': 'httpserver.pid', 'maxthreads': None, 'softcron': False, 'server_name': 'jose', 'bpython': False, 'nogui': False, 'port': 8000, 'extcron': False, 'debuglevel': 30, 'test': None, 'folder': '/home/jose/DESARROLLO/web2py199', 'config': '', 'import_models': False, 'winservice': '', 'shell': None, 'run': '', 'log_filename': 'httpserver.log', 'args': [''], 'ssl_ca_certificate': None, 'scheduler': None, 'profiler_filename': None, 'ssl_private_key': '', 'password': 't', 'request_queue_size': 5, 'ssl_certificate': '', 'cronjob': False, 'plain': False, 'quiet': False, 'interfaces': None, 'minthreads': None, 'timeout': 10, 'numthreads': None, 'nobanner': False}>"
p953
asbasbasbag56
(g72
g58
NtRp954
(dp955
g61
(dp956
sg70
g859
sg63
(lp957
g56
(g77
g58
NtRp958
(dp959
g61
(dp960
g81
g82
ssg70
g954
sg63
(lp961
S'db_sessions'
p962
asbag56
(g77
g58
NtRp963
(dp964
g61
(dp965
g88
g89
ssg70
g954
sg63
(lp966
S':'
asbag56
(g77
g58
NtRp967
(dp968
g61
(dp969
sg70
g954
sg63
(lp970
g56
(g57
g58
NtRp971
(dp972
g61
(dp973
g69
I4
ssg70
g967
sg63
(lp974
S'set([])'
p975
asbasbasbag56
(g72
g58
NtRp976
(dp977
g61
(dp978
sg70
g859
sg63
(lp979
g56
(g77
g58
NtRp980
(dp981
g61
(dp982
g81
g82
ssg70
g976
sg63
(lp983
S'debugging'
p984
asbag56
(g77
g58
NtRp985
(dp986
g61
(dp987
g88
g89
ssg70
g976
sg63
(lp988
S':'
asbag56
(g77
g58
NtRp989
(dp990
g61
(dp991
sg70
g976
sg63
(lp992
g56
(g57
g58
NtRp993
(dp994
g61
(dp995
g69
I4
ssg70
g989
sg63
(lp996
g99
asbasbasbag56
(g72
g58
NtRp997
(dp998
g61
(dp999
sg70
g859
sg63
(lp1000
g56
(g77
g58
NtRp1001
(dp1002
g61
(dp1003
g81
g82
ssg70
g997
sg63
(lp1004
S'gluon_parent'
p1005
asbag56
(g77
g58
NtRp1006
(dp1007
g61
(dp1008
g88
g89
ssg70
g997
sg63
(lp1009
S':'
asbag56
(g77
g58
NtRp1010
(dp1011
g61
(dp1012
sg70
g997
sg63
(lp1013
g56
(g57
g58
NtRp1014
(dp1015
g61
(dp1016
g69
I4
ssg70
g1010
sg63
(lp1017
S'/home/jose/DESARROLLO/web2py199'
p1018
asbasbasbag56
(g72
g58
NtRp1019
(dp1020
g61
(dp1021
sg70
g859
sg63
(lp1022
g56
(g77
g58
NtRp1023
(dp1024
g61
(dp1025
g81
g82
ssg70
g1019
sg63
(lp1026
S'http_accept'
p1027
asbag56
(g77
g58
NtRp1028
(dp1029
g61
(dp1030
g88
g89
ssg70
g1019
sg63
(lp1031
S':'
asbag56
(g77
g58
NtRp1032
(dp1033
g61
(dp1034
sg70
g1019
sg63
(lp1035
g56
(g57
g58
NtRp1036
(dp1037
g61
(dp1038
g69
I4
ssg70
g1032
sg63
(lp1039
S'text/html,application/xhtml+xml,application/xml;q=0.9,*/*;q=0.8'
p1040
asbasbasbag56
(g72
g58
NtRp1041
(dp1042
g61
(dp1043
sg70
g859
sg63
(lp1044
g56
(g77
g58
NtRp1045
(dp1046
g61
(dp1047
g81
g82
ssg70
g1041
sg63
(lp1048
S'http_accept_encoding'
p1049
asbag56
(g77
g58
NtRp1050
(dp1051
g61
(dp1052
g88
g89
ssg70
g1041
sg63
(lp1053
S':'
asbag56
(g77
g58
NtRp1054
(dp1055
g61
(dp1056
sg70
g1041
sg63
(lp1057
g56
(g57
g58
NtRp1058
(dp1059
g61
(dp1060
g69
I4
ssg70
g1054
sg63
(lp1061
S'gzip, deflate'
p1062
asbasbasbag56
(g72
g58
NtRp1063
(dp1064
g61
(dp1065
sg70
g859
sg63
(lp1066
g56
(g77
g58
NtRp1067
(dp1068
g61
(dp1069
g81
g82
ssg70
g1063
sg63
(lp1070
S'http_accept_language'
p1071
asbag56
(g77
g58
NtRp1072
(dp1073
g61
(dp1074
g88
g89
ssg70
g1063
sg63
(lp1075
S':'
asbag56
(g77
g58
NtRp1076
(dp1077
g61
(dp1078
sg70
g1063
sg63
(lp1079
g56
(g57
g58
NtRp1080
(dp1081
g61
(dp1082
g69
I4
ssg70
g1076
sg63
(lp1083
S'en-us,en;q=0.5'
p1084
asbasbasbag56
(g72
g58
NtRp1085
(dp1086
g61
(dp1087
sg70
g859
sg63
(lp1088
g56
(g77
g58
NtRp1089
(dp1090
g61
(dp1091
g81
g82
ssg70
g1085
sg63
(lp1092
S'http_connection'
p1093
asbag56
(g77
g58
NtRp1094
(dp1095
g61
(dp1096
g88
g89
ssg70
g1085
sg63
(lp1097
S':'
asbag56
(g77
g58
NtRp1098
(dp1099
g61
(dp1100
sg70
g1085
sg63
(lp1101
g56
(g57
g58
NtRp1102
(dp1103
g61
(dp1104
g69
I4
ssg70
g1098
sg63
(lp1105
S'keep-alive'
p1106
asbasbasbag56
(g72
g58
NtRp1107
(dp1108
g61
(dp1109
sg70
g859
sg63
(lp1110
g56
(g77
g58
NtRp1111
(dp1112
g61
(dp1113
g81
g82
ssg70
g1107
sg63
(lp1114
S'http_cookie'
p1115
asbag56
(g77
g58
NtRp1116
(dp1117
g61
(dp1118
g88
g89
ssg70
g1107
sg63
(lp1119
S':'
asbag56
(g77
g58
NtRp1120
(dp1121
g61
(dp1122
sg70
g1107
sg63
(lp1123
g56
(g57
g58
NtRp1124
(dp1125
g61
(dp1126
g69
I4
ssg70
g1120
sg63
(lp1127
S'session_id_streamlog=127.0.0.1-610b0c7d-3f6f-4500-a76a-b095fb30f7fd; session_id_admin=127.0.0.1-8f69464e-4a83-4875-ad25-00cf5c7e8e11; session_id_test3=127.0.0.1-380e7b29-b635-4690-b9ca-812870d6a061'
p1128
asbasbasbag56
(g72
g58
NtRp1129
(dp1130
g61
(dp1131
sg70
g859
sg63
(lp1132
g56
(g77
g58
NtRp1133
(dp1134
g61
(dp1135
g81
g82
ssg70
g1129
sg63
(lp1136
S'http_host'
p1137
asbag56
(g77
g58
NtRp1138
(dp1139
g61
(dp1140
g88
g89
ssg70
g1129
sg63
(lp1141
S':'
asbag56
(g77
g58
NtRp1142
(dp1143
g61
(dp1144
sg70
g1129
sg63
(lp1145
g56
(g57
g58
NtRp1146
(dp1147
g61
(dp1148
g69
I4
ssg70
g1142
sg63
(lp1149
S'localhost:8000'
p1150
asbasbasbag56
(g72
g58
NtRp1151
(dp1152
g61
(dp1153
sg70
g859
sg63
(lp1154
g56
(g77
g58
NtRp1155
(dp1156
g61
(dp1157
g81
g82
ssg70
g1151
sg63
(lp1158
S'http_user_agent'
p1159
asbag56
(g77
g58
NtRp1160
(dp1161
g61
(dp1162
g88
g89
ssg70
g1151
sg63
(lp1163
S':'
asbag56
(g77
g58
NtRp1164
(dp1165
g61
(dp1166
sg70
g1151
sg63
(lp1167
g56
(g57
g58
NtRp1168
(dp1169
g61
(dp1170
g69
I4
ssg70
g1164
sg63
(lp1171
S'Mozilla/5.0 (X11; Ubuntu; Linux x86_64; rv:12.0) Gecko/20100101 Firefox/12.0'
p1172
asbasbasbag56
(g72
g58
NtRp1173
(dp1174
g61
(dp1175
sg70
g859
sg63
(lp1176
g56
(g77
g58
NtRp1177
(dp1178
g61
(dp1179
g81
g82
ssg70
g1173
sg63
(lp1180
S'is_jython'
p1181
asbag56
(g77
g58
NtRp1182
(dp1183
g61
(dp1184
g88
g89
ssg70
g1173
sg63
(lp1185
S':'
asbag56
(g77
g58
NtRp1186
(dp1187
g61
(dp1188
sg70
g1173
sg63
(lp1189
g56
(g57
g58
NtRp1190
(dp1191
g61
(dp1192
g69
I4
ssg70
g1186
sg63
(lp1193
g99
asbasbasbag56
(g72
g58
NtRp1194
(dp1195
g61
(dp1196
sg70
g859
sg63
(lp1197
g56
(g77
g58
NtRp1198
(dp1199
g61
(dp1200
g81
g82
ssg70
g1194
sg63
(lp1201
S'path_info'
p1202
asbag56
(g77
g58
NtRp1203
(dp1204
g61
(dp1205
g88
g89
ssg70
g1194
sg63
(lp1206
S':'
asbag56
(g77
g58
NtRp1207
(dp1208
g61
(dp1209
sg70
g1194
sg63
(lp1210
g56
(g57
g58
NtRp1211
(dp1212
g61
(dp1213
g69
I4
ssg70
g1207
sg63
(lp1214
S'/streamlog/default/call/json/getConnectionData/2'
p1215
asbasbasbag56
(g72
g58
NtRp1216
(dp1217
g61
(dp1218
sg70
g859
sg63
(lp1219
g56
(g77
g58
NtRp1220
(dp1221
g61
(dp1222
g81
g82
ssg70
g1216
sg63
(lp1223
S'query_string'
p1224
asbag56
(g77
g58
NtRp1225
(dp1226
g61
(dp1227
g88
g89
ssg70
g1216
sg63
(lp1228
S':'
asbag56
(g77
g58
NtRp1229
(dp1230
g61
(dp1231
sg70
g1216
sg63
(lp1232
g56
(g57
g58
NtRp1233
(dp1234
g61
(dp1235
g69
I4
ssg70
g1229
sg63
(lp1236
S''
asbasbasbag56
(g72
g58
NtRp1237
(dp1238
g61
(dp1239
sg70
g859
sg63
(lp1240
g56
(g77
g58
NtRp1241
(dp1242
g61
(dp1243
g81
g82
ssg70
g1237
sg63
(lp1244
S'remote_addr'
p1245
asbag56
(g77
g58
NtRp1246
(dp1247
g61
(dp1248
g88
g89
ssg70
g1237
sg63
(lp1249
S':'
asbag56
(g77
g58
NtRp1250
(dp1251
g61
(dp1252
sg70
g1237
sg63
(lp1253
g56
(g57
g58
NtRp1254
(dp1255
g61
(dp1256
g69
I4
ssg70
g1250
sg63
(lp1257
g227
asbasbasbag56
(g72
g58
NtRp1258
(dp1259
g61
(dp1260
sg70
g859
sg63
(lp1261
g56
(g77
g58
NtRp1262
(dp1263
g61
(dp1264
g81
g82
ssg70
g1258
sg63
(lp1265
S'remote_port'
p1266
asbag56
(g77
g58
NtRp1267
(dp1268
g61
(dp1269
g88
g89
ssg70
g1258
sg63
(lp1270
S':'
asbag56
(g77
g58
NtRp1271
(dp1272
g61
(dp1273
sg70
g1258
sg63
(lp1274
g56
(g57
g58
NtRp1275
(dp1276
g61
(dp1277
g69
I4
ssg70
g1271
sg63
(lp1278
S'36209'
p1279
asbasbasbag56
(g72
g58
NtRp1280
(dp1281
g61
(dp1282
sg70
g859
sg63
(lp1283
g56
(g77
g58
NtRp1284
(dp1285
g61
(dp1286
g81
g82
ssg70
g1280
sg63
(lp1287
S'request_method'
p1288
asbag56
(g77
g58
NtRp1289
(dp1290
g61
(dp1291
g88
g89
ssg70
g1280
sg63
(lp1292
S':'
asbag56
(g77
g58
NtRp1293
(dp1294
g61
(dp1295
sg70
g1280
sg63
(lp1296
g56
(g57
g58
NtRp1297
(dp1298
g61
(dp1299
g69
I4
ssg70
g1293
sg63
(lp1300
S'GET'
p1301
asbasbasbag56
(g72
g58
NtRp1302
(dp1303
g61
(dp1304
sg70
g859
sg63
(lp1305
g56
(g77
g58
NtRp1306
(dp1307
g61
(dp1308
g81
g82
ssg70
g1302
sg63
(lp1309
S'script_name'
p1310
asbag56
(g77
g58
NtRp1311
(dp1312
g61
(dp1313
g88
g89
ssg70
g1302
sg63
(lp1314
S':'
asbag56
(g77
g58
NtRp1315
(dp1316
g61
(dp1317
sg70
g1302
sg63
(lp1318
g56
(g57
g58
NtRp1319
(dp1320
g61
(dp1321
g69
I4
ssg70
g1315
sg63
(lp1322
S''
asbasbasbag56
(g72
g58
NtRp1323
(dp1324
g61
(dp1325
sg70
g859
sg63
(lp1326
g56
(g77
g58
NtRp1327
(dp1328
g61
(dp1329
g81
g82
ssg70
g1323
sg63
(lp1330
S'server_name'
p1331
asbag56
(g77
g58
NtRp1332
(dp1333
g61
(dp1334
g88
g89
ssg70
g1323
sg63
(lp1335
S':'
asbag56
(g77
g58
NtRp1336
(dp1337
g61
(dp1338
sg70
g1323
sg63
(lp1339
g56
(g57
g58
NtRp1340
(dp1341
g61
(dp1342
g69
I4
ssg70
g1336
sg63
(lp1343
S'jose'
p1344
asbasbasbag56
(g72
g58
NtRp1345
(dp1346
g61
(dp1347
sg70
g859
sg63
(lp1348
g56
(g77
g58
NtRp1349
(dp1350
g61
(dp1351
g81
g82
ssg70
g1345
sg63
(lp1352
S'server_port'
p1353
asbag56
(g77
g58
NtRp1354
(dp1355
g61
(dp1356
g88
g89
ssg70
g1345
sg63
(lp1357
S':'
asbag56
(g77
g58
NtRp1358
(dp1359
g61
(dp1360
sg70
g1345
sg63
(lp1361
g56
(g57
g58
NtRp1362
(dp1363
g61
(dp1364
g69
I4
ssg70
g1358
sg63
(lp1365
S'8000'
p1366
asbasbasbag56
(g72
g58
NtRp1367
(dp1368
g61
(dp1369
sg70
g859
sg63
(lp1370
g56
(g77
g58
NtRp1371
(dp1372
g61
(dp1373
g81
g82
ssg70
g1367
sg63
(lp1374
S'server_protocol'
p1375
asbag56
(g77
g58
NtRp1376
(dp1377
g61
(dp1378
g88
g89
ssg70
g1367
sg63
(lp1379
S':'
asbag56
(g77
g58
NtRp1380
(dp1381
g61
(dp1382
sg70
g1367
sg63
(lp1383
g56
(g57
g58
NtRp1384
(dp1385
g61
(dp1386
g69
I4
ssg70
g1380
sg63
(lp1387
S'HTTP/1.1'
p1388
asbasbasbag56
(g72
g58
NtRp1389
(dp1390
g61
(dp1391
sg70
g859
sg63
(lp1392
g56
(g77
g58
NtRp1393
(dp1394
g61
(dp1395
g81
g82
ssg70
g1389
sg63
(lp1396
S'server_software'
p1397
asbag56
(g77
g58
NtRp1398
(dp1399
g61
(dp1400
g88
g89
ssg70
g1389
sg63
(lp1401
S':'
asbag56
(g77
g58
NtRp1402
(dp1403
g61
(dp1404
sg70
g1389
sg63
(lp1405
g56
(g57
g58
NtRp1406
(dp1407
g61
(dp1408
g69
I4
ssg70
g1402
sg63
(lp1409
S'Rocket 1.2.4'
p1410
asbasbasbag56
(g72
g58
NtRp1411
(dp1412
g61
(dp1413
sg70
g859
sg63
(lp1414
g56
(g77
g58
NtRp1415
(dp1416
g61
(dp1417
g81
g82
ssg70
g1411
sg63
(lp1418
S'web2py_crontype'
p1419
asbag56
(g77
g58
NtRp1420
(dp1421
g61
(dp1422
g88
g89
ssg70
g1411
sg63
(lp1423
S':'
asbag56
(g77
g58
NtRp1424
(dp1425
g61
(dp1426
sg70
g1411
sg63
(lp1427
g56
(g57
g58
NtRp1428
(dp1429
g61
(dp1430
g69
I4
ssg70
g1424
sg63
(lp1431
S'hard'
p1432
asbasbasbag56
(g72
g58
NtRp1433
(dp1434
g61
(dp1435
sg70
g859
sg63
(lp1436
g56
(g77
g58
NtRp1437
(dp1438
g61
(dp1439
g81
g82
ssg70
g1433
sg63
(lp1440
S'web2py_path'
p1441
asbag56
(g77
g58
NtRp1442
(dp1443
g61
(dp1444
g88
g89
ssg70
g1433
sg63
(lp1445
S':'
asbag56
(g77
g58
NtRp1446
(dp1447
g61
(dp1448
sg70
g1433
sg63
(lp1449
g56
(g57
g58
NtRp1450
(dp1451
g61
(dp1452
g69
I4
ssg70
g1446
sg63
(lp1453
g906
asbasbasbag56
(g72
g58
NtRp1454
(dp1455
g61
(dp1456
sg70
g859
sg63
(lp1457
g56
(g77
g58
NtRp1458
(dp1459
g61
(dp1460
g81
g82
ssg70
g1454
sg63
(lp1461
S'web2py_version'
p1462
asbag56
(g77
g58
NtRp1463
(dp1464
g61
(dp1465
g88
g89
ssg70
g1454
sg63
(lp1466
S':'
asbag56
(g77
g58
NtRp1467
(dp1468
g61
(dp1469
sg70
g1454
sg63
(lp1470
g56
(g57
g58
NtRp1471
(dp1472
g61
(dp1473
g69
I4
ssg70
g1467
sg63
(lp1474
g56
(g65
g58
NtRp1475
(dp1476
g61
(dp1477
g69
I3
ssg70
Nsg63
(lp1478
g56
(g72
g58
NtRp1479
(dp1480
g61
(dp1481
sg70
g1475
sg63
(lp1482
g56
(g77
g58
NtRp1483
(dp1484
g61
(dp1485
sg70
g1479
sg63
(lp1486
g56
(g57
g58
NtRp1487
(dp1488
g61
(dp1489
g69
I3
ssg70
g1483
sg63
(lp1490
S'1'
asbasbasbag56
(g72
g58
NtRp1491
(dp1492
g61
(dp1493
sg70
g1475
sg63
(lp1494
g56
(g77
g58
NtRp1495
(dp1496
g61
(dp1497
sg70
g1491
sg63
(lp1498
g56
(g57
g58
NtRp1499
(dp1500
g61
(dp1501
g69
I3
ssg70
g1495
sg63
(lp1502
S'99'
p1503
asbasbasbag56
(g72
g58
NtRp1504
(dp1505
g61
(dp1506
sg70
g1475
sg63
(lp1507
g56
(g77
g58
NtRp1508
(dp1509
g61
(dp1510
sg70
g1504
sg63
(lp1511
g56
(g57
g58
NtRp1512
(dp1513
g61
(dp1514
g69
I3
ssg70
g1508
sg63
(lp1515
S'2'
asbasbasbag56
(g72
g58
NtRp1516
(dp1517
g61
(dp1518
sg70
g1475
sg63
(lp1519
g56
(g77
g58
NtRp1520
(dp1521
g61
(dp1522
sg70
g1516
sg63
(lp1523
g56
(g57
g58
NtRp1524
(dp1525
g61
(dp1526
g69
I3
ssg70
g1520
sg63
(lp1527
S'datetime.datetime(2011, 9, 26, 6, 55, 33)'
p1528
asbasbasbag56
(g72
g58
NtRp1529
(dp1530
g61
(dp1531
sg70
g1475
sg63
(lp1532
g56
(g77
g58
NtRp1533
(dp1534
g61
(dp1535
sg70
g1529
sg63
(lp1536
g56
(g57
g58
NtRp1537
(dp1538
g61
(dp1539
g69
I3
ssg70
g1533
sg63
(lp1540
S'stable'
p1541
asbasbasbasbasbasbasbag56
(g72
g58
NtRp1542
(dp1543
g61
(dp1544
sg70
g859
sg63
(lp1545
g56
(g77
g58
NtRp1546
(dp1547
g61
(dp1548
g81
g82
ssg70
g1542
sg63
(lp1549
S'wsgi_errors'
p1550
asbag56
(g77
g58
NtRp1551
(dp1552
g61
(dp1553
g88
g89
ssg70
g1542
sg63
(lp1554
S':'
asbag56
(g77
g58
NtRp1555
(dp1556
g61
(dp1557
sg70
g1542
sg63
(lp1558
g56
(g57
g58
NtRp1559
(dp1560
g61
(dp1561
g69
I4
ssg70
g1555
sg63
(lp1562
S"<open file '<stderr>', mode 'w' at 0x7f84db3ff270>"
p1563
asbasbasbag56
(g72
g58
NtRp1564
(dp1565
g61
(dp1566
sg70
g859
sg63
(lp1567
g56
(g77
g58
NtRp1568
(dp1569
g61
(dp1570
g81
g82
ssg70
g1564
sg63
(lp1571
S'wsgi_file_wrapper'
p1572
asbag56
(g77
g58
NtRp1573
(dp1574
g61
(dp1575
g88
g89
ssg70
g1564
sg63
(lp1576
S':'
asbag56
(g77
g58
NtRp1577
(dp1578
g61
(dp1579
sg70
g1564
sg63
(lp1580
g56
(g57
g58
NtRp1581
(dp1582
g61
(dp1583
g69
I4
ssg70
g1577
sg63
(lp1584
S'<class wsgiref.util.FileWrapper at 0x1b96d50>'
p1585
asbasbasbag56
(g72
g58
NtRp1586
(dp1587
g61
(dp1588
sg70
g859
sg63
(lp1589
g56
(g77
g58
NtRp1590
(dp1591
g61
(dp1592
g81
g82
ssg70
g1586
sg63
(lp1593
S'wsgi_input'
p1594
asbag56
(g77
g58
NtRp1595
(dp1596
g61
(dp1597
g88
g89
ssg70
g1586
sg63
(lp1598
S':'
asbag56
(g77
g58
NtRp1599
(dp1600
g61
(dp1601
sg70
g1586
sg63
(lp1602
g56
(g57
g58
NtRp1603
(dp1604
g61
(dp1605
g69
I4
ssg70
g1599
sg63
(lp1606
S'<socket._fileobject object at 0x1f000d0>'
p1607
asbasbasbag56
(g72
g58
NtRp1608
(dp1609
g61
(dp1610
sg70
g859
sg63
(lp1611
g56
(g77
g58
NtRp1612
(dp1613
g61
(dp1614
g81
g82
ssg70
g1608
sg63
(lp1615
S'wsgi_multiprocess'
p1616
asbag56
(g77
g58
NtRp1617
(dp1618
g61
(dp1619
g88
g89
ssg70
g1608
sg63
(lp1620
S':'
asbag56
(g77
g58
NtRp1621
(dp1622
g61
(dp1623
sg70
g1608
sg63
(lp1624
g56
(g57
g58
NtRp1625
(dp1626
g61
(dp1627
g69
I4
ssg70
g1621
sg63
(lp1628
g99
asbasbasbag56
(g72
g58
NtRp1629
(dp1630
g61
(dp1631
sg70
g859
sg63
(lp1632
g56
(g77
g58
NtRp1633
(dp1634
g61
(dp1635
g81
g82
ssg70
g1629
sg63
(lp1636
S'wsgi_multithread'
p1637
asbag56
(g77
g58
NtRp1638
(dp1639
g61
(dp1640
g88
g89
ssg70
g1629
sg63
(lp1641
S':'
asbag56
(g77
g58
NtRp1642
(dp1643
g61
(dp1644
sg70
g1629
sg63
(lp1645
g56
(g57
g58
NtRp1646
(dp1647
g61
(dp1648
g69
I4
ssg70
g1642
sg63
(lp1649
S'True'
p1650
asbasbasbag56
(g72
g58
NtRp1651
(dp1652
g61
(dp1653
sg70
g859
sg63
(lp1654
g56
(g77
g58
NtRp1655
(dp1656
g61
(dp1657
g81
g82
ssg70
g1651
sg63
(lp1658
S'wsgi_run_once'
p1659
asbag56
(g77
g58
NtRp1660
(dp1661
g61
(dp1662
g88
g89
ssg70
g1651
sg63
(lp1663
S':'
asbag56
(g77
g58
NtRp1664
(dp1665
g61
(dp1666
sg70
g1651
sg63
(lp1667
g56
(g57
g58
NtRp1668
(dp1669
g61
(dp1670
g69
I4
ssg70
g1664
sg63
(lp1671
g99
asbasbasbag56
(g72
g58
NtRp1672
(dp1673
g61
(dp1674
sg70
g859
sg63
(lp1675
g56
(g77
g58
NtRp1676
(dp1677
g61
(dp1678
g81
g82
ssg70
g1672
sg63
(lp1679
S'wsgi_url_scheme'
p1680
asbag56
(g77
g58
NtRp1681
(dp1682
g61
(dp1683
g88
g89
ssg70
g1672
sg63
(lp1684
S':'
asbag56
(g77
g58
NtRp1685
(dp1686
g61
(dp1687
sg70
g1672
sg63
(lp1688
g56
(g57
g58
NtRp1689
(dp1690
g61
(dp1691
g69
I4
ssg70
g1685
sg63
(lp1692
S'http'
p1693
asbasbasbag56
(g72
g58
NtRp1694
(dp1695
g61
(dp1696
sg70
g859
sg63
(lp1697
g56
(g77
g58
NtRp1698
(dp1699
g61
(dp1700
g81
g82
ssg70
g1694
sg63
(lp1701
S'wsgi_version'
p1702
asbag56
(g77
g58
NtRp1703
(dp1704
g61
(dp1705
g88
g89
ssg70
g1694
sg63
(lp1706
S':'
asbag56
(g77
g58
NtRp1707
(dp1708
g61
(dp1709
sg70
g1694
sg63
(lp1710
g56
(g57
g58
NtRp1711
(dp1712
g61
(dp1713
g69
I4
ssg70
g1707
sg63
(lp1714
g56
(g65
g58
NtRp1715
(dp1716
g61
(dp1717
g69
I3
ssg70
Nsg63
(lp1718
g56
(g72
g58
NtRp1719
(dp1720
g61
(dp1721
sg70
g1715
sg63
(lp1722
g56
(g77
g58
NtRp1723
(dp1724
g61
(dp1725
sg70
g1719
sg63
(lp1726
g56
(g57
g58
NtRp1727
(dp1728
g61
(dp1729
g69
I3
ssg70
g1723
sg63
(lp1730
S'1'
asbasbasbag56
(g72
g58
NtRp1731
(dp1732
g61
(dp1733
sg70
g1715
sg63
(lp1734
g56
(g77
g58
NtRp1735
(dp1736
g61
(dp1737
sg70
g1731
sg63
(lp1738
g56
(g57
g58
NtRp1739
(dp1740
g61
(dp1741
g69
I3
ssg70
g1735
sg63
(lp1742
S'0'
asbasbasbasbasbasbasbasbasbasbasbag56
(g72
g58
NtRp1743
(dp1744
g61
(dp1745
sg70
g66
sg63
(lp1746
g56
(g77
g58
NtRp1747
(dp1748
g61
(dp1749
g81
g82
ssg70
g1743
sg63
(lp1750
S'extension'
p1751
asbag56
(g77
g58
NtRp1752
(dp1753
g61
(dp1754
g88
g89
ssg70
g1743
sg63
(lp1755
S':'
asbag56
(g77
g58
NtRp1756
(dp1757
g61
(dp1758
sg70
g1743
sg63
(lp1759
g56
(g57
g58
NtRp1760
(dp1761
g61
(dp1762
g69
I5
ssg70
g1756
sg63
(lp1763
S'html'
p1764
asbasbasbag56
(g72
g58
NtRp1765
(dp1766
g61
(dp1767
sg70
g66
sg63
(lp1768
g56
(g77
g58
NtRp1769
(dp1770
g61
(dp1771
g81
g82
ssg70
g1765
sg63
(lp1772
S'folder'
p1773
asbag56
(g77
g58
NtRp1774
(dp1775
g61
(dp1776
g88
g89
ssg70
g1765
sg63
(lp1777
S':'
asbag56
(g77
g58
NtRp1778
(dp1779
g61
(dp1780
sg70
g1765
sg63
(lp1781
g56
(g57
g58
NtRp1782
(dp1783
g61
(dp1784
g69
I5
ssg70
g1778
sg63
(lp1785
S'/home/jose/DESARROLLO/web2py199/applications/streamlog/'
p1786
asbasbasbag56
(g72
g58
NtRp1787
(dp1788
g61
(dp1789
sg70
g66
sg63
(lp1790
g56
(g77
g58
NtRp1791
(dp1792
g61
(dp1793
g81
g82
ssg70
g1787
sg63
(lp1794
S'function'
p1795
asbag56
(g77
g58
NtRp1796
(dp1797
g61
(dp1798
g88
g89
ssg70
g1787
sg63
(lp1799
S':'
asbag56
(g77
g58
NtRp1800
(dp1801
g61
(dp1802
sg70
g1787
sg63
(lp1803
g56
(g57
g58
NtRp1804
(dp1805
g61
(dp1806
g69
I5
ssg70
g1800
sg63
(lp1807
S'call'
p1808
asbasbasbag56
(g72
g58
NtRp1809
(dp1810
g61
(dp1811
sg70
g66
sg63
(lp1812
g56
(g77
g58
NtRp1813
(dp1814
g61
(dp1815
g81
g82
ssg70
g1809
sg63
(lp1816
S'get_vars'
p1817
asbag56
(g77
g58
NtRp1818
(dp1819
g61
(dp1820
g88
g89
ssg70
g1809
sg63
(lp1821
S':'
asbag56
(g77
g58
NtRp1822
(dp1823
g61
(dp1824
sg70
g1809
sg63
(lp1825
g56
(g57
g58
NtRp1826
(dp1827
g61
(dp1828
g69
I5
ssg70
g1822
sg63
(lp1829
g56
(g65
g58
NtRp1830
(dp1831
g61
(dp1832
g69
I4
ssg70
Nsg63
(lp1833
sbasbasbasbag56
(g72
g58
NtRp1834
(dp1835
g61
(dp1836
sg70
g66
sg63
(lp1837
g56
(g77
g58
NtRp1838
(dp1839
g61
(dp1840
g81
g82
ssg70
g1834
sg63
(lp1841
S'global_settings'
p1842
asbag56
(g77
g58
NtRp1843
(dp1844
g61
(dp1845
g88
g89
ssg70
g1834
sg63
(lp1846
S':'
asbag56
(g77
g58
NtRp1847
(dp1848
g61
(dp1849
sg70
g1834
sg63
(lp1850
g56
(g57
g58
NtRp1851
(dp1852
g61
(dp1853
g69
I5
ssg70
g1847
sg63
(lp1854
g56
(g65
g58
NtRp1855
(dp1856
g61
(dp1857
g69
I4
ssg70
Nsg63
(lp1858
g56
(g72
g58
NtRp1859
(dp1860
g61
(dp1861
sg70
g1855
sg63
(lp1862
g56
(g77
g58
NtRp1863
(dp1864
g61
(dp1865
g81
g82
ssg70
g1859
sg63
(lp1866
g871
asbag56
(g77
g58
NtRp1867
(dp1868
g61
(dp1869
g88
g89
ssg70
g1859
sg63
(lp1870
S':'
asbag56
(g77
g58
NtRp1871
(dp1872
g61
(dp1873
sg70
g1859
sg63
(lp1874
g56
(g57
g58
NtRp1875
(dp1876
g61
(dp1877
g69
I4
ssg70
g1871
sg63
(lp1878
S"set(['/home/jose/DESARROLLO/web2py199/applications/streamlog/', '/home/jose/DESARROLLO/web2py199/applications/admin/'])"
p1879
asbasbasbag56
(g72
g58
NtRp1880
(dp1881
g61
(dp1882
sg70
g1855
sg63
(lp1883
g56
(g77
g58
NtRp1884
(dp1885
g61
(dp1886
g81
g82
ssg70
g1880
sg63
(lp1887
g893
asbag56
(g77
g58
NtRp1888
(dp1889
g61
(dp1890
g88
g89
ssg70
g1880
sg63
(lp1891
S':'
asbag56
(g77
g58
NtRp1892
(dp1893
g61
(dp1894
sg70
g1880
sg63
(lp1895
g56
(g57
g58
NtRp1896
(dp1897
g61
(dp1898
g69
I4
ssg70
g1892
sg63
(lp1899
g906
asbasbasbag56
(g72
g58
NtRp1900
(dp1901
g61
(dp1902
sg70
g1855
sg63
(lp1903
g56
(g77
g58
NtRp1904
(dp1905
g61
(dp1906
g81
g82
ssg70
g1900
sg63
(lp1907
g915
asbag56
(g77
g58
NtRp1908
(dp1909
g61
(dp1910
g88
g89
ssg70
g1900
sg63
(lp1911
S':'
asbag56
(g77
g58
NtRp1912
(dp1913
g61
(dp1914
sg70
g1900
sg63
(lp1915
g56
(g57
g58
NtRp1916
(dp1917
g61
(dp1918
g69
I4
ssg70
g1912
sg63
(lp1919
g56
(g65
g58
NtRp1920
(dp1921
g61
(dp1922
g69
I3
ssg70
Nsg63
(lp1923
sbasbasbasbag56
(g72
g58
NtRp1924
(dp1925
g61
(dp1926
sg70
g1855
sg63
(lp1927
g56
(g77
g58
NtRp1928
(dp1929
g61
(dp1930
g81
g82
ssg70
g1924
sg63
(lp1931
g940
asbag56
(g77
g58
NtRp1932
(dp1933
g61
(dp1934
g88
g89
ssg70
g1924
sg63
(lp1935
S':'
asbag56
(g77
g58
NtRp1936
(dp1937
g61
(dp1938
sg70
g1924
sg63
(lp1939
g56
(g57
g58
NtRp1940
(dp1941
g61
(dp1942
g69
I4
ssg70
g1936
sg63
(lp1943
S"<Values at 0x1c79f80: {'verbose': False, 'ip': '127.0.0.1', 'shutdown_timeout': 5, 'taskbar': False, 'nocron': False, 'pid_filename': 'httpserver.pid', 'maxthreads': None, 'softcron': False, 'server_name': 'jose', 'bpython': False, 'nogui': False, 'port': 8000, 'extcron': False, 'debuglevel': 30, 'test': None, 'folder': '/home/jose/DESARROLLO/web2py199', 'config': '', 'import_models': False, 'winservice': '', 'shell': None, 'run': '', 'log_filename': 'httpserver.log', 'args': [''], 'ssl_ca_certificate': None, 'scheduler': None, 'profiler_filename': None, 'ssl_private_key': '', 'password': 't', 'request_queue_size': 5, 'ssl_certificate': '', 'cronjob': False, 'plain': False, 'quiet': False, 'interfaces': None, 'minthreads': None, 'timeout': 10, 'numthreads': None, 'nobanner': False}>"
p1944
asbasbasbag56
(g72
g58
NtRp1945
(dp1946
g61
(dp1947
sg70
g1855
sg63
(lp1948
g56
(g77
g58
NtRp1949
(dp1950
g61
(dp1951
g81
g82
ssg70
g1945
sg63
(lp1952
g962
asbag56
(g77
g58
NtRp1953
(dp1954
g61
(dp1955
g88
g89
ssg70
g1945
sg63
(lp1956
S':'
asbag56
(g77
g58
NtRp1957
(dp1958
g61
(dp1959
sg70
g1945
sg63
(lp1960
g56
(g57
g58
NtRp1961
(dp1962
g61
(dp1963
g69
I4
ssg70
g1957
sg63
(lp1964
S'set([])'
p1965
asbasbasbag56
(g72
g58
NtRp1966
(dp1967
g61
(dp1968
sg70
g1855
sg63
(lp1969
g56
(g77
g58
NtRp1970
(dp1971
g61
(dp1972
g81
g82
ssg70
g1966
sg63
(lp1973
g984
asbag56
(g77
g58
NtRp1974
(dp1975
g61
(dp1976
g88
g89
ssg70
g1966
sg63
(lp1977
S':'
asbag56
(g77
g58
NtRp1978
(dp1979
g61
(dp1980
sg70
g1966
sg63
(lp1981
g56
(g57
g58
NtRp1982
(dp1983
g61
(dp1984
g69
I4
ssg70
g1978
sg63
(lp1985
g99
asbasbasbag56
(g72
g58
NtRp1986
(dp1987
g61
(dp1988
sg70
g1855
sg63
(lp1989
g56
(g77
g58
NtRp1990
(dp1991
g61
(dp1992
g81
g82
ssg70
g1986
sg63
(lp1993
g1005
asbag56
(g77
g58
NtRp1994
(dp1995
g61
(dp1996
g88
g89
ssg70
g1986
sg63
(lp1997
S':'
asbag56
(g77
g58
NtRp1998
(dp1999
g61
(dp2000
sg70
g1986
sg63
(lp2001
g56
(g57
g58
NtRp2002
(dp2003
g61
(dp2004
g69
I4
ssg70
g1998
sg63
(lp2005
g1018
asbasbasbag56
(g72
g58
NtRp2006
(dp2007
g61
(dp2008
sg70
g1855
sg63
(lp2009
g56
(g77
g58
NtRp2010
(dp2011
g61
(dp2012
g81
g82
ssg70
g2006
sg63
(lp2013
g1181
asbag56
(g77
g58
NtRp2014
(dp2015
g61
(dp2016
g88
g89
ssg70
g2006
sg63
(lp2017
S':'
asbag56
(g77
g58
NtRp2018
(dp2019
g61
(dp2020
sg70
g2006
sg63
(lp2021
g56
(g57
g58
NtRp2022
(dp2023
g61
(dp2024
g69
I4
ssg70
g2018
sg63
(lp2025
g99
asbasbasbag56
(g72
g58
NtRp2026
(dp2027
g61
(dp2028
sg70
g1855
sg63
(lp2029
g56
(g77
g58
NtRp2030
(dp2031
g61
(dp2032
g81
g82
ssg70
g2026
sg63
(lp2033
g1419
asbag56
(g77
g58
NtRp2034
(dp2035
g61
(dp2036
g88
g89
ssg70
g2026
sg63
(lp2037
S':'
asbag56
(g77
g58
NtRp2038
(dp2039
g61
(dp2040
sg70
g2026
sg63
(lp2041
g56
(g57
g58
NtRp2042
(dp2043
g61
(dp2044
g69
I4
ssg70
g2038
sg63
(lp2045
g1432
asbasbasbag56
(g72
g58
NtRp2046
(dp2047
g61
(dp2048
sg70
g1855
sg63
(lp2049
g56
(g77
g58
NtRp2050
(dp2051
g61
(dp2052
g81
g82
ssg70
g2046
sg63
(lp2053
g1462
asbag56
(g77
g58
NtRp2054
(dp2055
g61
(dp2056
g88
g89
ssg70
g2046
sg63
(lp2057
S':'
asbag56
(g77
g58
NtRp2058
(dp2059
g61
(dp2060
sg70
g2046
sg63
(lp2061
g56
(g57
g58
NtRp2062
(dp2063
g61
(dp2064
g69
I4
ssg70
g2058
sg63
(lp2065
g56
(g65
g58
NtRp2066
(dp2067
g61
(dp2068
g69
I3
ssg70
Nsg63
(lp2069
g56
(g72
g58
NtRp2070
(dp2071
g61
(dp2072
sg70
g2066
sg63
(lp2073
g56
(g77
g58
NtRp2074
(dp2075
g61
(dp2076
sg70
g2070
sg63
(lp2077
g56
(g57
g58
NtRp2078
(dp2079
g61
(dp2080
g69
I3
ssg70
g2074
sg63
(lp2081
S'1'
asbasbasbag56
(g72
g58
NtRp2082
(dp2083
g61
(dp2084
sg70
g2066
sg63
(lp2085
g56
(g77
g58
NtRp2086
(dp2087
g61
(dp2088
sg70
g2082
sg63
(lp2089
g56
(g57
g58
NtRp2090
(dp2091
g61
(dp2092
g69
I3
ssg70
g2086
sg63
(lp2093
S'99'
p2094
asbasbasbag56
(g72
g58
NtRp2095
(dp2096
g61
(dp2097
sg70
g2066
sg63
(lp2098
g56
(g77
g58
NtRp2099
(dp2100
g61
(dp2101
sg70
g2095
sg63
(lp2102
g56
(g57
g58
NtRp2103
(dp2104
g61
(dp2105
g69
I3
ssg70
g2099
sg63
(lp2106
S'2'
asbasbasbag56
(g72
g58
NtRp2107
(dp2108
g61
(dp2109
sg70
g2066
sg63
(lp2110
g56
(g77
g58
NtRp2111
(dp2112
g61
(dp2113
sg70
g2107
sg63
(lp2114
g56
(g57
g58
NtRp2115
(dp2116
g61
(dp2117
g69
I3
ssg70
g2111
sg63
(lp2118
S'datetime.datetime(2011, 9, 26, 6, 55, 33)'
p2119
asbasbasbag56
(g72
g58
NtRp2120
(dp2121
g61
(dp2122
sg70
g2066
sg63
(lp2123
g56
(g77
g58
NtRp2124
(dp2125
g61
(dp2126
sg70
g2120
sg63
(lp2127
g56
(g57
g58
NtRp2128
(dp2129
g61
(dp2130
g69
I3
ssg70
g2124
sg63
(lp2131
g1541
asbasbasbasbasbasbasbasbasbasbasbag56
(g72
g58
NtRp2132
(dp2133
g61
(dp2134
sg70
g66
sg63
(lp2135
g56
(g77
g58
NtRp2136
(dp2137
g61
(dp2138
g81
g82
ssg70
g2132
sg63
(lp2139
S'is_https'
p2140
asbag56
(g77
g58
NtRp2141
(dp2142
g61
(dp2143
g88
g89
ssg70
g2132
sg63
(lp2144
S':'
asbag56
(g77
g58
NtRp2145
(dp2146
g61
(dp2147
sg70
g2132
sg63
(lp2148
g56
(g57
g58
NtRp2149
(dp2150
g61
(dp2151
g69
I5
ssg70
g2145
sg63
(lp2152
g99
asbasbasbag56
(g72
g58
NtRp2153
(dp2154
g61
(dp2155
sg70
g66
sg63
(lp2156
g56
(g77
g58
NtRp2157
(dp2158
g61
(dp2159
g81
g82
ssg70
g2153
sg63
(lp2160
S'is_local'
p2161
asbag56
(g77
g58
NtRp2162
(dp2163
g61
(dp2164
g88
g89
ssg70
g2153
sg63
(lp2165
S':'
asbag56
(g77
g58
NtRp2166
(dp2167
g61
(dp2168
sg70
g2153
sg63
(lp2169
g56
(g57
g58
NtRp2170
(dp2171
g61
(dp2172
g69
I5
ssg70
g2166
sg63
(lp2173
g1650
asbasbasbag56
(g72
g58
NtRp2174
(dp2175
g61
(dp2176
sg70
g66
sg63
(lp2177
g56
(g77
g58
NtRp2178
(dp2179
g61
(dp2180
g81
g82
ssg70
g2174
sg63
(lp2181
S'is_restful'
p2182
asbag56
(g77
g58
NtRp2183
(dp2184
g61
(dp2185
g88
g89
ssg70
g2174
sg63
(lp2186
S':'
asbag56
(g77
g58
NtRp2187
(dp2188
g61
(dp2189
sg70
g2174
sg63
(lp2190
g56
(g57
g58
NtRp2191
(dp2192
g61
(dp2193
g69
I5
ssg70
g2187
sg63
(lp2194
g99
asbasbasbag56
(g72
g58
NtRp2195
(dp2196
g61
(dp2197
sg70
g66
sg63
(lp2198
g56
(g77
g58
NtRp2199
(dp2200
g61
(dp2201
g81
g82
ssg70
g2195
sg63
(lp2202
S'now'
p2203
asbag56
(g77
g58
NtRp2204
(dp2205
g61
(dp2206
g88
g89
ssg70
g2195
sg63
(lp2207
S':'
asbag56
(g77
g58
NtRp2208
(dp2209
g61
(dp2210
sg70
g2195
sg63
(lp2211
g56
(g57
g58
NtRp2212
(dp2213
g61
(dp2214
g69
I5
ssg70
g2208
sg63
(lp2215
S'datetime.datetime(2012, 5, 26, 21, 28, 19, 542309)'
p2216
asbasbasbag56
(g72
g58
NtRp2217
(dp2218
g61
(dp2219
sg70
g66
sg63
(lp2220
g56
(g77
g58
NtRp2221
(dp2222
g61
(dp2223
g81
g82
ssg70
g2217
sg63
(lp2224
S'post_vars'
p2225
asbag56
(g77
g58
NtRp2226
(dp2227
g61
(dp2228
g88
g89
ssg70
g2217
sg63
(lp2229
S':'
asbag56
(g77
g58
NtRp2230
(dp2231
g61
(dp2232
sg70
g2217
sg63
(lp2233
g56
(g57
g58
NtRp2234
(dp2235
g61
(dp2236
g69
I5
ssg70
g2230
sg63
(lp2237
g56
(g65
g58
NtRp2238
(dp2239
g61
(dp2240
g69
I4
ssg70
Nsg63
(lp2241
sbasbasbasbag56
(g72
g58
NtRp2242
(dp2243
g61
(dp2244
sg70
g66
sg63
(lp2245
g56
(g77
g58
NtRp2246
(dp2247
g61
(dp2248
g81
g82
ssg70
g2242
sg63
(lp2249
S'raw_args'
p2250
asbag56
(g77
g58
NtRp2251
(dp2252
g61
(dp2253
g88
g89
ssg70
g2242
sg63
(lp2254
S':'
asbag56
(g77
g58
NtRp2255
(dp2256
g61
(dp2257
sg70
g2242
sg63
(lp2258
g56
(g57
g58
NtRp2259
(dp2260
g61
(dp2261
g69
I5
ssg70
g2255
sg63
(lp2262
S'json/getConnectionData/2'
p2263
asbasbasbag56
(g72
g58
NtRp2264
(dp2265
g61
(dp2266
sg70
g66
sg63
(lp2267
g56
(g77
g58
NtRp2268
(dp2269
g61
(dp2270
g81
g82
ssg70
g2264
sg63
(lp2271
S'url'
p2272
asbag56
(g77
g58
NtRp2273
(dp2274
g61
(dp2275
g88
g89
ssg70
g2264
sg63
(lp2276
S':'
asbag56
(g77
g58
NtRp2277
(dp2278
g61
(dp2279
sg70
g2264
sg63
(lp2280
g56
(g57
g58
NtRp2281
(dp2282
g61
(dp2283
g69
I5
ssg70
g2277
sg63
(lp2284
S'/streamlog/default/call/json/getConnectionData/2'
p2285
asbasbasbag56
(g72
g58
NtRp2286
(dp2287
g61
(dp2288
sg70
g66
sg63
(lp2289
g56
(g77
g58
NtRp2290
(dp2291
g61
(dp2292
g81
g82
ssg70
g2286
sg63
(lp2293
S'utcnow'
p2294
asbag56
(g77
g58
NtRp2295
(dp2296
g61
(dp2297
g88
g89
ssg70
g2286
sg63
(lp2298
S':'
asbag56
(g77
g58
NtRp2299
(dp2300
g61
(dp2301
sg70
g2286
sg63
(lp2302
g56
(g57
g58
NtRp2303
(dp2304
g61
(dp2305
g69
I5
ssg70
g2299
sg63
(lp2306
S'datetime.datetime(2012, 5, 26, 14, 28, 19, 542352)'
p2307
asbasbasbag56
(g72
g58
NtRp2308
(dp2309
g61
(dp2310
sg70
g66
sg63
(lp2311
g56
(g77
g58
NtRp2312
(dp2313
g61
(dp2314
g81
g82
ssg70
g2308
sg63
(lp2315
S'uuid'
p2316
asbag56
(g77
g58
NtRp2317
(dp2318
g61
(dp2319
g88
g89
ssg70
g2308
sg63
(lp2320
S':'
asbag56
(g77
g58
NtRp2321
(dp2322
g61
(dp2323
sg70
g2308
sg63
(lp2324
g56
(g57
g58
NtRp2325
(dp2326
g61
(dp2327
g69
I5
ssg70
g2321
sg63
(lp2328
S'streamlog/127.0.0.1.2012-05-26.21-28-19.9c1b7f72-faa2-46f4-b0f3-45f0bf3893a7'
p2329
asbasbasbag56
(g72
g58
NtRp2330
(dp2331
g61
(dp2332
sg70
g66
sg63
(lp2333
g56
(g77
g58
NtRp2334
(dp2335
g61
(dp2336
g81
g82
ssg70
g2330
sg63
(lp2337
S'vars'
p2338
asbag56
(g77
g58
NtRp2339
(dp2340
g61
(dp2341
g88
g89
ssg70
g2330
sg63
(lp2342
S':'
asbag56
(g77
g58
NtRp2343
(dp2344
g61
(dp2345
sg70
g2330
sg63
(lp2346
g56
(g57
g58
NtRp2347
(dp2348
g61
(dp2349
g69
I5
ssg70
g2343
sg63
(lp2350
g56
(g65
g58
NtRp2351
(dp2352
g61
(dp2353
g69
I4
ssg70
Nsg63
(lp2354
sbasbasbasbag56
(g72
g58
NtRp2355
(dp2356
g61
(dp2357
sg70
g66
sg63
(lp2358
g56
(g77
g58
NtRp2359
(dp2360
g61
(dp2361
g81
g82
ssg70
g2355
sg63
(lp2362
S'wsgi'
p2363
asbag56
(g77
g58
NtRp2364
(dp2365
g61
(dp2366
g88
g89
ssg70
g2355
sg63
(lp2367
S':'
asbag56
(g77
g58
NtRp2368
(dp2369
g61
(dp2370
sg70
g2355
sg63
(lp2371
g56
(g57
g58
NtRp2372
(dp2373
g61
(dp2374
g69
I5
ssg70
g2368
sg63
(lp2375
g56
(g65
g58
NtRp2376
(dp2377
g61
(dp2378
g69
I4
ssg70
Nsg63
(lp2379
g56
(g72
g58
NtRp2380
(dp2381
g61
(dp2382
sg70
g2376
sg63
(lp2383
g56
(g77
g58
NtRp2384
(dp2385
g61
(dp2386
g81
g82
ssg70
g2380
sg63
(lp2387
S'environ'
p2388
asbag56
(g77
g58
NtRp2389
(dp2390
g61
(dp2391
g88
g89
ssg70
g2380
sg63
(lp2392
S':'
asbag56
(g77
g58
NtRp2393
(dp2394
g61
(dp2395
sg70
g2380
sg63
(lp2396
g56
(g57
g58
NtRp2397
(dp2398
g61
(dp2399
g69
I4
ssg70
g2393
sg63
(lp2400
g56
(g65
g58
NtRp2401
(dp2402
g61
(dp2403
g69
I3
ssg70
Nsg63
(lp2404
g56
(g72
g58
NtRp2405
(dp2406
g61
(dp2407
sg70
g2401
sg63
(lp2408
g56
(g77
g58
NtRp2409
(dp2410
g61
(dp2411
g81
g82
ssg70
g2405
sg63
(lp2412
S'HTTP_ACCEPT'
p2413
asbag56
(g77
g58
NtRp2414
(dp2415
g61
(dp2416
g88
g89
ssg70
g2405
sg63
(lp2417
S':'
asbag56
(g77
g58
NtRp2418
(dp2419
g61
(dp2420
sg70
g2405
sg63
(lp2421
g56
(g57
g58
NtRp2422
(dp2423
g61
(dp2424
g69
I3
ssg70
g2418
sg63
(lp2425
g1040
asbasbasbag56
(g72
g58
NtRp2426
(dp2427
g61
(dp2428
sg70
g2401
sg63
(lp2429
g56
(g77
g58
NtRp2430
(dp2431
g61
(dp2432
g81
g82
ssg70
g2426
sg63
(lp2433
S'HTTP_ACCEPT_ENCODING'
p2434
asbag56
(g77
g58
NtRp2435
(dp2436
g61
(dp2437
g88
g89
ssg70
g2426
sg63
(lp2438
S':'
asbag56
(g77
g58
NtRp2439
(dp2440
g61
(dp2441
sg70
g2426
sg63
(lp2442
g56
(g57
g58
NtRp2443
(dp2444
g61
(dp2445
g69
I3
ssg70
g2439
sg63
(lp2446
g1062
asbasbasbag56
(g72
g58
NtRp2447
(dp2448
g61
(dp2449
sg70
g2401
sg63
(lp2450
g56
(g77
g58
NtRp2451
(dp2452
g61
(dp2453
g81
g82
ssg70
g2447
sg63
(lp2454
S'HTTP_ACCEPT_LANGUAGE'
p2455
asbag56
(g77
g58
NtRp2456
(dp2457
g61
(dp2458
g88
g89
ssg70
g2447
sg63
(lp2459
S':'
asbag56
(g77
g58
NtRp2460
(dp2461
g61
(dp2462
sg70
g2447
sg63
(lp2463
g56
(g57
g58
NtRp2464
(dp2465
g61
(dp2466
g69
I3
ssg70
g2460
sg63
(lp2467
g1084
asbasbasbag56
(g72
g58
NtRp2468
(dp2469
g61
(dp2470
sg70
g2401
sg63
(lp2471
g56
(g77
g58
NtRp2472
(dp2473
g61
(dp2474
g81
g82
ssg70
g2468
sg63
(lp2475
S'HTTP_CONNECTION'
p2476
asbag56
(g77
g58
NtRp2477
(dp2478
g61
(dp2479
g88
g89
ssg70
g2468
sg63
(lp2480
S':'
asbag56
(g77
g58
NtRp2481
(dp2482
g61
(dp2483
sg70
g2468
sg63
(lp2484
g56
(g57
g58
NtRp2485
(dp2486
g61
(dp2487
g69
I3
ssg70
g2481
sg63
(lp2488
g1106
asbasbasbag56
(g72
g58
NtRp2489
(dp2490
g61
(dp2491
sg70
g2401
sg63
(lp2492
g56
(g77
g58
NtRp2493
(dp2494
g61
(dp2495
g81
g82
ssg70
g2489
sg63
(lp2496
S'HTTP_COOKIE'
p2497
asbag56
(g77
g58
NtRp2498
(dp2499
g61
(dp2500
g88
g89
ssg70
g2489
sg63
(lp2501
S':'
asbag56
(g77
g58
NtRp2502
(dp2503
g61
(dp2504
sg70
g2489
sg63
(lp2505
g56
(g57
g58
NtRp2506
(dp2507
g61
(dp2508
g69
I3
ssg70
g2502
sg63
(lp2509
g1128
asbasbasbag56
(g72
g58
NtRp2510
(dp2511
g61
(dp2512
sg70
g2401
sg63
(lp2513
g56
(g77
g58
NtRp2514
(dp2515
g61
(dp2516
g81
g82
ssg70
g2510
sg63
(lp2517
S'HTTP_HOST'
p2518
asbag56
(g77
g58
NtRp2519
(dp2520
g61
(dp2521
g88
g89
ssg70
g2510
sg63
(lp2522
S':'
asbag56
(g77
g58
NtRp2523
(dp2524
g61
(dp2525
sg70
g2510
sg63
(lp2526
g56
(g57
g58
NtRp2527
(dp2528
g61
(dp2529
g69
I3
ssg70
g2523
sg63
(lp2530
g1150
asbasbasbag56
(g72
g58
NtRp2531
(dp2532
g61
(dp2533
sg70
g2401
sg63
(lp2534
g56
(g77
g58
NtRp2535
(dp2536
g61
(dp2537
g81
g82
ssg70
g2531
sg63
(lp2538
S'HTTP_USER_AGENT'
p2539
asbag56
(g77
g58
NtRp2540
(dp2541
g61
(dp2542
g88
g89
ssg70
g2531
sg63
(lp2543
S':'
asbag56
(g77
g58
NtRp2544
(dp2545
g61
(dp2546
sg70
g2531
sg63
(lp2547
g56
(g57
g58
NtRp2548
(dp2549
g61
(dp2550
g69
I3
ssg70
g2544
sg63
(lp2551
g1172
asbasbasbag56
(g72
g58
NtRp2552
(dp2553
g61
(dp2554
sg70
g2401
sg63
(lp2555
g56
(g77
g58
NtRp2556
(dp2557
g61
(dp2558
g81
g82
ssg70
g2552
sg63
(lp2559
S'PATH_INFO'
p2560
asbag56
(g77
g58
NtRp2561
(dp2562
g61
(dp2563
g88
g89
ssg70
g2552
sg63
(lp2564
S':'
asbag56
(g77
g58
NtRp2565
(dp2566
g61
(dp2567
sg70
g2552
sg63
(lp2568
g56
(g57
g58
NtRp2569
(dp2570
g61
(dp2571
g69
I3
ssg70
g2565
sg63
(lp2572
g1215
asbasbasbag56
(g72
g58
NtRp2573
(dp2574
g61
(dp2575
sg70
g2401
sg63
(lp2576
g56
(g77
g58
NtRp2577
(dp2578
g61
(dp2579
g81
g82
ssg70
g2573
sg63
(lp2580
S'QUERY_STRING'
p2581
asbag56
(g77
g58
NtRp2582
(dp2583
g61
(dp2584
g88
g89
ssg70
g2573
sg63
(lp2585
S':'
asbag56
(g77
g58
NtRp2586
(dp2587
g61
(dp2588
sg70
g2573
sg63
(lp2589
g56
(g57
g58
NtRp2590
(dp2591
g61
(dp2592
g69
I3
ssg70
g2586
sg63
(lp2593
S''
asbasbasbag56
(g72
g58
NtRp2594
(dp2595
g61
(dp2596
sg70
g2401
sg63
(lp2597
g56
(g77
g58
NtRp2598
(dp2599
g61
(dp2600
g81
g82
ssg70
g2594
sg63
(lp2601
S'REMOTE_ADDR'
p2602
asbag56
(g77
g58
NtRp2603
(dp2604
g61
(dp2605
g88
g89
ssg70
g2594
sg63
(lp2606
S':'
asbag56
(g77
g58
NtRp2607
(dp2608
g61
(dp2609
sg70
g2594
sg63
(lp2610
g56
(g57
g58
NtRp2611
(dp2612
g61
(dp2613
g69
I3
ssg70
g2607
sg63
(lp2614
g227
asbasbasbag56
(g72
g58
NtRp2615
(dp2616
g61
(dp2617
sg70
g2401
sg63
(lp2618
g56
(g77
g58
NtRp2619
(dp2620
g61
(dp2621
g81
g82
ssg70
g2615
sg63
(lp2622
S'REMOTE_PORT'
p2623
asbag56
(g77
g58
NtRp2624
(dp2625
g61
(dp2626
g88
g89
ssg70
g2615
sg63
(lp2627
S':'
asbag56
(g77
g58
NtRp2628
(dp2629
g61
(dp2630
sg70
g2615
sg63
(lp2631
g56
(g57
g58
NtRp2632
(dp2633
g61
(dp2634
g69
I3
ssg70
g2628
sg63
(lp2635
g1279
asbasbasbag56
(g72
g58
NtRp2636
(dp2637
g61
(dp2638
sg70
g2401
sg63
(lp2639
g56
(g77
g58
NtRp2640
(dp2641
g61
(dp2642
g81
g82
ssg70
g2636
sg63
(lp2643
S'REQUEST_METHOD'
p2644
asbag56
(g77
g58
NtRp2645
(dp2646
g61
(dp2647
g88
g89
ssg70
g2636
sg63
(lp2648
S':'
asbag56
(g77
g58
NtRp2649
(dp2650
g61
(dp2651
sg70
g2636
sg63
(lp2652
g56
(g57
g58
NtRp2653
(dp2654
g61
(dp2655
g69
I3
ssg70
g2649
sg63
(lp2656
g1301
asbasbasbag56
(g72
g58
NtRp2657
(dp2658
g61
(dp2659
sg70
g2401
sg63
(lp2660
g56
(g77
g58
NtRp2661
(dp2662
g61
(dp2663
g81
g82
ssg70
g2657
sg63
(lp2664
S'SCRIPT_NAME'
p2665
asbag56
(g77
g58
NtRp2666
(dp2667
g61
(dp2668
g88
g89
ssg70
g2657
sg63
(lp2669
S':'
asbag56
(g77
g58
NtRp2670
(dp2671
g61
(dp2672
sg70
g2657
sg63
(lp2673
g56
(g57
g58
NtRp2674
(dp2675
g61
(dp2676
g69
I3
ssg70
g2670
sg63
(lp2677
S''
asbasbasbag56
(g72
g58
NtRp2678
(dp2679
g61
(dp2680
sg70
g2401
sg63
(lp2681
g56
(g77
g58
NtRp2682
(dp2683
g61
(dp2684
g81
g82
ssg70
g2678
sg63
(lp2685
S'SERVER_NAME'
p2686
asbag56
(g77
g58
NtRp2687
(dp2688
g61
(dp2689
g88
g89
ssg70
g2678
sg63
(lp2690
S':'
asbag56
(g77
g58
NtRp2691
(dp2692
g61
(dp2693
sg70
g2678
sg63
(lp2694
g56
(g57
g58
NtRp2695
(dp2696
g61
(dp2697
g69
I3
ssg70
g2691
sg63
(lp2698
g1344
asbasbasbag56
(g72
g58
NtRp2699
(dp2700
g61
(dp2701
sg70
g2401
sg63
(lp2702
g56
(g77
g58
NtRp2703
(dp2704
g61
(dp2705
g81
g82
ssg70
g2699
sg63
(lp2706
S'SERVER_PORT'
p2707
asbag56
(g77
g58
NtRp2708
(dp2709
g61
(dp2710
g88
g89
ssg70
g2699
sg63
(lp2711
S':'
asbag56
(g77
g58
NtRp2712
(dp2713
g61
(dp2714
sg70
g2699
sg63
(lp2715
g56
(g57
g58
NtRp2716
(dp2717
g61
(dp2718
g69
I3
ssg70
g2712
sg63
(lp2719
g1366
asbasbasbag56
(g72
g58
NtRp2720
(dp2721
g61
(dp2722
sg70
g2401
sg63
(lp2723
g56
(g77
g58
NtRp2724
(dp2725
g61
(dp2726
g81
g82
ssg70
g2720
sg63
(lp2727
S'SERVER_PROTOCOL'
p2728
asbag56
(g77
g58
NtRp2729
(dp2730
g61
(dp2731
g88
g89
ssg70
g2720
sg63
(lp2732
S':'
asbag56
(g77
g58
NtRp2733
(dp2734
g61
(dp2735
sg70
g2720
sg63
(lp2736
g56
(g57
g58
NtRp2737
(dp2738
g61
(dp2739
g69
I3
ssg70
g2733
sg63
(lp2740
g1388
asbasbasbag56
(g72
g58
NtRp2741
(dp2742
g61
(dp2743
sg70
g2401
sg63
(lp2744
g56
(g77
g58
NtRp2745
(dp2746
g61
(dp2747
g81
g82
ssg70
g2741
sg63
(lp2748
S'SERVER_SOFTWARE'
p2749
asbag56
(g77
g58
NtRp2750
(dp2751
g61
(dp2752
g88
g89
ssg70
g2741
sg63
(lp2753
S':'
asbag56
(g77
g58
NtRp2754
(dp2755
g61
(dp2756
sg70
g2741
sg63
(lp2757
g56
(g57
g58
NtRp2758
(dp2759
g61
(dp2760
g69
I3
ssg70
g2754
sg63
(lp2761
g1410
asbasbasbag56
(g72
g58
NtRp2762
(dp2763
g61
(dp2764
sg70
g2401
sg63
(lp2765
g56
(g77
g58
NtRp2766
(dp2767
g61
(dp2768
g81
g82
ssg70
g2762
sg63
(lp2769
S'wsgi.errors'
p2770
asbag56
(g77
g58
NtRp2771
(dp2772
g61
(dp2773
g88
g89
ssg70
g2762
sg63
(lp2774
S':'
asbag56
(g77
g58
NtRp2775
(dp2776
g61
(dp2777
sg70
g2762
sg63
(lp2778
g56
(g57
g58
NtRp2779
(dp2780
g61
(dp2781
g69
I3
ssg70
g2775
sg63
(lp2782
S"<open file '<stderr>', mode 'w' at 0x7f84db3ff270>"
p2783
asbasbasbag56
(g72
g58
NtRp2784
(dp2785
g61
(dp2786
sg70
g2401
sg63
(lp2787
g56
(g77
g58
NtRp2788
(dp2789
g61
(dp2790
g81
g82
ssg70
g2784
sg63
(lp2791
S'wsgi.file_wrapper'
p2792
asbag56
(g77
g58
NtRp2793
(dp2794
g61
(dp2795
g88
g89
ssg70
g2784
sg63
(lp2796
S':'
asbag56
(g77
g58
NtRp2797
(dp2798
g61
(dp2799
sg70
g2784
sg63
(lp2800
g56
(g57
g58
NtRp2801
(dp2802
g61
(dp2803
g69
I3
ssg70
g2797
sg63
(lp2804
S'<class wsgiref.util.FileWrapper at 0x1b96d50>'
p2805
asbasbasbag56
(g72
g58
NtRp2806
(dp2807
g61
(dp2808
sg70
g2401
sg63
(lp2809
g56
(g77
g58
NtRp2810
(dp2811
g61
(dp2812
g81
g82
ssg70
g2806
sg63
(lp2813
S'wsgi.input'
p2814
asbag56
(g77
g58
NtRp2815
(dp2816
g61
(dp2817
g88
g89
ssg70
g2806
sg63
(lp2818
S':'
asbag56
(g77
g58
NtRp2819
(dp2820
g61
(dp2821
sg70
g2806
sg63
(lp2822
g56
(g57
g58
NtRp2823
(dp2824
g61
(dp2825
g69
I3
ssg70
g2819
sg63
(lp2826
S'<cStringIO.StringO object at 0x285f3b0>'
p2827
asbasbasbag56
(g72
g58
NtRp2828
(dp2829
g61
(dp2830
sg70
g2401
sg63
(lp2831
g56
(g77
g58
NtRp2832
(dp2833
g61
(dp2834
g81
g82
ssg70
g2828
sg63
(lp2835
S'wsgi.multiprocess'
p2836
asbag56
(g77
g58
NtRp2837
(dp2838
g61
(dp2839
g88
g89
ssg70
g2828
sg63
(lp2840
S':'
asbag56
(g77
g58
NtRp2841
(dp2842
g61
(dp2843
sg70
g2828
sg63
(lp2844
g56
(g57
g58
NtRp2845
(dp2846
g61
(dp2847
g69
I3
ssg70
g2841
sg63
(lp2848
g99
asbasbasbag56
(g72
g58
NtRp2849
(dp2850
g61
(dp2851
sg70
g2401
sg63
(lp2852
g56
(g77
g58
NtRp2853
(dp2854
g61
(dp2855
g81
g82
ssg70
g2849
sg63
(lp2856
S'wsgi.multithread'
p2857
asbag56
(g77
g58
NtRp2858
(dp2859
g61
(dp2860
g88
g89
ssg70
g2849
sg63
(lp2861
S':'
asbag56
(g77
g58
NtRp2862
(dp2863
g61
(dp2864
sg70
g2849
sg63
(lp2865
g56
(g57
g58
NtRp2866
(dp2867
g61
(dp2868
g69
I3
ssg70
g2862
sg63
(lp2869
g1650
asbasbasbag56
(g72
g58
NtRp2870
(dp2871
g61
(dp2872
sg70
g2401
sg63
(lp2873
g56
(g77
g58
NtRp2874
(dp2875
g61
(dp2876
g81
g82
ssg70
g2870
sg63
(lp2877
S'wsgi.run_once'
p2878
asbag56
(g77
g58
NtRp2879
(dp2880
g61
(dp2881
g88
g89
ssg70
g2870
sg63
(lp2882
S':'
asbag56
(g77
g58
NtRp2883
(dp2884
g61
(dp2885
sg70
g2870
sg63
(lp2886
g56
(g57
g58
NtRp2887
(dp2888
g61
(dp2889
g69
I3
ssg70
g2883
sg63
(lp2890
g99
asbasbasbag56
(g72
g58
NtRp2891
(dp2892
g61
(dp2893
sg70
g2401
sg63
(lp2894
g56
(g77
g58
NtRp2895
(dp2896
g61
(dp2897
g81
g82
ssg70
g2891
sg63
(lp2898
S'wsgi.url_scheme'
p2899
asbag56
(g77
g58
NtRp2900
(dp2901
g61
(dp2902
g88
g89
ssg70
g2891
sg63
(lp2903
S':'
asbag56
(g77
g58
NtRp2904
(dp2905
g61
(dp2906
sg70
g2891
sg63
(lp2907
g56
(g57
g58
NtRp2908
(dp2909
g61
(dp2910
g69
I3
ssg70
g2904
sg63
(lp2911
g1693
asbasbasbag56
(g72
g58
NtRp2912
(dp2913
g61
(dp2914
sg70
g2401
sg63
(lp2915
g56
(g77
g58
NtRp2916
(dp2917
g61
(dp2918
g81
g82
ssg70
g2912
sg63
(lp2919
S'wsgi.version'
p2920
asbag56
(g77
g58
NtRp2921
(dp2922
g61
(dp2923
g88
g89
ssg70
g2912
sg63
(lp2924
S':'
asbag56
(g77
g58
NtRp2925
(dp2926
g61
(dp2927
sg70
g2912
sg63
(lp2928
g56
(g57
g58
NtRp2929
(dp2930
g61
(dp2931
g69
I3
ssg70
g2925
sg63
(lp2932
S'1'
asbasbasbasbasbasbasbasbasbasbasbasbasbsS'frames'
p2933
(lp2934
(dp2935
S'file'
p2936
S'/home/jose/DESARROLLO/web2py199/gluon/restricted.py'
p2937
sS'dump'
p2938
(dp2939
S'environment'
p2940
S"{'A': <class 'gluon.html.A'>, 'Auth': <class 'gluon.tools.Auth'>, 'B': <class 'gluon.html.B'>, 'BEAUTIFY': <class 'gluon.html.BEAUTIFY'>, 'BODY': <class 'gluon.html.BODY'>, 'BR': <class 'gluon.html.BR'>, 'BUTTON': <class 'gluon.html.BUTTON'>, 'CAT': <class 'gluon.html.CAT'>, 'CENTER': <class 'gluon.html.CENTER'>, 'CLEANUP': <class 'gluon.validators.CLEANUP'>, ...}"
p2941
sS'ccode'
p2942
S'<code object <module> at 0x3c55130, file "/home/...tions/streamlog/controllers/default.py", line 14>'
p2943
ssS'lnum'
p2944
I194
sS'lines'
p2945
(dp2946
I192
S'        else:'
p2947
sI193
S'            ccode = compile2(code,layer)'
p2948
sI194
S'        exec ccode in environment'
p2949
sI195
S'    except HTTP:'
p2950
sI196
S'        raise'
p2951
sI197
S'    except Exception, error:'
p2952
sI198
S'        # XXX Show exception in Wing IDE if running in debugger'
p2953
sI189
S'    try:'
p2954
sI190
S'        if type(code) == types.CodeType:'
p2955
sI191
S'            ccode = code'
p2956
ssS'call'
p2957
S"(code='# -*- coding: utf-8 -*-\\n# this file is released ...m=crud())\\n\\nresponse._vars=response._caller(call)\\n', environment={'A': <class 'gluon.html.A'>, 'Auth': <class 'gluon.tools.Auth'>, 'B': <class 'gluon.html.B'>, 'BEAUTIFY': <class 'gluon.html.BEAUTIFY'>, 'BODY': <class 'gluon.html.BODY'>, 'BR': <class 'gluon.html.BR'>, 'BUTTON': <class 'gluon.html.BUTTON'>, 'CAT': <class 'gluon.html.CAT'>, 'CENTER': <class 'gluon.html.CENTER'>, 'CLEANUP': <class 'gluon.validators.CLEANUP'>, ...}, layer='/home/jose/DESARROLLO/web2py199/applications/streamlog/controllers/default.py')"
p2958
sS'func'
p2959
S'restricted'
p2960
sa(dp2961
g2936
S'/home/jose/DESARROLLO/web2py199/applications/streamlog/controllers/default.py'
p2962
sg2938
(dp2963
sg2944
I176
sg2945
(dp2964
I165
S'    http://..../[app]/default/data/update/[table]/[id]'
p2965
sI166
S'    http://..../[app]/default/data/delete/[table]/[id]'
p2966
sI167
S'    http://..../[app]/default/data/select/[table]'
p2967
sI168
S'    http://..../[app]/default/data/search/[table]'
p2968
sI169
S'    but URLs bust be signed, i.e. linked with'
p2969
sI170
S"      A('table',_href=URL('data/tables',user_signature=True))"
p2970
sI171
S'    or with the signed load operator'
p2971
sI172
S"      LOAD('default','data.load',args='tables',ajax=True,user_signature=True)"
p2972
sI173
S'    """'
p2973
sI174
S'    return dict(form=crud())'
p2974
ssg2957
S'()'
p2975
sg2959
S'<module>'
p2976
sa(dp2977
g2936
S'/home/jose/DESARROLLO/web2py199/gluon/globals.py'
p2978
sg2938
(dp2979
S'self'
p2980
S'undefined'
p2981
sS'f'
S'<function call>'
p2982
ssg2944
I149
sg2945
(dp2983
I144
S'        self.meta = Storage()      # used by web2py_ajax.html'
p2984
sI145
S'        self.menu = []             # used by the default view layout'
p2985
sI146
S'        self.files = []            # used by web2py_ajax.html'
p2986
sI147
S'        self.generic_patterns = [] # patterns to allow generic views'
p2987
sI148
S'        self._vars = None'
p2988
sI149
S'        self._caller = lambda f: f()'
p2989
sI150
S'        self._view_environment = None'
p2990
sI151
S'        self._custom_commit = None'
p2991
sI152
S'        self._custom_rollback = None'
p2992
sI153
S''
ssg2957
S'(f=<function call>)'
p2993
sg2959
S'<lambda>'
p2994
sa(dp2995
g2936
S'/home/jose/DESARROLLO/web2py199/applications/streamlog/controllers/default.py'
p2996
sg2938
(dp2997
S'global service'
p2998
S'<gluon.tools.Service object>'
p2999
ssg2944
I156
sg2945
(dp3000
I160
S'def data():'
p3001
sI151
S'    exposes services. for example:'
p3002
sI152
S'    http://..../[app]/default/call/jsonrpc'
p3003
sI153
S'    decorate with @services.jsonrpc the functions to expose'
p3004
sI154
S'    supports xml, json, xmlrpc, jsonrpc, amfrpc, rss, csv'
p3005
sI155
S'    """'
p3006
sI156
S'    return service()'
p3007
sI157
S''
sI158
S''
sI159
S'@auth.requires_signature()'
p3008
ssg2957
S'()'
p3009
sg2959
g2957
sa(dp3010
g2936
S'/home/jose/DESARROLLO/web2py199/gluon/tools.py'
p3011
sg2938
(dp3012
S'request.args'
p3013
S"['json', 'getConnectionData', '2']"
p3014
sS'self.serve_json'
p3015
S'<bound method Service.serve_json of <gluon.tools.Service object>>'
p3016
sS'self'
p3017
S'<gluon.tools.Service object>'
p3018
sS'request'
p3019
S"<Storage {'body': <cStringIO.StringO object at 0..._vars': <Storage {}>, 'post_vars': <Storage {}>}>"
p3020
ssg2944
I3839
sg2945
(dp3021
I3840
S"        elif arg0 == 'jsonrpc':"
p3022
sI3841
S'            return self.serve_jsonrpc()'
p3023
sI3842
S"        elif arg0 == 'xmlrpc':"
p3024
sI3843
S'            return self.serve_xmlrpc()'
p3025
sI3834
S"        elif arg0 == 'csv':"
p3026
sI3835
S'            return self.serve_csv(request.args[1:])'
p3027
sI3836
S"        elif arg0 == 'xml':"
p3028
sI3837
S'            return self.serve_xml(request.args[1:])'
p3029
sI3838
S"        elif arg0 == 'json':"
p3030
sI3839
S'            return self.serve_json(request.args[1:])'
p3031
ssg2957
S'(self=<gluon.tools.Service object>)'
p3032
sg2959
S'__call__'
p3033
sa(dp3034
g2936
S'/home/jose/DESARROLLO/web2py199/gluon/tools.py'
p3035
sg2938
(dp3036
S'args'
p3037
S"['getConnectionData', '2']"
p3038
sS'd'
g44
sS'self'
p3039
S'<gluon.tools.Service object>'
p3040
sS'global universal_caller'
p3041
S'<function universal_caller>'
p3042
sS'self.json_procedures'
p3043
S"{'getConnectionData': <function getConnectionData>}"
p3044
sS's'
g2981
ssg2944
I3656
sg2945
(dp3045
I3651
S"        response.headers['Content-Type'] = 'application/json; charset=utf-8'"
p3046
sI3652
S'        if not args:'
p3047
sI3653
S'            args = request.args'
p3048
sI3654
S'        d = dict(request.vars)'
p3049
sI3655
S'        if args and args[0] in self.json_procedures:'
p3050
sI3656
S'            s = universal_caller(self.json_procedures[args[0]],*args[1:],**d)'
p3051
sI3657
S"            if hasattr(s, 'as_list'):"
p3052
sI3658
S'                s = s.as_list()'
p3053
sI3659
S'            return response.json(s)'
p3054
sI3660
S'        self.error()'
p3055
ssg2957
S"(self=<gluon.tools.Service object>, args=['getConnectionData', '2'])"
p3056
sg2959
S'serve_json'
p3057
sa(dp3058
g2936
S'/home/jose/DESARROLLO/web2py199/gluon/tools.py'
p3059
sg2938
(dp3060
S'arg_dict'
p3061
g44
sS'f'
S'<function getConnectionData>'
p3062
ssg2944
I3348
sg2945
(dp3063
I3343
S'        # However, we need to update the arg_dict with the values from the named arguments as well.'
p3064
sI3344
S'        for arg_name in named_args:'
p3065
sI3345
S'            if b.has_key(arg_name):'
p3066
sI3346
S'                arg_dict[arg_name] = b[arg_name]'
p3067
sI3347
S''
sI3348
S'        return f(**arg_dict)'
p3068
sI3349
S''
sI3350
S'    # Raise an error, the function cannot be called.'
p3069
sI3351
S'    raise HTTP(404, "Object does not exist")'
p3070
sI3352
S''
ssg2957
S"(f=<function getConnectionData>, *a=('2',), **b={})"
p3071
sg2959
S'universal_caller'
p3072
sa(dp3073
g2936
S'/home/jose/DESARROLLO/web2py199/applications/streamlog/controllers/default.py'
p3074
sg2938
(dp3075
S'db.t_server.port'
p3076
S'<gluon.dal.Field object>'
p3077
sS'db.t_log.name'
p3078
S'<gluon.dal.Field object>'
p3079
sS'data_connection'
p3080
g2981
sS'db.t_server.id'
p3081
S'<gluon.dal.Field object>'
p3082
sS').select'
p3083
g2981
sS'db.t_log.server'
p3084
S'<gluon.dal.Field object>'
p3085
sS'id_log'
p3086
S"'json'"
p3087
sS'db.t_log'
p3088
S"<Table {'ALL': <gluon.dal.SQLALL object at 0x39f...ription': <gluon.dal.Field object at 0x1fbaf90>}>"
p3089
sS'global db'
p3090
S"<DAL {'auth_event': <Table {'origin': <gluon.dal..., 'id': <gluon.dal.Field object at 0x1f1d910>}>}>"
p3091
sS'db.t_server.IP'
p3092
S'<gluon.dal.Field object>'
p3093
sS'db.t_log.id'
p3094
S'<gluon.dal.Field object>'
p3095
sS'db.t_server'
p3096
S"<Table {'project': <gluon.dal.Field object at 0x...ription': <gluon.dal.Field object at 0x2bd1ad0>}>"
p3097
ssg2944
I31
sg2945
(dp3098
I32
S''
sI33
S'    for row in data_connection:'
p3099
sI34
S'        ip=row.IP'
p3100
sI35
S'        port=row.port'
p3101
sI26
S'    id_log=request.args[0]'
p3102
sI27
S"    ip=''"
p3103
sI28
S"    port=''"
p3104
sI29
S"    name_log=''"
p3105
sI30
S''
sI31
S'    data_connection=db((db.t_log.id==id_log)&(db.t_log.server==db.t_server.id)).select(db.t_log.name,db.t_server.IP,db.t_server.port)'
p3106
ssg2957
S'()'
p3107
sg2959
S'getConnectionData'
p3108
sa(dp3109
g2936
S'/home/jose/DESARROLLO/web2py199/gluon/dal.py'
p3110
sg2938
(dp3111
S'self.query'
p3112
S'<gluon.dal.Query object>'
p3113
sS'fields'
p3114
S'(<gluon.dal.Field object>, <gluon.dal.Field object>, <gluon.dal.Field object>)'
p3115
sS'self'
p3116
S'<gluon.dal.Set object>'
p3117
sS'self.db._adapter.select'
p3118
S'<bound method SQLiteAdapter.select of <gluon.dal.SQLiteAdapter object>>'
p3119
sS'self.db._adapter'
p3120
S'<gluon.dal.SQLiteAdapter object>'
p3121
sS'attributes'
p3122
g44
sS'self.db'
p3123
S"<DAL {'auth_event': <Table {'origin': <gluon.dal..., 'id': <gluon.dal.Field object at 0x1f1d910>}>}>"
p3124
ssg2944
I5697
sg2945
(dp3125
I5696
S'    def select(self, *fields, **attributes):'
p3126
sI5697
S'        return self.db._adapter.select(self.query,fields,attributes)'
p3127
sI5698
S''
sI5699
S'    def delete(self):'
p3128
sI5700
S'        tablename=self.db._adapter.get_table(self.query)'
p3129
sI5701
S'        self.delete_uploaded_files()'
p3130
sI5692
S''
sI5693
S'    def count(self,distinct=None):'
p3131
sI5694
S'        return self.db._adapter.count(self.query,distinct)'
p3132
sI5695
S''
ssg2957
S'(self=<gluon.dal.Set object>, *fields=(<gluon.dal.Field object>, <gluon.dal.Field object>, <gluon.dal.Field object>), **attributes={})'
p3133
sg2959
S'select'
p3134
sa(dp3135
g2936
S'/home/jose/DESARROLLO/web2py199/gluon/dal.py'
p3136
sg2938
(dp3137
S'self._select'
p3138
S'<bound method SQLiteAdapter._select of <gluon.dal.SQLiteAdapter object>>'
p3139
sS'fields'
p3140
S'(<gluon.dal.Field object>, <gluon.dal.Field object>, <gluon.dal.Field object>)'
p3141
sS'self'
p3142
S'<gluon.dal.SQLiteAdapter object>'
p3143
sS'sql'
p3144
g2981
sS'query'
p3145
S'<gluon.dal.Query object>'
p3146
sS'attributes'
p3147
g44
ssg2944
I1225
sg2945
(dp3148
I1220
S'        Always returns a Rows object, even if it may be empty'
p3149
sI1221
S'        """'
p3150
sI1222
S'        def response(sql):'
p3151
sI1223
S'            self.execute(sql)'
p3152
sI1224
S'            return self.cursor.fetchall()'
p3153
sI1225
S'        sql = self._select(query,fields,attributes)'
p3154
sI1226
S"        if attributes.get('cache', None):"
p3155
sI1227
S"            (cache_model, time_expire) = attributes['cache']"
p3156
sI1228
S"            del attributes['cache']"
p3157
sI1229
S"            key = self.uri + '/' + sql"
p3158
ssg2957
S'(self=<gluon.dal.SQLiteAdapter object>, query=<gluon.dal.Query object>, fields=(<gluon.dal.Field object>, <gluon.dal.Field object>, <gluon.dal.Field object>), attributes={})'
p3159
sg2959
g3134
sa(dp3160
g2936
S'/home/jose/DESARROLLO/web2py199/gluon/dal.py'
p3161
sg2938
(dp3162
S'query'
p3163
S'<gluon.dal.Query object>'
p3164
sS'self'
p3165
S'<gluon.dal.SQLiteAdapter object>'
p3166
sS'sql_w'
p3167
g2981
sS'self.expand'
p3168
S'<bound method SQLiteAdapter.expand of <gluon.dal.SQLiteAdapter object>>'
p3169
ssg2944
I1132
sg2945
(dp3170
I1127
S'        if len(tablenames) < 1:'
p3171
sI1128
S"            raise SyntaxError, 'Set: no tables selected'"
p3172
sI1129
S"        sql_f = ', '.join(map(self.expand,fields))"
p3173
sI1130
S"        self._colnames = [c.strip() for c in sql_f.split(', ')]"
p3174
sI1131
S'        if query:'
p3175
sI1132
S"            sql_w = ' WHERE ' + self.expand(query)"
p3176
sI1133
S'        else:'
p3177
sI1134
S"            sql_w = ''"
p3178
sI1135
S"        sql_o = ''"
p3179
sI1136
S"        sql_s = ''"
p3180
ssg2957
S'(self=<gluon.dal.SQLiteAdapter object>, query=<gluon.dal.Query object>, fields=[<gluon.dal.Field object>, <gluon.dal.Field object>, <gluon.dal.Field object>], attributes={})'
p3181
sg2959
S'_select'
p3182
sa(dp3183
g2936
S'/home/jose/DESARROLLO/web2py199/gluon/dal.py'
p3184
sg2938
(dp3185
S'expression.op'
p3186
S'<bound method SQLiteAdapter.AND of <gluon.dal.SQLiteAdapter object>>'
p3187
sS'expression'
p3188
S'<gluon.dal.Query object>'
p3189
sS'expression.first'
p3190
S'<gluon.dal.Query object>'
p3191
sS'expression.second'
p3192
S'<gluon.dal.Query object>'
p3193
ssg2944
I987
sg2945
(dp3194
I982
S'    def expand(self,expression,field_type=None):'
p3195
sI983
S'        if isinstance(expression,Field):'
p3196
sI984
S'            return str(expression)'
p3197
sI985
S'        elif isinstance(expression, (Expression, Query)):'
p3198
sI986
S'            if not expression.second is None:'
p3199
sI987
S'                return expression.op(expression.first, expression.second)'
p3200
sI988
S'            elif not expression.first is None:'
p3201
sI989
S'                return expression.op(expression.first)'
p3202
sI990
S'            elif not isinstance(expression.op,str):'
p3203
sI991
S'                return expression.op()'
p3204
ssg2957
S'(self=<gluon.dal.SQLiteAdapter object>, expression=<gluon.dal.Query object>, field_type=None)'
p3205
sg2959
S'expand'
p3206
sa(dp3207
g2936
S'/home/jose/DESARROLLO/web2py199/gluon/dal.py'
p3208
sg2938
(dp3209
S'self'
p3210
S'<gluon.dal.SQLiteAdapter object>'
p3211
sS'first'
p3212
S'<gluon.dal.Query object>'
p3213
sS'second'
p3214
S'<gluon.dal.Query object>'
p3215
sS'self.expand'
p3216
S'<bound method SQLiteAdapter.expand of <gluon.dal.SQLiteAdapter object>>'
p3217
ssg2944
I904
sg2945
(dp3218
I899
S''
sI900
S'    def NOT(self,first):'
p3219
sI901
S"        return '(NOT %s)' % self.expand(first)"
p3220
sI902
S''
sI903
S'    def AND(self,first,second):'
p3221
sI904
S"        return '(%s AND %s)' % (self.expand(first),self.expand(second))"
p3222
sI905
S''
sI906
S'    def OR(self,first,second):'
p3223
sI907
S"        return '(%s OR %s)' % (self.expand(first),self.expand(second))"
p3224
sI908
S''
ssg2957
S'(self=<gluon.dal.SQLiteAdapter object>, first=<gluon.dal.Query object>, second=<gluon.dal.Query object>)'
p3225
sg2959
S'AND'
p3226
sa(dp3227
g2936
S'/home/jose/DESARROLLO/web2py199/gluon/dal.py'
p3228
sg2938
(dp3229
S'expression.op'
p3230
S'<bound method SQLiteAdapter.EQ of <gluon.dal.SQLiteAdapter object>>'
p3231
sS'expression'
p3232
S'<gluon.dal.Query object>'
p3233
sS'expression.first'
p3234
S'<gluon.dal.Field object>'
p3235
sS'expression.second'
p3236
S"'json'"
p3237
ssg2944
I987
sg2945
(dp3238
I982
S'    def expand(self,expression,field_type=None):'
p3239
sI983
S'        if isinstance(expression,Field):'
p3240
sI984
S'            return str(expression)'
p3241
sI985
S'        elif isinstance(expression, (Expression, Query)):'
p3242
sI986
S'            if not expression.second is None:'
p3243
sI987
S'                return expression.op(expression.first, expression.second)'
p3244
sI988
S'            elif not expression.first is None:'
p3245
sI989
S'                return expression.op(expression.first)'
p3246
sI990
S'            elif not isinstance(expression.op,str):'
p3247
sI991
S'                return expression.op()'
p3248
ssg2957
S'(self=<gluon.dal.SQLiteAdapter object>, expression=<gluon.dal.Query object>, field_type=None)'
p3249
sg2959
g3206
sa(dp3250
g2936
S'/home/jose/DESARROLLO/web2py199/gluon/dal.py'
p3251
sg2938
(dp3252
S'first.type'
p3253
S"'id'"
p3254
sS'self'
p3255
S'<gluon.dal.SQLiteAdapter object>'
p3256
sS'first'
p3257
S'<gluon.dal.Field object>'
p3258
sS'second'
p3259
S"'json'"
p3260
sS'self.expand'
p3261
S'<bound method SQLiteAdapter.expand of <gluon.dal.SQLiteAdapter object>>'
p3262
ssg2944
I936
sg2945
(dp3263
I931
S"        return '(%s LIKE %s)' % (self.expand(first),self.expand(key,'string'))"
p3264
sI932
S''
sI933
S'    def EQ(self,first,second=None):'
p3265
sI934
S'        if second is None:'
p3266
sI935
S"            return '(%s IS NULL)' % self.expand(first)"
p3267
sI936
S"        return '(%s = %s)' % (self.expand(first),self.expand(second,first.type))"
p3268
sI937
S''
sI938
S'    def NE(self,first,second=None):'
p3269
sI939
S'        if second is None:'
p3270
sI940
S"            return '(%s IS NOT NULL)' % self.expand(first)"
p3271
ssg2957
S"(self=<gluon.dal.SQLiteAdapter object>, first=<gluon.dal.Field object>, second='json')"
p3272
sg2959
S'EQ'
p3273
sa(dp3274
g2936
S'/home/jose/DESARROLLO/web2py199/gluon/dal.py'
p3275
sg2938
(dp3276
S'field_type'
p3277
S"'id'"
p3278
sS'self'
p3279
S'<gluon.dal.SQLiteAdapter object>'
p3280
sS'expression'
p3281
S"'json'"
p3282
sS'self.represent'
p3283
S'<bound method SQLiteAdapter.represent of <gluon.dal.SQLiteAdapter object>>'
p3284
ssg2944
I995
sg2945
(dp3285
I992
S'            else:'
p3286
sI993
S"                return '(%s)' % expression.op"
p3287
sI994
S'        elif field_type:'
p3288
sI995
S'            return self.represent(expression,field_type)'
p3289
sI996
S'        elif isinstance(expression,(list,tuple)):'
p3290
sI997
S"            return ','.join([self.represent(item,field_type) for item in expression])"
p3291
sI998
S'        else:'
p3292
sI999
S'            return str(expression)'
p3293
sI990
S'            elif not isinstance(expression.op,str):'
p3294
sI991
S'                return expression.op()'
p3295
ssg2957
S"(self=<gluon.dal.SQLiteAdapter object>, expression='json', field_type='id')"
p3296
sg2959
g3206
sa(dp3297
g2936
S'/home/jose/DESARROLLO/web2py199/gluon/dal.py'
p3298
sg2938
(dp3299
S'builtinstr'
p3300
S"<type 'str'>"
p3301
sS'builtinint'
p3302
S"<type 'int'>"
p3303
sS'obj'
p3304
S"'json'"
p3305
ssg2944
I1338
sg2945
(dp3306
I1333
S"            if obj and not str(obj)[:1].upper() in ['F', '0']:"
p3307
sI1334
S'                return "\'T\'"'
p3308
sI1335
S'            else:'
p3309
sI1336
S'                return "\'F\'"'
p3310
sI1337
S"        if fieldtype == 'id' or fieldtype == 'integer':"
p3311
sI1338
S'            return str(int(obj))'
p3312
sI1339
S"        if fieldtype.startswith('decimal'):"
p3313
sI1340
S'            return str(obj)'
p3314
sI1341
S"        elif fieldtype.startswith('reference'): # reference"
p3315
sI1342
S"            if fieldtype.find('.')>0:"
p3316
ssg2957
S"(self=<gluon.dal.SQLiteAdapter object>, obj='json', fieldtype='id')"
p3317
sg2959
S'represent'
p3318
sasS'pyver'
p3319
S'Python 2.7.2+: /usr/bin/python'
p3320
sS'session'
p3321
g56
(g57
g58
NtRp3322
(dp3323
g61
(dp3324
sg63
(lp3325
g56
(g65
g58
NtRp3326
(dp3327
g61
(dp3328
g69
I5
ssg70
Nsg63
(lp3329
g56
(g72
g58
NtRp3330
(dp3331
g61
(dp3332
sg70
g3326
sg63
(lp3333
g56
(g77
g58
NtRp3334
(dp3335
g61
(dp3336
g81
g82
ssg70
g3330
sg63
(lp3337
S'auth'
p3338
asbag56
(g77
g58
NtRp3339
(dp3340
g61
(dp3341
g88
g89
ssg70
g3330
sg63
(lp3342
S':'
asbag56
(g77
g58
NtRp3343
(dp3344
g61
(dp3345
sg70
g3330
sg63
(lp3346
g56
(g57
g58
NtRp3347
(dp3348
g61
(dp3349
g69
I5
ssg70
g3343
sg63
(lp3350
g56
(g65
g58
NtRp3351
(dp3352
g61
(dp3353
g69
I4
ssg70
Nsg63
(lp3354
g56
(g72
g58
NtRp3355
(dp3356
g61
(dp3357
sg70
g3351
sg63
(lp3358
g56
(g77
g58
NtRp3359
(dp3360
g61
(dp3361
g81
g82
ssg70
g3355
sg63
(lp3362
S'expiration'
p3363
asbag56
(g77
g58
NtRp3364
(dp3365
g61
(dp3366
g88
g89
ssg70
g3355
sg63
(lp3367
S':'
asbag56
(g77
g58
NtRp3368
(dp3369
g61
(dp3370
sg70
g3355
sg63
(lp3371
g56
(g57
g58
NtRp3372
(dp3373
g61
(dp3374
g69
I4
ssg70
g3368
sg63
(lp3375
S'2592000'
p3376
asbasbasbag56
(g72
g58
NtRp3377
(dp3378
g61
(dp3379
sg70
g3351
sg63
(lp3380
g56
(g77
g58
NtRp3381
(dp3382
g61
(dp3383
g81
g82
ssg70
g3377
sg63
(lp3384
S'hmac_key'
p3385
asbag56
(g77
g58
NtRp3386
(dp3387
g61
(dp3388
g88
g89
ssg70
g3377
sg63
(lp3389
S':'
asbag56
(g77
g58
NtRp3390
(dp3391
g61
(dp3392
sg70
g3377
sg63
(lp3393
g56
(g57
g58
NtRp3394
(dp3395
g61
(dp3396
g69
I4
ssg70
g3390
sg63
(lp3397
S'b954f0e8-95b3-42d2-829e-2e50e94d8454'
p3398
asbasbasbag56
(g72
g58
NtRp3399
(dp3400
g61
(dp3401
sg70
g3351
sg63
(lp3402
g56
(g77
g58
NtRp3403
(dp3404
g61
(dp3405
g81
g82
ssg70
g3399
sg63
(lp3406
S'last_visit'
p3407
asbag56
(g77
g58
NtRp3408
(dp3409
g61
(dp3410
g88
g89
ssg70
g3399
sg63
(lp3411
S':'
asbag56
(g77
g58
NtRp3412
(dp3413
g61
(dp3414
sg70
g3399
sg63
(lp3415
g56
(g57
g58
NtRp3416
(dp3417
g61
(dp3418
g69
I4
ssg70
g3412
sg63
(lp3419
S'datetime.datetime(2012, 5, 26, 18, 42, 33, 844375)'
p3420
asbasbasbag56
(g72
g58
NtRp3421
(dp3422
g61
(dp3423
sg70
g3351
sg63
(lp3424
g56
(g77
g58
NtRp3425
(dp3426
g61
(dp3427
g81
g82
ssg70
g3421
sg63
(lp3428
S'remember'
p3429
asbag56
(g77
g58
NtRp3430
(dp3431
g61
(dp3432
g88
g89
ssg70
g3421
sg63
(lp3433
S':'
asbag56
(g77
g58
NtRp3434
(dp3435
g61
(dp3436
sg70
g3421
sg63
(lp3437
g56
(g57
g58
NtRp3438
(dp3439
g61
(dp3440
g69
I4
ssg70
g3434
sg63
(lp3441
g99
asbasbasbag56
(g72
g58
NtRp3442
(dp3443
g61
(dp3444
sg70
g3351
sg63
(lp3445
g56
(g77
g58
NtRp3446
(dp3447
g61
(dp3448
g81
g82
ssg70
g3442
sg63
(lp3449
S'user'
p3450
asbag56
(g77
g58
NtRp3451
(dp3452
g61
(dp3453
g88
g89
ssg70
g3442
sg63
(lp3454
S':'
asbag56
(g77
g58
NtRp3455
(dp3456
g61
(dp3457
sg70
g3442
sg63
(lp3458
g56
(g57
g58
NtRp3459
(dp3460
g61
(dp3461
g69
I4
ssg70
g3455
sg63
(lp3462
g56
(g65
g58
NtRp3463
(dp3464
g61
(dp3465
g69
I3
ssg70
Nsg63
(lp3466
g56
(g72
g58
NtRp3467
(dp3468
g61
(dp3469
sg70
g3463
sg63
(lp3470
g56
(g77
g58
NtRp3471
(dp3472
g61
(dp3473
g81
g82
ssg70
g3467
sg63
(lp3474
S'email'
p3475
asbag56
(g77
g58
NtRp3476
(dp3477
g61
(dp3478
g88
g89
ssg70
g3467
sg63
(lp3479
S':'
asbag56
(g77
g58
NtRp3480
(dp3481
g61
(dp3482
sg70
g3467
sg63
(lp3483
g56
(g57
g58
NtRp3484
(dp3485
g61
(dp3486
g69
I3
ssg70
g3480
sg63
(lp3487
S'josedesoto@gmail.com'
p3488
asbasbasbag56
(g72
g58
NtRp3489
(dp3490
g61
(dp3491
sg70
g3463
sg63
(lp3492
g56
(g77
g58
NtRp3493
(dp3494
g61
(dp3495
g81
g82
ssg70
g3489
sg63
(lp3496
S'first_name'
p3497
asbag56
(g77
g58
NtRp3498
(dp3499
g61
(dp3500
g88
g89
ssg70
g3489
sg63
(lp3501
S':'
asbag56
(g77
g58
NtRp3502
(dp3503
g61
(dp3504
sg70
g3489
sg63
(lp3505
g56
(g57
g58
NtRp3506
(dp3507
g61
(dp3508
g69
I3
ssg70
g3502
sg63
(lp3509
S'jose'
p3510
asbasbasbag56
(g72
g58
NtRp3511
(dp3512
g61
(dp3513
sg70
g3463
sg63
(lp3514
g56
(g77
g58
NtRp3515
(dp3516
g61
(dp3517
g81
g82
ssg70
g3511
sg63
(lp3518
S'id'
p3519
asbag56
(g77
g58
NtRp3520
(dp3521
g61
(dp3522
g88
g89
ssg70
g3511
sg63
(lp3523
S':'
asbag56
(g77
g58
NtRp3524
(dp3525
g61
(dp3526
sg70
g3511
sg63
(lp3527
g56
(g57
g58
NtRp3528
(dp3529
g61
(dp3530
g69
I3
ssg70
g3524
sg63
(lp3531
S'1'
asbasbasbag56
(g72
g58
NtRp3532
(dp3533
g61
(dp3534
sg70
g3463
sg63
(lp3535
g56
(g77
g58
NtRp3536
(dp3537
g61
(dp3538
g81
g82
ssg70
g3532
sg63
(lp3539
S'last_name'
p3540
asbag56
(g77
g58
NtRp3541
(dp3542
g61
(dp3543
g88
g89
ssg70
g3532
sg63
(lp3544
S':'
asbag56
(g77
g58
NtRp3545
(dp3546
g61
(dp3547
sg70
g3532
sg63
(lp3548
g56
(g57
g58
NtRp3549
(dp3550
g61
(dp3551
g69
I3
ssg70
g3545
sg63
(lp3552
S'jose'
p3553
asbasbasbag56
(g72
g58
NtRp3554
(dp3555
g61
(dp3556
sg70
g3463
sg63
(lp3557
g56
(g77
g58
NtRp3558
(dp3559
g61
(dp3560
g81
g82
ssg70
g3554
sg63
(lp3561
S'password'
p3562
asbag56
(g77
g58
NtRp3563
(dp3564
g61
(dp3565
g88
g89
ssg70
g3554
sg63
(lp3566
S':'
asbag56
(g77
g58
NtRp3567
(dp3568
g61
(dp3569
sg70
g3554
sg63
(lp3570
g56
(g57
g58
NtRp3571
(dp3572
g61
(dp3573
g69
I3
ssg70
g3567
sg63
(lp3574
S'2b32eaa2baa0c63b755a4cde1e4dda83'
p3575
asbasbasbag56
(g72
g58
NtRp3576
(dp3577
g61
(dp3578
sg70
g3463
sg63
(lp3579
g56
(g77
g58
NtRp3580
(dp3581
g61
(dp3582
g81
g82
ssg70
g3576
sg63
(lp3583
S'registration_key'
p3584
asbag56
(g77
g58
NtRp3585
(dp3586
g61
(dp3587
g88
g89
ssg70
g3576
sg63
(lp3588
S':'
asbag56
(g77
g58
NtRp3589
(dp3590
g61
(dp3591
sg70
g3576
sg63
(lp3592
g56
(g57
g58
NtRp3593
(dp3594
g61
(dp3595
g69
I3
ssg70
g3589
sg63
(lp3596
S''
asbasbasbag56
(g72
g58
NtRp3597
(dp3598
g61
(dp3599
sg70
g3463
sg63
(lp3600
g56
(g77
g58
NtRp3601
(dp3602
g61
(dp3603
g81
g82
ssg70
g3597
sg63
(lp3604
S'reset_password_key'
p3605
asbag56
(g77
g58
NtRp3606
(dp3607
g61
(dp3608
g88
g89
ssg70
g3597
sg63
(lp3609
S':'
asbag56
(g77
g58
NtRp3610
(dp3611
g61
(dp3612
sg70
g3597
sg63
(lp3613
g56
(g57
g58
NtRp3614
(dp3615
g61
(dp3616
g69
I3
ssg70
g3610
sg63
(lp3617
S''
asbasbasbasbasbasbasbasbasbasbasbag56
(g72
g58
NtRp3618
(dp3619
g61
(dp3620
sg70
g3326
sg63
(lp3621
g56
(g77
g58
NtRp3622
(dp3623
g61
(dp3624
g81
g82
ssg70
g3618
sg63
(lp3625
S'last_query'
p3626
asbag56
(g77
g58
NtRp3627
(dp3628
g61
(dp3629
g88
g89
ssg70
g3618
sg63
(lp3630
S':'
asbag56
(g77
g58
NtRp3631
(dp3632
g61
(dp3633
sg70
g3618
sg63
(lp3634
g56
(g57
g58
NtRp3635
(dp3636
g61
(dp3637
g69
I5
ssg70
g3631
sg63
(lp3638
S'((db.t_project.user==me)&(db.t_server.project==db.t_project.id)&(db.t_log.server==db.t_server.id))'
p3639
asbasbasbasbasbsS'etype'
p3640
S"<type 'exceptions.ValueError'>"
p3641
sS'date'
p3642
S'Sat May 26 21:28:19 2012'
p3643
sS'response'
p3644
g56
(g57
g58
NtRp3645
(dp3646
g61
(dp3647
sg63
(lp3648
g56
(g65
g58
NtRp3649
(dp3650
g61
(dp3651
g69
I5
ssg70
Nsg63
(lp3652
g56
(g72
g58
NtRp3653
(dp3654
g61
(dp3655
sg70
g3649
sg63
(lp3656
g56
(g77
g58
NtRp3657
(dp3658
g61
(dp3659
g81
g82
ssg70
g3653
sg63
(lp3660
g192
asbag56
(g77
g58
NtRp3661
(dp3662
g61
(dp3663
g88
g89
ssg70
g3653
sg63
(lp3664
S':'
asbag56
(g77
g58
NtRp3665
(dp3666
g61
(dp3667
sg70
g3653
sg63
(lp3668
g56
(g57
g58
NtRp3669
(dp3670
g61
(dp3671
g69
I5
ssg70
g3665
sg63
(lp3672
S'<cStringIO.StringO object at 0x2a72b58>'
p3673
asbasbasbag56
(g72
g58
NtRp3674
(dp3675
g61
(dp3676
sg70
g3649
sg63
(lp3677
g56
(g77
g58
NtRp3678
(dp3679
g61
(dp3680
g81
g82
ssg70
g3674
sg63
(lp3681
g258
asbag56
(g77
g58
NtRp3682
(dp3683
g61
(dp3684
g88
g89
ssg70
g3674
sg63
(lp3685
S':'
asbag56
(g77
g58
NtRp3686
(dp3687
g61
(dp3688
sg70
g3674
sg63
(lp3689
g56
(g57
g58
NtRp3690
(dp3691
g61
(dp3692
g69
I5
ssg70
g3686
sg63
(lp3693
g56
(g65
g58
NtRp3694
(dp3695
g61
(dp3696
g69
I4
ssg70
Nsg63
(lp3697
g56
(g72
g58
NtRp3698
(dp3699
g61
(dp3700
sg70
g3694
sg63
(lp3701
g56
(g77
g58
NtRp3702
(dp3703
g61
(dp3704
g81
g82
ssg70
g3698
sg63
(lp3705
S'session_id_streamlog'
p3706
asbag56
(g77
g58
NtRp3707
(dp3708
g61
(dp3709
g88
g89
ssg70
g3698
sg63
(lp3710
S':'
asbag56
(g77
g58
NtRp3711
(dp3712
g61
(dp3713
sg70
g3698
sg63
(lp3714
g56
(g57
g58
NtRp3715
(dp3716
g61
(dp3717
g69
I4
ssg70
g3711
sg63
(lp3718
g56
(g65
g58
NtRp3719
(dp3720
g61
(dp3721
g69
I3
ssg70
Nsg63
(lp3722
g56
(g72
g58
NtRp3723
(dp3724
g61
(dp3725
sg70
g3719
sg63
(lp3726
g56
(g77
g58
NtRp3727
(dp3728
g61
(dp3729
g81
g82
ssg70
g3723
sg63
(lp3730
g308
asbag56
(g77
g58
NtRp3731
(dp3732
g61
(dp3733
g88
g89
ssg70
g3723
sg63
(lp3734
S':'
asbag56
(g77
g58
NtRp3735
(dp3736
g61
(dp3737
sg70
g3723
sg63
(lp3738
g56
(g57
g58
NtRp3739
(dp3740
g61
(dp3741
g69
I3
ssg70
g3735
sg63
(lp3742
S''
asbasbasbag56
(g72
g58
NtRp3743
(dp3744
g61
(dp3745
sg70
g3719
sg63
(lp3746
g56
(g77
g58
NtRp3747
(dp3748
g61
(dp3749
g81
g82
ssg70
g3743
sg63
(lp3750
g329
asbag56
(g77
g58
NtRp3751
(dp3752
g61
(dp3753
g88
g89
ssg70
g3743
sg63
(lp3754
S':'
asbag56
(g77
g58
NtRp3755
(dp3756
g61
(dp3757
sg70
g3743
sg63
(lp3758
g56
(g57
g58
NtRp3759
(dp3760
g61
(dp3761
g69
I3
ssg70
g3755
sg63
(lp3762
S''
asbasbasbag56
(g72
g58
NtRp3763
(dp3764
g61
(dp3765
sg70
g3719
sg63
(lp3766
g56
(g77
g58
NtRp3767
(dp3768
g61
(dp3769
g81
g82
ssg70
g3763
sg63
(lp3770
g350
asbag56
(g77
g58
NtRp3771
(dp3772
g61
(dp3773
g88
g89
ssg70
g3763
sg63
(lp3774
S':'
asbag56
(g77
g58
NtRp3775
(dp3776
g61
(dp3777
sg70
g3763
sg63
(lp3778
g56
(g57
g58
NtRp3779
(dp3780
g61
(dp3781
g69
I3
ssg70
g3775
sg63
(lp3782
S''
asbasbasbag56
(g72
g58
NtRp3783
(dp3784
g61
(dp3785
sg70
g3719
sg63
(lp3786
g56
(g77
g58
NtRp3787
(dp3788
g61
(dp3789
g81
g82
ssg70
g3783
sg63
(lp3790
g371
asbag56
(g77
g58
NtRp3791
(dp3792
g61
(dp3793
g88
g89
ssg70
g3783
sg63
(lp3794
S':'
asbag56
(g77
g58
NtRp3795
(dp3796
g61
(dp3797
sg70
g3783
sg63
(lp3798
g56
(g57
g58
NtRp3799
(dp3800
g61
(dp3801
g69
I3
ssg70
g3795
sg63
(lp3802
S''
asbasbasbag56
(g72
g58
NtRp3803
(dp3804
g61
(dp3805
sg70
g3719
sg63
(lp3806
g56
(g77
g58
NtRp3807
(dp3808
g61
(dp3809
g81
g82
ssg70
g3803
sg63
(lp3810
g392
asbag56
(g77
g58
NtRp3811
(dp3812
g61
(dp3813
g88
g89
ssg70
g3803
sg63
(lp3814
S':'
asbag56
(g77
g58
NtRp3815
(dp3816
g61
(dp3817
sg70
g3803
sg63
(lp3818
g56
(g57
g58
NtRp3819
(dp3820
g61
(dp3821
g69
I3
ssg70
g3815
sg63
(lp3822
S''
asbasbasbag56
(g72
g58
NtRp3823
(dp3824
g61
(dp3825
sg70
g3719
sg63
(lp3826
g56
(g77
g58
NtRp3827
(dp3828
g61
(dp3829
g81
g82
ssg70
g3823
sg63
(lp3830
g413
asbag56
(g77
g58
NtRp3831
(dp3832
g61
(dp3833
g88
g89
ssg70
g3823
sg63
(lp3834
S':'
asbag56
(g77
g58
NtRp3835
(dp3836
g61
(dp3837
sg70
g3823
sg63
(lp3838
g56
(g57
g58
NtRp3839
(dp3840
g61
(dp3841
g69
I3
ssg70
g3835
sg63
(lp3842
S'/'
asbasbasbag56
(g72
g58
NtRp3843
(dp3844
g61
(dp3845
sg70
g3719
sg63
(lp3846
g56
(g77
g58
NtRp3847
(dp3848
g61
(dp3849
g81
g82
ssg70
g3843
sg63
(lp3850
g434
asbag56
(g77
g58
NtRp3851
(dp3852
g61
(dp3853
g88
g89
ssg70
g3843
sg63
(lp3854
S':'
asbag56
(g77
g58
NtRp3855
(dp3856
g61
(dp3857
sg70
g3843
sg63
(lp3858
g56
(g57
g58
NtRp3859
(dp3860
g61
(dp3861
g69
I3
ssg70
g3855
sg63
(lp3862
S''
asbasbasbag56
(g72
g58
NtRp3863
(dp3864
g61
(dp3865
sg70
g3719
sg63
(lp3866
g56
(g77
g58
NtRp3867
(dp3868
g61
(dp3869
g81
g82
ssg70
g3863
sg63
(lp3870
g455
asbag56
(g77
g58
NtRp3871
(dp3872
g61
(dp3873
g88
g89
ssg70
g3863
sg63
(lp3874
S':'
asbag56
(g77
g58
NtRp3875
(dp3876
g61
(dp3877
sg70
g3863
sg63
(lp3878
g56
(g57
g58
NtRp3879
(dp3880
g61
(dp3881
g69
I3
ssg70
g3875
sg63
(lp3882
S''
asbasbasbasbasbasbasbasbasbasbasbag56
(g72
g58
NtRp3883
(dp3884
g61
(dp3885
sg70
g3649
sg63
(lp3886
g56
(g77
g58
NtRp3887
(dp3888
g61
(dp3889
g81
g82
ssg70
g3883
sg63
(lp3890
S'files'
p3891
asbag56
(g77
g58
NtRp3892
(dp3893
g61
(dp3894
g88
g89
ssg70
g3883
sg63
(lp3895
S':'
asbag56
(g77
g58
NtRp3896
(dp3897
g61
(dp3898
sg70
g3883
sg63
(lp3899
g56
(g57
g58
NtRp3900
(dp3901
g61
(dp3902
g69
I5
ssg70
g3896
sg63
(lp3903
g56
(g65
g58
NtRp3904
(dp3905
g61
(dp3906
g69
I4
ssg70
Nsg63
(lp3907
sbasbasbasbag56
(g72
g58
NtRp3908
(dp3909
g61
(dp3910
sg70
g3649
sg63
(lp3911
g56
(g77
g58
NtRp3912
(dp3913
g61
(dp3914
g81
g82
ssg70
g3908
sg63
(lp3915
S'flash'
p3916
asbag56
(g77
g58
NtRp3917
(dp3918
g61
(dp3919
g88
g89
ssg70
g3908
sg63
(lp3920
S':'
asbag56
(g77
g58
NtRp3921
(dp3922
g61
(dp3923
sg70
g3908
sg63
(lp3924
g56
(g57
g58
NtRp3925
(dp3926
g61
(dp3927
g69
I5
ssg70
g3921
sg63
(lp3928
S''
asbasbasbag56
(g72
g58
NtRp3929
(dp3930
g61
(dp3931
sg70
g3649
sg63
(lp3932
g56
(g77
g58
NtRp3933
(dp3934
g61
(dp3935
g81
g82
ssg70
g3929
sg63
(lp3936
S'generic_patterns'
p3937
asbag56
(g77
g58
NtRp3938
(dp3939
g61
(dp3940
g88
g89
ssg70
g3929
sg63
(lp3941
S':'
asbag56
(g77
g58
NtRp3942
(dp3943
g61
(dp3944
sg70
g3929
sg63
(lp3945
g56
(g57
g58
NtRp3946
(dp3947
g61
(dp3948
g69
I5
ssg70
g3942
sg63
(lp3949
g56
(g65
g58
NtRp3950
(dp3951
g61
(dp3952
g69
I4
ssg70
Nsg63
(lp3953
g56
(g72
g58
NtRp3954
(dp3955
g61
(dp3956
sg70
g3950
sg63
(lp3957
g56
(g77
g58
NtRp3958
(dp3959
g61
(dp3960
sg70
g3954
sg63
(lp3961
g56
(g57
g58
NtRp3962
(dp3963
g61
(dp3964
g69
I4
ssg70
g3958
sg63
(lp3965
S'*'
asbasbasbasbasbasbasbag56
(g72
g58
NtRp3966
(dp3967
g61
(dp3968
sg70
g3649
sg63
(lp3969
g56
(g77
g58
NtRp3970
(dp3971
g61
(dp3972
g81
g82
ssg70
g3966
sg63
(lp3973
S'headers'
p3974
asbag56
(g77
g58
NtRp3975
(dp3976
g61
(dp3977
g88
g89
ssg70
g3966
sg63
(lp3978
S':'
asbag56
(g77
g58
NtRp3979
(dp3980
g61
(dp3981
sg70
g3966
sg63
(lp3982
g56
(g57
g58
NtRp3983
(dp3984
g61
(dp3985
g69
I5
ssg70
g3979
sg63
(lp3986
g56
(g65
g58
NtRp3987
(dp3988
g61
(dp3989
g69
I4
ssg70
Nsg63
(lp3990
g56
(g72
g58
NtRp3991
(dp3992
g61
(dp3993
sg70
g3987
sg63
(lp3994
g56
(g77
g58
NtRp3995
(dp3996
g61
(dp3997
g81
g82
ssg70
g3991
sg63
(lp3998
S'Cache-Control'
p3999
asbag56
(g77
g58
NtRp4000
(dp4001
g61
(dp4002
g88
g89
ssg70
g3991
sg63
(lp4003
S':'
asbag56
(g77
g58
NtRp4004
(dp4005
g61
(dp4006
sg70
g3991
sg63
(lp4007
g56
(g57
g58
NtRp4008
(dp4009
g61
(dp4010
g69
I4
ssg70
g4004
sg63
(lp4011
S'no-store, no-cache, must-revalidate, post-check=0, pre-check=0'
p4012
asbasbasbag56
(g72
g58
NtRp4013
(dp4014
g61
(dp4015
sg70
g3987
sg63
(lp4016
g56
(g77
g58
NtRp4017
(dp4018
g61
(dp4019
g81
g82
ssg70
g4013
sg63
(lp4020
S'Content-Type'
p4021
asbag56
(g77
g58
NtRp4022
(dp4023
g61
(dp4024
g88
g89
ssg70
g4013
sg63
(lp4025
S':'
asbag56
(g77
g58
NtRp4026
(dp4027
g61
(dp4028
sg70
g4013
sg63
(lp4029
g56
(g57
g58
NtRp4030
(dp4031
g61
(dp4032
g69
I4
ssg70
g4026
sg63
(lp4033
S'application/json; charset=utf-8'
p4034
asbasbasbag56
(g72
g58
NtRp4035
(dp4036
g61
(dp4037
sg70
g3987
sg63
(lp4038
g56
(g77
g58
NtRp4039
(dp4040
g61
(dp4041
g81
g82
ssg70
g4035
sg63
(lp4042
S'Expires'
p4043
asbag56
(g77
g58
NtRp4044
(dp4045
g61
(dp4046
g88
g89
ssg70
g4035
sg63
(lp4047
S':'
asbag56
(g77
g58
NtRp4048
(dp4049
g61
(dp4050
sg70
g4035
sg63
(lp4051
g56
(g57
g58
NtRp4052
(dp4053
g61
(dp4054
g69
I4
ssg70
g4048
sg63
(lp4055
S'Sat, 26 May 2012 14:28:19 GMT'
p4056
asbasbasbag56
(g72
g58
NtRp4057
(dp4058
g61
(dp4059
sg70
g3987
sg63
(lp4060
g56
(g77
g58
NtRp4061
(dp4062
g61
(dp4063
g81
g82
ssg70
g4057
sg63
(lp4064
S'Pragma'
p4065
asbag56
(g77
g58
NtRp4066
(dp4067
g61
(dp4068
g88
g89
ssg70
g4057
sg63
(lp4069
S':'
asbag56
(g77
g58
NtRp4070
(dp4071
g61
(dp4072
sg70
g4057
sg63
(lp4073
g56
(g57
g58
NtRp4074
(dp4075
g61
(dp4076
g69
I4
ssg70
g4070
sg63
(lp4077
S'no-cache'
p4078
asbasbasbag56
(g72
g58
NtRp4079
(dp4080
g61
(dp4081
sg70
g3987
sg63
(lp4082
g56
(g77
g58
NtRp4083
(dp4084
g61
(dp4085
g81
g82
ssg70
g4079
sg63
(lp4086
S'X-Powered-By'
p4087
asbag56
(g77
g58
NtRp4088
(dp4089
g61
(dp4090
g88
g89
ssg70
g4079
sg63
(lp4091
S':'
asbag56
(g77
g58
NtRp4092
(dp4093
g61
(dp4094
sg70
g4079
sg63
(lp4095
g56
(g57
g58
NtRp4096
(dp4097
g61
(dp4098
g69
I4
ssg70
g4092
sg63
(lp4099
S'web2py'
p4100
asbasbasbasbasbasbasbag56
(g72
g58
NtRp4101
(dp4102
g61
(dp4103
sg70
g3649
sg63
(lp4104
g56
(g77
g58
NtRp4105
(dp4106
g61
(dp4107
g81
g82
ssg70
g4101
sg63
(lp4108
S'menu'
p4109
asbag56
(g77
g58
NtRp4110
(dp4111
g61
(dp4112
g88
g89
ssg70
g4101
sg63
(lp4113
S':'
asbag56
(g77
g58
NtRp4114
(dp4115
g61
(dp4116
sg70
g4101
sg63
(lp4117
g56
(g57
g58
NtRp4118
(dp4119
g61
(dp4120
g69
I5
ssg70
g4114
sg63
(lp4121
g56
(g65
g58
NtRp4122
(dp4123
g61
(dp4124
g69
I4
ssg70
Nsg63
(lp4125
g56
(g72
g58
NtRp4126
(dp4127
g61
(dp4128
sg70
g4122
sg63
(lp4129
g56
(g77
g58
NtRp4130
(dp4131
g61
(dp4132
sg70
g4126
sg63
(lp4133
g56
(g57
g58
NtRp4134
(dp4135
g61
(dp4136
g69
I4
ssg70
g4130
sg63
(lp4137
g56
(g65
g58
NtRp4138
(dp4139
g61
(dp4140
g69
I3
ssg70
Nsg63
(lp4141
g56
(g72
g58
NtRp4142
(dp4143
g61
(dp4144
sg70
g4138
sg63
(lp4145
g56
(g77
g58
NtRp4146
(dp4147
g61
(dp4148
sg70
g4142
sg63
(lp4149
g56
(g57
g58
NtRp4150
(dp4151
g61
(dp4152
g69
I3
ssg70
g4146
sg63
(lp4153
cgluon.languages
lazyT_unpickle
p4154
(S's\n\x00\x00\x00Clear Page'
tRp4155
asbasbasbag56
(g72
g58
NtRp4156
(dp4157
g61
(dp4158
sg70
g4138
sg63
(lp4159
g56
(g77
g58
NtRp4160
(dp4161
g61
(dp4162
sg70
g4156
sg63
(lp4163
g56
(g57
g58
NtRp4164
(dp4165
g61
(dp4166
g69
I3
ssg70
g4160
sg63
(lp4167
g99
asbasbasbag56
(g72
g58
NtRp4168
(dp4169
g61
(dp4170
sg70
g4138
sg63
(lp4171
g56
(g77
g58
NtRp4172
(dp4173
g61
(dp4174
sg70
g4168
sg63
(lp4175
g56
(g57
g58
NtRp4176
(dp4177
g61
(dp4178
g69
I3
ssg70
g4172
sg63
(lp4179
S'/streamlog/default/index'
p4180
asbasbasbag56
(g72
g58
NtRp4181
(dp4182
g61
(dp4183
sg70
g4138
sg63
(lp4184
g56
(g77
g58
NtRp4185
(dp4186
g61
(dp4187
sg70
g4181
sg63
(lp4188
g56
(g57
g58
NtRp4189
(dp4190
g61
(dp4191
g69
I3
ssg70
g4185
sg63
(lp4192
g56
(g65
g58
NtRp4193
(dp4194
g61
(dp4195
g69
I2
ssg70
Nsg63
(lp4196
sbasbasbasbasbasbasbasbag56
(g72
g58
NtRp4197
(dp4198
g61
(dp4199
sg70
g4122
sg63
(lp4200
g56
(g77
g58
NtRp4201
(dp4202
g61
(dp4203
sg70
g4197
sg63
(lp4204
g56
(g57
g58
NtRp4205
(dp4206
g61
(dp4207
g69
I4
ssg70
g4201
sg63
(lp4208
g56
(g65
g58
NtRp4209
(dp4210
g61
(dp4211
g69
I3
ssg70
Nsg63
(lp4212
g56
(g72
g58
NtRp4213
(dp4214
g61
(dp4215
sg70
g4209
sg63
(lp4216
g56
(g77
g58
NtRp4217
(dp4218
g61
(dp4219
sg70
g4213
sg63
(lp4220
g56
(g57
g58
NtRp4221
(dp4222
g61
(dp4223
g69
I3
ssg70
g4217
sg63
(lp4224
g4154
(S't\x06\x00\x00\x00Manage'
tRp4225
asbasbasbag56
(g72
g58
NtRp4226
(dp4227
g61
(dp4228
sg70
g4209
sg63
(lp4229
g56
(g77
g58
NtRp4230
(dp4231
g61
(dp4232
sg70
g4226
sg63
(lp4233
g56
(g57
g58
NtRp4234
(dp4235
g61
(dp4236
g69
I3
ssg70
g4230
sg63
(lp4237
g99
asbasbasbag56
(g72
g58
NtRp4238
(dp4239
g61
(dp4240
sg70
g4209
sg63
(lp4241
g56
(g77
g58
NtRp4242
(dp4243
g61
(dp4244
sg70
g4238
sg63
(lp4245
g56
(g57
g58
NtRp4246
(dp4247
g61
(dp4248
g69
I3
ssg70
g4242
sg63
(lp4249
S'None'
p4250
asbasbasbag56
(g72
g58
NtRp4251
(dp4252
g61
(dp4253
sg70
g4209
sg63
(lp4254
g56
(g77
g58
NtRp4255
(dp4256
g61
(dp4257
sg70
g4251
sg63
(lp4258
g56
(g57
g58
NtRp4259
(dp4260
g61
(dp4261
g69
I3
ssg70
g4255
sg63
(lp4262
g56
(g65
g58
NtRp4263
(dp4264
g61
(dp4265
g69
I2
ssg70
Nsg63
(lp4266
g56
(g72
g58
NtRp4267
(dp4268
g61
(dp4269
sg70
g4263
sg63
(lp4270
g56
(g77
g58
NtRp4271
(dp4272
g61
(dp4273
sg70
g4267
sg63
(lp4274
g56
(g57
g58
NtRp4275
(dp4276
g61
(dp4277
g69
I2
ssg70
g4271
sg63
(lp4278
g56
(g65
g58
NtRp4279
(dp4280
g61
(dp4281
g69
I1
ssg70
Nsg63
(lp4282
g56
(g72
g58
NtRp4283
(dp4284
g61
(dp4285
sg70
g4279
sg63
(lp4286
g56
(g77
g58
NtRp4287
(dp4288
g61
(dp4289
sg70
g4283
sg63
(lp4290
g56
(g57
g58
NtRp4291
(dp4292
g61
(dp4293
g69
I1
ssg70
g4287
sg63
(lp4294
g4154
(S't\x04\x00\x00\x00Logs'
tRp4295
asbasbasbag56
(g72
g58
NtRp4296
(dp4297
g61
(dp4298
sg70
g4279
sg63
(lp4299
g56
(g77
g58
NtRp4300
(dp4301
g61
(dp4302
sg70
g4296
sg63
(lp4303
g56
(g57
g58
NtRp4304
(dp4305
g61
(dp4306
g69
I1
ssg70
g4300
sg63
(lp4307
I00
asbasbasbag56
(g72
g58
NtRp4308
(dp4309
g61
(dp4310
sg70
g4279
sg63
(lp4311
g56
(g77
g58
NtRp4312
(dp4313
g61
(dp4314
sg70
g4308
sg63
(lp4315
g56
(g57
g58
NtRp4316
(dp4317
g61
(dp4318
g69
I1
ssg70
g4312
sg63
(lp4319
S'/streamlog/default/log_manage'
p4320
asbasbasbag56
(g72
g58
NtRp4321
(dp4322
g61
(dp4323
sg70
g4279
sg63
(lp4324
g56
(g77
g58
NtRp4325
(dp4326
g61
(dp4327
sg70
g4321
sg63
(lp4328
g56
(g57
g58
NtRp4329
(dp4330
g61
(dp4331
g69
I1
ssg70
g4325
sg63
(lp4332
(lp4333
asbasbasbasbasbasbasbag56
(g72
g58
NtRp4334
(dp4335
g61
(dp4336
sg70
g4263
sg63
(lp4337
g56
(g77
g58
NtRp4338
(dp4339
g61
(dp4340
sg70
g4334
sg63
(lp4341
g56
(g57
g58
NtRp4342
(dp4343
g61
(dp4344
g69
I2
ssg70
g4338
sg63
(lp4345
g56
(g65
g58
NtRp4346
(dp4347
g61
(dp4348
g69
I1
ssg70
Nsg63
(lp4349
g56
(g72
g58
NtRp4350
(dp4351
g61
(dp4352
sg70
g4346
sg63
(lp4353
g56
(g77
g58
NtRp4354
(dp4355
g61
(dp4356
sg70
g4350
sg63
(lp4357
g56
(g57
g58
NtRp4358
(dp4359
g61
(dp4360
g69
I1
ssg70
g4354
sg63
(lp4361
g4154
(S't\x07\x00\x00\x00Servers'
tRp4362
asbasbasbag56
(g72
g58
NtRp4363
(dp4364
g61
(dp4365
sg70
g4346
sg63
(lp4366
g56
(g77
g58
NtRp4367
(dp4368
g61
(dp4369
sg70
g4363
sg63
(lp4370
g56
(g57
g58
NtRp4371
(dp4372
g61
(dp4373
g69
I1
ssg70
g4367
sg63
(lp4374
I00
asbasbasbag56
(g72
g58
NtRp4375
(dp4376
g61
(dp4377
sg70
g4346
sg63
(lp4378
g56
(g77
g58
NtRp4379
(dp4380
g61
(dp4381
sg70
g4375
sg63
(lp4382
g56
(g57
g58
NtRp4383
(dp4384
g61
(dp4385
g69
I1
ssg70
g4379
sg63
(lp4386
S'/streamlog/default/server_manage'
p4387
asbasbasbag56
(g72
g58
NtRp4388
(dp4389
g61
(dp4390
sg70
g4346
sg63
(lp4391
g56
(g77
g58
NtRp4392
(dp4393
g61
(dp4394
sg70
g4388
sg63
(lp4395
g56
(g57
g58
NtRp4396
(dp4397
g61
(dp4398
g69
I1
ssg70
g4392
sg63
(lp4399
(lp4400
asbasbasbasbasbasbasbag56
(g72
g58
NtRp4401
(dp4402
g61
(dp4403
sg70
g4263
sg63
(lp4404
g56
(g77
g58
NtRp4405
(dp4406
g61
(dp4407
sg70
g4401
sg63
(lp4408
g56
(g57
g58
NtRp4409
(dp4410
g61
(dp4411
g69
I2
ssg70
g4405
sg63
(lp4412
g56
(g65
g58
NtRp4413
(dp4414
g61
(dp4415
g69
I1
ssg70
Nsg63
(lp4416
g56
(g72
g58
NtRp4417
(dp4418
g61
(dp4419
sg70
g4413
sg63
(lp4420
g56
(g77
g58
NtRp4421
(dp4422
g61
(dp4423
sg70
g4417
sg63
(lp4424
g56
(g57
g58
NtRp4425
(dp4426
g61
(dp4427
g69
I1
ssg70
g4421
sg63
(lp4428
g4154
(S't\x08\x00\x00\x00Projects'
tRp4429
asbasbasbag56
(g72
g58
NtRp4430
(dp4431
g61
(dp4432
sg70
g4413
sg63
(lp4433
g56
(g77
g58
NtRp4434
(dp4435
g61
(dp4436
sg70
g4430
sg63
(lp4437
g56
(g57
g58
NtRp4438
(dp4439
g61
(dp4440
g69
I1
ssg70
g4434
sg63
(lp4441
I00
asbasbasbag56
(g72
g58
NtRp4442
(dp4443
g61
(dp4444
sg70
g4413
sg63
(lp4445
g56
(g77
g58
NtRp4446
(dp4447
g61
(dp4448
sg70
g4442
sg63
(lp4449
g56
(g57
g58
NtRp4450
(dp4451
g61
(dp4452
g69
I1
ssg70
g4446
sg63
(lp4453
S'/streamlog/default/project_manage'
p4454
asbasbasbag56
(g72
g58
NtRp4455
(dp4456
g61
(dp4457
sg70
g4413
sg63
(lp4458
g56
(g77
g58
NtRp4459
(dp4460
g61
(dp4461
sg70
g4455
sg63
(lp4462
g56
(g57
g58
NtRp4463
(dp4464
g61
(dp4465
g69
I1
ssg70
g4459
sg63
(lp4466
(lp4467
asbasbasbasbasbasbasbag56
(g72
g58
NtRp4468
(dp4469
g61
(dp4470
sg70
g4263
sg63
(lp4471
g56
(g77
g58
NtRp4472
(dp4473
g61
(dp4474
sg70
g4468
sg63
(lp4475
g56
(g57
g58
NtRp4476
(dp4477
g61
(dp4478
g69
I2
ssg70
g4472
sg63
(lp4479
g56
(g65
g58
NtRp4480
(dp4481
g61
(dp4482
g69
I1
ssg70
Nsg63
(lp4483
g56
(g72
g58
NtRp4484
(dp4485
g61
(dp4486
sg70
g4480
sg63
(lp4487
g56
(g77
g58
NtRp4488
(dp4489
g61
(dp4490
sg70
g4484
sg63
(lp4491
g56
(g57
g58
NtRp4492
(dp4493
g61
(dp4494
g69
I1
ssg70
g4488
sg63
(lp4495
g4154
(S's\t\x00\x00\x00Type Logs'
tRp4496
asbasbasbag56
(g72
g58
NtRp4497
(dp4498
g61
(dp4499
sg70
g4480
sg63
(lp4500
g56
(g77
g58
NtRp4501
(dp4502
g61
(dp4503
sg70
g4497
sg63
(lp4504
g56
(g57
g58
NtRp4505
(dp4506
g61
(dp4507
g69
I1
ssg70
g4501
sg63
(lp4508
I00
asbasbasbag56
(g72
g58
NtRp4509
(dp4510
g61
(dp4511
sg70
g4480
sg63
(lp4512
g56
(g77
g58
NtRp4513
(dp4514
g61
(dp4515
sg70
g4509
sg63
(lp4516
g56
(g57
g58
NtRp4517
(dp4518
g61
(dp4519
g69
I1
ssg70
g4513
sg63
(lp4520
S'/streamlog/default/type_log_manage'
p4521
asbasbasbag56
(g72
g58
NtRp4522
(dp4523
g61
(dp4524
sg70
g4480
sg63
(lp4525
g56
(g77
g58
NtRp4526
(dp4527
g61
(dp4528
sg70
g4522
sg63
(lp4529
g56
(g57
g58
NtRp4530
(dp4531
g61
(dp4532
g69
I1
ssg70
g4526
sg63
(lp4533
(lp4534
asbasbasbasbasbasbasbasbasbasbasbasbasbasbasbasbasbasbasbag56
(g72
g58
NtRp4535
(dp4536
g61
(dp4537
sg70
g3649
sg63
(lp4538
g56
(g77
g58
NtRp4539
(dp4540
g61
(dp4541
g81
g82
ssg70
g4535
sg63
(lp4542
S'meta'
p4543
asbag56
(g77
g58
NtRp4544
(dp4545
g61
(dp4546
g88
g89
ssg70
g4535
sg63
(lp4547
S':'
asbag56
(g77
g58
NtRp4548
(dp4549
g61
(dp4550
sg70
g4535
sg63
(lp4551
g56
(g57
g58
NtRp4552
(dp4553
g61
(dp4554
g69
I5
ssg70
g4548
sg63
(lp4555
g56
(g65
g58
NtRp4556
(dp4557
g61
(dp4558
g69
I4
ssg70
Nsg63
(lp4559
g56
(g72
g58
NtRp4560
(dp4561
g61
(dp4562
sg70
g4556
sg63
(lp4563
g56
(g77
g58
NtRp4564
(dp4565
g61
(dp4566
g81
g82
ssg70
g4560
sg63
(lp4567
S'author'
p4568
asbag56
(g77
g58
NtRp4569
(dp4570
g61
(dp4571
g88
g89
ssg70
g4560
sg63
(lp4572
S':'
asbag56
(g77
g58
NtRp4573
(dp4574
g61
(dp4575
sg70
g4560
sg63
(lp4576
g56
(g57
g58
NtRp4577
(dp4578
g61
(dp4579
g69
I4
ssg70
g4573
sg63
(lp4580
S'Jose de Soto <josedesoto@gmail.com>'
p4581
asbasbasbag56
(g72
g58
NtRp4582
(dp4583
g61
(dp4584
sg70
g4556
sg63
(lp4585
g56
(g77
g58
NtRp4586
(dp4587
g61
(dp4588
g81
g82
ssg70
g4582
sg63
(lp4589
S'copyright'
p4590
asbag56
(g77
g58
NtRp4591
(dp4592
g61
(dp4593
g88
g89
ssg70
g4582
sg63
(lp4594
S':'
asbag56
(g77
g58
NtRp4595
(dp4596
g61
(dp4597
sg70
g4582
sg63
(lp4598
g56
(g57
g58
NtRp4599
(dp4600
g61
(dp4601
g69
I4
ssg70
g4595
sg63
(lp4602
S'Copyright 2011'
p4603
asbasbasbag56
(g72
g58
NtRp4604
(dp4605
g61
(dp4606
sg70
g4556
sg63
(lp4607
g56
(g77
g58
NtRp4608
(dp4609
g61
(dp4610
g81
g82
ssg70
g4604
sg63
(lp4611
S'description'
p4612
asbag56
(g77
g58
NtRp4613
(dp4614
g61
(dp4615
g88
g89
ssg70
g4604
sg63
(lp4616
S':'
asbag56
(g77
g58
NtRp4617
(dp4618
g61
(dp4619
sg70
g4604
sg63
(lp4620
g56
(g57
g58
NtRp4621
(dp4622
g61
(dp4623
g69
I4
ssg70
g4617
sg63
(lp4624
S'a cool new app'
p4625
asbasbasbag56
(g72
g58
NtRp4626
(dp4627
g61
(dp4628
sg70
g4556
sg63
(lp4629
g56
(g77
g58
NtRp4630
(dp4631
g61
(dp4632
g81
g82
ssg70
g4626
sg63
(lp4633
S'generator'
p4634
asbag56
(g77
g58
NtRp4635
(dp4636
g61
(dp4637
g88
g89
ssg70
g4626
sg63
(lp4638
S':'
asbag56
(g77
g58
NtRp4639
(dp4640
g61
(dp4641
sg70
g4626
sg63
(lp4642
g56
(g57
g58
NtRp4643
(dp4644
g61
(dp4645
g69
I4
ssg70
g4639
sg63
(lp4646
S'Web2py Web Framework'
p4647
asbasbasbag56
(g72
g58
NtRp4648
(dp4649
g61
(dp4650
sg70
g4556
sg63
(lp4651
g56
(g77
g58
NtRp4652
(dp4653
g61
(dp4654
g81
g82
ssg70
g4648
sg63
(lp4655
S'keywords'
p4656
asbag56
(g77
g58
NtRp4657
(dp4658
g61
(dp4659
g88
g89
ssg70
g4648
sg63
(lp4660
S':'
asbag56
(g77
g58
NtRp4661
(dp4662
g61
(dp4663
sg70
g4648
sg63
(lp4664
g56
(g57
g58
NtRp4665
(dp4666
g61
(dp4667
g69
I4
ssg70
g4661
sg63
(lp4668
S'web2py, python, framework'
p4669
asbasbasbasbasbasbasbag56
(g72
g58
NtRp4670
(dp4671
g61
(dp4672
sg70
g3649
sg63
(lp4673
g56
(g77
g58
NtRp4674
(dp4675
g61
(dp4676
g81
g82
ssg70
g4670
sg63
(lp4677
S'postprocessing'
p4678
asbag56
(g77
g58
NtRp4679
(dp4680
g61
(dp4681
g88
g89
ssg70
g4670
sg63
(lp4682
S':'
asbag56
(g77
g58
NtRp4683
(dp4684
g61
(dp4685
sg70
g4670
sg63
(lp4686
g56
(g57
g58
NtRp4687
(dp4688
g61
(dp4689
g69
I5
ssg70
g4683
sg63
(lp4690
g56
(g65
g58
NtRp4691
(dp4692
g61
(dp4693
g69
I4
ssg70
Nsg63
(lp4694
sbasbasbasbag56
(g72
g58
NtRp4695
(dp4696
g61
(dp4697
sg70
g3649
sg63
(lp4698
g56
(g77
g58
NtRp4699
(dp4700
g61
(dp4701
g81
g82
ssg70
g4695
sg63
(lp4702
S'session_file'
p4703
asbag56
(g77
g58
NtRp4704
(dp4705
g61
(dp4706
g88
g89
ssg70
g4695
sg63
(lp4707
S':'
asbag56
(g77
g58
NtRp4708
(dp4709
g61
(dp4710
sg70
g4695
sg63
(lp4711
g56
(g57
g58
NtRp4712
(dp4713
g61
(dp4714
g69
I5
ssg70
g4708
sg63
(lp4715
S"<open file '/home/jose/DESARROLLO/web2py199/applications/streamlog/sessions/127.0.0.1-610b0c7d-3f6f-4500-a76a-b095fb30f7fd', mode 'rb+' at 0x2ab6030>"
p4716
asbasbasbag56
(g72
g58
NtRp4717
(dp4718
g61
(dp4719
sg70
g3649
sg63
(lp4720
g56
(g77
g58
NtRp4721
(dp4722
g61
(dp4723
g81
g82
ssg70
g4717
sg63
(lp4724
S'session_filename'
p4725
asbag56
(g77
g58
NtRp4726
(dp4727
g61
(dp4728
g88
g89
ssg70
g4717
sg63
(lp4729
S':'
asbag56
(g77
g58
NtRp4730
(dp4731
g61
(dp4732
sg70
g4717
sg63
(lp4733
g56
(g57
g58
NtRp4734
(dp4735
g61
(dp4736
g69
I5
ssg70
g4730
sg63
(lp4737
S'/home/jose/DESARROLLO/web2py199/applications/streamlog/sessions/127.0.0.1-610b0c7d-3f6f-4500-a76a-b095fb30f7fd'
p4738
asbasbasbag56
(g72
g58
NtRp4739
(dp4740
g61
(dp4741
sg70
g3649
sg63
(lp4742
g56
(g77
g58
NtRp4743
(dp4744
g61
(dp4745
g81
g82
ssg70
g4739
sg63
(lp4746
S'session_id'
p4747
asbag56
(g77
g58
NtRp4748
(dp4749
g61
(dp4750
g88
g89
ssg70
g4739
sg63
(lp4751
S':'
asbag56
(g77
g58
NtRp4752
(dp4753
g61
(dp4754
sg70
g4739
sg63
(lp4755
g56
(g57
g58
NtRp4756
(dp4757
g61
(dp4758
g69
I5
ssg70
g4752
sg63
(lp4759
S'127.0.0.1-610b0c7d-3f6f-4500-a76a-b095fb30f7fd'
p4760
asbasbasbag56
(g72
g58
NtRp4761
(dp4762
g61
(dp4763
sg70
g3649
sg63
(lp4764
g56
(g77
g58
NtRp4765
(dp4766
g61
(dp4767
g81
g82
ssg70
g4761
sg63
(lp4768
S'session_id_name'
p4769
asbag56
(g77
g58
NtRp4770
(dp4771
g61
(dp4772
g88
g89
ssg70
g4761
sg63
(lp4773
S':'
asbag56
(g77
g58
NtRp4774
(dp4775
g61
(dp4776
sg70
g4761
sg63
(lp4777
g56
(g57
g58
NtRp4778
(dp4779
g61
(dp4780
g69
I5
ssg70
g4774
sg63
(lp4781
g3706
asbasbasbag56
(g72
g58
NtRp4782
(dp4783
g61
(dp4784
sg70
g3649
sg63
(lp4785
g56
(g77
g58
NtRp4786
(dp4787
g61
(dp4788
g81
g82
ssg70
g4782
sg63
(lp4789
S'session_locked'
p4790
asbag56
(g77
g58
NtRp4791
(dp4792
g61
(dp4793
g88
g89
ssg70
g4782
sg63
(lp4794
S':'
asbag56
(g77
g58
NtRp4795
(dp4796
g61
(dp4797
sg70
g4782
sg63
(lp4798
g56
(g57
g58
NtRp4799
(dp4800
g61
(dp4801
g69
I5
ssg70
g4795
sg63
(lp4802
g1650
asbasbasbag56
(g72
g58
NtRp4803
(dp4804
g61
(dp4805
sg70
g3649
sg63
(lp4806
g56
(g77
g58
NtRp4807
(dp4808
g61
(dp4809
g81
g82
ssg70
g4803
sg63
(lp4810
S'session_new'
p4811
asbag56
(g77
g58
NtRp4812
(dp4813
g61
(dp4814
g88
g89
ssg70
g4803
sg63
(lp4815
S':'
asbag56
(g77
g58
NtRp4816
(dp4817
g61
(dp4818
sg70
g4803
sg63
(lp4819
g56
(g57
g58
NtRp4820
(dp4821
g61
(dp4822
g69
I5
ssg70
g4816
sg63
(lp4823
g99
asbasbasbag56
(g72
g58
NtRp4824
(dp4825
g61
(dp4826
sg70
g3649
sg63
(lp4827
g56
(g77
g58
NtRp4828
(dp4829
g61
(dp4830
g81
g82
ssg70
g4824
sg63
(lp4831
S'status'
p4832
asbag56
(g77
g58
NtRp4833
(dp4834
g61
(dp4835
g88
g89
ssg70
g4824
sg63
(lp4836
S':'
asbag56
(g77
g58
NtRp4837
(dp4838
g61
(dp4839
sg70
g4824
sg63
(lp4840
g56
(g57
g58
NtRp4841
(dp4842
g61
(dp4843
g69
I5
ssg70
g4837
sg63
(lp4844
S'200'
p4845
asbasbasbag56
(g72
g58
NtRp4846
(dp4847
g61
(dp4848
sg70
g3649
sg63
(lp4849
g56
(g77
g58
NtRp4850
(dp4851
g61
(dp4852
g81
g82
ssg70
g4846
sg63
(lp4853
S'subtitle'
p4854
asbag56
(g77
g58
NtRp4855
(dp4856
g61
(dp4857
g88
g89
ssg70
g4846
sg63
(lp4858
S':'
asbag56
(g77
g58
NtRp4859
(dp4860
g61
(dp4861
sg70
g4846
sg63
(lp4862
g56
(g57
g58
NtRp4863
(dp4864
g61
(dp4865
g69
I5
ssg70
g4859
sg63
(lp4866
g4154
(S's\x12\x00\x00\x00Stream Log Client!'
tRp4867
asbasbasbag56
(g72
g58
NtRp4868
(dp4869
g61
(dp4870
sg70
g3649
sg63
(lp4871
g56
(g77
g58
NtRp4872
(dp4873
g61
(dp4874
g81
g82
ssg70
g4868
sg63
(lp4875
S'title'
p4876
asbag56
(g77
g58
NtRp4877
(dp4878
g61
(dp4879
g88
g89
ssg70
g4868
sg63
(lp4880
S':'
asbag56
(g77
g58
NtRp4881
(dp4882
g61
(dp4883
sg70
g4868
sg63
(lp4884
g56
(g57
g58
NtRp4885
(dp4886
g61
(dp4887
g69
I5
ssg70
g4881
sg63
(lp4888
g121
asbasbasbag56
(g72
g58
NtRp4889
(dp4890
g61
(dp4891
sg70
g3649
sg63
(lp4892
g56
(g77
g58
NtRp4893
(dp4894
g61
(dp4895
g81
g82
ssg70
g4889
sg63
(lp4896
g2316
asbag56
(g77
g58
NtRp4897
(dp4898
g61
(dp4899
g88
g89
ssg70
g4889
sg63
(lp4900
S':'
asbag56
(g77
g58
NtRp4901
(dp4902
g61
(dp4903
sg70
g4889
sg63
(lp4904
g56
(g57
g58
NtRp4905
(dp4906
g61
(dp4907
g69
I5
ssg70
g4901
sg63
(lp4908
g2329
asbasbasbag56
(g72
g58
NtRp4909
(dp4910
g61
(dp4911
sg70
g3649
sg63
(lp4912
g56
(g77
g58
NtRp4913
(dp4914
g61
(dp4915
g81
g82
ssg70
g4909
sg63
(lp4916
S'view'
p4917
asbag56
(g77
g58
NtRp4918
(dp4919
g61
(dp4920
g88
g89
ssg70
g4909
sg63
(lp4921
S':'
asbag56
(g77
g58
NtRp4922
(dp4923
g61
(dp4924
sg70
g4909
sg63
(lp4925
g56
(g57
g58
NtRp4926
(dp4927
g61
(dp4928
g69
I5
ssg70
g4922
sg63
(lp4929
S'default/call.html'
p4930
asbasbasbasbasbsS'locals'
p4931
(dp4932
S'self'
p4933
S'<gluon.dal.SQLiteAdapter object>'
p4934
sS'r'
S'None'
p4935
sS'obj'
p4936
S"'json'"
p4937
sS'fieldtype'
p4938
S"'id'"
p4939
sssS'traceback'
p4940
S'Traceback (most recent call last):\n  File "/home/jose/DESARROLLO/web2py199/gluon/restricted.py", line 194, in restricted\n    exec ccode in environment\n  File "/home/jose/DESARROLLO/web2py199/applications/streamlog/controllers/default.py", line 176, in <module>\n  File "/home/jose/DESARROLLO/web2py199/gluon/globals.py", line 149, in <lambda>\n    self._caller = lambda f: f()\n  File "/home/jose/DESARROLLO/web2py199/applications/streamlog/controllers/default.py", line 156, in call\n    return service()\n  File "/home/jose/DESARROLLO/web2py199/gluon/tools.py", line 3839, in __call__\n    return self.serve_json(request.args[1:])\n  File "/home/jose/DESARROLLO/web2py199/gluon/tools.py", line 3656, in serve_json\n    s = universal_caller(self.json_procedures[args[0]],*args[1:],**d)\n  File "/home/jose/DESARROLLO/web2py199/gluon/tools.py", line 3348, in universal_caller\n    return f(**arg_dict)\n  File "/home/jose/DESARROLLO/web2py199/applications/streamlog/controllers/default.py", line 31, in getConnectionData\n    data_connection=db((db.t_log.id==id_log)&(db.t_log.server==db.t_server.id)).select(db.t_log.name,db.t_server.IP,db.t_server.port)\n  File "/home/jose/DESARROLLO/web2py199/gluon/dal.py", line 5697, in select\n    return self.db._adapter.select(self.query,fields,attributes)\n  File "/home/jose/DESARROLLO/web2py199/gluon/dal.py", line 1225, in select\n    sql = self._select(query,fields,attributes)\n  File "/home/jose/DESARROLLO/web2py199/gluon/dal.py", line 1132, in _select\n    sql_w = \' WHERE \' + self.expand(query)\n  File "/home/jose/DESARROLLO/web2py199/gluon/dal.py", line 987, in expand\n    return expression.op(expression.first, expression.second)\n  File "/home/jose/DESARROLLO/web2py199/gluon/dal.py", line 904, in AND\n    return \'(%s AND %s)\' % (self.expand(first),self.expand(second))\n  File "/home/jose/DESARROLLO/web2py199/gluon/dal.py", line 987, in expand\n    return expression.op(expression.first, expression.second)\n  File "/home/jose/DESARROLLO/web2py199/gluon/dal.py", line 936, in EQ\n    return \'(%s = %s)\' % (self.expand(first),self.expand(second,first.type))\n  File "/home/jose/DESARROLLO/web2py199/gluon/dal.py", line 995, in expand\n    return self.represent(expression,field_type)\n  File "/home/jose/DESARROLLO/web2py199/gluon/dal.py", line 1338, in represent\n    return str(int(obj))\nValueError: invalid literal for int() with base 10: \'json\'\n'
p4941
s.