(dp1
S'output'
p2
S''
sS'layer'
p3
S'/home/jose/DESARROLLO/web2py199/applications/streamlog/controllers/default.py'
p4
sS'code'
p5
S'# -*- coding: utf-8 -*-\n# this file is released under public domain and you can use without limitations\n\n#########################################################################\n## This is a samples controller\n## - index is the default action of any application\n## - user is required for authentication and authorization\n## - download is for downloading files uploaded in the db (does streaming)\n## - call exposes all registered services (none by default)\n#########################################################################\n\n\n\ndef index():\n    """\n    example action using the internationalization operator T and flash\n    rendered by views/default/index.html or views/generic.html\n    """\n    db.t_log.id.readable=False\n    db.t_log.server.readable=False\n    \n    db.t_log.type_log.readable=False\n    links = [lambda row:  INPUT(_type=\'button\',_value=\'Load Table\', _onclick=\'loadTable(\'+str(row.id)+\')\')]\n    links += [lambda row:  INPUT(_type=\'button\',_value=\'START STREAM\', _onclick=\'createStream(\'+str(row.id)+\')\')]\n    form=SQLFORM.grid(db.t_log, selectable=False, csv=False,create=False, deletable=False, editable=False, links=links, user_signature=False)\n    return dict(message=T(\'Hello World2\'), form=form)\n\n\ndef getConnectionData():\n    \n    id_log=request.args[0]\n    ip=\'\'\n    port=\'\'\n    name_log=\'\'\n    \n    data_connection=db((db.t_log.id==id_log)&(db.t_log.server==db.t_server.id)).select(db.t_log.name,db.t_server.IP,db.t_server.port)\n  \n    for row in data_connection:\n        ip=row.t_server.IP\n        port=row.t_server.port\n        name_log=row.t_log.name\n        \n    \n    regex=db((db.t_log.id==id_log)&(db.t_log.type_log==db.t_type_log.id)).select()\n    \n    regex_code=\'\'\n    for row in regex:\n        regex_code=row.t_type_log.regex_code\n    \n    #return response.json([{\'name_log\': name_log,\'IP\': ip,\'port\': port,\'regex\': regex_code}])\n    return response.json(name_log=name_log, ip=ip, port=port,regex=regex_code)\n\ndef choose_log():\n    """\n    example action using the internationalization operator T and flash\n    rendered by views/default/index.html or views/generic.html\n    """\n    \n    \n    return dict(message="log")\n\n\ndef getTypeTable():\n    """\n    example action using the internationalization operator T and flash\n    rendered by views/default/index.html or views/generic.html\n    """\n    table=\'\'\n    id_log=request.args[0]\n    type_table=db((db.t_log.id==id_log)&(db.t_log.type_log==db.t_type_log.id)).select(db.t_type_log.html_table)\n    for row in type_table:\n        table=row.html_table\n        \n    \n    return table\n\n\ndef user():\n    """\n    exposes:\n    http://..../[app]/default/user/login\n    http://..../[app]/default/user/logout\n    http://..../[app]/default/user/register\n    http://..../[app]/default/user/profile\n    http://..../[app]/default/user/retrieve_password\n    http://..../[app]/default/user/change_password\n    use @auth.requires_login()\n        @auth.requires_membership(\'group name\')\n        @auth.requires_permission(\'read\',\'table name\',record_id)\n    to decorate functions that need access control\n    """\n    return dict(form=auth())\n\ndef error():\n    return dict()\n\n\ndef project_manage():\n    \n    form = SQLFORM.smartgrid(db.t_project)\n    return locals()\n\n\ndef server_manage():\n\n    form=SQLFORM.grid(db.t_server)\n    return locals()\n\ndef log_manage():\n \n    #form = SQLFORM.smartgrid(db.t_log,constraints=dict(t_log=query), selectable=True,searchable=False, csv=False,showbuttontext=True,onupdate=auth.archive)\n    #form = SQLFORM.smartgrid(db.t_log)\n    form=SQLFORM.grid(db.t_log)\n    return locals()\n\ndef type_log_manage():\n\n    form=SQLFORM.grid(db.t_type_log)\n    return locals()\n\ndef download():\n    """\n    allows downloading of uploaded files\n    http://..../[app]/default/download/[filename]\n    """\n    return response.download(request,db)\n\n\ndef call():\n    """\n    exposes services. for example:\n    http://..../[app]/default/call/jsonrpc\n    decorate with @services.jsonrpc the functions to expose\n    supports xml, json, xmlrpc, jsonrpc, amfrpc, rss, csv\n    """\n    return service()\n\n\n@auth.requires_signature()\ndef data():\n    """\n    http://..../[app]/default/data/tables\n    http://..../[app]/default/data/create/[table]\n    http://..../[app]/default/data/read/[table]/[id]\n    http://..../[app]/default/data/update/[table]/[id]\n    http://..../[app]/default/data/delete/[table]/[id]\n    http://..../[app]/default/data/select/[table]\n    http://..../[app]/default/data/search/[table]\n    but URLs bust be signed, i.e. linked with\n      A(\'table\',_href=URL(\'data/tables\',user_signature=True))\n    or with the signed load operator\n      LOAD(\'default\',\'data.load\',args=\'tables\',ajax=True,user_signature=True)\n    """\n    return dict(form=crud())\n\nresponse._vars=response._caller(getConnectionData)\n'
p6
sS'snapshot'
p7
(dp8
S'exception'
p9
(dp10
S'__hash__'
p11
S"<method-wrapper '__hash__' of exceptions.TypeError object>"
p12
sS'__setattr__'
p13
S"<method-wrapper '__setattr__' of exceptions.TypeError object>"
p14
sS'__reduce_ex__'
p15
S'<built-in method __reduce_ex__ of exceptions.TypeError object>'
p16
sS'__getslice__'
p17
S"<method-wrapper '__getslice__' of exceptions.TypeError object>"
p18
sS'__getitem__'
p19
S"<method-wrapper '__getitem__' of exceptions.TypeError object>"
p20
sS'__setstate__'
p21
S'<built-in method __setstate__ of exceptions.TypeError object>'
p22
sS'args'
p23
S'("json() got an unexpected keyword argument \'name_log\'",)'
p24
sS'__reduce__'
p25
S'<built-in method __reduce__ of exceptions.TypeError object>'
p26
sS'__str__'
p27
S"<method-wrapper '__str__' of exceptions.TypeError object>"
p28
sS'__format__'
p29
S'<built-in method __format__ of exceptions.TypeError object>'
p30
sS'__getattribute__'
p31
S"<method-wrapper '__getattribute__' of exceptions.TypeError object>"
p32
sS'__class__'
p33
S"<type 'exceptions.TypeError'>"
p34
sS'__unicode__'
p35
S'<built-in method __unicode__ of exceptions.TypeError object>'
p36
sS'__delattr__'
p37
S"<method-wrapper '__delattr__' of exceptions.TypeError object>"
p38
sS'__subclasshook__'
p39
S'<built-in method __subclasshook__ of type object>'
p40
sS'__repr__'
p41
S"<method-wrapper '__repr__' of exceptions.TypeError object>"
p42
sS'__dict__'
p43
S'{}'
p44
sS'__sizeof__'
p45
S'<built-in method __sizeof__ of exceptions.TypeError object>'
p46
sS'__doc__'
p47
S"'Inappropriate argument type.'"
p48
sS'__init__'
p49
S"<method-wrapper '__init__' of exceptions.TypeError object>"
p50
sS'__new__'
p51
S'<built-in method __new__ of type object>'
p52
ssS'evalue'
p53
S"json() got an unexpected keyword argument 'name_log'"
p54
sS'request'
p55
ccopy_reg
_reconstructor
p56
(cgluon.html
BEAUTIFY
p57
c__builtin__
object
p58
NtRp59
(dp60
S'attributes'
p61
(dp62
sS'components'
p63
(lp64
g56
(cgluon.html
TABLE
p65
g58
NtRp66
(dp67
g61
(dp68
S'level'
p69
I5
ssS'parent'
p70
Nsg63
(lp71
g56
(cgluon.html
TR
p72
g58
NtRp73
(dp74
g61
(dp75
sg70
g66
sg63
(lp76
g56
(cgluon.html
TD
p77
g58
NtRp78
(dp79
g61
(dp80
S'_style'
p81
S'font-weight:bold;'
p82
ssg70
g73
sg63
(lp83
S'ajax'
p84
asbag56
(g77
g58
NtRp85
(dp86
g61
(dp87
S'_valign'
p88
S'top'
p89
ssg70
g73
sg63
(lp90
S':'
asbag56
(g77
g58
NtRp91
(dp92
g61
(dp93
sg70
g73
sg63
(lp94
g56
(g57
g58
NtRp95
(dp96
g61
(dp97
g69
I5
ssg70
g91
sg63
(lp98
S'False'
p99
asbasbasbag56
(g72
g58
NtRp100
(dp101
g61
(dp102
sg70
g66
sg63
(lp103
g56
(g77
g58
NtRp104
(dp105
g61
(dp106
g81
g82
ssg70
g100
sg63
(lp107
S'application'
p108
asbag56
(g77
g58
NtRp109
(dp110
g61
(dp111
g88
g89
ssg70
g100
sg63
(lp112
S':'
asbag56
(g77
g58
NtRp113
(dp114
g61
(dp115
sg70
g100
sg63
(lp116
g56
(g57
g58
NtRp117
(dp118
g61
(dp119
g69
I5
ssg70
g113
sg63
(lp120
S'streamlog'
p121
asbasbasbag56
(g72
g58
NtRp122
(dp123
g61
(dp124
sg70
g66
sg63
(lp125
g56
(g77
g58
NtRp126
(dp127
g61
(dp128
g81
g82
ssg70
g122
sg63
(lp129
g23
asbag56
(g77
g58
NtRp130
(dp131
g61
(dp132
g88
g89
ssg70
g122
sg63
(lp133
S':'
asbag56
(g77
g58
NtRp134
(dp135
g61
(dp136
sg70
g122
sg63
(lp137
g56
(g57
g58
NtRp138
(dp139
g61
(dp140
g69
I5
ssg70
g134
sg63
(lp141
g56
(g65
g58
NtRp142
(dp143
g61
(dp144
g69
I4
ssg70
Nsg63
(lp145
g56
(g72
g58
NtRp146
(dp147
g61
(dp148
sg70
g142
sg63
(lp149
g56
(g77
g58
NtRp150
(dp151
g61
(dp152
sg70
g146
sg63
(lp153
g56
(g57
g58
NtRp154
(dp155
g61
(dp156
g69
I4
ssg70
g150
sg63
(lp157
S'2'
asbasbasbasbasbasbasbag56
(g72
g58
NtRp158
(dp159
g61
(dp160
sg70
g66
sg63
(lp161
g56
(g77
g58
NtRp162
(dp163
g61
(dp164
g81
g82
ssg70
g158
sg63
(lp165
S'body'
p166
asbag56
(g77
g58
NtRp167
(dp168
g61
(dp169
g88
g89
ssg70
g158
sg63
(lp170
S':'
asbag56
(g77
g58
NtRp171
(dp172
g61
(dp173
sg70
g158
sg63
(lp174
g56
(g57
g58
NtRp175
(dp176
g61
(dp177
g69
I5
ssg70
g171
sg63
(lp178
S'<cStringIO.StringO object at 0x2d7ed50>'
p179
asbasbasbag56
(g72
g58
NtRp180
(dp181
g61
(dp182
sg70
g66
sg63
(lp183
g56
(g77
g58
NtRp184
(dp185
g61
(dp186
g81
g82
ssg70
g180
sg63
(lp187
S'client'
p188
asbag56
(g77
g58
NtRp189
(dp190
g61
(dp191
g88
g89
ssg70
g180
sg63
(lp192
S':'
asbag56
(g77
g58
NtRp193
(dp194
g61
(dp195
sg70
g180
sg63
(lp196
g56
(g57
g58
NtRp197
(dp198
g61
(dp199
g69
I5
ssg70
g193
sg63
(lp200
S'127.0.0.1'
p201
asbasbasbag56
(g72
g58
NtRp202
(dp203
g61
(dp204
sg70
g66
sg63
(lp205
g56
(g77
g58
NtRp206
(dp207
g61
(dp208
g81
g82
ssg70
g202
sg63
(lp209
S'controller'
p210
asbag56
(g77
g58
NtRp211
(dp212
g61
(dp213
g88
g89
ssg70
g202
sg63
(lp214
S':'
asbag56
(g77
g58
NtRp215
(dp216
g61
(dp217
sg70
g202
sg63
(lp218
g56
(g57
g58
NtRp219
(dp220
g61
(dp221
g69
I5
ssg70
g215
sg63
(lp222
S'default'
p223
asbasbasbag56
(g72
g58
NtRp224
(dp225
g61
(dp226
sg70
g66
sg63
(lp227
g56
(g77
g58
NtRp228
(dp229
g61
(dp230
g81
g82
ssg70
g224
sg63
(lp231
S'cookies'
p232
asbag56
(g77
g58
NtRp233
(dp234
g61
(dp235
g88
g89
ssg70
g224
sg63
(lp236
S':'
asbag56
(g77
g58
NtRp237
(dp238
g61
(dp239
sg70
g224
sg63
(lp240
g56
(g57
g58
NtRp241
(dp242
g61
(dp243
g69
I5
ssg70
g237
sg63
(lp244
g56
(g65
g58
NtRp245
(dp246
g61
(dp247
g69
I4
ssg70
Nsg63
(lp248
g56
(g72
g58
NtRp249
(dp250
g61
(dp251
sg70
g245
sg63
(lp252
g56
(g77
g58
NtRp253
(dp254
g61
(dp255
g81
g82
ssg70
g249
sg63
(lp256
S'session_id_admin'
p257
asbag56
(g77
g58
NtRp258
(dp259
g61
(dp260
g88
g89
ssg70
g249
sg63
(lp261
S':'
asbag56
(g77
g58
NtRp262
(dp263
g61
(dp264
sg70
g249
sg63
(lp265
g56
(g57
g58
NtRp266
(dp267
g61
(dp268
g69
I4
ssg70
g262
sg63
(lp269
g56
(g65
g58
NtRp270
(dp271
g61
(dp272
g69
I3
ssg70
Nsg63
(lp273
g56
(g72
g58
NtRp274
(dp275
g61
(dp276
sg70
g270
sg63
(lp277
g56
(g77
g58
NtRp278
(dp279
g61
(dp280
g81
g82
ssg70
g274
sg63
(lp281
S'comment'
p282
asbag56
(g77
g58
NtRp283
(dp284
g61
(dp285
g88
g89
ssg70
g274
sg63
(lp286
S':'
asbag56
(g77
g58
NtRp287
(dp288
g61
(dp289
sg70
g274
sg63
(lp290
g56
(g57
g58
NtRp291
(dp292
g61
(dp293
g69
I3
ssg70
g287
sg63
(lp294
S''
asbasbasbag56
(g72
g58
NtRp295
(dp296
g61
(dp297
sg70
g270
sg63
(lp298
g56
(g77
g58
NtRp299
(dp300
g61
(dp301
g81
g82
ssg70
g295
sg63
(lp302
S'domain'
p303
asbag56
(g77
g58
NtRp304
(dp305
g61
(dp306
g88
g89
ssg70
g295
sg63
(lp307
S':'
asbag56
(g77
g58
NtRp308
(dp309
g61
(dp310
sg70
g295
sg63
(lp311
g56
(g57
g58
NtRp312
(dp313
g61
(dp314
g69
I3
ssg70
g308
sg63
(lp315
S''
asbasbasbag56
(g72
g58
NtRp316
(dp317
g61
(dp318
sg70
g270
sg63
(lp319
g56
(g77
g58
NtRp320
(dp321
g61
(dp322
g81
g82
ssg70
g316
sg63
(lp323
S'expires'
p324
asbag56
(g77
g58
NtRp325
(dp326
g61
(dp327
g88
g89
ssg70
g316
sg63
(lp328
S':'
asbag56
(g77
g58
NtRp329
(dp330
g61
(dp331
sg70
g316
sg63
(lp332
g56
(g57
g58
NtRp333
(dp334
g61
(dp335
g69
I3
ssg70
g329
sg63
(lp336
S''
asbasbasbag56
(g72
g58
NtRp337
(dp338
g61
(dp339
sg70
g270
sg63
(lp340
g56
(g77
g58
NtRp341
(dp342
g61
(dp343
g81
g82
ssg70
g337
sg63
(lp344
S'httponly'
p345
asbag56
(g77
g58
NtRp346
(dp347
g61
(dp348
g88
g89
ssg70
g337
sg63
(lp349
S':'
asbag56
(g77
g58
NtRp350
(dp351
g61
(dp352
sg70
g337
sg63
(lp353
g56
(g57
g58
NtRp354
(dp355
g61
(dp356
g69
I3
ssg70
g350
sg63
(lp357
S''
asbasbasbag56
(g72
g58
NtRp358
(dp359
g61
(dp360
sg70
g270
sg63
(lp361
g56
(g77
g58
NtRp362
(dp363
g61
(dp364
g81
g82
ssg70
g358
sg63
(lp365
S'max-age'
p366
asbag56
(g77
g58
NtRp367
(dp368
g61
(dp369
g88
g89
ssg70
g358
sg63
(lp370
S':'
asbag56
(g77
g58
NtRp371
(dp372
g61
(dp373
sg70
g358
sg63
(lp374
g56
(g57
g58
NtRp375
(dp376
g61
(dp377
g69
I3
ssg70
g371
sg63
(lp378
S''
asbasbasbag56
(g72
g58
NtRp379
(dp380
g61
(dp381
sg70
g270
sg63
(lp382
g56
(g77
g58
NtRp383
(dp384
g61
(dp385
g81
g82
ssg70
g379
sg63
(lp386
S'path'
p387
asbag56
(g77
g58
NtRp388
(dp389
g61
(dp390
g88
g89
ssg70
g379
sg63
(lp391
S':'
asbag56
(g77
g58
NtRp392
(dp393
g61
(dp394
sg70
g379
sg63
(lp395
g56
(g57
g58
NtRp396
(dp397
g61
(dp398
g69
I3
ssg70
g392
sg63
(lp399
S''
asbasbasbag56
(g72
g58
NtRp400
(dp401
g61
(dp402
sg70
g270
sg63
(lp403
g56
(g77
g58
NtRp404
(dp405
g61
(dp406
g81
g82
ssg70
g400
sg63
(lp407
S'secure'
p408
asbag56
(g77
g58
NtRp409
(dp410
g61
(dp411
g88
g89
ssg70
g400
sg63
(lp412
S':'
asbag56
(g77
g58
NtRp413
(dp414
g61
(dp415
sg70
g400
sg63
(lp416
g56
(g57
g58
NtRp417
(dp418
g61
(dp419
g69
I3
ssg70
g413
sg63
(lp420
S''
asbasbasbag56
(g72
g58
NtRp421
(dp422
g61
(dp423
sg70
g270
sg63
(lp424
g56
(g77
g58
NtRp425
(dp426
g61
(dp427
g81
g82
ssg70
g421
sg63
(lp428
S'version'
p429
asbag56
(g77
g58
NtRp430
(dp431
g61
(dp432
g88
g89
ssg70
g421
sg63
(lp433
S':'
asbag56
(g77
g58
NtRp434
(dp435
g61
(dp436
sg70
g421
sg63
(lp437
g56
(g57
g58
NtRp438
(dp439
g61
(dp440
g69
I3
ssg70
g434
sg63
(lp441
S''
asbasbasbasbasbasbasbag56
(g72
g58
NtRp442
(dp443
g61
(dp444
sg70
g245
sg63
(lp445
g56
(g77
g58
NtRp446
(dp447
g61
(dp448
g81
g82
ssg70
g442
sg63
(lp449
S'session_id_streamlog'
p450
asbag56
(g77
g58
NtRp451
(dp452
g61
(dp453
g88
g89
ssg70
g442
sg63
(lp454
S':'
asbag56
(g77
g58
NtRp455
(dp456
g61
(dp457
sg70
g442
sg63
(lp458
g56
(g57
g58
NtRp459
(dp460
g61
(dp461
g69
I4
ssg70
g455
sg63
(lp462
g56
(g65
g58
NtRp463
(dp464
g61
(dp465
g69
I3
ssg70
Nsg63
(lp466
g56
(g72
g58
NtRp467
(dp468
g61
(dp469
sg70
g463
sg63
(lp470
g56
(g77
g58
NtRp471
(dp472
g61
(dp473
g81
g82
ssg70
g467
sg63
(lp474
g282
asbag56
(g77
g58
NtRp475
(dp476
g61
(dp477
g88
g89
ssg70
g467
sg63
(lp478
S':'
asbag56
(g77
g58
NtRp479
(dp480
g61
(dp481
sg70
g467
sg63
(lp482
g56
(g57
g58
NtRp483
(dp484
g61
(dp485
g69
I3
ssg70
g479
sg63
(lp486
S''
asbasbasbag56
(g72
g58
NtRp487
(dp488
g61
(dp489
sg70
g463
sg63
(lp490
g56
(g77
g58
NtRp491
(dp492
g61
(dp493
g81
g82
ssg70
g487
sg63
(lp494
g303
asbag56
(g77
g58
NtRp495
(dp496
g61
(dp497
g88
g89
ssg70
g487
sg63
(lp498
S':'
asbag56
(g77
g58
NtRp499
(dp500
g61
(dp501
sg70
g487
sg63
(lp502
g56
(g57
g58
NtRp503
(dp504
g61
(dp505
g69
I3
ssg70
g499
sg63
(lp506
S''
asbasbasbag56
(g72
g58
NtRp507
(dp508
g61
(dp509
sg70
g463
sg63
(lp510
g56
(g77
g58
NtRp511
(dp512
g61
(dp513
g81
g82
ssg70
g507
sg63
(lp514
g324
asbag56
(g77
g58
NtRp515
(dp516
g61
(dp517
g88
g89
ssg70
g507
sg63
(lp518
S':'
asbag56
(g77
g58
NtRp519
(dp520
g61
(dp521
sg70
g507
sg63
(lp522
g56
(g57
g58
NtRp523
(dp524
g61
(dp525
g69
I3
ssg70
g519
sg63
(lp526
S''
asbasbasbag56
(g72
g58
NtRp527
(dp528
g61
(dp529
sg70
g463
sg63
(lp530
g56
(g77
g58
NtRp531
(dp532
g61
(dp533
g81
g82
ssg70
g527
sg63
(lp534
g345
asbag56
(g77
g58
NtRp535
(dp536
g61
(dp537
g88
g89
ssg70
g527
sg63
(lp538
S':'
asbag56
(g77
g58
NtRp539
(dp540
g61
(dp541
sg70
g527
sg63
(lp542
g56
(g57
g58
NtRp543
(dp544
g61
(dp545
g69
I3
ssg70
g539
sg63
(lp546
S''
asbasbasbag56
(g72
g58
NtRp547
(dp548
g61
(dp549
sg70
g463
sg63
(lp550
g56
(g77
g58
NtRp551
(dp552
g61
(dp553
g81
g82
ssg70
g547
sg63
(lp554
g366
asbag56
(g77
g58
NtRp555
(dp556
g61
(dp557
g88
g89
ssg70
g547
sg63
(lp558
S':'
asbag56
(g77
g58
NtRp559
(dp560
g61
(dp561
sg70
g547
sg63
(lp562
g56
(g57
g58
NtRp563
(dp564
g61
(dp565
g69
I3
ssg70
g559
sg63
(lp566
S''
asbasbasbag56
(g72
g58
NtRp567
(dp568
g61
(dp569
sg70
g463
sg63
(lp570
g56
(g77
g58
NtRp571
(dp572
g61
(dp573
g81
g82
ssg70
g567
sg63
(lp574
g387
asbag56
(g77
g58
NtRp575
(dp576
g61
(dp577
g88
g89
ssg70
g567
sg63
(lp578
S':'
asbag56
(g77
g58
NtRp579
(dp580
g61
(dp581
sg70
g567
sg63
(lp582
g56
(g57
g58
NtRp583
(dp584
g61
(dp585
g69
I3
ssg70
g579
sg63
(lp586
S''
asbasbasbag56
(g72
g58
NtRp587
(dp588
g61
(dp589
sg70
g463
sg63
(lp590
g56
(g77
g58
NtRp591
(dp592
g61
(dp593
g81
g82
ssg70
g587
sg63
(lp594
g408
asbag56
(g77
g58
NtRp595
(dp596
g61
(dp597
g88
g89
ssg70
g587
sg63
(lp598
S':'
asbag56
(g77
g58
NtRp599
(dp600
g61
(dp601
sg70
g587
sg63
(lp602
g56
(g57
g58
NtRp603
(dp604
g61
(dp605
g69
I3
ssg70
g599
sg63
(lp606
S''
asbasbasbag56
(g72
g58
NtRp607
(dp608
g61
(dp609
sg70
g463
sg63
(lp610
g56
(g77
g58
NtRp611
(dp612
g61
(dp613
g81
g82
ssg70
g607
sg63
(lp614
g429
asbag56
(g77
g58
NtRp615
(dp616
g61
(dp617
g88
g89
ssg70
g607
sg63
(lp618
S':'
asbag56
(g77
g58
NtRp619
(dp620
g61
(dp621
sg70
g607
sg63
(lp622
g56
(g57
g58
NtRp623
(dp624
g61
(dp625
g69
I3
ssg70
g619
sg63
(lp626
S''
asbasbasbasbasbasbasbag56
(g72
g58
NtRp627
(dp628
g61
(dp629
sg70
g245
sg63
(lp630
g56
(g77
g58
NtRp631
(dp632
g61
(dp633
g81
g82
ssg70
g627
sg63
(lp634
S'session_id_test3'
p635
asbag56
(g77
g58
NtRp636
(dp637
g61
(dp638
g88
g89
ssg70
g627
sg63
(lp639
S':'
asbag56
(g77
g58
NtRp640
(dp641
g61
(dp642
sg70
g627
sg63
(lp643
g56
(g57
g58
NtRp644
(dp645
g61
(dp646
g69
I4
ssg70
g640
sg63
(lp647
g56
(g65
g58
NtRp648
(dp649
g61
(dp650
g69
I3
ssg70
Nsg63
(lp651
g56
(g72
g58
NtRp652
(dp653
g61
(dp654
sg70
g648
sg63
(lp655
g56
(g77
g58
NtRp656
(dp657
g61
(dp658
g81
g82
ssg70
g652
sg63
(lp659
g282
asbag56
(g77
g58
NtRp660
(dp661
g61
(dp662
g88
g89
ssg70
g652
sg63
(lp663
S':'
asbag56
(g77
g58
NtRp664
(dp665
g61
(dp666
sg70
g652
sg63
(lp667
g56
(g57
g58
NtRp668
(dp669
g61
(dp670
g69
I3
ssg70
g664
sg63
(lp671
S''
asbasbasbag56
(g72
g58
NtRp672
(dp673
g61
(dp674
sg70
g648
sg63
(lp675
g56
(g77
g58
NtRp676
(dp677
g61
(dp678
g81
g82
ssg70
g672
sg63
(lp679
g303
asbag56
(g77
g58
NtRp680
(dp681
g61
(dp682
g88
g89
ssg70
g672
sg63
(lp683
S':'
asbag56
(g77
g58
NtRp684
(dp685
g61
(dp686
sg70
g672
sg63
(lp687
g56
(g57
g58
NtRp688
(dp689
g61
(dp690
g69
I3
ssg70
g684
sg63
(lp691
S''
asbasbasbag56
(g72
g58
NtRp692
(dp693
g61
(dp694
sg70
g648
sg63
(lp695
g56
(g77
g58
NtRp696
(dp697
g61
(dp698
g81
g82
ssg70
g692
sg63
(lp699
g324
asbag56
(g77
g58
NtRp700
(dp701
g61
(dp702
g88
g89
ssg70
g692
sg63
(lp703
S':'
asbag56
(g77
g58
NtRp704
(dp705
g61
(dp706
sg70
g692
sg63
(lp707
g56
(g57
g58
NtRp708
(dp709
g61
(dp710
g69
I3
ssg70
g704
sg63
(lp711
S''
asbasbasbag56
(g72
g58
NtRp712
(dp713
g61
(dp714
sg70
g648
sg63
(lp715
g56
(g77
g58
NtRp716
(dp717
g61
(dp718
g81
g82
ssg70
g712
sg63
(lp719
g345
asbag56
(g77
g58
NtRp720
(dp721
g61
(dp722
g88
g89
ssg70
g712
sg63
(lp723
S':'
asbag56
(g77
g58
NtRp724
(dp725
g61
(dp726
sg70
g712
sg63
(lp727
g56
(g57
g58
NtRp728
(dp729
g61
(dp730
g69
I3
ssg70
g724
sg63
(lp731
S''
asbasbasbag56
(g72
g58
NtRp732
(dp733
g61
(dp734
sg70
g648
sg63
(lp735
g56
(g77
g58
NtRp736
(dp737
g61
(dp738
g81
g82
ssg70
g732
sg63
(lp739
g366
asbag56
(g77
g58
NtRp740
(dp741
g61
(dp742
g88
g89
ssg70
g732
sg63
(lp743
S':'
asbag56
(g77
g58
NtRp744
(dp745
g61
(dp746
sg70
g732
sg63
(lp747
g56
(g57
g58
NtRp748
(dp749
g61
(dp750
g69
I3
ssg70
g744
sg63
(lp751
S''
asbasbasbag56
(g72
g58
NtRp752
(dp753
g61
(dp754
sg70
g648
sg63
(lp755
g56
(g77
g58
NtRp756
(dp757
g61
(dp758
g81
g82
ssg70
g752
sg63
(lp759
g387
asbag56
(g77
g58
NtRp760
(dp761
g61
(dp762
g88
g89
ssg70
g752
sg63
(lp763
S':'
asbag56
(g77
g58
NtRp764
(dp765
g61
(dp766
sg70
g752
sg63
(lp767
g56
(g57
g58
NtRp768
(dp769
g61
(dp770
g69
I3
ssg70
g764
sg63
(lp771
S''
asbasbasbag56
(g72
g58
NtRp772
(dp773
g61
(dp774
sg70
g648
sg63
(lp775
g56
(g77
g58
NtRp776
(dp777
g61
(dp778
g81
g82
ssg70
g772
sg63
(lp779
g408
asbag56
(g77
g58
NtRp780
(dp781
g61
(dp782
g88
g89
ssg70
g772
sg63
(lp783
S':'
asbag56
(g77
g58
NtRp784
(dp785
g61
(dp786
sg70
g772
sg63
(lp787
g56
(g57
g58
NtRp788
(dp789
g61
(dp790
g69
I3
ssg70
g784
sg63
(lp791
S''
asbasbasbag56
(g72
g58
NtRp792
(dp793
g61
(dp794
sg70
g648
sg63
(lp795
g56
(g77
g58
NtRp796
(dp797
g61
(dp798
g81
g82
ssg70
g792
sg63
(lp799
g429
asbag56
(g77
g58
NtRp800
(dp801
g61
(dp802
g88
g89
ssg70
g792
sg63
(lp803
S':'
asbag56
(g77
g58
NtRp804
(dp805
g61
(dp806
sg70
g792
sg63
(lp807
g56
(g57
g58
NtRp808
(dp809
g61
(dp810
g69
I3
ssg70
g804
sg63
(lp811
S''
asbasbasbasbasbasbasbasbasbasbasbag56
(g72
g58
NtRp812
(dp813
g61
(dp814
sg70
g66
sg63
(lp815
g56
(g77
g58
NtRp816
(dp817
g61
(dp818
g81
g82
ssg70
g812
sg63
(lp819
S'env'
p820
asbag56
(g77
g58
NtRp821
(dp822
g61
(dp823
g88
g89
ssg70
g812
sg63
(lp824
S':'
asbag56
(g77
g58
NtRp825
(dp826
g61
(dp827
sg70
g812
sg63
(lp828
g56
(g57
g58
NtRp829
(dp830
g61
(dp831
g69
I5
ssg70
g825
sg63
(lp832
g56
(g65
g58
NtRp833
(dp834
g61
(dp835
g69
I4
ssg70
Nsg63
(lp836
g56
(g72
g58
NtRp837
(dp838
g61
(dp839
sg70
g833
sg63
(lp840
g56
(g77
g58
NtRp841
(dp842
g61
(dp843
g81
g82
ssg70
g837
sg63
(lp844
S'app_folders'
p845
asbag56
(g77
g58
NtRp846
(dp847
g61
(dp848
g88
g89
ssg70
g837
sg63
(lp849
S':'
asbag56
(g77
g58
NtRp850
(dp851
g61
(dp852
sg70
g837
sg63
(lp853
g56
(g57
g58
NtRp854
(dp855
g61
(dp856
g69
I4
ssg70
g850
sg63
(lp857
S"set(['/home/jose/DESARROLLO/web2py199/applications/streamlog/'])"
p858
asbasbasbag56
(g72
g58
NtRp859
(dp860
g61
(dp861
sg70
g833
sg63
(lp862
g56
(g77
g58
NtRp863
(dp864
g61
(dp865
g81
g82
ssg70
g859
sg63
(lp866
S'applications_parent'
p867
asbag56
(g77
g58
NtRp868
(dp869
g61
(dp870
g88
g89
ssg70
g859
sg63
(lp871
S':'
asbag56
(g77
g58
NtRp872
(dp873
g61
(dp874
sg70
g859
sg63
(lp875
g56
(g57
g58
NtRp876
(dp877
g61
(dp878
g69
I4
ssg70
g872
sg63
(lp879
S'/home/jose/DESARROLLO/web2py199'
p880
asbasbasbag56
(g72
g58
NtRp881
(dp882
g61
(dp883
sg70
g833
sg63
(lp884
g56
(g77
g58
NtRp885
(dp886
g61
(dp887
g81
g82
ssg70
g881
sg63
(lp888
S'cmd_args'
p889
asbag56
(g77
g58
NtRp890
(dp891
g61
(dp892
g88
g89
ssg70
g881
sg63
(lp893
S':'
asbag56
(g77
g58
NtRp894
(dp895
g61
(dp896
sg70
g881
sg63
(lp897
g56
(g57
g58
NtRp898
(dp899
g61
(dp900
g69
I4
ssg70
g894
sg63
(lp901
g56
(g65
g58
NtRp902
(dp903
g61
(dp904
g69
I3
ssg70
Nsg63
(lp905
sbasbasbasbag56
(g72
g58
NtRp906
(dp907
g61
(dp908
sg70
g833
sg63
(lp909
g56
(g77
g58
NtRp910
(dp911
g61
(dp912
g81
g82
ssg70
g906
sg63
(lp913
S'cmd_options'
p914
asbag56
(g77
g58
NtRp915
(dp916
g61
(dp917
g88
g89
ssg70
g906
sg63
(lp918
S':'
asbag56
(g77
g58
NtRp919
(dp920
g61
(dp921
sg70
g906
sg63
(lp922
g56
(g57
g58
NtRp923
(dp924
g61
(dp925
g69
I4
ssg70
g919
sg63
(lp926
S"<Values at 0x24356c8: {'verbose': False, 'ip': '127.0.0.1', 'shutdown_timeout': 5, 'taskbar': False, 'nocron': False, 'pid_filename': 'httpserver.pid', 'maxthreads': None, 'softcron': False, 'server_name': 'jose', 'bpython': False, 'nogui': False, 'port': 8000, 'extcron': False, 'debuglevel': 30, 'test': None, 'folder': '/home/jose/DESARROLLO/web2py199', 'config': '', 'import_models': False, 'winservice': '', 'shell': None, 'run': '', 'log_filename': 'httpserver.log', 'args': [''], 'ssl_ca_certificate': None, 'scheduler': None, 'profiler_filename': None, 'ssl_private_key': '', 'password': 't', 'request_queue_size': 5, 'ssl_certificate': '', 'cronjob': False, 'plain': False, 'quiet': False, 'interfaces': None, 'minthreads': None, 'timeout': 10, 'numthreads': None, 'nobanner': False}>"
p927
asbasbasbag56
(g72
g58
NtRp928
(dp929
g61
(dp930
sg70
g833
sg63
(lp931
g56
(g77
g58
NtRp932
(dp933
g61
(dp934
g81
g82
ssg70
g928
sg63
(lp935
S'db_sessions'
p936
asbag56
(g77
g58
NtRp937
(dp938
g61
(dp939
g88
g89
ssg70
g928
sg63
(lp940
S':'
asbag56
(g77
g58
NtRp941
(dp942
g61
(dp943
sg70
g928
sg63
(lp944
g56
(g57
g58
NtRp945
(dp946
g61
(dp947
g69
I4
ssg70
g941
sg63
(lp948
S'set([])'
p949
asbasbasbag56
(g72
g58
NtRp950
(dp951
g61
(dp952
sg70
g833
sg63
(lp953
g56
(g77
g58
NtRp954
(dp955
g61
(dp956
g81
g82
ssg70
g950
sg63
(lp957
S'debugging'
p958
asbag56
(g77
g58
NtRp959
(dp960
g61
(dp961
g88
g89
ssg70
g950
sg63
(lp962
S':'
asbag56
(g77
g58
NtRp963
(dp964
g61
(dp965
sg70
g950
sg63
(lp966
g56
(g57
g58
NtRp967
(dp968
g61
(dp969
g69
I4
ssg70
g963
sg63
(lp970
g99
asbasbasbag56
(g72
g58
NtRp971
(dp972
g61
(dp973
sg70
g833
sg63
(lp974
g56
(g77
g58
NtRp975
(dp976
g61
(dp977
g81
g82
ssg70
g971
sg63
(lp978
S'gluon_parent'
p979
asbag56
(g77
g58
NtRp980
(dp981
g61
(dp982
g88
g89
ssg70
g971
sg63
(lp983
S':'
asbag56
(g77
g58
NtRp984
(dp985
g61
(dp986
sg70
g971
sg63
(lp987
g56
(g57
g58
NtRp988
(dp989
g61
(dp990
g69
I4
ssg70
g984
sg63
(lp991
S'/home/jose/DESARROLLO/web2py199'
p992
asbasbasbag56
(g72
g58
NtRp993
(dp994
g61
(dp995
sg70
g833
sg63
(lp996
g56
(g77
g58
NtRp997
(dp998
g61
(dp999
g81
g82
ssg70
g993
sg63
(lp1000
S'http_accept'
p1001
asbag56
(g77
g58
NtRp1002
(dp1003
g61
(dp1004
g88
g89
ssg70
g993
sg63
(lp1005
S':'
asbag56
(g77
g58
NtRp1006
(dp1007
g61
(dp1008
sg70
g993
sg63
(lp1009
g56
(g57
g58
NtRp1010
(dp1011
g61
(dp1012
g69
I4
ssg70
g1006
sg63
(lp1013
S'text/html,application/xhtml+xml,application/xml;q=0.9,*/*;q=0.8'
p1014
asbasbasbag56
(g72
g58
NtRp1015
(dp1016
g61
(dp1017
sg70
g833
sg63
(lp1018
g56
(g77
g58
NtRp1019
(dp1020
g61
(dp1021
g81
g82
ssg70
g1015
sg63
(lp1022
S'http_accept_encoding'
p1023
asbag56
(g77
g58
NtRp1024
(dp1025
g61
(dp1026
g88
g89
ssg70
g1015
sg63
(lp1027
S':'
asbag56
(g77
g58
NtRp1028
(dp1029
g61
(dp1030
sg70
g1015
sg63
(lp1031
g56
(g57
g58
NtRp1032
(dp1033
g61
(dp1034
g69
I4
ssg70
g1028
sg63
(lp1035
S'gzip, deflate'
p1036
asbasbasbag56
(g72
g58
NtRp1037
(dp1038
g61
(dp1039
sg70
g833
sg63
(lp1040
g56
(g77
g58
NtRp1041
(dp1042
g61
(dp1043
g81
g82
ssg70
g1037
sg63
(lp1044
S'http_accept_language'
p1045
asbag56
(g77
g58
NtRp1046
(dp1047
g61
(dp1048
g88
g89
ssg70
g1037
sg63
(lp1049
S':'
asbag56
(g77
g58
NtRp1050
(dp1051
g61
(dp1052
sg70
g1037
sg63
(lp1053
g56
(g57
g58
NtRp1054
(dp1055
g61
(dp1056
g69
I4
ssg70
g1050
sg63
(lp1057
S'en-us,en;q=0.5'
p1058
asbasbasbag56
(g72
g58
NtRp1059
(dp1060
g61
(dp1061
sg70
g833
sg63
(lp1062
g56
(g77
g58
NtRp1063
(dp1064
g61
(dp1065
g81
g82
ssg70
g1059
sg63
(lp1066
S'http_connection'
p1067
asbag56
(g77
g58
NtRp1068
(dp1069
g61
(dp1070
g88
g89
ssg70
g1059
sg63
(lp1071
S':'
asbag56
(g77
g58
NtRp1072
(dp1073
g61
(dp1074
sg70
g1059
sg63
(lp1075
g56
(g57
g58
NtRp1076
(dp1077
g61
(dp1078
g69
I4
ssg70
g1072
sg63
(lp1079
S'keep-alive'
p1080
asbasbasbag56
(g72
g58
NtRp1081
(dp1082
g61
(dp1083
sg70
g833
sg63
(lp1084
g56
(g77
g58
NtRp1085
(dp1086
g61
(dp1087
g81
g82
ssg70
g1081
sg63
(lp1088
S'http_cookie'
p1089
asbag56
(g77
g58
NtRp1090
(dp1091
g61
(dp1092
g88
g89
ssg70
g1081
sg63
(lp1093
S':'
asbag56
(g77
g58
NtRp1094
(dp1095
g61
(dp1096
sg70
g1081
sg63
(lp1097
g56
(g57
g58
NtRp1098
(dp1099
g61
(dp1100
g69
I4
ssg70
g1094
sg63
(lp1101
S'session_id_test3=127.0.0.1-380e7b29-b635-4690-b9ca-812870d6a061; session_id_admin=127.0.0.1-9b4c5961-ad99-4e9d-9992-13f3450e53e5; session_id_streamlog=127.0.0.1-610b0c7d-3f6f-4500-a76a-b095fb30f7fd'
p1102
asbasbasbag56
(g72
g58
NtRp1103
(dp1104
g61
(dp1105
sg70
g833
sg63
(lp1106
g56
(g77
g58
NtRp1107
(dp1108
g61
(dp1109
g81
g82
ssg70
g1103
sg63
(lp1110
S'http_host'
p1111
asbag56
(g77
g58
NtRp1112
(dp1113
g61
(dp1114
g88
g89
ssg70
g1103
sg63
(lp1115
S':'
asbag56
(g77
g58
NtRp1116
(dp1117
g61
(dp1118
sg70
g1103
sg63
(lp1119
g56
(g57
g58
NtRp1120
(dp1121
g61
(dp1122
g69
I4
ssg70
g1116
sg63
(lp1123
S'localhost:8000'
p1124
asbasbasbag56
(g72
g58
NtRp1125
(dp1126
g61
(dp1127
sg70
g833
sg63
(lp1128
g56
(g77
g58
NtRp1129
(dp1130
g61
(dp1131
g81
g82
ssg70
g1125
sg63
(lp1132
S'http_user_agent'
p1133
asbag56
(g77
g58
NtRp1134
(dp1135
g61
(dp1136
g88
g89
ssg70
g1125
sg63
(lp1137
S':'
asbag56
(g77
g58
NtRp1138
(dp1139
g61
(dp1140
sg70
g1125
sg63
(lp1141
g56
(g57
g58
NtRp1142
(dp1143
g61
(dp1144
g69
I4
ssg70
g1138
sg63
(lp1145
S'Mozilla/5.0 (X11; Ubuntu; Linux x86_64; rv:12.0) Gecko/20100101 Firefox/12.0'
p1146
asbasbasbag56
(g72
g58
NtRp1147
(dp1148
g61
(dp1149
sg70
g833
sg63
(lp1150
g56
(g77
g58
NtRp1151
(dp1152
g61
(dp1153
g81
g82
ssg70
g1147
sg63
(lp1154
S'is_jython'
p1155
asbag56
(g77
g58
NtRp1156
(dp1157
g61
(dp1158
g88
g89
ssg70
g1147
sg63
(lp1159
S':'
asbag56
(g77
g58
NtRp1160
(dp1161
g61
(dp1162
sg70
g1147
sg63
(lp1163
g56
(g57
g58
NtRp1164
(dp1165
g61
(dp1166
g69
I4
ssg70
g1160
sg63
(lp1167
g99
asbasbasbag56
(g72
g58
NtRp1168
(dp1169
g61
(dp1170
sg70
g833
sg63
(lp1171
g56
(g77
g58
NtRp1172
(dp1173
g61
(dp1174
g81
g82
ssg70
g1168
sg63
(lp1175
S'path_info'
p1176
asbag56
(g77
g58
NtRp1177
(dp1178
g61
(dp1179
g88
g89
ssg70
g1168
sg63
(lp1180
S':'
asbag56
(g77
g58
NtRp1181
(dp1182
g61
(dp1183
sg70
g1168
sg63
(lp1184
g56
(g57
g58
NtRp1185
(dp1186
g61
(dp1187
g69
I4
ssg70
g1181
sg63
(lp1188
S'/streamlog/default/getConnectionData/2'
p1189
asbasbasbag56
(g72
g58
NtRp1190
(dp1191
g61
(dp1192
sg70
g833
sg63
(lp1193
g56
(g77
g58
NtRp1194
(dp1195
g61
(dp1196
g81
g82
ssg70
g1190
sg63
(lp1197
S'query_string'
p1198
asbag56
(g77
g58
NtRp1199
(dp1200
g61
(dp1201
g88
g89
ssg70
g1190
sg63
(lp1202
S':'
asbag56
(g77
g58
NtRp1203
(dp1204
g61
(dp1205
sg70
g1190
sg63
(lp1206
g56
(g57
g58
NtRp1207
(dp1208
g61
(dp1209
g69
I4
ssg70
g1203
sg63
(lp1210
S''
asbasbasbag56
(g72
g58
NtRp1211
(dp1212
g61
(dp1213
sg70
g833
sg63
(lp1214
g56
(g77
g58
NtRp1215
(dp1216
g61
(dp1217
g81
g82
ssg70
g1211
sg63
(lp1218
S'remote_addr'
p1219
asbag56
(g77
g58
NtRp1220
(dp1221
g61
(dp1222
g88
g89
ssg70
g1211
sg63
(lp1223
S':'
asbag56
(g77
g58
NtRp1224
(dp1225
g61
(dp1226
sg70
g1211
sg63
(lp1227
g56
(g57
g58
NtRp1228
(dp1229
g61
(dp1230
g69
I4
ssg70
g1224
sg63
(lp1231
g201
asbasbasbag56
(g72
g58
NtRp1232
(dp1233
g61
(dp1234
sg70
g833
sg63
(lp1235
g56
(g77
g58
NtRp1236
(dp1237
g61
(dp1238
g81
g82
ssg70
g1232
sg63
(lp1239
S'remote_port'
p1240
asbag56
(g77
g58
NtRp1241
(dp1242
g61
(dp1243
g88
g89
ssg70
g1232
sg63
(lp1244
S':'
asbag56
(g77
g58
NtRp1245
(dp1246
g61
(dp1247
sg70
g1232
sg63
(lp1248
g56
(g57
g58
NtRp1249
(dp1250
g61
(dp1251
g69
I4
ssg70
g1245
sg63
(lp1252
S'34351'
p1253
asbasbasbag56
(g72
g58
NtRp1254
(dp1255
g61
(dp1256
sg70
g833
sg63
(lp1257
g56
(g77
g58
NtRp1258
(dp1259
g61
(dp1260
g81
g82
ssg70
g1254
sg63
(lp1261
S'request_method'
p1262
asbag56
(g77
g58
NtRp1263
(dp1264
g61
(dp1265
g88
g89
ssg70
g1254
sg63
(lp1266
S':'
asbag56
(g77
g58
NtRp1267
(dp1268
g61
(dp1269
sg70
g1254
sg63
(lp1270
g56
(g57
g58
NtRp1271
(dp1272
g61
(dp1273
g69
I4
ssg70
g1267
sg63
(lp1274
S'GET'
p1275
asbasbasbag56
(g72
g58
NtRp1276
(dp1277
g61
(dp1278
sg70
g833
sg63
(lp1279
g56
(g77
g58
NtRp1280
(dp1281
g61
(dp1282
g81
g82
ssg70
g1276
sg63
(lp1283
S'request_uri'
p1284
asbag56
(g77
g58
NtRp1285
(dp1286
g61
(dp1287
g88
g89
ssg70
g1276
sg63
(lp1288
S':'
asbag56
(g77
g58
NtRp1289
(dp1290
g61
(dp1291
sg70
g1276
sg63
(lp1292
g56
(g57
g58
NtRp1293
(dp1294
g61
(dp1295
g69
I4
ssg70
g1289
sg63
(lp1296
g1189
asbasbasbag56
(g72
g58
NtRp1297
(dp1298
g61
(dp1299
sg70
g833
sg63
(lp1300
g56
(g77
g58
NtRp1301
(dp1302
g61
(dp1303
g81
g82
ssg70
g1297
sg63
(lp1304
S'script_name'
p1305
asbag56
(g77
g58
NtRp1306
(dp1307
g61
(dp1308
g88
g89
ssg70
g1297
sg63
(lp1309
S':'
asbag56
(g77
g58
NtRp1310
(dp1311
g61
(dp1312
sg70
g1297
sg63
(lp1313
g56
(g57
g58
NtRp1314
(dp1315
g61
(dp1316
g69
I4
ssg70
g1310
sg63
(lp1317
S''
asbasbasbag56
(g72
g58
NtRp1318
(dp1319
g61
(dp1320
sg70
g833
sg63
(lp1321
g56
(g77
g58
NtRp1322
(dp1323
g61
(dp1324
g81
g82
ssg70
g1318
sg63
(lp1325
S'server_name'
p1326
asbag56
(g77
g58
NtRp1327
(dp1328
g61
(dp1329
g88
g89
ssg70
g1318
sg63
(lp1330
S':'
asbag56
(g77
g58
NtRp1331
(dp1332
g61
(dp1333
sg70
g1318
sg63
(lp1334
g56
(g57
g58
NtRp1335
(dp1336
g61
(dp1337
g69
I4
ssg70
g1331
sg63
(lp1338
S'jose'
p1339
asbasbasbag56
(g72
g58
NtRp1340
(dp1341
g61
(dp1342
sg70
g833
sg63
(lp1343
g56
(g77
g58
NtRp1344
(dp1345
g61
(dp1346
g81
g82
ssg70
g1340
sg63
(lp1347
S'server_port'
p1348
asbag56
(g77
g58
NtRp1349
(dp1350
g61
(dp1351
g88
g89
ssg70
g1340
sg63
(lp1352
S':'
asbag56
(g77
g58
NtRp1353
(dp1354
g61
(dp1355
sg70
g1340
sg63
(lp1356
g56
(g57
g58
NtRp1357
(dp1358
g61
(dp1359
g69
I4
ssg70
g1353
sg63
(lp1360
S'8000'
p1361
asbasbasbag56
(g72
g58
NtRp1362
(dp1363
g61
(dp1364
sg70
g833
sg63
(lp1365
g56
(g77
g58
NtRp1366
(dp1367
g61
(dp1368
g81
g82
ssg70
g1362
sg63
(lp1369
S'server_protocol'
p1370
asbag56
(g77
g58
NtRp1371
(dp1372
g61
(dp1373
g88
g89
ssg70
g1362
sg63
(lp1374
S':'
asbag56
(g77
g58
NtRp1375
(dp1376
g61
(dp1377
sg70
g1362
sg63
(lp1378
g56
(g57
g58
NtRp1379
(dp1380
g61
(dp1381
g69
I4
ssg70
g1375
sg63
(lp1382
S'HTTP/1.1'
p1383
asbasbasbag56
(g72
g58
NtRp1384
(dp1385
g61
(dp1386
sg70
g833
sg63
(lp1387
g56
(g77
g58
NtRp1388
(dp1389
g61
(dp1390
g81
g82
ssg70
g1384
sg63
(lp1391
S'server_software'
p1392
asbag56
(g77
g58
NtRp1393
(dp1394
g61
(dp1395
g88
g89
ssg70
g1384
sg63
(lp1396
S':'
asbag56
(g77
g58
NtRp1397
(dp1398
g61
(dp1399
sg70
g1384
sg63
(lp1400
g56
(g57
g58
NtRp1401
(dp1402
g61
(dp1403
g69
I4
ssg70
g1397
sg63
(lp1404
S'Rocket 1.2.4'
p1405
asbasbasbag56
(g72
g58
NtRp1406
(dp1407
g61
(dp1408
sg70
g833
sg63
(lp1409
g56
(g77
g58
NtRp1410
(dp1411
g61
(dp1412
g81
g82
ssg70
g1406
sg63
(lp1413
S'web2py_crontype'
p1414
asbag56
(g77
g58
NtRp1415
(dp1416
g61
(dp1417
g88
g89
ssg70
g1406
sg63
(lp1418
S':'
asbag56
(g77
g58
NtRp1419
(dp1420
g61
(dp1421
sg70
g1406
sg63
(lp1422
g56
(g57
g58
NtRp1423
(dp1424
g61
(dp1425
g69
I4
ssg70
g1419
sg63
(lp1426
S'hard'
p1427
asbasbasbag56
(g72
g58
NtRp1428
(dp1429
g61
(dp1430
sg70
g833
sg63
(lp1431
g56
(g77
g58
NtRp1432
(dp1433
g61
(dp1434
g81
g82
ssg70
g1428
sg63
(lp1435
S'web2py_original_uri'
p1436
asbag56
(g77
g58
NtRp1437
(dp1438
g61
(dp1439
g88
g89
ssg70
g1428
sg63
(lp1440
S':'
asbag56
(g77
g58
NtRp1441
(dp1442
g61
(dp1443
sg70
g1428
sg63
(lp1444
g56
(g57
g58
NtRp1445
(dp1446
g61
(dp1447
g69
I4
ssg70
g1441
sg63
(lp1448
g1189
asbasbasbag56
(g72
g58
NtRp1449
(dp1450
g61
(dp1451
sg70
g833
sg63
(lp1452
g56
(g77
g58
NtRp1453
(dp1454
g61
(dp1455
g81
g82
ssg70
g1449
sg63
(lp1456
S'web2py_path'
p1457
asbag56
(g77
g58
NtRp1458
(dp1459
g61
(dp1460
g88
g89
ssg70
g1449
sg63
(lp1461
S':'
asbag56
(g77
g58
NtRp1462
(dp1463
g61
(dp1464
sg70
g1449
sg63
(lp1465
g56
(g57
g58
NtRp1466
(dp1467
g61
(dp1468
g69
I4
ssg70
g1462
sg63
(lp1469
g880
asbasbasbag56
(g72
g58
NtRp1470
(dp1471
g61
(dp1472
sg70
g833
sg63
(lp1473
g56
(g77
g58
NtRp1474
(dp1475
g61
(dp1476
g81
g82
ssg70
g1470
sg63
(lp1477
S'web2py_version'
p1478
asbag56
(g77
g58
NtRp1479
(dp1480
g61
(dp1481
g88
g89
ssg70
g1470
sg63
(lp1482
S':'
asbag56
(g77
g58
NtRp1483
(dp1484
g61
(dp1485
sg70
g1470
sg63
(lp1486
g56
(g57
g58
NtRp1487
(dp1488
g61
(dp1489
g69
I4
ssg70
g1483
sg63
(lp1490
g56
(g65
g58
NtRp1491
(dp1492
g61
(dp1493
g69
I3
ssg70
Nsg63
(lp1494
g56
(g72
g58
NtRp1495
(dp1496
g61
(dp1497
sg70
g1491
sg63
(lp1498
g56
(g77
g58
NtRp1499
(dp1500
g61
(dp1501
sg70
g1495
sg63
(lp1502
g56
(g57
g58
NtRp1503
(dp1504
g61
(dp1505
g69
I3
ssg70
g1499
sg63
(lp1506
S'1'
asbasbasbag56
(g72
g58
NtRp1507
(dp1508
g61
(dp1509
sg70
g1491
sg63
(lp1510
g56
(g77
g58
NtRp1511
(dp1512
g61
(dp1513
sg70
g1507
sg63
(lp1514
g56
(g57
g58
NtRp1515
(dp1516
g61
(dp1517
g69
I3
ssg70
g1511
sg63
(lp1518
S'99'
p1519
asbasbasbag56
(g72
g58
NtRp1520
(dp1521
g61
(dp1522
sg70
g1491
sg63
(lp1523
g56
(g77
g58
NtRp1524
(dp1525
g61
(dp1526
sg70
g1520
sg63
(lp1527
g56
(g57
g58
NtRp1528
(dp1529
g61
(dp1530
g69
I3
ssg70
g1524
sg63
(lp1531
S'2'
asbasbasbag56
(g72
g58
NtRp1532
(dp1533
g61
(dp1534
sg70
g1491
sg63
(lp1535
g56
(g77
g58
NtRp1536
(dp1537
g61
(dp1538
sg70
g1532
sg63
(lp1539
g56
(g57
g58
NtRp1540
(dp1541
g61
(dp1542
g69
I3
ssg70
g1536
sg63
(lp1543
S'datetime.datetime(2011, 9, 26, 6, 55, 33)'
p1544
asbasbasbag56
(g72
g58
NtRp1545
(dp1546
g61
(dp1547
sg70
g1491
sg63
(lp1548
g56
(g77
g58
NtRp1549
(dp1550
g61
(dp1551
sg70
g1545
sg63
(lp1552
g56
(g57
g58
NtRp1553
(dp1554
g61
(dp1555
g69
I3
ssg70
g1549
sg63
(lp1556
S'stable'
p1557
asbasbasbasbasbasbasbag56
(g72
g58
NtRp1558
(dp1559
g61
(dp1560
sg70
g833
sg63
(lp1561
g56
(g77
g58
NtRp1562
(dp1563
g61
(dp1564
g81
g82
ssg70
g1558
sg63
(lp1565
S'wsgi_errors'
p1566
asbag56
(g77
g58
NtRp1567
(dp1568
g61
(dp1569
g88
g89
ssg70
g1558
sg63
(lp1570
S':'
asbag56
(g77
g58
NtRp1571
(dp1572
g61
(dp1573
sg70
g1558
sg63
(lp1574
g56
(g57
g58
NtRp1575
(dp1576
g61
(dp1577
g69
I4
ssg70
g1571
sg63
(lp1578
S"<open file '<stderr>', mode 'w' at 0x7f70cdab4270>"
p1579
asbasbasbag56
(g72
g58
NtRp1580
(dp1581
g61
(dp1582
sg70
g833
sg63
(lp1583
g56
(g77
g58
NtRp1584
(dp1585
g61
(dp1586
g81
g82
ssg70
g1580
sg63
(lp1587
S'wsgi_file_wrapper'
p1588
asbag56
(g77
g58
NtRp1589
(dp1590
g61
(dp1591
g88
g89
ssg70
g1580
sg63
(lp1592
S':'
asbag56
(g77
g58
NtRp1593
(dp1594
g61
(dp1595
sg70
g1580
sg63
(lp1596
g56
(g57
g58
NtRp1597
(dp1598
g61
(dp1599
g69
I4
ssg70
g1593
sg63
(lp1600
S'<class wsgiref.util.FileWrapper at 0x234fd50>'
p1601
asbasbasbag56
(g72
g58
NtRp1602
(dp1603
g61
(dp1604
sg70
g833
sg63
(lp1605
g56
(g77
g58
NtRp1606
(dp1607
g61
(dp1608
g81
g82
ssg70
g1602
sg63
(lp1609
S'wsgi_input'
p1610
asbag56
(g77
g58
NtRp1611
(dp1612
g61
(dp1613
g88
g89
ssg70
g1602
sg63
(lp1614
S':'
asbag56
(g77
g58
NtRp1615
(dp1616
g61
(dp1617
sg70
g1602
sg63
(lp1618
g56
(g57
g58
NtRp1619
(dp1620
g61
(dp1621
g69
I4
ssg70
g1615
sg63
(lp1622
S'<socket._fileobject object at 0x2808cd0>'
p1623
asbasbasbag56
(g72
g58
NtRp1624
(dp1625
g61
(dp1626
sg70
g833
sg63
(lp1627
g56
(g77
g58
NtRp1628
(dp1629
g61
(dp1630
g81
g82
ssg70
g1624
sg63
(lp1631
S'wsgi_multiprocess'
p1632
asbag56
(g77
g58
NtRp1633
(dp1634
g61
(dp1635
g88
g89
ssg70
g1624
sg63
(lp1636
S':'
asbag56
(g77
g58
NtRp1637
(dp1638
g61
(dp1639
sg70
g1624
sg63
(lp1640
g56
(g57
g58
NtRp1641
(dp1642
g61
(dp1643
g69
I4
ssg70
g1637
sg63
(lp1644
g99
asbasbasbag56
(g72
g58
NtRp1645
(dp1646
g61
(dp1647
sg70
g833
sg63
(lp1648
g56
(g77
g58
NtRp1649
(dp1650
g61
(dp1651
g81
g82
ssg70
g1645
sg63
(lp1652
S'wsgi_multithread'
p1653
asbag56
(g77
g58
NtRp1654
(dp1655
g61
(dp1656
g88
g89
ssg70
g1645
sg63
(lp1657
S':'
asbag56
(g77
g58
NtRp1658
(dp1659
g61
(dp1660
sg70
g1645
sg63
(lp1661
g56
(g57
g58
NtRp1662
(dp1663
g61
(dp1664
g69
I4
ssg70
g1658
sg63
(lp1665
S'True'
p1666
asbasbasbag56
(g72
g58
NtRp1667
(dp1668
g61
(dp1669
sg70
g833
sg63
(lp1670
g56
(g77
g58
NtRp1671
(dp1672
g61
(dp1673
g81
g82
ssg70
g1667
sg63
(lp1674
S'wsgi_run_once'
p1675
asbag56
(g77
g58
NtRp1676
(dp1677
g61
(dp1678
g88
g89
ssg70
g1667
sg63
(lp1679
S':'
asbag56
(g77
g58
NtRp1680
(dp1681
g61
(dp1682
sg70
g1667
sg63
(lp1683
g56
(g57
g58
NtRp1684
(dp1685
g61
(dp1686
g69
I4
ssg70
g1680
sg63
(lp1687
g99
asbasbasbag56
(g72
g58
NtRp1688
(dp1689
g61
(dp1690
sg70
g833
sg63
(lp1691
g56
(g77
g58
NtRp1692
(dp1693
g61
(dp1694
g81
g82
ssg70
g1688
sg63
(lp1695
S'wsgi_url_scheme'
p1696
asbag56
(g77
g58
NtRp1697
(dp1698
g61
(dp1699
g88
g89
ssg70
g1688
sg63
(lp1700
S':'
asbag56
(g77
g58
NtRp1701
(dp1702
g61
(dp1703
sg70
g1688
sg63
(lp1704
g56
(g57
g58
NtRp1705
(dp1706
g61
(dp1707
g69
I4
ssg70
g1701
sg63
(lp1708
S'http'
p1709
asbasbasbag56
(g72
g58
NtRp1710
(dp1711
g61
(dp1712
sg70
g833
sg63
(lp1713
g56
(g77
g58
NtRp1714
(dp1715
g61
(dp1716
g81
g82
ssg70
g1710
sg63
(lp1717
S'wsgi_version'
p1718
asbag56
(g77
g58
NtRp1719
(dp1720
g61
(dp1721
g88
g89
ssg70
g1710
sg63
(lp1722
S':'
asbag56
(g77
g58
NtRp1723
(dp1724
g61
(dp1725
sg70
g1710
sg63
(lp1726
g56
(g57
g58
NtRp1727
(dp1728
g61
(dp1729
g69
I4
ssg70
g1723
sg63
(lp1730
g56
(g65
g58
NtRp1731
(dp1732
g61
(dp1733
g69
I3
ssg70
Nsg63
(lp1734
g56
(g72
g58
NtRp1735
(dp1736
g61
(dp1737
sg70
g1731
sg63
(lp1738
g56
(g77
g58
NtRp1739
(dp1740
g61
(dp1741
sg70
g1735
sg63
(lp1742
g56
(g57
g58
NtRp1743
(dp1744
g61
(dp1745
g69
I3
ssg70
g1739
sg63
(lp1746
S'1'
asbasbasbag56
(g72
g58
NtRp1747
(dp1748
g61
(dp1749
sg70
g1731
sg63
(lp1750
g56
(g77
g58
NtRp1751
(dp1752
g61
(dp1753
sg70
g1747
sg63
(lp1754
g56
(g57
g58
NtRp1755
(dp1756
g61
(dp1757
g69
I3
ssg70
g1751
sg63
(lp1758
S'0'
asbasbasbasbasbasbasbasbasbasbasbag56
(g72
g58
NtRp1759
(dp1760
g61
(dp1761
sg70
g66
sg63
(lp1762
g56
(g77
g58
NtRp1763
(dp1764
g61
(dp1765
g81
g82
ssg70
g1759
sg63
(lp1766
S'extension'
p1767
asbag56
(g77
g58
NtRp1768
(dp1769
g61
(dp1770
g88
g89
ssg70
g1759
sg63
(lp1771
S':'
asbag56
(g77
g58
NtRp1772
(dp1773
g61
(dp1774
sg70
g1759
sg63
(lp1775
g56
(g57
g58
NtRp1776
(dp1777
g61
(dp1778
g69
I5
ssg70
g1772
sg63
(lp1779
S'html'
p1780
asbasbasbag56
(g72
g58
NtRp1781
(dp1782
g61
(dp1783
sg70
g66
sg63
(lp1784
g56
(g77
g58
NtRp1785
(dp1786
g61
(dp1787
g81
g82
ssg70
g1781
sg63
(lp1788
S'folder'
p1789
asbag56
(g77
g58
NtRp1790
(dp1791
g61
(dp1792
g88
g89
ssg70
g1781
sg63
(lp1793
S':'
asbag56
(g77
g58
NtRp1794
(dp1795
g61
(dp1796
sg70
g1781
sg63
(lp1797
g56
(g57
g58
NtRp1798
(dp1799
g61
(dp1800
g69
I5
ssg70
g1794
sg63
(lp1801
S'/home/jose/DESARROLLO/web2py199/applications/streamlog/'
p1802
asbasbasbag56
(g72
g58
NtRp1803
(dp1804
g61
(dp1805
sg70
g66
sg63
(lp1806
g56
(g77
g58
NtRp1807
(dp1808
g61
(dp1809
g81
g82
ssg70
g1803
sg63
(lp1810
S'function'
p1811
asbag56
(g77
g58
NtRp1812
(dp1813
g61
(dp1814
g88
g89
ssg70
g1803
sg63
(lp1815
S':'
asbag56
(g77
g58
NtRp1816
(dp1817
g61
(dp1818
sg70
g1803
sg63
(lp1819
g56
(g57
g58
NtRp1820
(dp1821
g61
(dp1822
g69
I5
ssg70
g1816
sg63
(lp1823
S'getConnectionData'
p1824
asbasbasbag56
(g72
g58
NtRp1825
(dp1826
g61
(dp1827
sg70
g66
sg63
(lp1828
g56
(g77
g58
NtRp1829
(dp1830
g61
(dp1831
g81
g82
ssg70
g1825
sg63
(lp1832
S'get_vars'
p1833
asbag56
(g77
g58
NtRp1834
(dp1835
g61
(dp1836
g88
g89
ssg70
g1825
sg63
(lp1837
S':'
asbag56
(g77
g58
NtRp1838
(dp1839
g61
(dp1840
sg70
g1825
sg63
(lp1841
g56
(g57
g58
NtRp1842
(dp1843
g61
(dp1844
g69
I5
ssg70
g1838
sg63
(lp1845
g56
(g65
g58
NtRp1846
(dp1847
g61
(dp1848
g69
I4
ssg70
Nsg63
(lp1849
sbasbasbasbag56
(g72
g58
NtRp1850
(dp1851
g61
(dp1852
sg70
g66
sg63
(lp1853
g56
(g77
g58
NtRp1854
(dp1855
g61
(dp1856
g81
g82
ssg70
g1850
sg63
(lp1857
S'global_settings'
p1858
asbag56
(g77
g58
NtRp1859
(dp1860
g61
(dp1861
g88
g89
ssg70
g1850
sg63
(lp1862
S':'
asbag56
(g77
g58
NtRp1863
(dp1864
g61
(dp1865
sg70
g1850
sg63
(lp1866
g56
(g57
g58
NtRp1867
(dp1868
g61
(dp1869
g69
I5
ssg70
g1863
sg63
(lp1870
g56
(g65
g58
NtRp1871
(dp1872
g61
(dp1873
g69
I4
ssg70
Nsg63
(lp1874
g56
(g72
g58
NtRp1875
(dp1876
g61
(dp1877
sg70
g1871
sg63
(lp1878
g56
(g77
g58
NtRp1879
(dp1880
g61
(dp1881
g81
g82
ssg70
g1875
sg63
(lp1882
g845
asbag56
(g77
g58
NtRp1883
(dp1884
g61
(dp1885
g88
g89
ssg70
g1875
sg63
(lp1886
S':'
asbag56
(g77
g58
NtRp1887
(dp1888
g61
(dp1889
sg70
g1875
sg63
(lp1890
g56
(g57
g58
NtRp1891
(dp1892
g61
(dp1893
g69
I4
ssg70
g1887
sg63
(lp1894
S"set(['/home/jose/DESARROLLO/web2py199/applications/streamlog/'])"
p1895
asbasbasbag56
(g72
g58
NtRp1896
(dp1897
g61
(dp1898
sg70
g1871
sg63
(lp1899
g56
(g77
g58
NtRp1900
(dp1901
g61
(dp1902
g81
g82
ssg70
g1896
sg63
(lp1903
g867
asbag56
(g77
g58
NtRp1904
(dp1905
g61
(dp1906
g88
g89
ssg70
g1896
sg63
(lp1907
S':'
asbag56
(g77
g58
NtRp1908
(dp1909
g61
(dp1910
sg70
g1896
sg63
(lp1911
g56
(g57
g58
NtRp1912
(dp1913
g61
(dp1914
g69
I4
ssg70
g1908
sg63
(lp1915
g880
asbasbasbag56
(g72
g58
NtRp1916
(dp1917
g61
(dp1918
sg70
g1871
sg63
(lp1919
g56
(g77
g58
NtRp1920
(dp1921
g61
(dp1922
g81
g82
ssg70
g1916
sg63
(lp1923
g889
asbag56
(g77
g58
NtRp1924
(dp1925
g61
(dp1926
g88
g89
ssg70
g1916
sg63
(lp1927
S':'
asbag56
(g77
g58
NtRp1928
(dp1929
g61
(dp1930
sg70
g1916
sg63
(lp1931
g56
(g57
g58
NtRp1932
(dp1933
g61
(dp1934
g69
I4
ssg70
g1928
sg63
(lp1935
g56
(g65
g58
NtRp1936
(dp1937
g61
(dp1938
g69
I3
ssg70
Nsg63
(lp1939
sbasbasbasbag56
(g72
g58
NtRp1940
(dp1941
g61
(dp1942
sg70
g1871
sg63
(lp1943
g56
(g77
g58
NtRp1944
(dp1945
g61
(dp1946
g81
g82
ssg70
g1940
sg63
(lp1947
g914
asbag56
(g77
g58
NtRp1948
(dp1949
g61
(dp1950
g88
g89
ssg70
g1940
sg63
(lp1951
S':'
asbag56
(g77
g58
NtRp1952
(dp1953
g61
(dp1954
sg70
g1940
sg63
(lp1955
g56
(g57
g58
NtRp1956
(dp1957
g61
(dp1958
g69
I4
ssg70
g1952
sg63
(lp1959
S"<Values at 0x24356c8: {'verbose': False, 'ip': '127.0.0.1', 'shutdown_timeout': 5, 'taskbar': False, 'nocron': False, 'pid_filename': 'httpserver.pid', 'maxthreads': None, 'softcron': False, 'server_name': 'jose', 'bpython': False, 'nogui': False, 'port': 8000, 'extcron': False, 'debuglevel': 30, 'test': None, 'folder': '/home/jose/DESARROLLO/web2py199', 'config': '', 'import_models': False, 'winservice': '', 'shell': None, 'run': '', 'log_filename': 'httpserver.log', 'args': [''], 'ssl_ca_certificate': None, 'scheduler': None, 'profiler_filename': None, 'ssl_private_key': '', 'password': 't', 'request_queue_size': 5, 'ssl_certificate': '', 'cronjob': False, 'plain': False, 'quiet': False, 'interfaces': None, 'minthreads': None, 'timeout': 10, 'numthreads': None, 'nobanner': False}>"
p1960
asbasbasbag56
(g72
g58
NtRp1961
(dp1962
g61
(dp1963
sg70
g1871
sg63
(lp1964
g56
(g77
g58
NtRp1965
(dp1966
g61
(dp1967
g81
g82
ssg70
g1961
sg63
(lp1968
g936
asbag56
(g77
g58
NtRp1969
(dp1970
g61
(dp1971
g88
g89
ssg70
g1961
sg63
(lp1972
S':'
asbag56
(g77
g58
NtRp1973
(dp1974
g61
(dp1975
sg70
g1961
sg63
(lp1976
g56
(g57
g58
NtRp1977
(dp1978
g61
(dp1979
g69
I4
ssg70
g1973
sg63
(lp1980
S'set([])'
p1981
asbasbasbag56
(g72
g58
NtRp1982
(dp1983
g61
(dp1984
sg70
g1871
sg63
(lp1985
g56
(g77
g58
NtRp1986
(dp1987
g61
(dp1988
g81
g82
ssg70
g1982
sg63
(lp1989
g958
asbag56
(g77
g58
NtRp1990
(dp1991
g61
(dp1992
g88
g89
ssg70
g1982
sg63
(lp1993
S':'
asbag56
(g77
g58
NtRp1994
(dp1995
g61
(dp1996
sg70
g1982
sg63
(lp1997
g56
(g57
g58
NtRp1998
(dp1999
g61
(dp2000
g69
I4
ssg70
g1994
sg63
(lp2001
g99
asbasbasbag56
(g72
g58
NtRp2002
(dp2003
g61
(dp2004
sg70
g1871
sg63
(lp2005
g56
(g77
g58
NtRp2006
(dp2007
g61
(dp2008
g81
g82
ssg70
g2002
sg63
(lp2009
g979
asbag56
(g77
g58
NtRp2010
(dp2011
g61
(dp2012
g88
g89
ssg70
g2002
sg63
(lp2013
S':'
asbag56
(g77
g58
NtRp2014
(dp2015
g61
(dp2016
sg70
g2002
sg63
(lp2017
g56
(g57
g58
NtRp2018
(dp2019
g61
(dp2020
g69
I4
ssg70
g2014
sg63
(lp2021
g992
asbasbasbag56
(g72
g58
NtRp2022
(dp2023
g61
(dp2024
sg70
g1871
sg63
(lp2025
g56
(g77
g58
NtRp2026
(dp2027
g61
(dp2028
g81
g82
ssg70
g2022
sg63
(lp2029
g1155
asbag56
(g77
g58
NtRp2030
(dp2031
g61
(dp2032
g88
g89
ssg70
g2022
sg63
(lp2033
S':'
asbag56
(g77
g58
NtRp2034
(dp2035
g61
(dp2036
sg70
g2022
sg63
(lp2037
g56
(g57
g58
NtRp2038
(dp2039
g61
(dp2040
g69
I4
ssg70
g2034
sg63
(lp2041
g99
asbasbasbag56
(g72
g58
NtRp2042
(dp2043
g61
(dp2044
sg70
g1871
sg63
(lp2045
g56
(g77
g58
NtRp2046
(dp2047
g61
(dp2048
g81
g82
ssg70
g2042
sg63
(lp2049
g1414
asbag56
(g77
g58
NtRp2050
(dp2051
g61
(dp2052
g88
g89
ssg70
g2042
sg63
(lp2053
S':'
asbag56
(g77
g58
NtRp2054
(dp2055
g61
(dp2056
sg70
g2042
sg63
(lp2057
g56
(g57
g58
NtRp2058
(dp2059
g61
(dp2060
g69
I4
ssg70
g2054
sg63
(lp2061
g1427
asbasbasbag56
(g72
g58
NtRp2062
(dp2063
g61
(dp2064
sg70
g1871
sg63
(lp2065
g56
(g77
g58
NtRp2066
(dp2067
g61
(dp2068
g81
g82
ssg70
g2062
sg63
(lp2069
g1478
asbag56
(g77
g58
NtRp2070
(dp2071
g61
(dp2072
g88
g89
ssg70
g2062
sg63
(lp2073
S':'
asbag56
(g77
g58
NtRp2074
(dp2075
g61
(dp2076
sg70
g2062
sg63
(lp2077
g56
(g57
g58
NtRp2078
(dp2079
g61
(dp2080
g69
I4
ssg70
g2074
sg63
(lp2081
g56
(g65
g58
NtRp2082
(dp2083
g61
(dp2084
g69
I3
ssg70
Nsg63
(lp2085
g56
(g72
g58
NtRp2086
(dp2087
g61
(dp2088
sg70
g2082
sg63
(lp2089
g56
(g77
g58
NtRp2090
(dp2091
g61
(dp2092
sg70
g2086
sg63
(lp2093
g56
(g57
g58
NtRp2094
(dp2095
g61
(dp2096
g69
I3
ssg70
g2090
sg63
(lp2097
S'1'
asbasbasbag56
(g72
g58
NtRp2098
(dp2099
g61
(dp2100
sg70
g2082
sg63
(lp2101
g56
(g77
g58
NtRp2102
(dp2103
g61
(dp2104
sg70
g2098
sg63
(lp2105
g56
(g57
g58
NtRp2106
(dp2107
g61
(dp2108
g69
I3
ssg70
g2102
sg63
(lp2109
S'99'
p2110
asbasbasbag56
(g72
g58
NtRp2111
(dp2112
g61
(dp2113
sg70
g2082
sg63
(lp2114
g56
(g77
g58
NtRp2115
(dp2116
g61
(dp2117
sg70
g2111
sg63
(lp2118
g56
(g57
g58
NtRp2119
(dp2120
g61
(dp2121
g69
I3
ssg70
g2115
sg63
(lp2122
S'2'
asbasbasbag56
(g72
g58
NtRp2123
(dp2124
g61
(dp2125
sg70
g2082
sg63
(lp2126
g56
(g77
g58
NtRp2127
(dp2128
g61
(dp2129
sg70
g2123
sg63
(lp2130
g56
(g57
g58
NtRp2131
(dp2132
g61
(dp2133
g69
I3
ssg70
g2127
sg63
(lp2134
S'datetime.datetime(2011, 9, 26, 6, 55, 33)'
p2135
asbasbasbag56
(g72
g58
NtRp2136
(dp2137
g61
(dp2138
sg70
g2082
sg63
(lp2139
g56
(g77
g58
NtRp2140
(dp2141
g61
(dp2142
sg70
g2136
sg63
(lp2143
g56
(g57
g58
NtRp2144
(dp2145
g61
(dp2146
g69
I3
ssg70
g2140
sg63
(lp2147
g1557
asbasbasbasbasbasbasbasbasbasbasbag56
(g72
g58
NtRp2148
(dp2149
g61
(dp2150
sg70
g66
sg63
(lp2151
g56
(g77
g58
NtRp2152
(dp2153
g61
(dp2154
g81
g82
ssg70
g2148
sg63
(lp2155
S'is_https'
p2156
asbag56
(g77
g58
NtRp2157
(dp2158
g61
(dp2159
g88
g89
ssg70
g2148
sg63
(lp2160
S':'
asbag56
(g77
g58
NtRp2161
(dp2162
g61
(dp2163
sg70
g2148
sg63
(lp2164
g56
(g57
g58
NtRp2165
(dp2166
g61
(dp2167
g69
I5
ssg70
g2161
sg63
(lp2168
g99
asbasbasbag56
(g72
g58
NtRp2169
(dp2170
g61
(dp2171
sg70
g66
sg63
(lp2172
g56
(g77
g58
NtRp2173
(dp2174
g61
(dp2175
g81
g82
ssg70
g2169
sg63
(lp2176
S'is_local'
p2177
asbag56
(g77
g58
NtRp2178
(dp2179
g61
(dp2180
g88
g89
ssg70
g2169
sg63
(lp2181
S':'
asbag56
(g77
g58
NtRp2182
(dp2183
g61
(dp2184
sg70
g2169
sg63
(lp2185
g56
(g57
g58
NtRp2186
(dp2187
g61
(dp2188
g69
I5
ssg70
g2182
sg63
(lp2189
g1666
asbasbasbag56
(g72
g58
NtRp2190
(dp2191
g61
(dp2192
sg70
g66
sg63
(lp2193
g56
(g77
g58
NtRp2194
(dp2195
g61
(dp2196
g81
g82
ssg70
g2190
sg63
(lp2197
S'is_restful'
p2198
asbag56
(g77
g58
NtRp2199
(dp2200
g61
(dp2201
g88
g89
ssg70
g2190
sg63
(lp2202
S':'
asbag56
(g77
g58
NtRp2203
(dp2204
g61
(dp2205
sg70
g2190
sg63
(lp2206
g56
(g57
g58
NtRp2207
(dp2208
g61
(dp2209
g69
I5
ssg70
g2203
sg63
(lp2210
g99
asbasbasbag56
(g72
g58
NtRp2211
(dp2212
g61
(dp2213
sg70
g66
sg63
(lp2214
g56
(g77
g58
NtRp2215
(dp2216
g61
(dp2217
g81
g82
ssg70
g2211
sg63
(lp2218
S'now'
p2219
asbag56
(g77
g58
NtRp2220
(dp2221
g61
(dp2222
g88
g89
ssg70
g2211
sg63
(lp2223
S':'
asbag56
(g77
g58
NtRp2224
(dp2225
g61
(dp2226
sg70
g2211
sg63
(lp2227
g56
(g57
g58
NtRp2228
(dp2229
g61
(dp2230
g69
I5
ssg70
g2224
sg63
(lp2231
S'datetime.datetime(2012, 5, 27, 15, 5, 45, 838779)'
p2232
asbasbasbag56
(g72
g58
NtRp2233
(dp2234
g61
(dp2235
sg70
g66
sg63
(lp2236
g56
(g77
g58
NtRp2237
(dp2238
g61
(dp2239
g81
g82
ssg70
g2233
sg63
(lp2240
S'post_vars'
p2241
asbag56
(g77
g58
NtRp2242
(dp2243
g61
(dp2244
g88
g89
ssg70
g2233
sg63
(lp2245
S':'
asbag56
(g77
g58
NtRp2246
(dp2247
g61
(dp2248
sg70
g2233
sg63
(lp2249
g56
(g57
g58
NtRp2250
(dp2251
g61
(dp2252
g69
I5
ssg70
g2246
sg63
(lp2253
g56
(g65
g58
NtRp2254
(dp2255
g61
(dp2256
g69
I4
ssg70
Nsg63
(lp2257
sbasbasbasbag56
(g72
g58
NtRp2258
(dp2259
g61
(dp2260
sg70
g66
sg63
(lp2261
g56
(g77
g58
NtRp2262
(dp2263
g61
(dp2264
g81
g82
ssg70
g2258
sg63
(lp2265
S'raw_args'
p2266
asbag56
(g77
g58
NtRp2267
(dp2268
g61
(dp2269
g88
g89
ssg70
g2258
sg63
(lp2270
S':'
asbag56
(g77
g58
NtRp2271
(dp2272
g61
(dp2273
sg70
g2258
sg63
(lp2274
g56
(g57
g58
NtRp2275
(dp2276
g61
(dp2277
g69
I5
ssg70
g2271
sg63
(lp2278
S'2'
asbasbasbag56
(g72
g58
NtRp2279
(dp2280
g61
(dp2281
sg70
g66
sg63
(lp2282
g56
(g77
g58
NtRp2283
(dp2284
g61
(dp2285
g81
g82
ssg70
g2279
sg63
(lp2286
S'url'
p2287
asbag56
(g77
g58
NtRp2288
(dp2289
g61
(dp2290
g88
g89
ssg70
g2279
sg63
(lp2291
S':'
asbag56
(g77
g58
NtRp2292
(dp2293
g61
(dp2294
sg70
g2279
sg63
(lp2295
g56
(g57
g58
NtRp2296
(dp2297
g61
(dp2298
g69
I5
ssg70
g2292
sg63
(lp2299
S'/streamlog/default/getConnectionData/2'
p2300
asbasbasbag56
(g72
g58
NtRp2301
(dp2302
g61
(dp2303
sg70
g66
sg63
(lp2304
g56
(g77
g58
NtRp2305
(dp2306
g61
(dp2307
g81
g82
ssg70
g2301
sg63
(lp2308
S'utcnow'
p2309
asbag56
(g77
g58
NtRp2310
(dp2311
g61
(dp2312
g88
g89
ssg70
g2301
sg63
(lp2313
S':'
asbag56
(g77
g58
NtRp2314
(dp2315
g61
(dp2316
sg70
g2301
sg63
(lp2317
g56
(g57
g58
NtRp2318
(dp2319
g61
(dp2320
g69
I5
ssg70
g2314
sg63
(lp2321
S'datetime.datetime(2012, 5, 27, 8, 5, 45, 838803)'
p2322
asbasbasbag56
(g72
g58
NtRp2323
(dp2324
g61
(dp2325
sg70
g66
sg63
(lp2326
g56
(g77
g58
NtRp2327
(dp2328
g61
(dp2329
g81
g82
ssg70
g2323
sg63
(lp2330
S'uuid'
p2331
asbag56
(g77
g58
NtRp2332
(dp2333
g61
(dp2334
g88
g89
ssg70
g2323
sg63
(lp2335
S':'
asbag56
(g77
g58
NtRp2336
(dp2337
g61
(dp2338
sg70
g2323
sg63
(lp2339
g56
(g57
g58
NtRp2340
(dp2341
g61
(dp2342
g69
I5
ssg70
g2336
sg63
(lp2343
S'streamlog/127.0.0.1.2012-05-27.15-05-45.dcbc941c-bc06-452e-98a1-a8d0a0a943a2'
p2344
asbasbasbag56
(g72
g58
NtRp2345
(dp2346
g61
(dp2347
sg70
g66
sg63
(lp2348
g56
(g77
g58
NtRp2349
(dp2350
g61
(dp2351
g81
g82
ssg70
g2345
sg63
(lp2352
S'vars'
p2353
asbag56
(g77
g58
NtRp2354
(dp2355
g61
(dp2356
g88
g89
ssg70
g2345
sg63
(lp2357
S':'
asbag56
(g77
g58
NtRp2358
(dp2359
g61
(dp2360
sg70
g2345
sg63
(lp2361
g56
(g57
g58
NtRp2362
(dp2363
g61
(dp2364
g69
I5
ssg70
g2358
sg63
(lp2365
g56
(g65
g58
NtRp2366
(dp2367
g61
(dp2368
g69
I4
ssg70
Nsg63
(lp2369
sbasbasbasbag56
(g72
g58
NtRp2370
(dp2371
g61
(dp2372
sg70
g66
sg63
(lp2373
g56
(g77
g58
NtRp2374
(dp2375
g61
(dp2376
g81
g82
ssg70
g2370
sg63
(lp2377
S'wsgi'
p2378
asbag56
(g77
g58
NtRp2379
(dp2380
g61
(dp2381
g88
g89
ssg70
g2370
sg63
(lp2382
S':'
asbag56
(g77
g58
NtRp2383
(dp2384
g61
(dp2385
sg70
g2370
sg63
(lp2386
g56
(g57
g58
NtRp2387
(dp2388
g61
(dp2389
g69
I5
ssg70
g2383
sg63
(lp2390
g56
(g65
g58
NtRp2391
(dp2392
g61
(dp2393
g69
I4
ssg70
Nsg63
(lp2394
g56
(g72
g58
NtRp2395
(dp2396
g61
(dp2397
sg70
g2391
sg63
(lp2398
g56
(g77
g58
NtRp2399
(dp2400
g61
(dp2401
g81
g82
ssg70
g2395
sg63
(lp2402
S'environ'
p2403
asbag56
(g77
g58
NtRp2404
(dp2405
g61
(dp2406
g88
g89
ssg70
g2395
sg63
(lp2407
S':'
asbag56
(g77
g58
NtRp2408
(dp2409
g61
(dp2410
sg70
g2395
sg63
(lp2411
g56
(g57
g58
NtRp2412
(dp2413
g61
(dp2414
g69
I4
ssg70
g2408
sg63
(lp2415
g56
(g65
g58
NtRp2416
(dp2417
g61
(dp2418
g69
I3
ssg70
Nsg63
(lp2419
g56
(g72
g58
NtRp2420
(dp2421
g61
(dp2422
sg70
g2416
sg63
(lp2423
g56
(g77
g58
NtRp2424
(dp2425
g61
(dp2426
g81
g82
ssg70
g2420
sg63
(lp2427
S'HTTP_ACCEPT'
p2428
asbag56
(g77
g58
NtRp2429
(dp2430
g61
(dp2431
g88
g89
ssg70
g2420
sg63
(lp2432
S':'
asbag56
(g77
g58
NtRp2433
(dp2434
g61
(dp2435
sg70
g2420
sg63
(lp2436
g56
(g57
g58
NtRp2437
(dp2438
g61
(dp2439
g69
I3
ssg70
g2433
sg63
(lp2440
g1014
asbasbasbag56
(g72
g58
NtRp2441
(dp2442
g61
(dp2443
sg70
g2416
sg63
(lp2444
g56
(g77
g58
NtRp2445
(dp2446
g61
(dp2447
g81
g82
ssg70
g2441
sg63
(lp2448
S'HTTP_ACCEPT_ENCODING'
p2449
asbag56
(g77
g58
NtRp2450
(dp2451
g61
(dp2452
g88
g89
ssg70
g2441
sg63
(lp2453
S':'
asbag56
(g77
g58
NtRp2454
(dp2455
g61
(dp2456
sg70
g2441
sg63
(lp2457
g56
(g57
g58
NtRp2458
(dp2459
g61
(dp2460
g69
I3
ssg70
g2454
sg63
(lp2461
g1036
asbasbasbag56
(g72
g58
NtRp2462
(dp2463
g61
(dp2464
sg70
g2416
sg63
(lp2465
g56
(g77
g58
NtRp2466
(dp2467
g61
(dp2468
g81
g82
ssg70
g2462
sg63
(lp2469
S'HTTP_ACCEPT_LANGUAGE'
p2470
asbag56
(g77
g58
NtRp2471
(dp2472
g61
(dp2473
g88
g89
ssg70
g2462
sg63
(lp2474
S':'
asbag56
(g77
g58
NtRp2475
(dp2476
g61
(dp2477
sg70
g2462
sg63
(lp2478
g56
(g57
g58
NtRp2479
(dp2480
g61
(dp2481
g69
I3
ssg70
g2475
sg63
(lp2482
g1058
asbasbasbag56
(g72
g58
NtRp2483
(dp2484
g61
(dp2485
sg70
g2416
sg63
(lp2486
g56
(g77
g58
NtRp2487
(dp2488
g61
(dp2489
g81
g82
ssg70
g2483
sg63
(lp2490
S'HTTP_CONNECTION'
p2491
asbag56
(g77
g58
NtRp2492
(dp2493
g61
(dp2494
g88
g89
ssg70
g2483
sg63
(lp2495
S':'
asbag56
(g77
g58
NtRp2496
(dp2497
g61
(dp2498
sg70
g2483
sg63
(lp2499
g56
(g57
g58
NtRp2500
(dp2501
g61
(dp2502
g69
I3
ssg70
g2496
sg63
(lp2503
g1080
asbasbasbag56
(g72
g58
NtRp2504
(dp2505
g61
(dp2506
sg70
g2416
sg63
(lp2507
g56
(g77
g58
NtRp2508
(dp2509
g61
(dp2510
g81
g82
ssg70
g2504
sg63
(lp2511
S'HTTP_COOKIE'
p2512
asbag56
(g77
g58
NtRp2513
(dp2514
g61
(dp2515
g88
g89
ssg70
g2504
sg63
(lp2516
S':'
asbag56
(g77
g58
NtRp2517
(dp2518
g61
(dp2519
sg70
g2504
sg63
(lp2520
g56
(g57
g58
NtRp2521
(dp2522
g61
(dp2523
g69
I3
ssg70
g2517
sg63
(lp2524
g1102
asbasbasbag56
(g72
g58
NtRp2525
(dp2526
g61
(dp2527
sg70
g2416
sg63
(lp2528
g56
(g77
g58
NtRp2529
(dp2530
g61
(dp2531
g81
g82
ssg70
g2525
sg63
(lp2532
S'HTTP_HOST'
p2533
asbag56
(g77
g58
NtRp2534
(dp2535
g61
(dp2536
g88
g89
ssg70
g2525
sg63
(lp2537
S':'
asbag56
(g77
g58
NtRp2538
(dp2539
g61
(dp2540
sg70
g2525
sg63
(lp2541
g56
(g57
g58
NtRp2542
(dp2543
g61
(dp2544
g69
I3
ssg70
g2538
sg63
(lp2545
g1124
asbasbasbag56
(g72
g58
NtRp2546
(dp2547
g61
(dp2548
sg70
g2416
sg63
(lp2549
g56
(g77
g58
NtRp2550
(dp2551
g61
(dp2552
g81
g82
ssg70
g2546
sg63
(lp2553
S'HTTP_USER_AGENT'
p2554
asbag56
(g77
g58
NtRp2555
(dp2556
g61
(dp2557
g88
g89
ssg70
g2546
sg63
(lp2558
S':'
asbag56
(g77
g58
NtRp2559
(dp2560
g61
(dp2561
sg70
g2546
sg63
(lp2562
g56
(g57
g58
NtRp2563
(dp2564
g61
(dp2565
g69
I3
ssg70
g2559
sg63
(lp2566
g1146
asbasbasbag56
(g72
g58
NtRp2567
(dp2568
g61
(dp2569
sg70
g2416
sg63
(lp2570
g56
(g77
g58
NtRp2571
(dp2572
g61
(dp2573
g81
g82
ssg70
g2567
sg63
(lp2574
S'PATH_INFO'
p2575
asbag56
(g77
g58
NtRp2576
(dp2577
g61
(dp2578
g88
g89
ssg70
g2567
sg63
(lp2579
S':'
asbag56
(g77
g58
NtRp2580
(dp2581
g61
(dp2582
sg70
g2567
sg63
(lp2583
g56
(g57
g58
NtRp2584
(dp2585
g61
(dp2586
g69
I3
ssg70
g2580
sg63
(lp2587
g1189
asbasbasbag56
(g72
g58
NtRp2588
(dp2589
g61
(dp2590
sg70
g2416
sg63
(lp2591
g56
(g77
g58
NtRp2592
(dp2593
g61
(dp2594
g81
g82
ssg70
g2588
sg63
(lp2595
S'QUERY_STRING'
p2596
asbag56
(g77
g58
NtRp2597
(dp2598
g61
(dp2599
g88
g89
ssg70
g2588
sg63
(lp2600
S':'
asbag56
(g77
g58
NtRp2601
(dp2602
g61
(dp2603
sg70
g2588
sg63
(lp2604
g56
(g57
g58
NtRp2605
(dp2606
g61
(dp2607
g69
I3
ssg70
g2601
sg63
(lp2608
S''
asbasbasbag56
(g72
g58
NtRp2609
(dp2610
g61
(dp2611
sg70
g2416
sg63
(lp2612
g56
(g77
g58
NtRp2613
(dp2614
g61
(dp2615
g81
g82
ssg70
g2609
sg63
(lp2616
S'REMOTE_ADDR'
p2617
asbag56
(g77
g58
NtRp2618
(dp2619
g61
(dp2620
g88
g89
ssg70
g2609
sg63
(lp2621
S':'
asbag56
(g77
g58
NtRp2622
(dp2623
g61
(dp2624
sg70
g2609
sg63
(lp2625
g56
(g57
g58
NtRp2626
(dp2627
g61
(dp2628
g69
I3
ssg70
g2622
sg63
(lp2629
g201
asbasbasbag56
(g72
g58
NtRp2630
(dp2631
g61
(dp2632
sg70
g2416
sg63
(lp2633
g56
(g77
g58
NtRp2634
(dp2635
g61
(dp2636
g81
g82
ssg70
g2630
sg63
(lp2637
S'REMOTE_PORT'
p2638
asbag56
(g77
g58
NtRp2639
(dp2640
g61
(dp2641
g88
g89
ssg70
g2630
sg63
(lp2642
S':'
asbag56
(g77
g58
NtRp2643
(dp2644
g61
(dp2645
sg70
g2630
sg63
(lp2646
g56
(g57
g58
NtRp2647
(dp2648
g61
(dp2649
g69
I3
ssg70
g2643
sg63
(lp2650
g1253
asbasbasbag56
(g72
g58
NtRp2651
(dp2652
g61
(dp2653
sg70
g2416
sg63
(lp2654
g56
(g77
g58
NtRp2655
(dp2656
g61
(dp2657
g81
g82
ssg70
g2651
sg63
(lp2658
S'REQUEST_METHOD'
p2659
asbag56
(g77
g58
NtRp2660
(dp2661
g61
(dp2662
g88
g89
ssg70
g2651
sg63
(lp2663
S':'
asbag56
(g77
g58
NtRp2664
(dp2665
g61
(dp2666
sg70
g2651
sg63
(lp2667
g56
(g57
g58
NtRp2668
(dp2669
g61
(dp2670
g69
I3
ssg70
g2664
sg63
(lp2671
g1275
asbasbasbag56
(g72
g58
NtRp2672
(dp2673
g61
(dp2674
sg70
g2416
sg63
(lp2675
g56
(g77
g58
NtRp2676
(dp2677
g61
(dp2678
g81
g82
ssg70
g2672
sg63
(lp2679
S'REQUEST_URI'
p2680
asbag56
(g77
g58
NtRp2681
(dp2682
g61
(dp2683
g88
g89
ssg70
g2672
sg63
(lp2684
S':'
asbag56
(g77
g58
NtRp2685
(dp2686
g61
(dp2687
sg70
g2672
sg63
(lp2688
g56
(g57
g58
NtRp2689
(dp2690
g61
(dp2691
g69
I3
ssg70
g2685
sg63
(lp2692
g1189
asbasbasbag56
(g72
g58
NtRp2693
(dp2694
g61
(dp2695
sg70
g2416
sg63
(lp2696
g56
(g77
g58
NtRp2697
(dp2698
g61
(dp2699
g81
g82
ssg70
g2693
sg63
(lp2700
S'SCRIPT_NAME'
p2701
asbag56
(g77
g58
NtRp2702
(dp2703
g61
(dp2704
g88
g89
ssg70
g2693
sg63
(lp2705
S':'
asbag56
(g77
g58
NtRp2706
(dp2707
g61
(dp2708
sg70
g2693
sg63
(lp2709
g56
(g57
g58
NtRp2710
(dp2711
g61
(dp2712
g69
I3
ssg70
g2706
sg63
(lp2713
S''
asbasbasbag56
(g72
g58
NtRp2714
(dp2715
g61
(dp2716
sg70
g2416
sg63
(lp2717
g56
(g77
g58
NtRp2718
(dp2719
g61
(dp2720
g81
g82
ssg70
g2714
sg63
(lp2721
S'SERVER_NAME'
p2722
asbag56
(g77
g58
NtRp2723
(dp2724
g61
(dp2725
g88
g89
ssg70
g2714
sg63
(lp2726
S':'
asbag56
(g77
g58
NtRp2727
(dp2728
g61
(dp2729
sg70
g2714
sg63
(lp2730
g56
(g57
g58
NtRp2731
(dp2732
g61
(dp2733
g69
I3
ssg70
g2727
sg63
(lp2734
g1339
asbasbasbag56
(g72
g58
NtRp2735
(dp2736
g61
(dp2737
sg70
g2416
sg63
(lp2738
g56
(g77
g58
NtRp2739
(dp2740
g61
(dp2741
g81
g82
ssg70
g2735
sg63
(lp2742
S'SERVER_PORT'
p2743
asbag56
(g77
g58
NtRp2744
(dp2745
g61
(dp2746
g88
g89
ssg70
g2735
sg63
(lp2747
S':'
asbag56
(g77
g58
NtRp2748
(dp2749
g61
(dp2750
sg70
g2735
sg63
(lp2751
g56
(g57
g58
NtRp2752
(dp2753
g61
(dp2754
g69
I3
ssg70
g2748
sg63
(lp2755
g1361
asbasbasbag56
(g72
g58
NtRp2756
(dp2757
g61
(dp2758
sg70
g2416
sg63
(lp2759
g56
(g77
g58
NtRp2760
(dp2761
g61
(dp2762
g81
g82
ssg70
g2756
sg63
(lp2763
S'SERVER_PROTOCOL'
p2764
asbag56
(g77
g58
NtRp2765
(dp2766
g61
(dp2767
g88
g89
ssg70
g2756
sg63
(lp2768
S':'
asbag56
(g77
g58
NtRp2769
(dp2770
g61
(dp2771
sg70
g2756
sg63
(lp2772
g56
(g57
g58
NtRp2773
(dp2774
g61
(dp2775
g69
I3
ssg70
g2769
sg63
(lp2776
g1383
asbasbasbag56
(g72
g58
NtRp2777
(dp2778
g61
(dp2779
sg70
g2416
sg63
(lp2780
g56
(g77
g58
NtRp2781
(dp2782
g61
(dp2783
g81
g82
ssg70
g2777
sg63
(lp2784
S'SERVER_SOFTWARE'
p2785
asbag56
(g77
g58
NtRp2786
(dp2787
g61
(dp2788
g88
g89
ssg70
g2777
sg63
(lp2789
S':'
asbag56
(g77
g58
NtRp2790
(dp2791
g61
(dp2792
sg70
g2777
sg63
(lp2793
g56
(g57
g58
NtRp2794
(dp2795
g61
(dp2796
g69
I3
ssg70
g2790
sg63
(lp2797
g1405
asbasbasbag56
(g72
g58
NtRp2798
(dp2799
g61
(dp2800
sg70
g2416
sg63
(lp2801
g56
(g77
g58
NtRp2802
(dp2803
g61
(dp2804
g81
g82
ssg70
g2798
sg63
(lp2805
S'WEB2PY_ORIGINAL_URI'
p2806
asbag56
(g77
g58
NtRp2807
(dp2808
g61
(dp2809
g88
g89
ssg70
g2798
sg63
(lp2810
S':'
asbag56
(g77
g58
NtRp2811
(dp2812
g61
(dp2813
sg70
g2798
sg63
(lp2814
g56
(g57
g58
NtRp2815
(dp2816
g61
(dp2817
g69
I3
ssg70
g2811
sg63
(lp2818
g1189
asbasbasbag56
(g72
g58
NtRp2819
(dp2820
g61
(dp2821
sg70
g2416
sg63
(lp2822
g56
(g77
g58
NtRp2823
(dp2824
g61
(dp2825
g81
g82
ssg70
g2819
sg63
(lp2826
S'wsgi.errors'
p2827
asbag56
(g77
g58
NtRp2828
(dp2829
g61
(dp2830
g88
g89
ssg70
g2819
sg63
(lp2831
S':'
asbag56
(g77
g58
NtRp2832
(dp2833
g61
(dp2834
sg70
g2819
sg63
(lp2835
g56
(g57
g58
NtRp2836
(dp2837
g61
(dp2838
g69
I3
ssg70
g2832
sg63
(lp2839
S"<open file '<stderr>', mode 'w' at 0x7f70cdab4270>"
p2840
asbasbasbag56
(g72
g58
NtRp2841
(dp2842
g61
(dp2843
sg70
g2416
sg63
(lp2844
g56
(g77
g58
NtRp2845
(dp2846
g61
(dp2847
g81
g82
ssg70
g2841
sg63
(lp2848
S'wsgi.file_wrapper'
p2849
asbag56
(g77
g58
NtRp2850
(dp2851
g61
(dp2852
g88
g89
ssg70
g2841
sg63
(lp2853
S':'
asbag56
(g77
g58
NtRp2854
(dp2855
g61
(dp2856
sg70
g2841
sg63
(lp2857
g56
(g57
g58
NtRp2858
(dp2859
g61
(dp2860
g69
I3
ssg70
g2854
sg63
(lp2861
S'<class wsgiref.util.FileWrapper at 0x234fd50>'
p2862
asbasbasbag56
(g72
g58
NtRp2863
(dp2864
g61
(dp2865
sg70
g2416
sg63
(lp2866
g56
(g77
g58
NtRp2867
(dp2868
g61
(dp2869
g81
g82
ssg70
g2863
sg63
(lp2870
S'wsgi.input'
p2871
asbag56
(g77
g58
NtRp2872
(dp2873
g61
(dp2874
g88
g89
ssg70
g2863
sg63
(lp2875
S':'
asbag56
(g77
g58
NtRp2876
(dp2877
g61
(dp2878
sg70
g2863
sg63
(lp2879
g56
(g57
g58
NtRp2880
(dp2881
g61
(dp2882
g69
I3
ssg70
g2876
sg63
(lp2883
S'<cStringIO.StringO object at 0x2d7ed50>'
p2884
asbasbasbag56
(g72
g58
NtRp2885
(dp2886
g61
(dp2887
sg70
g2416
sg63
(lp2888
g56
(g77
g58
NtRp2889
(dp2890
g61
(dp2891
g81
g82
ssg70
g2885
sg63
(lp2892
S'wsgi.multiprocess'
p2893
asbag56
(g77
g58
NtRp2894
(dp2895
g61
(dp2896
g88
g89
ssg70
g2885
sg63
(lp2897
S':'
asbag56
(g77
g58
NtRp2898
(dp2899
g61
(dp2900
sg70
g2885
sg63
(lp2901
g56
(g57
g58
NtRp2902
(dp2903
g61
(dp2904
g69
I3
ssg70
g2898
sg63
(lp2905
g99
asbasbasbag56
(g72
g58
NtRp2906
(dp2907
g61
(dp2908
sg70
g2416
sg63
(lp2909
g56
(g77
g58
NtRp2910
(dp2911
g61
(dp2912
g81
g82
ssg70
g2906
sg63
(lp2913
S'wsgi.multithread'
p2914
asbag56
(g77
g58
NtRp2915
(dp2916
g61
(dp2917
g88
g89
ssg70
g2906
sg63
(lp2918
S':'
asbag56
(g77
g58
NtRp2919
(dp2920
g61
(dp2921
sg70
g2906
sg63
(lp2922
g56
(g57
g58
NtRp2923
(dp2924
g61
(dp2925
g69
I3
ssg70
g2919
sg63
(lp2926
g1666
asbasbasbag56
(g72
g58
NtRp2927
(dp2928
g61
(dp2929
sg70
g2416
sg63
(lp2930
g56
(g77
g58
NtRp2931
(dp2932
g61
(dp2933
g81
g82
ssg70
g2927
sg63
(lp2934
S'wsgi.run_once'
p2935
asbag56
(g77
g58
NtRp2936
(dp2937
g61
(dp2938
g88
g89
ssg70
g2927
sg63
(lp2939
S':'
asbag56
(g77
g58
NtRp2940
(dp2941
g61
(dp2942
sg70
g2927
sg63
(lp2943
g56
(g57
g58
NtRp2944
(dp2945
g61
(dp2946
g69
I3
ssg70
g2940
sg63
(lp2947
g99
asbasbasbag56
(g72
g58
NtRp2948
(dp2949
g61
(dp2950
sg70
g2416
sg63
(lp2951
g56
(g77
g58
NtRp2952
(dp2953
g61
(dp2954
g81
g82
ssg70
g2948
sg63
(lp2955
S'wsgi.url_scheme'
p2956
asbag56
(g77
g58
NtRp2957
(dp2958
g61
(dp2959
g88
g89
ssg70
g2948
sg63
(lp2960
S':'
asbag56
(g77
g58
NtRp2961
(dp2962
g61
(dp2963
sg70
g2948
sg63
(lp2964
g56
(g57
g58
NtRp2965
(dp2966
g61
(dp2967
g69
I3
ssg70
g2961
sg63
(lp2968
g1709
asbasbasbag56
(g72
g58
NtRp2969
(dp2970
g61
(dp2971
sg70
g2416
sg63
(lp2972
g56
(g77
g58
NtRp2973
(dp2974
g61
(dp2975
g81
g82
ssg70
g2969
sg63
(lp2976
S'wsgi.version'
p2977
asbag56
(g77
g58
NtRp2978
(dp2979
g61
(dp2980
g88
g89
ssg70
g2969
sg63
(lp2981
S':'
asbag56
(g77
g58
NtRp2982
(dp2983
g61
(dp2984
sg70
g2969
sg63
(lp2985
g56
(g57
g58
NtRp2986
(dp2987
g61
(dp2988
g69
I3
ssg70
g2982
sg63
(lp2989
S'1'
asbasbasbasbasbasbasbasbasbasbasbasbasbsS'frames'
p2990
(lp2991
(dp2992
S'file'
p2993
S'/home/jose/DESARROLLO/web2py199/gluon/restricted.py'
p2994
sS'dump'
p2995
(dp2996
S'environment'
p2997
S"{'A': <class 'gluon.html.A'>, 'Auth': <class 'gluon.tools.Auth'>, 'B': <class 'gluon.html.B'>, 'BEAUTIFY': <class 'gluon.html.BEAUTIFY'>, 'BODY': <class 'gluon.html.BODY'>, 'BR': <class 'gluon.html.BR'>, 'BUTTON': <class 'gluon.html.BUTTON'>, 'CAT': <class 'gluon.html.CAT'>, 'CENTER': <class 'gluon.html.CENTER'>, 'CLEANUP': <class 'gluon.validators.CLEANUP'>, ...}"
p2998
sS'ccode'
p2999
S'<code object <module> at 0x2e9c730, file "/home/...tions/streamlog/controllers/default.py", line 14>'
p3000
ssS'lnum'
p3001
I194
sS'lines'
p3002
(dp3003
I192
S'        else:'
p3004
sI193
S'            ccode = compile2(code,layer)'
p3005
sI194
S'        exec ccode in environment'
p3006
sI195
S'    except HTTP:'
p3007
sI196
S'        raise'
p3008
sI197
S'    except Exception, error:'
p3009
sI198
S'        # XXX Show exception in Wing IDE if running in debugger'
p3010
sI189
S'    try:'
p3011
sI190
S'        if type(code) == types.CodeType:'
p3012
sI191
S'            ccode = code'
p3013
ssS'call'
p3014
S"(code='# -*- coding: utf-8 -*-\\n# this file is released ...sponse._vars=response._caller(getConnectionData)\\n', environment={'A': <class 'gluon.html.A'>, 'Auth': <class 'gluon.tools.Auth'>, 'B': <class 'gluon.html.B'>, 'BEAUTIFY': <class 'gluon.html.BEAUTIFY'>, 'BODY': <class 'gluon.html.BODY'>, 'BR': <class 'gluon.html.BR'>, 'BUTTON': <class 'gluon.html.BUTTON'>, 'CAT': <class 'gluon.html.CAT'>, 'CENTER': <class 'gluon.html.CENTER'>, 'CLEANUP': <class 'gluon.validators.CLEANUP'>, ...}, layer='/home/jose/DESARROLLO/web2py199/applications/streamlog/controllers/default.py')"
p3015
sS'func'
p3016
S'restricted'
p3017
sa(dp3018
g2993
S'/home/jose/DESARROLLO/web2py199/applications/streamlog/controllers/default.py'
p3019
sg2995
(dp3020
sg3001
I156
sg3002
(dp3021
I145
S'    http://..../[app]/default/data/update/[table]/[id]'
p3022
sI146
S'    http://..../[app]/default/data/delete/[table]/[id]'
p3023
sI147
S'    http://..../[app]/default/data/select/[table]'
p3024
sI148
S'    http://..../[app]/default/data/search/[table]'
p3025
sI149
S'    but URLs bust be signed, i.e. linked with'
p3026
sI150
S"      A('table',_href=URL('data/tables',user_signature=True))"
p3027
sI151
S'    or with the signed load operator'
p3028
sI152
S"      LOAD('default','data.load',args='tables',ajax=True,user_signature=True)"
p3029
sI153
S'    """'
p3030
sI154
S'    return dict(form=crud())'
p3031
ssg3014
S'()'
p3032
sg3016
S'<module>'
p3033
sa(dp3034
g2993
S'/home/jose/DESARROLLO/web2py199/gluon/globals.py'
p3035
sg2995
(dp3036
S'self'
p3037
S'undefined'
p3038
sS'f'
S'<function getConnectionData>'
p3039
ssg3001
I149
sg3002
(dp3040
I144
S'        self.meta = Storage()      # used by web2py_ajax.html'
p3041
sI145
S'        self.menu = []             # used by the default view layout'
p3042
sI146
S'        self.files = []            # used by web2py_ajax.html'
p3043
sI147
S'        self.generic_patterns = [] # patterns to allow generic views'
p3044
sI148
S'        self._vars = None'
p3045
sI149
S'        self._caller = lambda f: f()'
p3046
sI150
S'        self._view_environment = None'
p3047
sI151
S'        self._custom_commit = None'
p3048
sI152
S'        self._custom_rollback = None'
p3049
sI153
S''
ssg3014
S'(f=<function getConnectionData>)'
p3050
sg3016
S'<lambda>'
p3051
sa(dp3052
g2993
S'/home/jose/DESARROLLO/web2py199/applications/streamlog/controllers/default.py'
p3053
sg2995
(dp3054
S'regex'
p3055
S'<gluon.dal.Rows object>'
p3056
sS'ip'
p3057
S"'127.0.0.1'"
p3058
sS'regex_code'
p3059
S'r\'/(\\S+) (\\S+) (\\S+) \\[([^\\]\\[]+)\\] \\"([^"]*)\\" (\\S+) (\\S+)/\''
p3060
sS'global response'
p3061
S"<Storage {'body': <cStringIO.StringO object at 0...49b0>, 'view': 'default/getConnectionData.html'}>"
p3062
sS'response.json'
p3063
S"<bound method Response.json of <Storage {'body':...9b0>, 'view': 'default/getConnectionData.html'}>>"
p3064
sS'name_log'
p3065
S"'syslog2'"
p3066
sS'port'
p3067
S"'8888'"
p3068
ssg3001
I51
sg3002
(dp3069
I46
S"    regex_code=''"
p3070
sI47
S'    for row in regex:'
p3071
sI48
S'        regex_code=row.t_type_log.regex_code'
p3072
sI49
S''
sI50
S"    #return response.json([{'name_log': name_log,'IP': ip,'port': port,'regex': regex_code}])"
p3073
sI51
S'    return response.json(name_log=name_log, ip=ip, port=port,regex=regex_code)'
p3074
sI52
S''
sI53
S'def choose_log():'
p3075
sI54
S'    """'
p3076
sI55
S'    example action using the internationalization operator T and flash'
p3077
ssg3014
S'()'
p3078
sg3016
S'getConnectionData'
p3079
sasS'pyver'
p3080
S'Python 2.7.2+: /usr/bin/python'
p3081
sS'session'
p3082
g56
(g57
g58
NtRp3083
(dp3084
g61
(dp3085
sg63
(lp3086
g56
(g65
g58
NtRp3087
(dp3088
g61
(dp3089
g69
I5
ssg70
Nsg63
(lp3090
g56
(g72
g58
NtRp3091
(dp3092
g61
(dp3093
sg70
g3087
sg63
(lp3094
g56
(g77
g58
NtRp3095
(dp3096
g61
(dp3097
g81
g82
ssg70
g3091
sg63
(lp3098
S'auth'
p3099
asbag56
(g77
g58
NtRp3100
(dp3101
g61
(dp3102
g88
g89
ssg70
g3091
sg63
(lp3103
S':'
asbag56
(g77
g58
NtRp3104
(dp3105
g61
(dp3106
sg70
g3091
sg63
(lp3107
g56
(g57
g58
NtRp3108
(dp3109
g61
(dp3110
g69
I5
ssg70
g3104
sg63
(lp3111
g56
(g65
g58
NtRp3112
(dp3113
g61
(dp3114
g69
I4
ssg70
Nsg63
(lp3115
g56
(g72
g58
NtRp3116
(dp3117
g61
(dp3118
sg70
g3112
sg63
(lp3119
g56
(g77
g58
NtRp3120
(dp3121
g61
(dp3122
g81
g82
ssg70
g3116
sg63
(lp3123
S'expiration'
p3124
asbag56
(g77
g58
NtRp3125
(dp3126
g61
(dp3127
g88
g89
ssg70
g3116
sg63
(lp3128
S':'
asbag56
(g77
g58
NtRp3129
(dp3130
g61
(dp3131
sg70
g3116
sg63
(lp3132
g56
(g57
g58
NtRp3133
(dp3134
g61
(dp3135
g69
I4
ssg70
g3129
sg63
(lp3136
S'2592000'
p3137
asbasbasbag56
(g72
g58
NtRp3138
(dp3139
g61
(dp3140
sg70
g3112
sg63
(lp3141
g56
(g77
g58
NtRp3142
(dp3143
g61
(dp3144
g81
g82
ssg70
g3138
sg63
(lp3145
S'hmac_key'
p3146
asbag56
(g77
g58
NtRp3147
(dp3148
g61
(dp3149
g88
g89
ssg70
g3138
sg63
(lp3150
S':'
asbag56
(g77
g58
NtRp3151
(dp3152
g61
(dp3153
sg70
g3138
sg63
(lp3154
g56
(g57
g58
NtRp3155
(dp3156
g61
(dp3157
g69
I4
ssg70
g3151
sg63
(lp3158
S'8454e122-c616-40c1-9040-a7973410e7b5'
p3159
asbasbasbag56
(g72
g58
NtRp3160
(dp3161
g61
(dp3162
sg70
g3112
sg63
(lp3163
g56
(g77
g58
NtRp3164
(dp3165
g61
(dp3166
g81
g82
ssg70
g3160
sg63
(lp3167
S'last_visit'
p3168
asbag56
(g77
g58
NtRp3169
(dp3170
g61
(dp3171
g88
g89
ssg70
g3160
sg63
(lp3172
S':'
asbag56
(g77
g58
NtRp3173
(dp3174
g61
(dp3175
sg70
g3160
sg63
(lp3176
g56
(g57
g58
NtRp3177
(dp3178
g61
(dp3179
g69
I4
ssg70
g3173
sg63
(lp3180
S'datetime.datetime(2012, 5, 27, 8, 55, 33, 377220)'
p3181
asbasbasbag56
(g72
g58
NtRp3182
(dp3183
g61
(dp3184
sg70
g3112
sg63
(lp3185
g56
(g77
g58
NtRp3186
(dp3187
g61
(dp3188
g81
g82
ssg70
g3182
sg63
(lp3189
S'remember'
p3190
asbag56
(g77
g58
NtRp3191
(dp3192
g61
(dp3193
g88
g89
ssg70
g3182
sg63
(lp3194
S':'
asbag56
(g77
g58
NtRp3195
(dp3196
g61
(dp3197
sg70
g3182
sg63
(lp3198
g56
(g57
g58
NtRp3199
(dp3200
g61
(dp3201
g69
I4
ssg70
g3195
sg63
(lp3202
g99
asbasbasbag56
(g72
g58
NtRp3203
(dp3204
g61
(dp3205
sg70
g3112
sg63
(lp3206
g56
(g77
g58
NtRp3207
(dp3208
g61
(dp3209
g81
g82
ssg70
g3203
sg63
(lp3210
S'user'
p3211
asbag56
(g77
g58
NtRp3212
(dp3213
g61
(dp3214
g88
g89
ssg70
g3203
sg63
(lp3215
S':'
asbag56
(g77
g58
NtRp3216
(dp3217
g61
(dp3218
sg70
g3203
sg63
(lp3219
g56
(g57
g58
NtRp3220
(dp3221
g61
(dp3222
g69
I4
ssg70
g3216
sg63
(lp3223
g56
(g65
g58
NtRp3224
(dp3225
g61
(dp3226
g69
I3
ssg70
Nsg63
(lp3227
g56
(g72
g58
NtRp3228
(dp3229
g61
(dp3230
sg70
g3224
sg63
(lp3231
g56
(g77
g58
NtRp3232
(dp3233
g61
(dp3234
g81
g82
ssg70
g3228
sg63
(lp3235
S'email'
p3236
asbag56
(g77
g58
NtRp3237
(dp3238
g61
(dp3239
g88
g89
ssg70
g3228
sg63
(lp3240
S':'
asbag56
(g77
g58
NtRp3241
(dp3242
g61
(dp3243
sg70
g3228
sg63
(lp3244
g56
(g57
g58
NtRp3245
(dp3246
g61
(dp3247
g69
I3
ssg70
g3241
sg63
(lp3248
S'josedesoto@gmail.com'
p3249
asbasbasbag56
(g72
g58
NtRp3250
(dp3251
g61
(dp3252
sg70
g3224
sg63
(lp3253
g56
(g77
g58
NtRp3254
(dp3255
g61
(dp3256
g81
g82
ssg70
g3250
sg63
(lp3257
S'first_name'
p3258
asbag56
(g77
g58
NtRp3259
(dp3260
g61
(dp3261
g88
g89
ssg70
g3250
sg63
(lp3262
S':'
asbag56
(g77
g58
NtRp3263
(dp3264
g61
(dp3265
sg70
g3250
sg63
(lp3266
g56
(g57
g58
NtRp3267
(dp3268
g61
(dp3269
g69
I3
ssg70
g3263
sg63
(lp3270
S'jose'
p3271
asbasbasbag56
(g72
g58
NtRp3272
(dp3273
g61
(dp3274
sg70
g3224
sg63
(lp3275
g56
(g77
g58
NtRp3276
(dp3277
g61
(dp3278
g81
g82
ssg70
g3272
sg63
(lp3279
S'id'
p3280
asbag56
(g77
g58
NtRp3281
(dp3282
g61
(dp3283
g88
g89
ssg70
g3272
sg63
(lp3284
S':'
asbag56
(g77
g58
NtRp3285
(dp3286
g61
(dp3287
sg70
g3272
sg63
(lp3288
g56
(g57
g58
NtRp3289
(dp3290
g61
(dp3291
g69
I3
ssg70
g3285
sg63
(lp3292
S'1'
asbasbasbag56
(g72
g58
NtRp3293
(dp3294
g61
(dp3295
sg70
g3224
sg63
(lp3296
g56
(g77
g58
NtRp3297
(dp3298
g61
(dp3299
g81
g82
ssg70
g3293
sg63
(lp3300
S'last_name'
p3301
asbag56
(g77
g58
NtRp3302
(dp3303
g61
(dp3304
g88
g89
ssg70
g3293
sg63
(lp3305
S':'
asbag56
(g77
g58
NtRp3306
(dp3307
g61
(dp3308
sg70
g3293
sg63
(lp3309
g56
(g57
g58
NtRp3310
(dp3311
g61
(dp3312
g69
I3
ssg70
g3306
sg63
(lp3313
S'jose'
p3314
asbasbasbag56
(g72
g58
NtRp3315
(dp3316
g61
(dp3317
sg70
g3224
sg63
(lp3318
g56
(g77
g58
NtRp3319
(dp3320
g61
(dp3321
g81
g82
ssg70
g3315
sg63
(lp3322
S'password'
p3323
asbag56
(g77
g58
NtRp3324
(dp3325
g61
(dp3326
g88
g89
ssg70
g3315
sg63
(lp3327
S':'
asbag56
(g77
g58
NtRp3328
(dp3329
g61
(dp3330
sg70
g3315
sg63
(lp3331
g56
(g57
g58
NtRp3332
(dp3333
g61
(dp3334
g69
I3
ssg70
g3328
sg63
(lp3335
S'2b32eaa2baa0c63b755a4cde1e4dda83'
p3336
asbasbasbag56
(g72
g58
NtRp3337
(dp3338
g61
(dp3339
sg70
g3224
sg63
(lp3340
g56
(g77
g58
NtRp3341
(dp3342
g61
(dp3343
g81
g82
ssg70
g3337
sg63
(lp3344
S'registration_key'
p3345
asbag56
(g77
g58
NtRp3346
(dp3347
g61
(dp3348
g88
g89
ssg70
g3337
sg63
(lp3349
S':'
asbag56
(g77
g58
NtRp3350
(dp3351
g61
(dp3352
sg70
g3337
sg63
(lp3353
g56
(g57
g58
NtRp3354
(dp3355
g61
(dp3356
g69
I3
ssg70
g3350
sg63
(lp3357
S''
asbasbasbag56
(g72
g58
NtRp3358
(dp3359
g61
(dp3360
sg70
g3224
sg63
(lp3361
g56
(g77
g58
NtRp3362
(dp3363
g61
(dp3364
g81
g82
ssg70
g3358
sg63
(lp3365
S'reset_password_key'
p3366
asbag56
(g77
g58
NtRp3367
(dp3368
g61
(dp3369
g88
g89
ssg70
g3358
sg63
(lp3370
S':'
asbag56
(g77
g58
NtRp3371
(dp3372
g61
(dp3373
sg70
g3358
sg63
(lp3374
g56
(g57
g58
NtRp3375
(dp3376
g61
(dp3377
g69
I3
ssg70
g3371
sg63
(lp3378
S''
asbasbasbasbasbasbasbasbasbasbasbag56
(g72
g58
NtRp3379
(dp3380
g61
(dp3381
sg70
g3087
sg63
(lp3382
g56
(g77
g58
NtRp3383
(dp3384
g61
(dp3385
g81
g82
ssg70
g3379
sg63
(lp3386
S'last_query'
p3387
asbag56
(g77
g58
NtRp3388
(dp3389
g61
(dp3390
g88
g89
ssg70
g3379
sg63
(lp3391
S':'
asbag56
(g77
g58
NtRp3392
(dp3393
g61
(dp3394
sg70
g3379
sg63
(lp3395
g56
(g57
g58
NtRp3396
(dp3397
g61
(dp3398
g69
I5
ssg70
g3392
sg63
(lp3399
S'db((db.t_log.id==1)&(db.t_log.type_log==db.t_type_log.id)).select(db.t_type_log.html_table)'
p3400
asbasbasbasbasbsS'etype'
p3401
S"<type 'exceptions.TypeError'>"
p3402
sS'date'
p3403
S'Sun May 27 15:05:45 2012'
p3404
sS'response'
p3405
g56
(g57
g58
NtRp3406
(dp3407
g61
(dp3408
sg63
(lp3409
g56
(g65
g58
NtRp3410
(dp3411
g61
(dp3412
g69
I5
ssg70
Nsg63
(lp3413
g56
(g72
g58
NtRp3414
(dp3415
g61
(dp3416
sg70
g3410
sg63
(lp3417
g56
(g77
g58
NtRp3418
(dp3419
g61
(dp3420
g81
g82
ssg70
g3414
sg63
(lp3421
g166
asbag56
(g77
g58
NtRp3422
(dp3423
g61
(dp3424
g88
g89
ssg70
g3414
sg63
(lp3425
S':'
asbag56
(g77
g58
NtRp3426
(dp3427
g61
(dp3428
sg70
g3414
sg63
(lp3429
g56
(g57
g58
NtRp3430
(dp3431
g61
(dp3432
g69
I5
ssg70
g3426
sg63
(lp3433
S'<cStringIO.StringO object at 0x2d7ebc8>'
p3434
asbasbasbag56
(g72
g58
NtRp3435
(dp3436
g61
(dp3437
sg70
g3410
sg63
(lp3438
g56
(g77
g58
NtRp3439
(dp3440
g61
(dp3441
g81
g82
ssg70
g3435
sg63
(lp3442
g232
asbag56
(g77
g58
NtRp3443
(dp3444
g61
(dp3445
g88
g89
ssg70
g3435
sg63
(lp3446
S':'
asbag56
(g77
g58
NtRp3447
(dp3448
g61
(dp3449
sg70
g3435
sg63
(lp3450
g56
(g57
g58
NtRp3451
(dp3452
g61
(dp3453
g69
I5
ssg70
g3447
sg63
(lp3454
g56
(g65
g58
NtRp3455
(dp3456
g61
(dp3457
g69
I4
ssg70
Nsg63
(lp3458
g56
(g72
g58
NtRp3459
(dp3460
g61
(dp3461
sg70
g3455
sg63
(lp3462
g56
(g77
g58
NtRp3463
(dp3464
g61
(dp3465
g81
g82
ssg70
g3459
sg63
(lp3466
S'session_id_streamlog'
p3467
asbag56
(g77
g58
NtRp3468
(dp3469
g61
(dp3470
g88
g89
ssg70
g3459
sg63
(lp3471
S':'
asbag56
(g77
g58
NtRp3472
(dp3473
g61
(dp3474
sg70
g3459
sg63
(lp3475
g56
(g57
g58
NtRp3476
(dp3477
g61
(dp3478
g69
I4
ssg70
g3472
sg63
(lp3479
g56
(g65
g58
NtRp3480
(dp3481
g61
(dp3482
g69
I3
ssg70
Nsg63
(lp3483
g56
(g72
g58
NtRp3484
(dp3485
g61
(dp3486
sg70
g3480
sg63
(lp3487
g56
(g77
g58
NtRp3488
(dp3489
g61
(dp3490
g81
g82
ssg70
g3484
sg63
(lp3491
g282
asbag56
(g77
g58
NtRp3492
(dp3493
g61
(dp3494
g88
g89
ssg70
g3484
sg63
(lp3495
S':'
asbag56
(g77
g58
NtRp3496
(dp3497
g61
(dp3498
sg70
g3484
sg63
(lp3499
g56
(g57
g58
NtRp3500
(dp3501
g61
(dp3502
g69
I3
ssg70
g3496
sg63
(lp3503
S''
asbasbasbag56
(g72
g58
NtRp3504
(dp3505
g61
(dp3506
sg70
g3480
sg63
(lp3507
g56
(g77
g58
NtRp3508
(dp3509
g61
(dp3510
g81
g82
ssg70
g3504
sg63
(lp3511
g303
asbag56
(g77
g58
NtRp3512
(dp3513
g61
(dp3514
g88
g89
ssg70
g3504
sg63
(lp3515
S':'
asbag56
(g77
g58
NtRp3516
(dp3517
g61
(dp3518
sg70
g3504
sg63
(lp3519
g56
(g57
g58
NtRp3520
(dp3521
g61
(dp3522
g69
I3
ssg70
g3516
sg63
(lp3523
S''
asbasbasbag56
(g72
g58
NtRp3524
(dp3525
g61
(dp3526
sg70
g3480
sg63
(lp3527
g56
(g77
g58
NtRp3528
(dp3529
g61
(dp3530
g81
g82
ssg70
g3524
sg63
(lp3531
g324
asbag56
(g77
g58
NtRp3532
(dp3533
g61
(dp3534
g88
g89
ssg70
g3524
sg63
(lp3535
S':'
asbag56
(g77
g58
NtRp3536
(dp3537
g61
(dp3538
sg70
g3524
sg63
(lp3539
g56
(g57
g58
NtRp3540
(dp3541
g61
(dp3542
g69
I3
ssg70
g3536
sg63
(lp3543
S''
asbasbasbag56
(g72
g58
NtRp3544
(dp3545
g61
(dp3546
sg70
g3480
sg63
(lp3547
g56
(g77
g58
NtRp3548
(dp3549
g61
(dp3550
g81
g82
ssg70
g3544
sg63
(lp3551
g345
asbag56
(g77
g58
NtRp3552
(dp3553
g61
(dp3554
g88
g89
ssg70
g3544
sg63
(lp3555
S':'
asbag56
(g77
g58
NtRp3556
(dp3557
g61
(dp3558
sg70
g3544
sg63
(lp3559
g56
(g57
g58
NtRp3560
(dp3561
g61
(dp3562
g69
I3
ssg70
g3556
sg63
(lp3563
S''
asbasbasbag56
(g72
g58
NtRp3564
(dp3565
g61
(dp3566
sg70
g3480
sg63
(lp3567
g56
(g77
g58
NtRp3568
(dp3569
g61
(dp3570
g81
g82
ssg70
g3564
sg63
(lp3571
g366
asbag56
(g77
g58
NtRp3572
(dp3573
g61
(dp3574
g88
g89
ssg70
g3564
sg63
(lp3575
S':'
asbag56
(g77
g58
NtRp3576
(dp3577
g61
(dp3578
sg70
g3564
sg63
(lp3579
g56
(g57
g58
NtRp3580
(dp3581
g61
(dp3582
g69
I3
ssg70
g3576
sg63
(lp3583
S''
asbasbasbag56
(g72
g58
NtRp3584
(dp3585
g61
(dp3586
sg70
g3480
sg63
(lp3587
g56
(g77
g58
NtRp3588
(dp3589
g61
(dp3590
g81
g82
ssg70
g3584
sg63
(lp3591
g387
asbag56
(g77
g58
NtRp3592
(dp3593
g61
(dp3594
g88
g89
ssg70
g3584
sg63
(lp3595
S':'
asbag56
(g77
g58
NtRp3596
(dp3597
g61
(dp3598
sg70
g3584
sg63
(lp3599
g56
(g57
g58
NtRp3600
(dp3601
g61
(dp3602
g69
I3
ssg70
g3596
sg63
(lp3603
S'/'
asbasbasbag56
(g72
g58
NtRp3604
(dp3605
g61
(dp3606
sg70
g3480
sg63
(lp3607
g56
(g77
g58
NtRp3608
(dp3609
g61
(dp3610
g81
g82
ssg70
g3604
sg63
(lp3611
g408
asbag56
(g77
g58
NtRp3612
(dp3613
g61
(dp3614
g88
g89
ssg70
g3604
sg63
(lp3615
S':'
asbag56
(g77
g58
NtRp3616
(dp3617
g61
(dp3618
sg70
g3604
sg63
(lp3619
g56
(g57
g58
NtRp3620
(dp3621
g61
(dp3622
g69
I3
ssg70
g3616
sg63
(lp3623
S''
asbasbasbag56
(g72
g58
NtRp3624
(dp3625
g61
(dp3626
sg70
g3480
sg63
(lp3627
g56
(g77
g58
NtRp3628
(dp3629
g61
(dp3630
g81
g82
ssg70
g3624
sg63
(lp3631
g429
asbag56
(g77
g58
NtRp3632
(dp3633
g61
(dp3634
g88
g89
ssg70
g3624
sg63
(lp3635
S':'
asbag56
(g77
g58
NtRp3636
(dp3637
g61
(dp3638
sg70
g3624
sg63
(lp3639
g56
(g57
g58
NtRp3640
(dp3641
g61
(dp3642
g69
I3
ssg70
g3636
sg63
(lp3643
S''
asbasbasbasbasbasbasbasbasbasbasbag56
(g72
g58
NtRp3644
(dp3645
g61
(dp3646
sg70
g3410
sg63
(lp3647
g56
(g77
g58
NtRp3648
(dp3649
g61
(dp3650
g81
g82
ssg70
g3644
sg63
(lp3651
S'files'
p3652
asbag56
(g77
g58
NtRp3653
(dp3654
g61
(dp3655
g88
g89
ssg70
g3644
sg63
(lp3656
S':'
asbag56
(g77
g58
NtRp3657
(dp3658
g61
(dp3659
sg70
g3644
sg63
(lp3660
g56
(g57
g58
NtRp3661
(dp3662
g61
(dp3663
g69
I5
ssg70
g3657
sg63
(lp3664
g56
(g65
g58
NtRp3665
(dp3666
g61
(dp3667
g69
I4
ssg70
Nsg63
(lp3668
sbasbasbasbag56
(g72
g58
NtRp3669
(dp3670
g61
(dp3671
sg70
g3410
sg63
(lp3672
g56
(g77
g58
NtRp3673
(dp3674
g61
(dp3675
g81
g82
ssg70
g3669
sg63
(lp3676
S'flash'
p3677
asbag56
(g77
g58
NtRp3678
(dp3679
g61
(dp3680
g88
g89
ssg70
g3669
sg63
(lp3681
S':'
asbag56
(g77
g58
NtRp3682
(dp3683
g61
(dp3684
sg70
g3669
sg63
(lp3685
g56
(g57
g58
NtRp3686
(dp3687
g61
(dp3688
g69
I5
ssg70
g3682
sg63
(lp3689
S''
asbasbasbag56
(g72
g58
NtRp3690
(dp3691
g61
(dp3692
sg70
g3410
sg63
(lp3693
g56
(g77
g58
NtRp3694
(dp3695
g61
(dp3696
g81
g82
ssg70
g3690
sg63
(lp3697
S'generic_patterns'
p3698
asbag56
(g77
g58
NtRp3699
(dp3700
g61
(dp3701
g88
g89
ssg70
g3690
sg63
(lp3702
S':'
asbag56
(g77
g58
NtRp3703
(dp3704
g61
(dp3705
sg70
g3690
sg63
(lp3706
g56
(g57
g58
NtRp3707
(dp3708
g61
(dp3709
g69
I5
ssg70
g3703
sg63
(lp3710
g56
(g65
g58
NtRp3711
(dp3712
g61
(dp3713
g69
I4
ssg70
Nsg63
(lp3714
g56
(g72
g58
NtRp3715
(dp3716
g61
(dp3717
sg70
g3711
sg63
(lp3718
g56
(g77
g58
NtRp3719
(dp3720
g61
(dp3721
sg70
g3715
sg63
(lp3722
g56
(g57
g58
NtRp3723
(dp3724
g61
(dp3725
g69
I4
ssg70
g3719
sg63
(lp3726
S'*'
asbasbasbasbasbasbasbag56
(g72
g58
NtRp3727
(dp3728
g61
(dp3729
sg70
g3410
sg63
(lp3730
g56
(g77
g58
NtRp3731
(dp3732
g61
(dp3733
g81
g82
ssg70
g3727
sg63
(lp3734
S'headers'
p3735
asbag56
(g77
g58
NtRp3736
(dp3737
g61
(dp3738
g88
g89
ssg70
g3727
sg63
(lp3739
S':'
asbag56
(g77
g58
NtRp3740
(dp3741
g61
(dp3742
sg70
g3727
sg63
(lp3743
g56
(g57
g58
NtRp3744
(dp3745
g61
(dp3746
g69
I5
ssg70
g3740
sg63
(lp3747
g56
(g65
g58
NtRp3748
(dp3749
g61
(dp3750
g69
I4
ssg70
Nsg63
(lp3751
g56
(g72
g58
NtRp3752
(dp3753
g61
(dp3754
sg70
g3748
sg63
(lp3755
g56
(g77
g58
NtRp3756
(dp3757
g61
(dp3758
g81
g82
ssg70
g3752
sg63
(lp3759
S'Cache-Control'
p3760
asbag56
(g77
g58
NtRp3761
(dp3762
g61
(dp3763
g88
g89
ssg70
g3752
sg63
(lp3764
S':'
asbag56
(g77
g58
NtRp3765
(dp3766
g61
(dp3767
sg70
g3752
sg63
(lp3768
g56
(g57
g58
NtRp3769
(dp3770
g61
(dp3771
g69
I4
ssg70
g3765
sg63
(lp3772
S'no-store, no-cache, must-revalidate, post-check=0, pre-check=0'
p3773
asbasbasbag56
(g72
g58
NtRp3774
(dp3775
g61
(dp3776
sg70
g3748
sg63
(lp3777
g56
(g77
g58
NtRp3778
(dp3779
g61
(dp3780
g81
g82
ssg70
g3774
sg63
(lp3781
S'Content-Type'
p3782
asbag56
(g77
g58
NtRp3783
(dp3784
g61
(dp3785
g88
g89
ssg70
g3774
sg63
(lp3786
S':'
asbag56
(g77
g58
NtRp3787
(dp3788
g61
(dp3789
sg70
g3774
sg63
(lp3790
g56
(g57
g58
NtRp3791
(dp3792
g61
(dp3793
g69
I4
ssg70
g3787
sg63
(lp3794
S'text/html; charset=utf-8'
p3795
asbasbasbag56
(g72
g58
NtRp3796
(dp3797
g61
(dp3798
sg70
g3748
sg63
(lp3799
g56
(g77
g58
NtRp3800
(dp3801
g61
(dp3802
g81
g82
ssg70
g3796
sg63
(lp3803
S'Expires'
p3804
asbag56
(g77
g58
NtRp3805
(dp3806
g61
(dp3807
g88
g89
ssg70
g3796
sg63
(lp3808
S':'
asbag56
(g77
g58
NtRp3809
(dp3810
g61
(dp3811
sg70
g3796
sg63
(lp3812
g56
(g57
g58
NtRp3813
(dp3814
g61
(dp3815
g69
I4
ssg70
g3809
sg63
(lp3816
S'Sun, 27 May 2012 08:05:45 GMT'
p3817
asbasbasbag56
(g72
g58
NtRp3818
(dp3819
g61
(dp3820
sg70
g3748
sg63
(lp3821
g56
(g77
g58
NtRp3822
(dp3823
g61
(dp3824
g81
g82
ssg70
g3818
sg63
(lp3825
S'Pragma'
p3826
asbag56
(g77
g58
NtRp3827
(dp3828
g61
(dp3829
g88
g89
ssg70
g3818
sg63
(lp3830
S':'
asbag56
(g77
g58
NtRp3831
(dp3832
g61
(dp3833
sg70
g3818
sg63
(lp3834
g56
(g57
g58
NtRp3835
(dp3836
g61
(dp3837
g69
I4
ssg70
g3831
sg63
(lp3838
S'no-cache'
p3839
asbasbasbag56
(g72
g58
NtRp3840
(dp3841
g61
(dp3842
sg70
g3748
sg63
(lp3843
g56
(g77
g58
NtRp3844
(dp3845
g61
(dp3846
g81
g82
ssg70
g3840
sg63
(lp3847
S'X-Powered-By'
p3848
asbag56
(g77
g58
NtRp3849
(dp3850
g61
(dp3851
g88
g89
ssg70
g3840
sg63
(lp3852
S':'
asbag56
(g77
g58
NtRp3853
(dp3854
g61
(dp3855
sg70
g3840
sg63
(lp3856
g56
(g57
g58
NtRp3857
(dp3858
g61
(dp3859
g69
I4
ssg70
g3853
sg63
(lp3860
S'web2py'
p3861
asbasbasbasbasbasbasbag56
(g72
g58
NtRp3862
(dp3863
g61
(dp3864
sg70
g3410
sg63
(lp3865
g56
(g77
g58
NtRp3866
(dp3867
g61
(dp3868
g81
g82
ssg70
g3862
sg63
(lp3869
S'menu'
p3870
asbag56
(g77
g58
NtRp3871
(dp3872
g61
(dp3873
g88
g89
ssg70
g3862
sg63
(lp3874
S':'
asbag56
(g77
g58
NtRp3875
(dp3876
g61
(dp3877
sg70
g3862
sg63
(lp3878
g56
(g57
g58
NtRp3879
(dp3880
g61
(dp3881
g69
I5
ssg70
g3875
sg63
(lp3882
g56
(g65
g58
NtRp3883
(dp3884
g61
(dp3885
g69
I4
ssg70
Nsg63
(lp3886
g56
(g72
g58
NtRp3887
(dp3888
g61
(dp3889
sg70
g3883
sg63
(lp3890
g56
(g77
g58
NtRp3891
(dp3892
g61
(dp3893
sg70
g3887
sg63
(lp3894
g56
(g57
g58
NtRp3895
(dp3896
g61
(dp3897
g69
I4
ssg70
g3891
sg63
(lp3898
g56
(g65
g58
NtRp3899
(dp3900
g61
(dp3901
g69
I3
ssg70
Nsg63
(lp3902
g56
(g72
g58
NtRp3903
(dp3904
g61
(dp3905
sg70
g3899
sg63
(lp3906
g56
(g77
g58
NtRp3907
(dp3908
g61
(dp3909
sg70
g3903
sg63
(lp3910
g56
(g57
g58
NtRp3911
(dp3912
g61
(dp3913
g69
I3
ssg70
g3907
sg63
(lp3914
cgluon.languages
lazyT_unpickle
p3915
(S't\x05\x00\x00\x00Index'
tRp3916
asbasbasbag56
(g72
g58
NtRp3917
(dp3918
g61
(dp3919
sg70
g3899
sg63
(lp3920
g56
(g77
g58
NtRp3921
(dp3922
g61
(dp3923
sg70
g3917
sg63
(lp3924
g56
(g57
g58
NtRp3925
(dp3926
g61
(dp3927
g69
I3
ssg70
g3921
sg63
(lp3928
g99
asbasbasbag56
(g72
g58
NtRp3929
(dp3930
g61
(dp3931
sg70
g3899
sg63
(lp3932
g56
(g77
g58
NtRp3933
(dp3934
g61
(dp3935
sg70
g3929
sg63
(lp3936
g56
(g57
g58
NtRp3937
(dp3938
g61
(dp3939
g69
I3
ssg70
g3933
sg63
(lp3940
S'/streamlog/default/index'
p3941
asbasbasbag56
(g72
g58
NtRp3942
(dp3943
g61
(dp3944
sg70
g3899
sg63
(lp3945
g56
(g77
g58
NtRp3946
(dp3947
g61
(dp3948
sg70
g3942
sg63
(lp3949
g56
(g57
g58
NtRp3950
(dp3951
g61
(dp3952
g69
I3
ssg70
g3946
sg63
(lp3953
g56
(g65
g58
NtRp3954
(dp3955
g61
(dp3956
g69
I2
ssg70
Nsg63
(lp3957
sbasbasbasbasbasbasbasbag56
(g72
g58
NtRp3958
(dp3959
g61
(dp3960
sg70
g3883
sg63
(lp3961
g56
(g77
g58
NtRp3962
(dp3963
g61
(dp3964
sg70
g3958
sg63
(lp3965
g56
(g57
g58
NtRp3966
(dp3967
g61
(dp3968
g69
I4
ssg70
g3962
sg63
(lp3969
g56
(g65
g58
NtRp3970
(dp3971
g61
(dp3972
g69
I3
ssg70
Nsg63
(lp3973
g56
(g72
g58
NtRp3974
(dp3975
g61
(dp3976
sg70
g3970
sg63
(lp3977
g56
(g77
g58
NtRp3978
(dp3979
g61
(dp3980
sg70
g3974
sg63
(lp3981
g56
(g57
g58
NtRp3982
(dp3983
g61
(dp3984
g69
I3
ssg70
g3978
sg63
(lp3985
g3915
(S't\x06\x00\x00\x00Manage'
tRp3986
asbasbasbag56
(g72
g58
NtRp3987
(dp3988
g61
(dp3989
sg70
g3970
sg63
(lp3990
g56
(g77
g58
NtRp3991
(dp3992
g61
(dp3993
sg70
g3987
sg63
(lp3994
g56
(g57
g58
NtRp3995
(dp3996
g61
(dp3997
g69
I3
ssg70
g3991
sg63
(lp3998
g99
asbasbasbag56
(g72
g58
NtRp3999
(dp4000
g61
(dp4001
sg70
g3970
sg63
(lp4002
g56
(g77
g58
NtRp4003
(dp4004
g61
(dp4005
sg70
g3999
sg63
(lp4006
g56
(g57
g58
NtRp4007
(dp4008
g61
(dp4009
g69
I3
ssg70
g4003
sg63
(lp4010
S'None'
p4011
asbasbasbag56
(g72
g58
NtRp4012
(dp4013
g61
(dp4014
sg70
g3970
sg63
(lp4015
g56
(g77
g58
NtRp4016
(dp4017
g61
(dp4018
sg70
g4012
sg63
(lp4019
g56
(g57
g58
NtRp4020
(dp4021
g61
(dp4022
g69
I3
ssg70
g4016
sg63
(lp4023
g56
(g65
g58
NtRp4024
(dp4025
g61
(dp4026
g69
I2
ssg70
Nsg63
(lp4027
g56
(g72
g58
NtRp4028
(dp4029
g61
(dp4030
sg70
g4024
sg63
(lp4031
g56
(g77
g58
NtRp4032
(dp4033
g61
(dp4034
sg70
g4028
sg63
(lp4035
g56
(g57
g58
NtRp4036
(dp4037
g61
(dp4038
g69
I2
ssg70
g4032
sg63
(lp4039
g56
(g65
g58
NtRp4040
(dp4041
g61
(dp4042
g69
I1
ssg70
Nsg63
(lp4043
g56
(g72
g58
NtRp4044
(dp4045
g61
(dp4046
sg70
g4040
sg63
(lp4047
g56
(g77
g58
NtRp4048
(dp4049
g61
(dp4050
sg70
g4044
sg63
(lp4051
g56
(g57
g58
NtRp4052
(dp4053
g61
(dp4054
g69
I1
ssg70
g4048
sg63
(lp4055
g3915
(S't\x04\x00\x00\x00Logs'
tRp4056
asbasbasbag56
(g72
g58
NtRp4057
(dp4058
g61
(dp4059
sg70
g4040
sg63
(lp4060
g56
(g77
g58
NtRp4061
(dp4062
g61
(dp4063
sg70
g4057
sg63
(lp4064
g56
(g57
g58
NtRp4065
(dp4066
g61
(dp4067
g69
I1
ssg70
g4061
sg63
(lp4068
I00
asbasbasbag56
(g72
g58
NtRp4069
(dp4070
g61
(dp4071
sg70
g4040
sg63
(lp4072
g56
(g77
g58
NtRp4073
(dp4074
g61
(dp4075
sg70
g4069
sg63
(lp4076
g56
(g57
g58
NtRp4077
(dp4078
g61
(dp4079
g69
I1
ssg70
g4073
sg63
(lp4080
S'/streamlog/default/log_manage'
p4081
asbasbasbag56
(g72
g58
NtRp4082
(dp4083
g61
(dp4084
sg70
g4040
sg63
(lp4085
g56
(g77
g58
NtRp4086
(dp4087
g61
(dp4088
sg70
g4082
sg63
(lp4089
g56
(g57
g58
NtRp4090
(dp4091
g61
(dp4092
g69
I1
ssg70
g4086
sg63
(lp4093
(lp4094
asbasbasbasbasbasbasbag56
(g72
g58
NtRp4095
(dp4096
g61
(dp4097
sg70
g4024
sg63
(lp4098
g56
(g77
g58
NtRp4099
(dp4100
g61
(dp4101
sg70
g4095
sg63
(lp4102
g56
(g57
g58
NtRp4103
(dp4104
g61
(dp4105
g69
I2
ssg70
g4099
sg63
(lp4106
g56
(g65
g58
NtRp4107
(dp4108
g61
(dp4109
g69
I1
ssg70
Nsg63
(lp4110
g56
(g72
g58
NtRp4111
(dp4112
g61
(dp4113
sg70
g4107
sg63
(lp4114
g56
(g77
g58
NtRp4115
(dp4116
g61
(dp4117
sg70
g4111
sg63
(lp4118
g56
(g57
g58
NtRp4119
(dp4120
g61
(dp4121
g69
I1
ssg70
g4115
sg63
(lp4122
g3915
(S't\x07\x00\x00\x00Servers'
tRp4123
asbasbasbag56
(g72
g58
NtRp4124
(dp4125
g61
(dp4126
sg70
g4107
sg63
(lp4127
g56
(g77
g58
NtRp4128
(dp4129
g61
(dp4130
sg70
g4124
sg63
(lp4131
g56
(g57
g58
NtRp4132
(dp4133
g61
(dp4134
g69
I1
ssg70
g4128
sg63
(lp4135
I00
asbasbasbag56
(g72
g58
NtRp4136
(dp4137
g61
(dp4138
sg70
g4107
sg63
(lp4139
g56
(g77
g58
NtRp4140
(dp4141
g61
(dp4142
sg70
g4136
sg63
(lp4143
g56
(g57
g58
NtRp4144
(dp4145
g61
(dp4146
g69
I1
ssg70
g4140
sg63
(lp4147
S'/streamlog/default/server_manage'
p4148
asbasbasbag56
(g72
g58
NtRp4149
(dp4150
g61
(dp4151
sg70
g4107
sg63
(lp4152
g56
(g77
g58
NtRp4153
(dp4154
g61
(dp4155
sg70
g4149
sg63
(lp4156
g56
(g57
g58
NtRp4157
(dp4158
g61
(dp4159
g69
I1
ssg70
g4153
sg63
(lp4160
(lp4161
asbasbasbasbasbasbasbag56
(g72
g58
NtRp4162
(dp4163
g61
(dp4164
sg70
g4024
sg63
(lp4165
g56
(g77
g58
NtRp4166
(dp4167
g61
(dp4168
sg70
g4162
sg63
(lp4169
g56
(g57
g58
NtRp4170
(dp4171
g61
(dp4172
g69
I2
ssg70
g4166
sg63
(lp4173
g56
(g65
g58
NtRp4174
(dp4175
g61
(dp4176
g69
I1
ssg70
Nsg63
(lp4177
g56
(g72
g58
NtRp4178
(dp4179
g61
(dp4180
sg70
g4174
sg63
(lp4181
g56
(g77
g58
NtRp4182
(dp4183
g61
(dp4184
sg70
g4178
sg63
(lp4185
g56
(g57
g58
NtRp4186
(dp4187
g61
(dp4188
g69
I1
ssg70
g4182
sg63
(lp4189
g3915
(S't\x08\x00\x00\x00Projects'
tRp4190
asbasbasbag56
(g72
g58
NtRp4191
(dp4192
g61
(dp4193
sg70
g4174
sg63
(lp4194
g56
(g77
g58
NtRp4195
(dp4196
g61
(dp4197
sg70
g4191
sg63
(lp4198
g56
(g57
g58
NtRp4199
(dp4200
g61
(dp4201
g69
I1
ssg70
g4195
sg63
(lp4202
I00
asbasbasbag56
(g72
g58
NtRp4203
(dp4204
g61
(dp4205
sg70
g4174
sg63
(lp4206
g56
(g77
g58
NtRp4207
(dp4208
g61
(dp4209
sg70
g4203
sg63
(lp4210
g56
(g57
g58
NtRp4211
(dp4212
g61
(dp4213
g69
I1
ssg70
g4207
sg63
(lp4214
S'/streamlog/default/project_manage'
p4215
asbasbasbag56
(g72
g58
NtRp4216
(dp4217
g61
(dp4218
sg70
g4174
sg63
(lp4219
g56
(g77
g58
NtRp4220
(dp4221
g61
(dp4222
sg70
g4216
sg63
(lp4223
g56
(g57
g58
NtRp4224
(dp4225
g61
(dp4226
g69
I1
ssg70
g4220
sg63
(lp4227
(lp4228
asbasbasbasbasbasbasbag56
(g72
g58
NtRp4229
(dp4230
g61
(dp4231
sg70
g4024
sg63
(lp4232
g56
(g77
g58
NtRp4233
(dp4234
g61
(dp4235
sg70
g4229
sg63
(lp4236
g56
(g57
g58
NtRp4237
(dp4238
g61
(dp4239
g69
I2
ssg70
g4233
sg63
(lp4240
g56
(g65
g58
NtRp4241
(dp4242
g61
(dp4243
g69
I1
ssg70
Nsg63
(lp4244
g56
(g72
g58
NtRp4245
(dp4246
g61
(dp4247
sg70
g4241
sg63
(lp4248
g56
(g77
g58
NtRp4249
(dp4250
g61
(dp4251
sg70
g4245
sg63
(lp4252
g56
(g57
g58
NtRp4253
(dp4254
g61
(dp4255
g69
I1
ssg70
g4249
sg63
(lp4256
g3915
(S's\t\x00\x00\x00Type Logs'
tRp4257
asbasbasbag56
(g72
g58
NtRp4258
(dp4259
g61
(dp4260
sg70
g4241
sg63
(lp4261
g56
(g77
g58
NtRp4262
(dp4263
g61
(dp4264
sg70
g4258
sg63
(lp4265
g56
(g57
g58
NtRp4266
(dp4267
g61
(dp4268
g69
I1
ssg70
g4262
sg63
(lp4269
I00
asbasbasbag56
(g72
g58
NtRp4270
(dp4271
g61
(dp4272
sg70
g4241
sg63
(lp4273
g56
(g77
g58
NtRp4274
(dp4275
g61
(dp4276
sg70
g4270
sg63
(lp4277
g56
(g57
g58
NtRp4278
(dp4279
g61
(dp4280
g69
I1
ssg70
g4274
sg63
(lp4281
S'/streamlog/default/type_log_manage'
p4282
asbasbasbag56
(g72
g58
NtRp4283
(dp4284
g61
(dp4285
sg70
g4241
sg63
(lp4286
g56
(g77
g58
NtRp4287
(dp4288
g61
(dp4289
sg70
g4283
sg63
(lp4290
g56
(g57
g58
NtRp4291
(dp4292
g61
(dp4293
g69
I1
ssg70
g4287
sg63
(lp4294
(lp4295
asbasbasbasbasbasbasbasbasbasbasbasbasbasbasbasbasbasbasbag56
(g72
g58
NtRp4296
(dp4297
g61
(dp4298
sg70
g3410
sg63
(lp4299
g56
(g77
g58
NtRp4300
(dp4301
g61
(dp4302
g81
g82
ssg70
g4296
sg63
(lp4303
S'meta'
p4304
asbag56
(g77
g58
NtRp4305
(dp4306
g61
(dp4307
g88
g89
ssg70
g4296
sg63
(lp4308
S':'
asbag56
(g77
g58
NtRp4309
(dp4310
g61
(dp4311
sg70
g4296
sg63
(lp4312
g56
(g57
g58
NtRp4313
(dp4314
g61
(dp4315
g69
I5
ssg70
g4309
sg63
(lp4316
g56
(g65
g58
NtRp4317
(dp4318
g61
(dp4319
g69
I4
ssg70
Nsg63
(lp4320
g56
(g72
g58
NtRp4321
(dp4322
g61
(dp4323
sg70
g4317
sg63
(lp4324
g56
(g77
g58
NtRp4325
(dp4326
g61
(dp4327
g81
g82
ssg70
g4321
sg63
(lp4328
S'author'
p4329
asbag56
(g77
g58
NtRp4330
(dp4331
g61
(dp4332
g88
g89
ssg70
g4321
sg63
(lp4333
S':'
asbag56
(g77
g58
NtRp4334
(dp4335
g61
(dp4336
sg70
g4321
sg63
(lp4337
g56
(g57
g58
NtRp4338
(dp4339
g61
(dp4340
g69
I4
ssg70
g4334
sg63
(lp4341
S'Jose de Soto <josedesoto@gmail.com>'
p4342
asbasbasbag56
(g72
g58
NtRp4343
(dp4344
g61
(dp4345
sg70
g4317
sg63
(lp4346
g56
(g77
g58
NtRp4347
(dp4348
g61
(dp4349
g81
g82
ssg70
g4343
sg63
(lp4350
S'copyright'
p4351
asbag56
(g77
g58
NtRp4352
(dp4353
g61
(dp4354
g88
g89
ssg70
g4343
sg63
(lp4355
S':'
asbag56
(g77
g58
NtRp4356
(dp4357
g61
(dp4358
sg70
g4343
sg63
(lp4359
g56
(g57
g58
NtRp4360
(dp4361
g61
(dp4362
g69
I4
ssg70
g4356
sg63
(lp4363
S'Copyright 2011'
p4364
asbasbasbag56
(g72
g58
NtRp4365
(dp4366
g61
(dp4367
sg70
g4317
sg63
(lp4368
g56
(g77
g58
NtRp4369
(dp4370
g61
(dp4371
g81
g82
ssg70
g4365
sg63
(lp4372
S'description'
p4373
asbag56
(g77
g58
NtRp4374
(dp4375
g61
(dp4376
g88
g89
ssg70
g4365
sg63
(lp4377
S':'
asbag56
(g77
g58
NtRp4378
(dp4379
g61
(dp4380
sg70
g4365
sg63
(lp4381
g56
(g57
g58
NtRp4382
(dp4383
g61
(dp4384
g69
I4
ssg70
g4378
sg63
(lp4385
S'a cool new app'
p4386
asbasbasbag56
(g72
g58
NtRp4387
(dp4388
g61
(dp4389
sg70
g4317
sg63
(lp4390
g56
(g77
g58
NtRp4391
(dp4392
g61
(dp4393
g81
g82
ssg70
g4387
sg63
(lp4394
S'generator'
p4395
asbag56
(g77
g58
NtRp4396
(dp4397
g61
(dp4398
g88
g89
ssg70
g4387
sg63
(lp4399
S':'
asbag56
(g77
g58
NtRp4400
(dp4401
g61
(dp4402
sg70
g4387
sg63
(lp4403
g56
(g57
g58
NtRp4404
(dp4405
g61
(dp4406
g69
I4
ssg70
g4400
sg63
(lp4407
S'Web2py Web Framework'
p4408
asbasbasbag56
(g72
g58
NtRp4409
(dp4410
g61
(dp4411
sg70
g4317
sg63
(lp4412
g56
(g77
g58
NtRp4413
(dp4414
g61
(dp4415
g81
g82
ssg70
g4409
sg63
(lp4416
S'keywords'
p4417
asbag56
(g77
g58
NtRp4418
(dp4419
g61
(dp4420
g88
g89
ssg70
g4409
sg63
(lp4421
S':'
asbag56
(g77
g58
NtRp4422
(dp4423
g61
(dp4424
sg70
g4409
sg63
(lp4425
g56
(g57
g58
NtRp4426
(dp4427
g61
(dp4428
g69
I4
ssg70
g4422
sg63
(lp4429
S'web2py, python, framework'
p4430
asbasbasbasbasbasbasbag56
(g72
g58
NtRp4431
(dp4432
g61
(dp4433
sg70
g3410
sg63
(lp4434
g56
(g77
g58
NtRp4435
(dp4436
g61
(dp4437
g81
g82
ssg70
g4431
sg63
(lp4438
S'postprocessing'
p4439
asbag56
(g77
g58
NtRp4440
(dp4441
g61
(dp4442
g88
g89
ssg70
g4431
sg63
(lp4443
S':'
asbag56
(g77
g58
NtRp4444
(dp4445
g61
(dp4446
sg70
g4431
sg63
(lp4447
g56
(g57
g58
NtRp4448
(dp4449
g61
(dp4450
g69
I5
ssg70
g4444
sg63
(lp4451
g56
(g65
g58
NtRp4452
(dp4453
g61
(dp4454
g69
I4
ssg70
Nsg63
(lp4455
sbasbasbasbag56
(g72
g58
NtRp4456
(dp4457
g61
(dp4458
sg70
g3410
sg63
(lp4459
g56
(g77
g58
NtRp4460
(dp4461
g61
(dp4462
g81
g82
ssg70
g4456
sg63
(lp4463
S'session_file'
p4464
asbag56
(g77
g58
NtRp4465
(dp4466
g61
(dp4467
g88
g89
ssg70
g4456
sg63
(lp4468
S':'
asbag56
(g77
g58
NtRp4469
(dp4470
g61
(dp4471
sg70
g4456
sg63
(lp4472
g56
(g57
g58
NtRp4473
(dp4474
g61
(dp4475
g69
I5
ssg70
g4469
sg63
(lp4476
S"<open file '/home/jose/DESARROLLO/web2py199/applications/streamlog/sessions/127.0.0.1-610b0c7d-3f6f-4500-a76a-b095fb30f7fd', mode 'rb+' at 0x27c7f60>"
p4477
asbasbasbag56
(g72
g58
NtRp4478
(dp4479
g61
(dp4480
sg70
g3410
sg63
(lp4481
g56
(g77
g58
NtRp4482
(dp4483
g61
(dp4484
g81
g82
ssg70
g4478
sg63
(lp4485
S'session_filename'
p4486
asbag56
(g77
g58
NtRp4487
(dp4488
g61
(dp4489
g88
g89
ssg70
g4478
sg63
(lp4490
S':'
asbag56
(g77
g58
NtRp4491
(dp4492
g61
(dp4493
sg70
g4478
sg63
(lp4494
g56
(g57
g58
NtRp4495
(dp4496
g61
(dp4497
g69
I5
ssg70
g4491
sg63
(lp4498
S'/home/jose/DESARROLLO/web2py199/applications/streamlog/sessions/127.0.0.1-610b0c7d-3f6f-4500-a76a-b095fb30f7fd'
p4499
asbasbasbag56
(g72
g58
NtRp4500
(dp4501
g61
(dp4502
sg70
g3410
sg63
(lp4503
g56
(g77
g58
NtRp4504
(dp4505
g61
(dp4506
g81
g82
ssg70
g4500
sg63
(lp4507
S'session_id'
p4508
asbag56
(g77
g58
NtRp4509
(dp4510
g61
(dp4511
g88
g89
ssg70
g4500
sg63
(lp4512
S':'
asbag56
(g77
g58
NtRp4513
(dp4514
g61
(dp4515
sg70
g4500
sg63
(lp4516
g56
(g57
g58
NtRp4517
(dp4518
g61
(dp4519
g69
I5
ssg70
g4513
sg63
(lp4520
S'127.0.0.1-610b0c7d-3f6f-4500-a76a-b095fb30f7fd'
p4521
asbasbasbag56
(g72
g58
NtRp4522
(dp4523
g61
(dp4524
sg70
g3410
sg63
(lp4525
g56
(g77
g58
NtRp4526
(dp4527
g61
(dp4528
g81
g82
ssg70
g4522
sg63
(lp4529
S'session_id_name'
p4530
asbag56
(g77
g58
NtRp4531
(dp4532
g61
(dp4533
g88
g89
ssg70
g4522
sg63
(lp4534
S':'
asbag56
(g77
g58
NtRp4535
(dp4536
g61
(dp4537
sg70
g4522
sg63
(lp4538
g56
(g57
g58
NtRp4539
(dp4540
g61
(dp4541
g69
I5
ssg70
g4535
sg63
(lp4542
g3467
asbasbasbag56
(g72
g58
NtRp4543
(dp4544
g61
(dp4545
sg70
g3410
sg63
(lp4546
g56
(g77
g58
NtRp4547
(dp4548
g61
(dp4549
g81
g82
ssg70
g4543
sg63
(lp4550
S'session_locked'
p4551
asbag56
(g77
g58
NtRp4552
(dp4553
g61
(dp4554
g88
g89
ssg70
g4543
sg63
(lp4555
S':'
asbag56
(g77
g58
NtRp4556
(dp4557
g61
(dp4558
sg70
g4543
sg63
(lp4559
g56
(g57
g58
NtRp4560
(dp4561
g61
(dp4562
g69
I5
ssg70
g4556
sg63
(lp4563
g1666
asbasbasbag56
(g72
g58
NtRp4564
(dp4565
g61
(dp4566
sg70
g3410
sg63
(lp4567
g56
(g77
g58
NtRp4568
(dp4569
g61
(dp4570
g81
g82
ssg70
g4564
sg63
(lp4571
S'session_new'
p4572
asbag56
(g77
g58
NtRp4573
(dp4574
g61
(dp4575
g88
g89
ssg70
g4564
sg63
(lp4576
S':'
asbag56
(g77
g58
NtRp4577
(dp4578
g61
(dp4579
sg70
g4564
sg63
(lp4580
g56
(g57
g58
NtRp4581
(dp4582
g61
(dp4583
g69
I5
ssg70
g4577
sg63
(lp4584
g99
asbasbasbag56
(g72
g58
NtRp4585
(dp4586
g61
(dp4587
sg70
g3410
sg63
(lp4588
g56
(g77
g58
NtRp4589
(dp4590
g61
(dp4591
g81
g82
ssg70
g4585
sg63
(lp4592
S'status'
p4593
asbag56
(g77
g58
NtRp4594
(dp4595
g61
(dp4596
g88
g89
ssg70
g4585
sg63
(lp4597
S':'
asbag56
(g77
g58
NtRp4598
(dp4599
g61
(dp4600
sg70
g4585
sg63
(lp4601
g56
(g57
g58
NtRp4602
(dp4603
g61
(dp4604
g69
I5
ssg70
g4598
sg63
(lp4605
S'200'
p4606
asbasbasbag56
(g72
g58
NtRp4607
(dp4608
g61
(dp4609
sg70
g3410
sg63
(lp4610
g56
(g77
g58
NtRp4611
(dp4612
g61
(dp4613
g81
g82
ssg70
g4607
sg63
(lp4614
S'subtitle'
p4615
asbag56
(g77
g58
NtRp4616
(dp4617
g61
(dp4618
g88
g89
ssg70
g4607
sg63
(lp4619
S':'
asbag56
(g77
g58
NtRp4620
(dp4621
g61
(dp4622
sg70
g4607
sg63
(lp4623
g56
(g57
g58
NtRp4624
(dp4625
g61
(dp4626
g69
I5
ssg70
g4620
sg63
(lp4627
g3915
(S's\x12\x00\x00\x00Stream Log Client!'
tRp4628
asbasbasbag56
(g72
g58
NtRp4629
(dp4630
g61
(dp4631
sg70
g3410
sg63
(lp4632
g56
(g77
g58
NtRp4633
(dp4634
g61
(dp4635
g81
g82
ssg70
g4629
sg63
(lp4636
S'title'
p4637
asbag56
(g77
g58
NtRp4638
(dp4639
g61
(dp4640
g88
g89
ssg70
g4629
sg63
(lp4641
S':'
asbag56
(g77
g58
NtRp4642
(dp4643
g61
(dp4644
sg70
g4629
sg63
(lp4645
g56
(g57
g58
NtRp4646
(dp4647
g61
(dp4648
g69
I5
ssg70
g4642
sg63
(lp4649
g121
asbasbasbag56
(g72
g58
NtRp4650
(dp4651
g61
(dp4652
sg70
g3410
sg63
(lp4653
g56
(g77
g58
NtRp4654
(dp4655
g61
(dp4656
g81
g82
ssg70
g4650
sg63
(lp4657
g2331
asbag56
(g77
g58
NtRp4658
(dp4659
g61
(dp4660
g88
g89
ssg70
g4650
sg63
(lp4661
S':'
asbag56
(g77
g58
NtRp4662
(dp4663
g61
(dp4664
sg70
g4650
sg63
(lp4665
g56
(g57
g58
NtRp4666
(dp4667
g61
(dp4668
g69
I5
ssg70
g4662
sg63
(lp4669
g2344
asbasbasbag56
(g72
g58
NtRp4670
(dp4671
g61
(dp4672
sg70
g3410
sg63
(lp4673
g56
(g77
g58
NtRp4674
(dp4675
g61
(dp4676
g81
g82
ssg70
g4670
sg63
(lp4677
S'view'
p4678
asbag56
(g77
g58
NtRp4679
(dp4680
g61
(dp4681
g88
g89
ssg70
g4670
sg63
(lp4682
S':'
asbag56
(g77
g58
NtRp4683
(dp4684
g61
(dp4685
sg70
g4670
sg63
(lp4686
g56
(g57
g58
NtRp4687
(dp4688
g61
(dp4689
g69
I5
ssg70
g4683
sg63
(lp4690
S'default/getConnectionData.html'
p4691
asbasbasbasbasbsS'locals'
p4692
(dp4693
S'regex'
p4694
S'<gluon.dal.Rows object>'
p4695
sS'ip'
p4696
S"'127.0.0.1'"
p4697
sS'data_connection'
p4698
S'<gluon.dal.Rows object>'
p4699
sS'port'
p4700
S"'8888'"
p4701
sS'id_log'
p4702
S"'2'"
p4703
sS'name_log'
p4704
S"'syslog2'"
p4705
sS'regex_code'
p4706
S'r\'/(\\S+) (\\S+) (\\S+) \\[([^\\]\\[]+)\\] \\"([^"]*)\\" (\\S+) (\\S+)/\''
p4707
sS'row'
p4708
S"<Row {'t_log': <Row {'name': 'syslog2', 'datemod...ion <lambda> at 0x2ea8320>, 'description': ''}>}>"
p4709
sssS'traceback'
p4710
S'Traceback (most recent call last):\n  File "/home/jose/DESARROLLO/web2py199/gluon/restricted.py", line 194, in restricted\n    exec ccode in environment\n  File "/home/jose/DESARROLLO/web2py199/applications/streamlog/controllers/default.py", line 156, in <module>\n  File "/home/jose/DESARROLLO/web2py199/gluon/globals.py", line 149, in <lambda>\n    self._caller = lambda f: f()\n  File "/home/jose/DESARROLLO/web2py199/applications/streamlog/controllers/default.py", line 51, in getConnectionData\n    return response.json(name_log=name_log, ip=ip, port=port,regex=regex_code)\nTypeError: json() got an unexpected keyword argument \'name_log\'\n'
p4711
s.