(dp1
S'output'
p2
S''
sS'layer'
p3
S'/home/jose/DESARROLLO/web2py199/applications/streamlog/models/menu.py'
p4
sS'code'
p5
S"# -*- coding: utf-8 -*-\n# this file is released under public domain and you can use without limitations\n\n#########################################################################\n## Customize your APP title, subtitle and menus here\n#########################################################################\n\nresponse.title = request.application\nresponse.subtitle = T('Stream Log Client!')\n\n## read more at http://dev.w3.org/html5/markup/meta.name.html\nresponse.meta.author = 'Jose de Soto <josedesoto@gmail.com>'\nresponse.meta.description = 'a cool new app'\nresponse.meta.keywords = 'web2py, python, framework'\nresponse.meta.generator = 'Web2py Web Framework'\nresponse.meta.copyright = 'Copyright 2011'\n\n## your http://google.com/analytics id\nresponse.google_analytics_id = None\n\n#########################################################################\n## this is the main application menu add/remove items as required\n#########################################################################\n\nresponse.menu = [\n    (T('Clear Page'), False, URL('default','index'), [])\n\n    \n    ]\n\n\nresponse.menu+=[\n        (T('Manage'),False, None, [\n        \t(T('Manage Servers'), False, URL('default','server_manage'), []),\n    \t\t(T('Manage Logs'), False, URL('default','log_manage'), []),\n   \t\t(T('Manage Projects'), False, URL('default','project_manage'), [])\n\t]]\n\n#########################################################################\n## provide shortcuts for development. remove in production\n#########################################################################\n\n"
p6
sS'snapshot'
p7
(dp8
S'exception'
p9
(dp10
S'__getslice__'
p11
S"<method-wrapper '__getslice__' of exceptions.SyntaxError object>"
p12
sS'text'
p13
S"'\\t]]\\n'"
p14
sS'__str__'
p15
S"<method-wrapper '__str__' of exceptions.SyntaxError object>"
p16
sS'__reduce__'
p17
S'<built-in method __reduce__ of exceptions.SyntaxError object>'
p18
sS'__dict__'
p19
S'{}'
p20
sS'__sizeof__'
p21
S'<built-in method __sizeof__ of exceptions.SyntaxError object>'
p22
sS'__init__'
p23
S"<method-wrapper '__init__' of exceptions.SyntaxError object>"
p24
sS'__setattr__'
p25
S"<method-wrapper '__setattr__' of exceptions.SyntaxError object>"
p26
sS'__reduce_ex__'
p27
S'<built-in method __reduce_ex__ of exceptions.SyntaxError object>'
p28
sS'__new__'
p29
S'<built-in method __new__ of type object>'
p30
sS'__format__'
p31
S'<built-in method __format__ of exceptions.SyntaxError object>'
p32
sS'__class__'
p33
S"<type 'exceptions.SyntaxError'>"
p34
sS'filename'
p35
S"'/home/jose/DESARROLLO/web2py199/applications/streamlog/models/menu.py'"
p36
sS'lineno'
p37
S'37'
p38
sS'msg'
p39
S"'invalid syntax'"
p40
sS'__doc__'
p41
S"'Invalid syntax.'"
p42
sS'__getitem__'
p43
S"<method-wrapper '__getitem__' of exceptions.SyntaxError object>"
p44
sS'__setstate__'
p45
S'<built-in method __setstate__ of exceptions.SyntaxError object>'
p46
sS'__getattribute__'
p47
S"<method-wrapper '__getattribute__' of exceptions.SyntaxError object>"
p48
sS'print_file_and_line'
p49
S'None'
p50
sS'args'
p51
S"('invalid syntax', ('/home/jose/DESARROLLO/web2py199/applications/streamlog/models/menu.py', 37, 3, '\\t]]\\n'))"
p52
sS'__subclasshook__'
p53
S'<built-in method __subclasshook__ of type object>'
p54
sS'offset'
p55
S'3'
sS'__unicode__'
p56
S'<built-in method __unicode__ of exceptions.SyntaxError object>'
p57
sS'__delattr__'
p58
S"<method-wrapper '__delattr__' of exceptions.SyntaxError object>"
p59
sS'__repr__'
p60
S"<method-wrapper '__repr__' of exceptions.SyntaxError object>"
p61
sS'__hash__'
p62
S"<method-wrapper '__hash__' of exceptions.SyntaxError object>"
p63
ssS'evalue'
p64
S'invalid syntax (menu.py, line 37)'
p65
sS'request'
p66
ccopy_reg
_reconstructor
p67
(cgluon.html
BEAUTIFY
p68
c__builtin__
object
p69
NtRp70
(dp71
S'attributes'
p72
(dp73
sS'components'
p74
(lp75
g67
(cgluon.html
TABLE
p76
g69
NtRp77
(dp78
g72
(dp79
S'level'
p80
I5
ssS'parent'
p81
Nsg74
(lp82
g67
(cgluon.html
TR
p83
g69
NtRp84
(dp85
g72
(dp86
sg81
g77
sg74
(lp87
g67
(cgluon.html
TD
p88
g69
NtRp89
(dp90
g72
(dp91
S'_style'
p92
S'font-weight:bold;'
p93
ssg81
g84
sg74
(lp94
S'ajax'
p95
asbag67
(g88
g69
NtRp96
(dp97
g72
(dp98
S'_valign'
p99
S'top'
p100
ssg81
g84
sg74
(lp101
S':'
asbag67
(g88
g69
NtRp102
(dp103
g72
(dp104
sg81
g84
sg74
(lp105
g67
(g68
g69
NtRp106
(dp107
g72
(dp108
g80
I5
ssg81
g102
sg74
(lp109
S'False'
p110
asbasbasbag67
(g83
g69
NtRp111
(dp112
g72
(dp113
sg81
g77
sg74
(lp114
g67
(g88
g69
NtRp115
(dp116
g72
(dp117
g92
g93
ssg81
g111
sg74
(lp118
S'application'
p119
asbag67
(g88
g69
NtRp120
(dp121
g72
(dp122
g99
g100
ssg81
g111
sg74
(lp123
S':'
asbag67
(g88
g69
NtRp124
(dp125
g72
(dp126
sg81
g111
sg74
(lp127
g67
(g68
g69
NtRp128
(dp129
g72
(dp130
g80
I5
ssg81
g124
sg74
(lp131
S'streamlog'
p132
asbasbasbag67
(g83
g69
NtRp133
(dp134
g72
(dp135
sg81
g77
sg74
(lp136
g67
(g88
g69
NtRp137
(dp138
g72
(dp139
g92
g93
ssg81
g133
sg74
(lp140
g51
asbag67
(g88
g69
NtRp141
(dp142
g72
(dp143
g99
g100
ssg81
g133
sg74
(lp144
S':'
asbag67
(g88
g69
NtRp145
(dp146
g72
(dp147
sg81
g133
sg74
(lp148
g67
(g68
g69
NtRp149
(dp150
g72
(dp151
g80
I5
ssg81
g145
sg74
(lp152
g67
(g76
g69
NtRp153
(dp154
g72
(dp155
g80
I4
ssg81
Nsg74
(lp156
sbasbasbasbag67
(g83
g69
NtRp157
(dp158
g72
(dp159
sg81
g77
sg74
(lp160
g67
(g88
g69
NtRp161
(dp162
g72
(dp163
g92
g93
ssg81
g157
sg74
(lp164
S'body'
p165
asbag67
(g88
g69
NtRp166
(dp167
g72
(dp168
g99
g100
ssg81
g157
sg74
(lp169
S':'
asbag67
(g88
g69
NtRp170
(dp171
g72
(dp172
sg81
g157
sg74
(lp173
g67
(g68
g69
NtRp174
(dp175
g72
(dp176
g80
I5
ssg81
g170
sg74
(lp177
S'<cStringIO.StringO object at 0x22306c0>'
p178
asbasbasbag67
(g83
g69
NtRp179
(dp180
g72
(dp181
sg81
g77
sg74
(lp182
g67
(g88
g69
NtRp183
(dp184
g72
(dp185
g92
g93
ssg81
g179
sg74
(lp186
S'client'
p187
asbag67
(g88
g69
NtRp188
(dp189
g72
(dp190
g99
g100
ssg81
g179
sg74
(lp191
S':'
asbag67
(g88
g69
NtRp192
(dp193
g72
(dp194
sg81
g179
sg74
(lp195
g67
(g68
g69
NtRp196
(dp197
g72
(dp198
g80
I5
ssg81
g192
sg74
(lp199
S'127.0.0.1'
p200
asbasbasbag67
(g83
g69
NtRp201
(dp202
g72
(dp203
sg81
g77
sg74
(lp204
g67
(g88
g69
NtRp205
(dp206
g72
(dp207
g92
g93
ssg81
g201
sg74
(lp208
S'controller'
p209
asbag67
(g88
g69
NtRp210
(dp211
g72
(dp212
g99
g100
ssg81
g201
sg74
(lp213
S':'
asbag67
(g88
g69
NtRp214
(dp215
g72
(dp216
sg81
g201
sg74
(lp217
g67
(g68
g69
NtRp218
(dp219
g72
(dp220
g80
I5
ssg81
g214
sg74
(lp221
S'default'
p222
asbasbasbag67
(g83
g69
NtRp223
(dp224
g72
(dp225
sg81
g77
sg74
(lp226
g67
(g88
g69
NtRp227
(dp228
g72
(dp229
g92
g93
ssg81
g223
sg74
(lp230
S'cookies'
p231
asbag67
(g88
g69
NtRp232
(dp233
g72
(dp234
g99
g100
ssg81
g223
sg74
(lp235
S':'
asbag67
(g88
g69
NtRp236
(dp237
g72
(dp238
sg81
g223
sg74
(lp239
g67
(g68
g69
NtRp240
(dp241
g72
(dp242
g80
I5
ssg81
g236
sg74
(lp243
g67
(g76
g69
NtRp244
(dp245
g72
(dp246
g80
I4
ssg81
Nsg74
(lp247
g67
(g83
g69
NtRp248
(dp249
g72
(dp250
sg81
g244
sg74
(lp251
g67
(g88
g69
NtRp252
(dp253
g72
(dp254
g92
g93
ssg81
g248
sg74
(lp255
S'session_id_admin'
p256
asbag67
(g88
g69
NtRp257
(dp258
g72
(dp259
g99
g100
ssg81
g248
sg74
(lp260
S':'
asbag67
(g88
g69
NtRp261
(dp262
g72
(dp263
sg81
g248
sg74
(lp264
g67
(g68
g69
NtRp265
(dp266
g72
(dp267
g80
I4
ssg81
g261
sg74
(lp268
g67
(g76
g69
NtRp269
(dp270
g72
(dp271
g80
I3
ssg81
Nsg74
(lp272
g67
(g83
g69
NtRp273
(dp274
g72
(dp275
sg81
g269
sg74
(lp276
g67
(g88
g69
NtRp277
(dp278
g72
(dp279
g92
g93
ssg81
g273
sg74
(lp280
S'comment'
p281
asbag67
(g88
g69
NtRp282
(dp283
g72
(dp284
g99
g100
ssg81
g273
sg74
(lp285
S':'
asbag67
(g88
g69
NtRp286
(dp287
g72
(dp288
sg81
g273
sg74
(lp289
g67
(g68
g69
NtRp290
(dp291
g72
(dp292
g80
I3
ssg81
g286
sg74
(lp293
S''
asbasbasbag67
(g83
g69
NtRp294
(dp295
g72
(dp296
sg81
g269
sg74
(lp297
g67
(g88
g69
NtRp298
(dp299
g72
(dp300
g92
g93
ssg81
g294
sg74
(lp301
S'domain'
p302
asbag67
(g88
g69
NtRp303
(dp304
g72
(dp305
g99
g100
ssg81
g294
sg74
(lp306
S':'
asbag67
(g88
g69
NtRp307
(dp308
g72
(dp309
sg81
g294
sg74
(lp310
g67
(g68
g69
NtRp311
(dp312
g72
(dp313
g80
I3
ssg81
g307
sg74
(lp314
S''
asbasbasbag67
(g83
g69
NtRp315
(dp316
g72
(dp317
sg81
g269
sg74
(lp318
g67
(g88
g69
NtRp319
(dp320
g72
(dp321
g92
g93
ssg81
g315
sg74
(lp322
S'expires'
p323
asbag67
(g88
g69
NtRp324
(dp325
g72
(dp326
g99
g100
ssg81
g315
sg74
(lp327
S':'
asbag67
(g88
g69
NtRp328
(dp329
g72
(dp330
sg81
g315
sg74
(lp331
g67
(g68
g69
NtRp332
(dp333
g72
(dp334
g80
I3
ssg81
g328
sg74
(lp335
S''
asbasbasbag67
(g83
g69
NtRp336
(dp337
g72
(dp338
sg81
g269
sg74
(lp339
g67
(g88
g69
NtRp340
(dp341
g72
(dp342
g92
g93
ssg81
g336
sg74
(lp343
S'httponly'
p344
asbag67
(g88
g69
NtRp345
(dp346
g72
(dp347
g99
g100
ssg81
g336
sg74
(lp348
S':'
asbag67
(g88
g69
NtRp349
(dp350
g72
(dp351
sg81
g336
sg74
(lp352
g67
(g68
g69
NtRp353
(dp354
g72
(dp355
g80
I3
ssg81
g349
sg74
(lp356
S''
asbasbasbag67
(g83
g69
NtRp357
(dp358
g72
(dp359
sg81
g269
sg74
(lp360
g67
(g88
g69
NtRp361
(dp362
g72
(dp363
g92
g93
ssg81
g357
sg74
(lp364
S'max-age'
p365
asbag67
(g88
g69
NtRp366
(dp367
g72
(dp368
g99
g100
ssg81
g357
sg74
(lp369
S':'
asbag67
(g88
g69
NtRp370
(dp371
g72
(dp372
sg81
g357
sg74
(lp373
g67
(g68
g69
NtRp374
(dp375
g72
(dp376
g80
I3
ssg81
g370
sg74
(lp377
S''
asbasbasbag67
(g83
g69
NtRp378
(dp379
g72
(dp380
sg81
g269
sg74
(lp381
g67
(g88
g69
NtRp382
(dp383
g72
(dp384
g92
g93
ssg81
g378
sg74
(lp385
S'path'
p386
asbag67
(g88
g69
NtRp387
(dp388
g72
(dp389
g99
g100
ssg81
g378
sg74
(lp390
S':'
asbag67
(g88
g69
NtRp391
(dp392
g72
(dp393
sg81
g378
sg74
(lp394
g67
(g68
g69
NtRp395
(dp396
g72
(dp397
g80
I3
ssg81
g391
sg74
(lp398
S''
asbasbasbag67
(g83
g69
NtRp399
(dp400
g72
(dp401
sg81
g269
sg74
(lp402
g67
(g88
g69
NtRp403
(dp404
g72
(dp405
g92
g93
ssg81
g399
sg74
(lp406
S'secure'
p407
asbag67
(g88
g69
NtRp408
(dp409
g72
(dp410
g99
g100
ssg81
g399
sg74
(lp411
S':'
asbag67
(g88
g69
NtRp412
(dp413
g72
(dp414
sg81
g399
sg74
(lp415
g67
(g68
g69
NtRp416
(dp417
g72
(dp418
g80
I3
ssg81
g412
sg74
(lp419
S''
asbasbasbag67
(g83
g69
NtRp420
(dp421
g72
(dp422
sg81
g269
sg74
(lp423
g67
(g88
g69
NtRp424
(dp425
g72
(dp426
g92
g93
ssg81
g420
sg74
(lp427
S'version'
p428
asbag67
(g88
g69
NtRp429
(dp430
g72
(dp431
g99
g100
ssg81
g420
sg74
(lp432
S':'
asbag67
(g88
g69
NtRp433
(dp434
g72
(dp435
sg81
g420
sg74
(lp436
g67
(g68
g69
NtRp437
(dp438
g72
(dp439
g80
I3
ssg81
g433
sg74
(lp440
S''
asbasbasbasbasbasbasbag67
(g83
g69
NtRp441
(dp442
g72
(dp443
sg81
g244
sg74
(lp444
g67
(g88
g69
NtRp445
(dp446
g72
(dp447
g92
g93
ssg81
g441
sg74
(lp448
S'session_id_streamlog'
p449
asbag67
(g88
g69
NtRp450
(dp451
g72
(dp452
g99
g100
ssg81
g441
sg74
(lp453
S':'
asbag67
(g88
g69
NtRp454
(dp455
g72
(dp456
sg81
g441
sg74
(lp457
g67
(g68
g69
NtRp458
(dp459
g72
(dp460
g80
I4
ssg81
g454
sg74
(lp461
g67
(g76
g69
NtRp462
(dp463
g72
(dp464
g80
I3
ssg81
Nsg74
(lp465
g67
(g83
g69
NtRp466
(dp467
g72
(dp468
sg81
g462
sg74
(lp469
g67
(g88
g69
NtRp470
(dp471
g72
(dp472
g92
g93
ssg81
g466
sg74
(lp473
g281
asbag67
(g88
g69
NtRp474
(dp475
g72
(dp476
g99
g100
ssg81
g466
sg74
(lp477
S':'
asbag67
(g88
g69
NtRp478
(dp479
g72
(dp480
sg81
g466
sg74
(lp481
g67
(g68
g69
NtRp482
(dp483
g72
(dp484
g80
I3
ssg81
g478
sg74
(lp485
S''
asbasbasbag67
(g83
g69
NtRp486
(dp487
g72
(dp488
sg81
g462
sg74
(lp489
g67
(g88
g69
NtRp490
(dp491
g72
(dp492
g92
g93
ssg81
g486
sg74
(lp493
g302
asbag67
(g88
g69
NtRp494
(dp495
g72
(dp496
g99
g100
ssg81
g486
sg74
(lp497
S':'
asbag67
(g88
g69
NtRp498
(dp499
g72
(dp500
sg81
g486
sg74
(lp501
g67
(g68
g69
NtRp502
(dp503
g72
(dp504
g80
I3
ssg81
g498
sg74
(lp505
S''
asbasbasbag67
(g83
g69
NtRp506
(dp507
g72
(dp508
sg81
g462
sg74
(lp509
g67
(g88
g69
NtRp510
(dp511
g72
(dp512
g92
g93
ssg81
g506
sg74
(lp513
g323
asbag67
(g88
g69
NtRp514
(dp515
g72
(dp516
g99
g100
ssg81
g506
sg74
(lp517
S':'
asbag67
(g88
g69
NtRp518
(dp519
g72
(dp520
sg81
g506
sg74
(lp521
g67
(g68
g69
NtRp522
(dp523
g72
(dp524
g80
I3
ssg81
g518
sg74
(lp525
S''
asbasbasbag67
(g83
g69
NtRp526
(dp527
g72
(dp528
sg81
g462
sg74
(lp529
g67
(g88
g69
NtRp530
(dp531
g72
(dp532
g92
g93
ssg81
g526
sg74
(lp533
g344
asbag67
(g88
g69
NtRp534
(dp535
g72
(dp536
g99
g100
ssg81
g526
sg74
(lp537
S':'
asbag67
(g88
g69
NtRp538
(dp539
g72
(dp540
sg81
g526
sg74
(lp541
g67
(g68
g69
NtRp542
(dp543
g72
(dp544
g80
I3
ssg81
g538
sg74
(lp545
S''
asbasbasbag67
(g83
g69
NtRp546
(dp547
g72
(dp548
sg81
g462
sg74
(lp549
g67
(g88
g69
NtRp550
(dp551
g72
(dp552
g92
g93
ssg81
g546
sg74
(lp553
g365
asbag67
(g88
g69
NtRp554
(dp555
g72
(dp556
g99
g100
ssg81
g546
sg74
(lp557
S':'
asbag67
(g88
g69
NtRp558
(dp559
g72
(dp560
sg81
g546
sg74
(lp561
g67
(g68
g69
NtRp562
(dp563
g72
(dp564
g80
I3
ssg81
g558
sg74
(lp565
S''
asbasbasbag67
(g83
g69
NtRp566
(dp567
g72
(dp568
sg81
g462
sg74
(lp569
g67
(g88
g69
NtRp570
(dp571
g72
(dp572
g92
g93
ssg81
g566
sg74
(lp573
g386
asbag67
(g88
g69
NtRp574
(dp575
g72
(dp576
g99
g100
ssg81
g566
sg74
(lp577
S':'
asbag67
(g88
g69
NtRp578
(dp579
g72
(dp580
sg81
g566
sg74
(lp581
g67
(g68
g69
NtRp582
(dp583
g72
(dp584
g80
I3
ssg81
g578
sg74
(lp585
S''
asbasbasbag67
(g83
g69
NtRp586
(dp587
g72
(dp588
sg81
g462
sg74
(lp589
g67
(g88
g69
NtRp590
(dp591
g72
(dp592
g92
g93
ssg81
g586
sg74
(lp593
g407
asbag67
(g88
g69
NtRp594
(dp595
g72
(dp596
g99
g100
ssg81
g586
sg74
(lp597
S':'
asbag67
(g88
g69
NtRp598
(dp599
g72
(dp600
sg81
g586
sg74
(lp601
g67
(g68
g69
NtRp602
(dp603
g72
(dp604
g80
I3
ssg81
g598
sg74
(lp605
S''
asbasbasbag67
(g83
g69
NtRp606
(dp607
g72
(dp608
sg81
g462
sg74
(lp609
g67
(g88
g69
NtRp610
(dp611
g72
(dp612
g92
g93
ssg81
g606
sg74
(lp613
g428
asbag67
(g88
g69
NtRp614
(dp615
g72
(dp616
g99
g100
ssg81
g606
sg74
(lp617
S':'
asbag67
(g88
g69
NtRp618
(dp619
g72
(dp620
sg81
g606
sg74
(lp621
g67
(g68
g69
NtRp622
(dp623
g72
(dp624
g80
I3
ssg81
g618
sg74
(lp625
S''
asbasbasbasbasbasbasbag67
(g83
g69
NtRp626
(dp627
g72
(dp628
sg81
g244
sg74
(lp629
g67
(g88
g69
NtRp630
(dp631
g72
(dp632
g92
g93
ssg81
g626
sg74
(lp633
S'session_id_test3'
p634
asbag67
(g88
g69
NtRp635
(dp636
g72
(dp637
g99
g100
ssg81
g626
sg74
(lp638
S':'
asbag67
(g88
g69
NtRp639
(dp640
g72
(dp641
sg81
g626
sg74
(lp642
g67
(g68
g69
NtRp643
(dp644
g72
(dp645
g80
I4
ssg81
g639
sg74
(lp646
g67
(g76
g69
NtRp647
(dp648
g72
(dp649
g80
I3
ssg81
Nsg74
(lp650
g67
(g83
g69
NtRp651
(dp652
g72
(dp653
sg81
g647
sg74
(lp654
g67
(g88
g69
NtRp655
(dp656
g72
(dp657
g92
g93
ssg81
g651
sg74
(lp658
g281
asbag67
(g88
g69
NtRp659
(dp660
g72
(dp661
g99
g100
ssg81
g651
sg74
(lp662
S':'
asbag67
(g88
g69
NtRp663
(dp664
g72
(dp665
sg81
g651
sg74
(lp666
g67
(g68
g69
NtRp667
(dp668
g72
(dp669
g80
I3
ssg81
g663
sg74
(lp670
S''
asbasbasbag67
(g83
g69
NtRp671
(dp672
g72
(dp673
sg81
g647
sg74
(lp674
g67
(g88
g69
NtRp675
(dp676
g72
(dp677
g92
g93
ssg81
g671
sg74
(lp678
g302
asbag67
(g88
g69
NtRp679
(dp680
g72
(dp681
g99
g100
ssg81
g671
sg74
(lp682
S':'
asbag67
(g88
g69
NtRp683
(dp684
g72
(dp685
sg81
g671
sg74
(lp686
g67
(g68
g69
NtRp687
(dp688
g72
(dp689
g80
I3
ssg81
g683
sg74
(lp690
S''
asbasbasbag67
(g83
g69
NtRp691
(dp692
g72
(dp693
sg81
g647
sg74
(lp694
g67
(g88
g69
NtRp695
(dp696
g72
(dp697
g92
g93
ssg81
g691
sg74
(lp698
g323
asbag67
(g88
g69
NtRp699
(dp700
g72
(dp701
g99
g100
ssg81
g691
sg74
(lp702
S':'
asbag67
(g88
g69
NtRp703
(dp704
g72
(dp705
sg81
g691
sg74
(lp706
g67
(g68
g69
NtRp707
(dp708
g72
(dp709
g80
I3
ssg81
g703
sg74
(lp710
S''
asbasbasbag67
(g83
g69
NtRp711
(dp712
g72
(dp713
sg81
g647
sg74
(lp714
g67
(g88
g69
NtRp715
(dp716
g72
(dp717
g92
g93
ssg81
g711
sg74
(lp718
g344
asbag67
(g88
g69
NtRp719
(dp720
g72
(dp721
g99
g100
ssg81
g711
sg74
(lp722
S':'
asbag67
(g88
g69
NtRp723
(dp724
g72
(dp725
sg81
g711
sg74
(lp726
g67
(g68
g69
NtRp727
(dp728
g72
(dp729
g80
I3
ssg81
g723
sg74
(lp730
S''
asbasbasbag67
(g83
g69
NtRp731
(dp732
g72
(dp733
sg81
g647
sg74
(lp734
g67
(g88
g69
NtRp735
(dp736
g72
(dp737
g92
g93
ssg81
g731
sg74
(lp738
g365
asbag67
(g88
g69
NtRp739
(dp740
g72
(dp741
g99
g100
ssg81
g731
sg74
(lp742
S':'
asbag67
(g88
g69
NtRp743
(dp744
g72
(dp745
sg81
g731
sg74
(lp746
g67
(g68
g69
NtRp747
(dp748
g72
(dp749
g80
I3
ssg81
g743
sg74
(lp750
S''
asbasbasbag67
(g83
g69
NtRp751
(dp752
g72
(dp753
sg81
g647
sg74
(lp754
g67
(g88
g69
NtRp755
(dp756
g72
(dp757
g92
g93
ssg81
g751
sg74
(lp758
g386
asbag67
(g88
g69
NtRp759
(dp760
g72
(dp761
g99
g100
ssg81
g751
sg74
(lp762
S':'
asbag67
(g88
g69
NtRp763
(dp764
g72
(dp765
sg81
g751
sg74
(lp766
g67
(g68
g69
NtRp767
(dp768
g72
(dp769
g80
I3
ssg81
g763
sg74
(lp770
S''
asbasbasbag67
(g83
g69
NtRp771
(dp772
g72
(dp773
sg81
g647
sg74
(lp774
g67
(g88
g69
NtRp775
(dp776
g72
(dp777
g92
g93
ssg81
g771
sg74
(lp778
g407
asbag67
(g88
g69
NtRp779
(dp780
g72
(dp781
g99
g100
ssg81
g771
sg74
(lp782
S':'
asbag67
(g88
g69
NtRp783
(dp784
g72
(dp785
sg81
g771
sg74
(lp786
g67
(g68
g69
NtRp787
(dp788
g72
(dp789
g80
I3
ssg81
g783
sg74
(lp790
S''
asbasbasbag67
(g83
g69
NtRp791
(dp792
g72
(dp793
sg81
g647
sg74
(lp794
g67
(g88
g69
NtRp795
(dp796
g72
(dp797
g92
g93
ssg81
g791
sg74
(lp798
g428
asbag67
(g88
g69
NtRp799
(dp800
g72
(dp801
g99
g100
ssg81
g791
sg74
(lp802
S':'
asbag67
(g88
g69
NtRp803
(dp804
g72
(dp805
sg81
g791
sg74
(lp806
g67
(g68
g69
NtRp807
(dp808
g72
(dp809
g80
I3
ssg81
g803
sg74
(lp810
S''
asbasbasbasbasbasbasbasbasbasbasbag67
(g83
g69
NtRp811
(dp812
g72
(dp813
sg81
g77
sg74
(lp814
g67
(g88
g69
NtRp815
(dp816
g72
(dp817
g92
g93
ssg81
g811
sg74
(lp818
S'env'
p819
asbag67
(g88
g69
NtRp820
(dp821
g72
(dp822
g99
g100
ssg81
g811
sg74
(lp823
S':'
asbag67
(g88
g69
NtRp824
(dp825
g72
(dp826
sg81
g811
sg74
(lp827
g67
(g68
g69
NtRp828
(dp829
g72
(dp830
g80
I5
ssg81
g824
sg74
(lp831
g67
(g76
g69
NtRp832
(dp833
g72
(dp834
g80
I4
ssg81
Nsg74
(lp835
g67
(g83
g69
NtRp836
(dp837
g72
(dp838
sg81
g832
sg74
(lp839
g67
(g88
g69
NtRp840
(dp841
g72
(dp842
g92
g93
ssg81
g836
sg74
(lp843
S'app_folders'
p844
asbag67
(g88
g69
NtRp845
(dp846
g72
(dp847
g99
g100
ssg81
g836
sg74
(lp848
S':'
asbag67
(g88
g69
NtRp849
(dp850
g72
(dp851
sg81
g836
sg74
(lp852
g67
(g68
g69
NtRp853
(dp854
g72
(dp855
g80
I4
ssg81
g849
sg74
(lp856
S"set(['/home/jose/DESARROLLO/web2py199/applications/streamlog/', '/home/jose/DESARROLLO/web2py199/applications/admin/'])"
p857
asbasbasbag67
(g83
g69
NtRp858
(dp859
g72
(dp860
sg81
g832
sg74
(lp861
g67
(g88
g69
NtRp862
(dp863
g72
(dp864
g92
g93
ssg81
g858
sg74
(lp865
S'applications_parent'
p866
asbag67
(g88
g69
NtRp867
(dp868
g72
(dp869
g99
g100
ssg81
g858
sg74
(lp870
S':'
asbag67
(g88
g69
NtRp871
(dp872
g72
(dp873
sg81
g858
sg74
(lp874
g67
(g68
g69
NtRp875
(dp876
g72
(dp877
g80
I4
ssg81
g871
sg74
(lp878
S'/home/jose/DESARROLLO/web2py199'
p879
asbasbasbag67
(g83
g69
NtRp880
(dp881
g72
(dp882
sg81
g832
sg74
(lp883
g67
(g88
g69
NtRp884
(dp885
g72
(dp886
g92
g93
ssg81
g880
sg74
(lp887
S'cmd_args'
p888
asbag67
(g88
g69
NtRp889
(dp890
g72
(dp891
g99
g100
ssg81
g880
sg74
(lp892
S':'
asbag67
(g88
g69
NtRp893
(dp894
g72
(dp895
sg81
g880
sg74
(lp896
g67
(g68
g69
NtRp897
(dp898
g72
(dp899
g80
I4
ssg81
g893
sg74
(lp900
g67
(g76
g69
NtRp901
(dp902
g72
(dp903
g80
I3
ssg81
Nsg74
(lp904
sbasbasbasbag67
(g83
g69
NtRp905
(dp906
g72
(dp907
sg81
g832
sg74
(lp908
g67
(g88
g69
NtRp909
(dp910
g72
(dp911
g92
g93
ssg81
g905
sg74
(lp912
S'cmd_options'
p913
asbag67
(g88
g69
NtRp914
(dp915
g72
(dp916
g99
g100
ssg81
g905
sg74
(lp917
S':'
asbag67
(g88
g69
NtRp918
(dp919
g72
(dp920
sg81
g905
sg74
(lp921
g67
(g68
g69
NtRp922
(dp923
g72
(dp924
g80
I4
ssg81
g918
sg74
(lp925
S"<Values at 0x1c79f80: {'verbose': False, 'ip': '127.0.0.1', 'shutdown_timeout': 5, 'taskbar': False, 'nocron': False, 'pid_filename': 'httpserver.pid', 'maxthreads': None, 'softcron': False, 'server_name': 'jose', 'bpython': False, 'nogui': False, 'port': 8000, 'extcron': False, 'debuglevel': 30, 'test': None, 'folder': '/home/jose/DESARROLLO/web2py199', 'config': '', 'import_models': False, 'winservice': '', 'shell': None, 'run': '', 'log_filename': 'httpserver.log', 'args': [''], 'ssl_ca_certificate': None, 'scheduler': None, 'profiler_filename': None, 'ssl_private_key': '', 'password': 't', 'request_queue_size': 5, 'ssl_certificate': '', 'cronjob': False, 'plain': False, 'quiet': False, 'interfaces': None, 'minthreads': None, 'timeout': 10, 'numthreads': None, 'nobanner': False}>"
p926
asbasbasbag67
(g83
g69
NtRp927
(dp928
g72
(dp929
sg81
g832
sg74
(lp930
g67
(g88
g69
NtRp931
(dp932
g72
(dp933
g92
g93
ssg81
g927
sg74
(lp934
S'db_sessions'
p935
asbag67
(g88
g69
NtRp936
(dp937
g72
(dp938
g99
g100
ssg81
g927
sg74
(lp939
S':'
asbag67
(g88
g69
NtRp940
(dp941
g72
(dp942
sg81
g927
sg74
(lp943
g67
(g68
g69
NtRp944
(dp945
g72
(dp946
g80
I4
ssg81
g940
sg74
(lp947
S'set([])'
p948
asbasbasbag67
(g83
g69
NtRp949
(dp950
g72
(dp951
sg81
g832
sg74
(lp952
g67
(g88
g69
NtRp953
(dp954
g72
(dp955
g92
g93
ssg81
g949
sg74
(lp956
S'debugging'
p957
asbag67
(g88
g69
NtRp958
(dp959
g72
(dp960
g99
g100
ssg81
g949
sg74
(lp961
S':'
asbag67
(g88
g69
NtRp962
(dp963
g72
(dp964
sg81
g949
sg74
(lp965
g67
(g68
g69
NtRp966
(dp967
g72
(dp968
g80
I4
ssg81
g962
sg74
(lp969
g110
asbasbasbag67
(g83
g69
NtRp970
(dp971
g72
(dp972
sg81
g832
sg74
(lp973
g67
(g88
g69
NtRp974
(dp975
g72
(dp976
g92
g93
ssg81
g970
sg74
(lp977
S'gluon_parent'
p978
asbag67
(g88
g69
NtRp979
(dp980
g72
(dp981
g99
g100
ssg81
g970
sg74
(lp982
S':'
asbag67
(g88
g69
NtRp983
(dp984
g72
(dp985
sg81
g970
sg74
(lp986
g67
(g68
g69
NtRp987
(dp988
g72
(dp989
g80
I4
ssg81
g983
sg74
(lp990
S'/home/jose/DESARROLLO/web2py199'
p991
asbasbasbag67
(g83
g69
NtRp992
(dp993
g72
(dp994
sg81
g832
sg74
(lp995
g67
(g88
g69
NtRp996
(dp997
g72
(dp998
g92
g93
ssg81
g992
sg74
(lp999
S'http_accept'
p1000
asbag67
(g88
g69
NtRp1001
(dp1002
g72
(dp1003
g99
g100
ssg81
g992
sg74
(lp1004
S':'
asbag67
(g88
g69
NtRp1005
(dp1006
g72
(dp1007
sg81
g992
sg74
(lp1008
g67
(g68
g69
NtRp1009
(dp1010
g72
(dp1011
g80
I4
ssg81
g1005
sg74
(lp1012
S'text/html,application/xhtml+xml,application/xml;q=0.9,*/*;q=0.8'
p1013
asbasbasbag67
(g83
g69
NtRp1014
(dp1015
g72
(dp1016
sg81
g832
sg74
(lp1017
g67
(g88
g69
NtRp1018
(dp1019
g72
(dp1020
g92
g93
ssg81
g1014
sg74
(lp1021
S'http_accept_encoding'
p1022
asbag67
(g88
g69
NtRp1023
(dp1024
g72
(dp1025
g99
g100
ssg81
g1014
sg74
(lp1026
S':'
asbag67
(g88
g69
NtRp1027
(dp1028
g72
(dp1029
sg81
g1014
sg74
(lp1030
g67
(g68
g69
NtRp1031
(dp1032
g72
(dp1033
g80
I4
ssg81
g1027
sg74
(lp1034
S'gzip, deflate'
p1035
asbasbasbag67
(g83
g69
NtRp1036
(dp1037
g72
(dp1038
sg81
g832
sg74
(lp1039
g67
(g88
g69
NtRp1040
(dp1041
g72
(dp1042
g92
g93
ssg81
g1036
sg74
(lp1043
S'http_accept_language'
p1044
asbag67
(g88
g69
NtRp1045
(dp1046
g72
(dp1047
g99
g100
ssg81
g1036
sg74
(lp1048
S':'
asbag67
(g88
g69
NtRp1049
(dp1050
g72
(dp1051
sg81
g1036
sg74
(lp1052
g67
(g68
g69
NtRp1053
(dp1054
g72
(dp1055
g80
I4
ssg81
g1049
sg74
(lp1056
S'en-us,en;q=0.5'
p1057
asbasbasbag67
(g83
g69
NtRp1058
(dp1059
g72
(dp1060
sg81
g832
sg74
(lp1061
g67
(g88
g69
NtRp1062
(dp1063
g72
(dp1064
g92
g93
ssg81
g1058
sg74
(lp1065
S'http_connection'
p1066
asbag67
(g88
g69
NtRp1067
(dp1068
g72
(dp1069
g99
g100
ssg81
g1058
sg74
(lp1070
S':'
asbag67
(g88
g69
NtRp1071
(dp1072
g72
(dp1073
sg81
g1058
sg74
(lp1074
g67
(g68
g69
NtRp1075
(dp1076
g72
(dp1077
g80
I4
ssg81
g1071
sg74
(lp1078
S'keep-alive'
p1079
asbasbasbag67
(g83
g69
NtRp1080
(dp1081
g72
(dp1082
sg81
g832
sg74
(lp1083
g67
(g88
g69
NtRp1084
(dp1085
g72
(dp1086
g92
g93
ssg81
g1080
sg74
(lp1087
S'http_cookie'
p1088
asbag67
(g88
g69
NtRp1089
(dp1090
g72
(dp1091
g99
g100
ssg81
g1080
sg74
(lp1092
S':'
asbag67
(g88
g69
NtRp1093
(dp1094
g72
(dp1095
sg81
g1080
sg74
(lp1096
g67
(g68
g69
NtRp1097
(dp1098
g72
(dp1099
g80
I4
ssg81
g1093
sg74
(lp1100
S'session_id_streamlog=127.0.0.1-610b0c7d-3f6f-4500-a76a-b095fb30f7fd; session_id_admin=127.0.0.1-87ac9729-f9fb-412b-aa6d-428ca5932487; session_id_test3=127.0.0.1-380e7b29-b635-4690-b9ca-812870d6a061'
p1101
asbasbasbag67
(g83
g69
NtRp1102
(dp1103
g72
(dp1104
sg81
g832
sg74
(lp1105
g67
(g88
g69
NtRp1106
(dp1107
g72
(dp1108
g92
g93
ssg81
g1102
sg74
(lp1109
S'http_host'
p1110
asbag67
(g88
g69
NtRp1111
(dp1112
g72
(dp1113
g99
g100
ssg81
g1102
sg74
(lp1114
S':'
asbag67
(g88
g69
NtRp1115
(dp1116
g72
(dp1117
sg81
g1102
sg74
(lp1118
g67
(g68
g69
NtRp1119
(dp1120
g72
(dp1121
g80
I4
ssg81
g1115
sg74
(lp1122
S'localhost:8000'
p1123
asbasbasbag67
(g83
g69
NtRp1124
(dp1125
g72
(dp1126
sg81
g832
sg74
(lp1127
g67
(g88
g69
NtRp1128
(dp1129
g72
(dp1130
g92
g93
ssg81
g1124
sg74
(lp1131
S'http_user_agent'
p1132
asbag67
(g88
g69
NtRp1133
(dp1134
g72
(dp1135
g99
g100
ssg81
g1124
sg74
(lp1136
S':'
asbag67
(g88
g69
NtRp1137
(dp1138
g72
(dp1139
sg81
g1124
sg74
(lp1140
g67
(g68
g69
NtRp1141
(dp1142
g72
(dp1143
g80
I4
ssg81
g1137
sg74
(lp1144
S'Mozilla/5.0 (X11; Ubuntu; Linux x86_64; rv:12.0) Gecko/20100101 Firefox/12.0'
p1145
asbasbasbag67
(g83
g69
NtRp1146
(dp1147
g72
(dp1148
sg81
g832
sg74
(lp1149
g67
(g88
g69
NtRp1150
(dp1151
g72
(dp1152
g92
g93
ssg81
g1146
sg74
(lp1153
S'is_jython'
p1154
asbag67
(g88
g69
NtRp1155
(dp1156
g72
(dp1157
g99
g100
ssg81
g1146
sg74
(lp1158
S':'
asbag67
(g88
g69
NtRp1159
(dp1160
g72
(dp1161
sg81
g1146
sg74
(lp1162
g67
(g68
g69
NtRp1163
(dp1164
g72
(dp1165
g80
I4
ssg81
g1159
sg74
(lp1166
g110
asbasbasbag67
(g83
g69
NtRp1167
(dp1168
g72
(dp1169
sg81
g832
sg74
(lp1170
g67
(g88
g69
NtRp1171
(dp1172
g72
(dp1173
g92
g93
ssg81
g1167
sg74
(lp1174
S'path_info'
p1175
asbag67
(g88
g69
NtRp1176
(dp1177
g72
(dp1178
g99
g100
ssg81
g1167
sg74
(lp1179
S':'
asbag67
(g88
g69
NtRp1180
(dp1181
g72
(dp1182
sg81
g1167
sg74
(lp1183
g67
(g68
g69
NtRp1184
(dp1185
g72
(dp1186
g80
I4
ssg81
g1180
sg74
(lp1187
S'/streamlog/default/index'
p1188
asbasbasbag67
(g83
g69
NtRp1189
(dp1190
g72
(dp1191
sg81
g832
sg74
(lp1192
g67
(g88
g69
NtRp1193
(dp1194
g72
(dp1195
g92
g93
ssg81
g1189
sg74
(lp1196
S'query_string'
p1197
asbag67
(g88
g69
NtRp1198
(dp1199
g72
(dp1200
g99
g100
ssg81
g1189
sg74
(lp1201
S':'
asbag67
(g88
g69
NtRp1202
(dp1203
g72
(dp1204
sg81
g1189
sg74
(lp1205
g67
(g68
g69
NtRp1206
(dp1207
g72
(dp1208
g80
I4
ssg81
g1202
sg74
(lp1209
S''
asbasbasbag67
(g83
g69
NtRp1210
(dp1211
g72
(dp1212
sg81
g832
sg74
(lp1213
g67
(g88
g69
NtRp1214
(dp1215
g72
(dp1216
g92
g93
ssg81
g1210
sg74
(lp1217
S'remote_addr'
p1218
asbag67
(g88
g69
NtRp1219
(dp1220
g72
(dp1221
g99
g100
ssg81
g1210
sg74
(lp1222
S':'
asbag67
(g88
g69
NtRp1223
(dp1224
g72
(dp1225
sg81
g1210
sg74
(lp1226
g67
(g68
g69
NtRp1227
(dp1228
g72
(dp1229
g80
I4
ssg81
g1223
sg74
(lp1230
g200
asbasbasbag67
(g83
g69
NtRp1231
(dp1232
g72
(dp1233
sg81
g832
sg74
(lp1234
g67
(g88
g69
NtRp1235
(dp1236
g72
(dp1237
g92
g93
ssg81
g1231
sg74
(lp1238
S'remote_port'
p1239
asbag67
(g88
g69
NtRp1240
(dp1241
g72
(dp1242
g99
g100
ssg81
g1231
sg74
(lp1243
S':'
asbag67
(g88
g69
NtRp1244
(dp1245
g72
(dp1246
sg81
g1231
sg74
(lp1247
g67
(g68
g69
NtRp1248
(dp1249
g72
(dp1250
g80
I4
ssg81
g1244
sg74
(lp1251
S'33741'
p1252
asbasbasbag67
(g83
g69
NtRp1253
(dp1254
g72
(dp1255
sg81
g832
sg74
(lp1256
g67
(g88
g69
NtRp1257
(dp1258
g72
(dp1259
g92
g93
ssg81
g1253
sg74
(lp1260
S'request_method'
p1261
asbag67
(g88
g69
NtRp1262
(dp1263
g72
(dp1264
g99
g100
ssg81
g1253
sg74
(lp1265
S':'
asbag67
(g88
g69
NtRp1266
(dp1267
g72
(dp1268
sg81
g1253
sg74
(lp1269
g67
(g68
g69
NtRp1270
(dp1271
g72
(dp1272
g80
I4
ssg81
g1266
sg74
(lp1273
S'GET'
p1274
asbasbasbag67
(g83
g69
NtRp1275
(dp1276
g72
(dp1277
sg81
g832
sg74
(lp1278
g67
(g88
g69
NtRp1279
(dp1280
g72
(dp1281
g92
g93
ssg81
g1275
sg74
(lp1282
S'script_name'
p1283
asbag67
(g88
g69
NtRp1284
(dp1285
g72
(dp1286
g99
g100
ssg81
g1275
sg74
(lp1287
S':'
asbag67
(g88
g69
NtRp1288
(dp1289
g72
(dp1290
sg81
g1275
sg74
(lp1291
g67
(g68
g69
NtRp1292
(dp1293
g72
(dp1294
g80
I4
ssg81
g1288
sg74
(lp1295
S''
asbasbasbag67
(g83
g69
NtRp1296
(dp1297
g72
(dp1298
sg81
g832
sg74
(lp1299
g67
(g88
g69
NtRp1300
(dp1301
g72
(dp1302
g92
g93
ssg81
g1296
sg74
(lp1303
S'server_name'
p1304
asbag67
(g88
g69
NtRp1305
(dp1306
g72
(dp1307
g99
g100
ssg81
g1296
sg74
(lp1308
S':'
asbag67
(g88
g69
NtRp1309
(dp1310
g72
(dp1311
sg81
g1296
sg74
(lp1312
g67
(g68
g69
NtRp1313
(dp1314
g72
(dp1315
g80
I4
ssg81
g1309
sg74
(lp1316
S'jose'
p1317
asbasbasbag67
(g83
g69
NtRp1318
(dp1319
g72
(dp1320
sg81
g832
sg74
(lp1321
g67
(g88
g69
NtRp1322
(dp1323
g72
(dp1324
g92
g93
ssg81
g1318
sg74
(lp1325
S'server_port'
p1326
asbag67
(g88
g69
NtRp1327
(dp1328
g72
(dp1329
g99
g100
ssg81
g1318
sg74
(lp1330
S':'
asbag67
(g88
g69
NtRp1331
(dp1332
g72
(dp1333
sg81
g1318
sg74
(lp1334
g67
(g68
g69
NtRp1335
(dp1336
g72
(dp1337
g80
I4
ssg81
g1331
sg74
(lp1338
S'8000'
p1339
asbasbasbag67
(g83
g69
NtRp1340
(dp1341
g72
(dp1342
sg81
g832
sg74
(lp1343
g67
(g88
g69
NtRp1344
(dp1345
g72
(dp1346
g92
g93
ssg81
g1340
sg74
(lp1347
S'server_protocol'
p1348
asbag67
(g88
g69
NtRp1349
(dp1350
g72
(dp1351
g99
g100
ssg81
g1340
sg74
(lp1352
S':'
asbag67
(g88
g69
NtRp1353
(dp1354
g72
(dp1355
sg81
g1340
sg74
(lp1356
g67
(g68
g69
NtRp1357
(dp1358
g72
(dp1359
g80
I4
ssg81
g1353
sg74
(lp1360
S'HTTP/1.1'
p1361
asbasbasbag67
(g83
g69
NtRp1362
(dp1363
g72
(dp1364
sg81
g832
sg74
(lp1365
g67
(g88
g69
NtRp1366
(dp1367
g72
(dp1368
g92
g93
ssg81
g1362
sg74
(lp1369
S'server_software'
p1370
asbag67
(g88
g69
NtRp1371
(dp1372
g72
(dp1373
g99
g100
ssg81
g1362
sg74
(lp1374
S':'
asbag67
(g88
g69
NtRp1375
(dp1376
g72
(dp1377
sg81
g1362
sg74
(lp1378
g67
(g68
g69
NtRp1379
(dp1380
g72
(dp1381
g80
I4
ssg81
g1375
sg74
(lp1382
S'Rocket 1.2.4'
p1383
asbasbasbag67
(g83
g69
NtRp1384
(dp1385
g72
(dp1386
sg81
g832
sg74
(lp1387
g67
(g88
g69
NtRp1388
(dp1389
g72
(dp1390
g92
g93
ssg81
g1384
sg74
(lp1391
S'web2py_crontype'
p1392
asbag67
(g88
g69
NtRp1393
(dp1394
g72
(dp1395
g99
g100
ssg81
g1384
sg74
(lp1396
S':'
asbag67
(g88
g69
NtRp1397
(dp1398
g72
(dp1399
sg81
g1384
sg74
(lp1400
g67
(g68
g69
NtRp1401
(dp1402
g72
(dp1403
g80
I4
ssg81
g1397
sg74
(lp1404
S'hard'
p1405
asbasbasbag67
(g83
g69
NtRp1406
(dp1407
g72
(dp1408
sg81
g832
sg74
(lp1409
g67
(g88
g69
NtRp1410
(dp1411
g72
(dp1412
g92
g93
ssg81
g1406
sg74
(lp1413
S'web2py_path'
p1414
asbag67
(g88
g69
NtRp1415
(dp1416
g72
(dp1417
g99
g100
ssg81
g1406
sg74
(lp1418
S':'
asbag67
(g88
g69
NtRp1419
(dp1420
g72
(dp1421
sg81
g1406
sg74
(lp1422
g67
(g68
g69
NtRp1423
(dp1424
g72
(dp1425
g80
I4
ssg81
g1419
sg74
(lp1426
g879
asbasbasbag67
(g83
g69
NtRp1427
(dp1428
g72
(dp1429
sg81
g832
sg74
(lp1430
g67
(g88
g69
NtRp1431
(dp1432
g72
(dp1433
g92
g93
ssg81
g1427
sg74
(lp1434
S'web2py_version'
p1435
asbag67
(g88
g69
NtRp1436
(dp1437
g72
(dp1438
g99
g100
ssg81
g1427
sg74
(lp1439
S':'
asbag67
(g88
g69
NtRp1440
(dp1441
g72
(dp1442
sg81
g1427
sg74
(lp1443
g67
(g68
g69
NtRp1444
(dp1445
g72
(dp1446
g80
I4
ssg81
g1440
sg74
(lp1447
g67
(g76
g69
NtRp1448
(dp1449
g72
(dp1450
g80
I3
ssg81
Nsg74
(lp1451
g67
(g83
g69
NtRp1452
(dp1453
g72
(dp1454
sg81
g1448
sg74
(lp1455
g67
(g88
g69
NtRp1456
(dp1457
g72
(dp1458
sg81
g1452
sg74
(lp1459
g67
(g68
g69
NtRp1460
(dp1461
g72
(dp1462
g80
I3
ssg81
g1456
sg74
(lp1463
S'1'
asbasbasbag67
(g83
g69
NtRp1464
(dp1465
g72
(dp1466
sg81
g1448
sg74
(lp1467
g67
(g88
g69
NtRp1468
(dp1469
g72
(dp1470
sg81
g1464
sg74
(lp1471
g67
(g68
g69
NtRp1472
(dp1473
g72
(dp1474
g80
I3
ssg81
g1468
sg74
(lp1475
S'99'
p1476
asbasbasbag67
(g83
g69
NtRp1477
(dp1478
g72
(dp1479
sg81
g1448
sg74
(lp1480
g67
(g88
g69
NtRp1481
(dp1482
g72
(dp1483
sg81
g1477
sg74
(lp1484
g67
(g68
g69
NtRp1485
(dp1486
g72
(dp1487
g80
I3
ssg81
g1481
sg74
(lp1488
S'2'
asbasbasbag67
(g83
g69
NtRp1489
(dp1490
g72
(dp1491
sg81
g1448
sg74
(lp1492
g67
(g88
g69
NtRp1493
(dp1494
g72
(dp1495
sg81
g1489
sg74
(lp1496
g67
(g68
g69
NtRp1497
(dp1498
g72
(dp1499
g80
I3
ssg81
g1493
sg74
(lp1500
S'datetime.datetime(2011, 9, 26, 6, 55, 33)'
p1501
asbasbasbag67
(g83
g69
NtRp1502
(dp1503
g72
(dp1504
sg81
g1448
sg74
(lp1505
g67
(g88
g69
NtRp1506
(dp1507
g72
(dp1508
sg81
g1502
sg74
(lp1509
g67
(g68
g69
NtRp1510
(dp1511
g72
(dp1512
g80
I3
ssg81
g1506
sg74
(lp1513
S'stable'
p1514
asbasbasbasbasbasbasbag67
(g83
g69
NtRp1515
(dp1516
g72
(dp1517
sg81
g832
sg74
(lp1518
g67
(g88
g69
NtRp1519
(dp1520
g72
(dp1521
g92
g93
ssg81
g1515
sg74
(lp1522
S'wsgi_errors'
p1523
asbag67
(g88
g69
NtRp1524
(dp1525
g72
(dp1526
g99
g100
ssg81
g1515
sg74
(lp1527
S':'
asbag67
(g88
g69
NtRp1528
(dp1529
g72
(dp1530
sg81
g1515
sg74
(lp1531
g67
(g68
g69
NtRp1532
(dp1533
g72
(dp1534
g80
I4
ssg81
g1528
sg74
(lp1535
S"<open file '<stderr>', mode 'w' at 0x7f84db3ff270>"
p1536
asbasbasbag67
(g83
g69
NtRp1537
(dp1538
g72
(dp1539
sg81
g832
sg74
(lp1540
g67
(g88
g69
NtRp1541
(dp1542
g72
(dp1543
g92
g93
ssg81
g1537
sg74
(lp1544
S'wsgi_file_wrapper'
p1545
asbag67
(g88
g69
NtRp1546
(dp1547
g72
(dp1548
g99
g100
ssg81
g1537
sg74
(lp1549
S':'
asbag67
(g88
g69
NtRp1550
(dp1551
g72
(dp1552
sg81
g1537
sg74
(lp1553
g67
(g68
g69
NtRp1554
(dp1555
g72
(dp1556
g80
I4
ssg81
g1550
sg74
(lp1557
S'<class wsgiref.util.FileWrapper at 0x1b96d50>'
p1558
asbasbasbag67
(g83
g69
NtRp1559
(dp1560
g72
(dp1561
sg81
g832
sg74
(lp1562
g67
(g88
g69
NtRp1563
(dp1564
g72
(dp1565
g92
g93
ssg81
g1559
sg74
(lp1566
S'wsgi_input'
p1567
asbag67
(g88
g69
NtRp1568
(dp1569
g72
(dp1570
g99
g100
ssg81
g1559
sg74
(lp1571
S':'
asbag67
(g88
g69
NtRp1572
(dp1573
g72
(dp1574
sg81
g1559
sg74
(lp1575
g67
(g68
g69
NtRp1576
(dp1577
g72
(dp1578
g80
I4
ssg81
g1572
sg74
(lp1579
S'<socket._fileobject object at 0x24f1950>'
p1580
asbasbasbag67
(g83
g69
NtRp1581
(dp1582
g72
(dp1583
sg81
g832
sg74
(lp1584
g67
(g88
g69
NtRp1585
(dp1586
g72
(dp1587
g92
g93
ssg81
g1581
sg74
(lp1588
S'wsgi_multiprocess'
p1589
asbag67
(g88
g69
NtRp1590
(dp1591
g72
(dp1592
g99
g100
ssg81
g1581
sg74
(lp1593
S':'
asbag67
(g88
g69
NtRp1594
(dp1595
g72
(dp1596
sg81
g1581
sg74
(lp1597
g67
(g68
g69
NtRp1598
(dp1599
g72
(dp1600
g80
I4
ssg81
g1594
sg74
(lp1601
g110
asbasbasbag67
(g83
g69
NtRp1602
(dp1603
g72
(dp1604
sg81
g832
sg74
(lp1605
g67
(g88
g69
NtRp1606
(dp1607
g72
(dp1608
g92
g93
ssg81
g1602
sg74
(lp1609
S'wsgi_multithread'
p1610
asbag67
(g88
g69
NtRp1611
(dp1612
g72
(dp1613
g99
g100
ssg81
g1602
sg74
(lp1614
S':'
asbag67
(g88
g69
NtRp1615
(dp1616
g72
(dp1617
sg81
g1602
sg74
(lp1618
g67
(g68
g69
NtRp1619
(dp1620
g72
(dp1621
g80
I4
ssg81
g1615
sg74
(lp1622
S'True'
p1623
asbasbasbag67
(g83
g69
NtRp1624
(dp1625
g72
(dp1626
sg81
g832
sg74
(lp1627
g67
(g88
g69
NtRp1628
(dp1629
g72
(dp1630
g92
g93
ssg81
g1624
sg74
(lp1631
S'wsgi_run_once'
p1632
asbag67
(g88
g69
NtRp1633
(dp1634
g72
(dp1635
g99
g100
ssg81
g1624
sg74
(lp1636
S':'
asbag67
(g88
g69
NtRp1637
(dp1638
g72
(dp1639
sg81
g1624
sg74
(lp1640
g67
(g68
g69
NtRp1641
(dp1642
g72
(dp1643
g80
I4
ssg81
g1637
sg74
(lp1644
g110
asbasbasbag67
(g83
g69
NtRp1645
(dp1646
g72
(dp1647
sg81
g832
sg74
(lp1648
g67
(g88
g69
NtRp1649
(dp1650
g72
(dp1651
g92
g93
ssg81
g1645
sg74
(lp1652
S'wsgi_url_scheme'
p1653
asbag67
(g88
g69
NtRp1654
(dp1655
g72
(dp1656
g99
g100
ssg81
g1645
sg74
(lp1657
S':'
asbag67
(g88
g69
NtRp1658
(dp1659
g72
(dp1660
sg81
g1645
sg74
(lp1661
g67
(g68
g69
NtRp1662
(dp1663
g72
(dp1664
g80
I4
ssg81
g1658
sg74
(lp1665
S'http'
p1666
asbasbasbag67
(g83
g69
NtRp1667
(dp1668
g72
(dp1669
sg81
g832
sg74
(lp1670
g67
(g88
g69
NtRp1671
(dp1672
g72
(dp1673
g92
g93
ssg81
g1667
sg74
(lp1674
S'wsgi_version'
p1675
asbag67
(g88
g69
NtRp1676
(dp1677
g72
(dp1678
g99
g100
ssg81
g1667
sg74
(lp1679
S':'
asbag67
(g88
g69
NtRp1680
(dp1681
g72
(dp1682
sg81
g1667
sg74
(lp1683
g67
(g68
g69
NtRp1684
(dp1685
g72
(dp1686
g80
I4
ssg81
g1680
sg74
(lp1687
g67
(g76
g69
NtRp1688
(dp1689
g72
(dp1690
g80
I3
ssg81
Nsg74
(lp1691
g67
(g83
g69
NtRp1692
(dp1693
g72
(dp1694
sg81
g1688
sg74
(lp1695
g67
(g88
g69
NtRp1696
(dp1697
g72
(dp1698
sg81
g1692
sg74
(lp1699
g67
(g68
g69
NtRp1700
(dp1701
g72
(dp1702
g80
I3
ssg81
g1696
sg74
(lp1703
S'1'
asbasbasbag67
(g83
g69
NtRp1704
(dp1705
g72
(dp1706
sg81
g1688
sg74
(lp1707
g67
(g88
g69
NtRp1708
(dp1709
g72
(dp1710
sg81
g1704
sg74
(lp1711
g67
(g68
g69
NtRp1712
(dp1713
g72
(dp1714
g80
I3
ssg81
g1708
sg74
(lp1715
S'0'
asbasbasbasbasbasbasbasbasbasbasbag67
(g83
g69
NtRp1716
(dp1717
g72
(dp1718
sg81
g77
sg74
(lp1719
g67
(g88
g69
NtRp1720
(dp1721
g72
(dp1722
g92
g93
ssg81
g1716
sg74
(lp1723
S'extension'
p1724
asbag67
(g88
g69
NtRp1725
(dp1726
g72
(dp1727
g99
g100
ssg81
g1716
sg74
(lp1728
S':'
asbag67
(g88
g69
NtRp1729
(dp1730
g72
(dp1731
sg81
g1716
sg74
(lp1732
g67
(g68
g69
NtRp1733
(dp1734
g72
(dp1735
g80
I5
ssg81
g1729
sg74
(lp1736
S'html'
p1737
asbasbasbag67
(g83
g69
NtRp1738
(dp1739
g72
(dp1740
sg81
g77
sg74
(lp1741
g67
(g88
g69
NtRp1742
(dp1743
g72
(dp1744
g92
g93
ssg81
g1738
sg74
(lp1745
S'folder'
p1746
asbag67
(g88
g69
NtRp1747
(dp1748
g72
(dp1749
g99
g100
ssg81
g1738
sg74
(lp1750
S':'
asbag67
(g88
g69
NtRp1751
(dp1752
g72
(dp1753
sg81
g1738
sg74
(lp1754
g67
(g68
g69
NtRp1755
(dp1756
g72
(dp1757
g80
I5
ssg81
g1751
sg74
(lp1758
S'/home/jose/DESARROLLO/web2py199/applications/streamlog/'
p1759
asbasbasbag67
(g83
g69
NtRp1760
(dp1761
g72
(dp1762
sg81
g77
sg74
(lp1763
g67
(g88
g69
NtRp1764
(dp1765
g72
(dp1766
g92
g93
ssg81
g1760
sg74
(lp1767
S'function'
p1768
asbag67
(g88
g69
NtRp1769
(dp1770
g72
(dp1771
g99
g100
ssg81
g1760
sg74
(lp1772
S':'
asbag67
(g88
g69
NtRp1773
(dp1774
g72
(dp1775
sg81
g1760
sg74
(lp1776
g67
(g68
g69
NtRp1777
(dp1778
g72
(dp1779
g80
I5
ssg81
g1773
sg74
(lp1780
S'index'
p1781
asbasbasbag67
(g83
g69
NtRp1782
(dp1783
g72
(dp1784
sg81
g77
sg74
(lp1785
g67
(g88
g69
NtRp1786
(dp1787
g72
(dp1788
g92
g93
ssg81
g1782
sg74
(lp1789
S'get_vars'
p1790
asbag67
(g88
g69
NtRp1791
(dp1792
g72
(dp1793
g99
g100
ssg81
g1782
sg74
(lp1794
S':'
asbag67
(g88
g69
NtRp1795
(dp1796
g72
(dp1797
sg81
g1782
sg74
(lp1798
g67
(g68
g69
NtRp1799
(dp1800
g72
(dp1801
g80
I5
ssg81
g1795
sg74
(lp1802
g67
(g76
g69
NtRp1803
(dp1804
g72
(dp1805
g80
I4
ssg81
Nsg74
(lp1806
sbasbasbasbag67
(g83
g69
NtRp1807
(dp1808
g72
(dp1809
sg81
g77
sg74
(lp1810
g67
(g88
g69
NtRp1811
(dp1812
g72
(dp1813
g92
g93
ssg81
g1807
sg74
(lp1814
S'global_settings'
p1815
asbag67
(g88
g69
NtRp1816
(dp1817
g72
(dp1818
g99
g100
ssg81
g1807
sg74
(lp1819
S':'
asbag67
(g88
g69
NtRp1820
(dp1821
g72
(dp1822
sg81
g1807
sg74
(lp1823
g67
(g68
g69
NtRp1824
(dp1825
g72
(dp1826
g80
I5
ssg81
g1820
sg74
(lp1827
g67
(g76
g69
NtRp1828
(dp1829
g72
(dp1830
g80
I4
ssg81
Nsg74
(lp1831
g67
(g83
g69
NtRp1832
(dp1833
g72
(dp1834
sg81
g1828
sg74
(lp1835
g67
(g88
g69
NtRp1836
(dp1837
g72
(dp1838
g92
g93
ssg81
g1832
sg74
(lp1839
g844
asbag67
(g88
g69
NtRp1840
(dp1841
g72
(dp1842
g99
g100
ssg81
g1832
sg74
(lp1843
S':'
asbag67
(g88
g69
NtRp1844
(dp1845
g72
(dp1846
sg81
g1832
sg74
(lp1847
g67
(g68
g69
NtRp1848
(dp1849
g72
(dp1850
g80
I4
ssg81
g1844
sg74
(lp1851
S"set(['/home/jose/DESARROLLO/web2py199/applications/streamlog/', '/home/jose/DESARROLLO/web2py199/applications/admin/'])"
p1852
asbasbasbag67
(g83
g69
NtRp1853
(dp1854
g72
(dp1855
sg81
g1828
sg74
(lp1856
g67
(g88
g69
NtRp1857
(dp1858
g72
(dp1859
g92
g93
ssg81
g1853
sg74
(lp1860
g866
asbag67
(g88
g69
NtRp1861
(dp1862
g72
(dp1863
g99
g100
ssg81
g1853
sg74
(lp1864
S':'
asbag67
(g88
g69
NtRp1865
(dp1866
g72
(dp1867
sg81
g1853
sg74
(lp1868
g67
(g68
g69
NtRp1869
(dp1870
g72
(dp1871
g80
I4
ssg81
g1865
sg74
(lp1872
g879
asbasbasbag67
(g83
g69
NtRp1873
(dp1874
g72
(dp1875
sg81
g1828
sg74
(lp1876
g67
(g88
g69
NtRp1877
(dp1878
g72
(dp1879
g92
g93
ssg81
g1873
sg74
(lp1880
g888
asbag67
(g88
g69
NtRp1881
(dp1882
g72
(dp1883
g99
g100
ssg81
g1873
sg74
(lp1884
S':'
asbag67
(g88
g69
NtRp1885
(dp1886
g72
(dp1887
sg81
g1873
sg74
(lp1888
g67
(g68
g69
NtRp1889
(dp1890
g72
(dp1891
g80
I4
ssg81
g1885
sg74
(lp1892
g67
(g76
g69
NtRp1893
(dp1894
g72
(dp1895
g80
I3
ssg81
Nsg74
(lp1896
sbasbasbasbag67
(g83
g69
NtRp1897
(dp1898
g72
(dp1899
sg81
g1828
sg74
(lp1900
g67
(g88
g69
NtRp1901
(dp1902
g72
(dp1903
g92
g93
ssg81
g1897
sg74
(lp1904
g913
asbag67
(g88
g69
NtRp1905
(dp1906
g72
(dp1907
g99
g100
ssg81
g1897
sg74
(lp1908
S':'
asbag67
(g88
g69
NtRp1909
(dp1910
g72
(dp1911
sg81
g1897
sg74
(lp1912
g67
(g68
g69
NtRp1913
(dp1914
g72
(dp1915
g80
I4
ssg81
g1909
sg74
(lp1916
S"<Values at 0x1c79f80: {'verbose': False, 'ip': '127.0.0.1', 'shutdown_timeout': 5, 'taskbar': False, 'nocron': False, 'pid_filename': 'httpserver.pid', 'maxthreads': None, 'softcron': False, 'server_name': 'jose', 'bpython': False, 'nogui': False, 'port': 8000, 'extcron': False, 'debuglevel': 30, 'test': None, 'folder': '/home/jose/DESARROLLO/web2py199', 'config': '', 'import_models': False, 'winservice': '', 'shell': None, 'run': '', 'log_filename': 'httpserver.log', 'args': [''], 'ssl_ca_certificate': None, 'scheduler': None, 'profiler_filename': None, 'ssl_private_key': '', 'password': 't', 'request_queue_size': 5, 'ssl_certificate': '', 'cronjob': False, 'plain': False, 'quiet': False, 'interfaces': None, 'minthreads': None, 'timeout': 10, 'numthreads': None, 'nobanner': False}>"
p1917
asbasbasbag67
(g83
g69
NtRp1918
(dp1919
g72
(dp1920
sg81
g1828
sg74
(lp1921
g67
(g88
g69
NtRp1922
(dp1923
g72
(dp1924
g92
g93
ssg81
g1918
sg74
(lp1925
g935
asbag67
(g88
g69
NtRp1926
(dp1927
g72
(dp1928
g99
g100
ssg81
g1918
sg74
(lp1929
S':'
asbag67
(g88
g69
NtRp1930
(dp1931
g72
(dp1932
sg81
g1918
sg74
(lp1933
g67
(g68
g69
NtRp1934
(dp1935
g72
(dp1936
g80
I4
ssg81
g1930
sg74
(lp1937
S'set([])'
p1938
asbasbasbag67
(g83
g69
NtRp1939
(dp1940
g72
(dp1941
sg81
g1828
sg74
(lp1942
g67
(g88
g69
NtRp1943
(dp1944
g72
(dp1945
g92
g93
ssg81
g1939
sg74
(lp1946
g957
asbag67
(g88
g69
NtRp1947
(dp1948
g72
(dp1949
g99
g100
ssg81
g1939
sg74
(lp1950
S':'
asbag67
(g88
g69
NtRp1951
(dp1952
g72
(dp1953
sg81
g1939
sg74
(lp1954
g67
(g68
g69
NtRp1955
(dp1956
g72
(dp1957
g80
I4
ssg81
g1951
sg74
(lp1958
g110
asbasbasbag67
(g83
g69
NtRp1959
(dp1960
g72
(dp1961
sg81
g1828
sg74
(lp1962
g67
(g88
g69
NtRp1963
(dp1964
g72
(dp1965
g92
g93
ssg81
g1959
sg74
(lp1966
g978
asbag67
(g88
g69
NtRp1967
(dp1968
g72
(dp1969
g99
g100
ssg81
g1959
sg74
(lp1970
S':'
asbag67
(g88
g69
NtRp1971
(dp1972
g72
(dp1973
sg81
g1959
sg74
(lp1974
g67
(g68
g69
NtRp1975
(dp1976
g72
(dp1977
g80
I4
ssg81
g1971
sg74
(lp1978
g991
asbasbasbag67
(g83
g69
NtRp1979
(dp1980
g72
(dp1981
sg81
g1828
sg74
(lp1982
g67
(g88
g69
NtRp1983
(dp1984
g72
(dp1985
g92
g93
ssg81
g1979
sg74
(lp1986
g1154
asbag67
(g88
g69
NtRp1987
(dp1988
g72
(dp1989
g99
g100
ssg81
g1979
sg74
(lp1990
S':'
asbag67
(g88
g69
NtRp1991
(dp1992
g72
(dp1993
sg81
g1979
sg74
(lp1994
g67
(g68
g69
NtRp1995
(dp1996
g72
(dp1997
g80
I4
ssg81
g1991
sg74
(lp1998
g110
asbasbasbag67
(g83
g69
NtRp1999
(dp2000
g72
(dp2001
sg81
g1828
sg74
(lp2002
g67
(g88
g69
NtRp2003
(dp2004
g72
(dp2005
g92
g93
ssg81
g1999
sg74
(lp2006
g1392
asbag67
(g88
g69
NtRp2007
(dp2008
g72
(dp2009
g99
g100
ssg81
g1999
sg74
(lp2010
S':'
asbag67
(g88
g69
NtRp2011
(dp2012
g72
(dp2013
sg81
g1999
sg74
(lp2014
g67
(g68
g69
NtRp2015
(dp2016
g72
(dp2017
g80
I4
ssg81
g2011
sg74
(lp2018
g1405
asbasbasbag67
(g83
g69
NtRp2019
(dp2020
g72
(dp2021
sg81
g1828
sg74
(lp2022
g67
(g88
g69
NtRp2023
(dp2024
g72
(dp2025
g92
g93
ssg81
g2019
sg74
(lp2026
g1435
asbag67
(g88
g69
NtRp2027
(dp2028
g72
(dp2029
g99
g100
ssg81
g2019
sg74
(lp2030
S':'
asbag67
(g88
g69
NtRp2031
(dp2032
g72
(dp2033
sg81
g2019
sg74
(lp2034
g67
(g68
g69
NtRp2035
(dp2036
g72
(dp2037
g80
I4
ssg81
g2031
sg74
(lp2038
g67
(g76
g69
NtRp2039
(dp2040
g72
(dp2041
g80
I3
ssg81
Nsg74
(lp2042
g67
(g83
g69
NtRp2043
(dp2044
g72
(dp2045
sg81
g2039
sg74
(lp2046
g67
(g88
g69
NtRp2047
(dp2048
g72
(dp2049
sg81
g2043
sg74
(lp2050
g67
(g68
g69
NtRp2051
(dp2052
g72
(dp2053
g80
I3
ssg81
g2047
sg74
(lp2054
S'1'
asbasbasbag67
(g83
g69
NtRp2055
(dp2056
g72
(dp2057
sg81
g2039
sg74
(lp2058
g67
(g88
g69
NtRp2059
(dp2060
g72
(dp2061
sg81
g2055
sg74
(lp2062
g67
(g68
g69
NtRp2063
(dp2064
g72
(dp2065
g80
I3
ssg81
g2059
sg74
(lp2066
S'99'
p2067
asbasbasbag67
(g83
g69
NtRp2068
(dp2069
g72
(dp2070
sg81
g2039
sg74
(lp2071
g67
(g88
g69
NtRp2072
(dp2073
g72
(dp2074
sg81
g2068
sg74
(lp2075
g67
(g68
g69
NtRp2076
(dp2077
g72
(dp2078
g80
I3
ssg81
g2072
sg74
(lp2079
S'2'
asbasbasbag67
(g83
g69
NtRp2080
(dp2081
g72
(dp2082
sg81
g2039
sg74
(lp2083
g67
(g88
g69
NtRp2084
(dp2085
g72
(dp2086
sg81
g2080
sg74
(lp2087
g67
(g68
g69
NtRp2088
(dp2089
g72
(dp2090
g80
I3
ssg81
g2084
sg74
(lp2091
S'datetime.datetime(2011, 9, 26, 6, 55, 33)'
p2092
asbasbasbag67
(g83
g69
NtRp2093
(dp2094
g72
(dp2095
sg81
g2039
sg74
(lp2096
g67
(g88
g69
NtRp2097
(dp2098
g72
(dp2099
sg81
g2093
sg74
(lp2100
g67
(g68
g69
NtRp2101
(dp2102
g72
(dp2103
g80
I3
ssg81
g2097
sg74
(lp2104
g1514
asbasbasbasbasbasbasbasbasbasbasbag67
(g83
g69
NtRp2105
(dp2106
g72
(dp2107
sg81
g77
sg74
(lp2108
g67
(g88
g69
NtRp2109
(dp2110
g72
(dp2111
g92
g93
ssg81
g2105
sg74
(lp2112
S'is_https'
p2113
asbag67
(g88
g69
NtRp2114
(dp2115
g72
(dp2116
g99
g100
ssg81
g2105
sg74
(lp2117
S':'
asbag67
(g88
g69
NtRp2118
(dp2119
g72
(dp2120
sg81
g2105
sg74
(lp2121
g67
(g68
g69
NtRp2122
(dp2123
g72
(dp2124
g80
I5
ssg81
g2118
sg74
(lp2125
g110
asbasbasbag67
(g83
g69
NtRp2126
(dp2127
g72
(dp2128
sg81
g77
sg74
(lp2129
g67
(g88
g69
NtRp2130
(dp2131
g72
(dp2132
g92
g93
ssg81
g2126
sg74
(lp2133
S'is_local'
p2134
asbag67
(g88
g69
NtRp2135
(dp2136
g72
(dp2137
g99
g100
ssg81
g2126
sg74
(lp2138
S':'
asbag67
(g88
g69
NtRp2139
(dp2140
g72
(dp2141
sg81
g2126
sg74
(lp2142
g67
(g68
g69
NtRp2143
(dp2144
g72
(dp2145
g80
I5
ssg81
g2139
sg74
(lp2146
g1623
asbasbasbag67
(g83
g69
NtRp2147
(dp2148
g72
(dp2149
sg81
g77
sg74
(lp2150
g67
(g88
g69
NtRp2151
(dp2152
g72
(dp2153
g92
g93
ssg81
g2147
sg74
(lp2154
S'is_restful'
p2155
asbag67
(g88
g69
NtRp2156
(dp2157
g72
(dp2158
g99
g100
ssg81
g2147
sg74
(lp2159
S':'
asbag67
(g88
g69
NtRp2160
(dp2161
g72
(dp2162
sg81
g2147
sg74
(lp2163
g67
(g68
g69
NtRp2164
(dp2165
g72
(dp2166
g80
I5
ssg81
g2160
sg74
(lp2167
g110
asbasbasbag67
(g83
g69
NtRp2168
(dp2169
g72
(dp2170
sg81
g77
sg74
(lp2171
g67
(g88
g69
NtRp2172
(dp2173
g72
(dp2174
g92
g93
ssg81
g2168
sg74
(lp2175
S'now'
p2176
asbag67
(g88
g69
NtRp2177
(dp2178
g72
(dp2179
g99
g100
ssg81
g2168
sg74
(lp2180
S':'
asbag67
(g88
g69
NtRp2181
(dp2182
g72
(dp2183
sg81
g2168
sg74
(lp2184
g67
(g68
g69
NtRp2185
(dp2186
g72
(dp2187
g80
I5
ssg81
g2181
sg74
(lp2188
S'datetime.datetime(2012, 5, 26, 15, 1, 49, 687818)'
p2189
asbasbasbag67
(g83
g69
NtRp2190
(dp2191
g72
(dp2192
sg81
g77
sg74
(lp2193
g67
(g88
g69
NtRp2194
(dp2195
g72
(dp2196
g92
g93
ssg81
g2190
sg74
(lp2197
S'post_vars'
p2198
asbag67
(g88
g69
NtRp2199
(dp2200
g72
(dp2201
g99
g100
ssg81
g2190
sg74
(lp2202
S':'
asbag67
(g88
g69
NtRp2203
(dp2204
g72
(dp2205
sg81
g2190
sg74
(lp2206
g67
(g68
g69
NtRp2207
(dp2208
g72
(dp2209
g80
I5
ssg81
g2203
sg74
(lp2210
g67
(g76
g69
NtRp2211
(dp2212
g72
(dp2213
g80
I4
ssg81
Nsg74
(lp2214
sbasbasbasbag67
(g83
g69
NtRp2215
(dp2216
g72
(dp2217
sg81
g77
sg74
(lp2218
g67
(g88
g69
NtRp2219
(dp2220
g72
(dp2221
g92
g93
ssg81
g2215
sg74
(lp2222
S'url'
p2223
asbag67
(g88
g69
NtRp2224
(dp2225
g72
(dp2226
g99
g100
ssg81
g2215
sg74
(lp2227
S':'
asbag67
(g88
g69
NtRp2228
(dp2229
g72
(dp2230
sg81
g2215
sg74
(lp2231
g67
(g68
g69
NtRp2232
(dp2233
g72
(dp2234
g80
I5
ssg81
g2228
sg74
(lp2235
S'/streamlog/default/index'
p2236
asbasbasbag67
(g83
g69
NtRp2237
(dp2238
g72
(dp2239
sg81
g77
sg74
(lp2240
g67
(g88
g69
NtRp2241
(dp2242
g72
(dp2243
g92
g93
ssg81
g2237
sg74
(lp2244
S'utcnow'
p2245
asbag67
(g88
g69
NtRp2246
(dp2247
g72
(dp2248
g99
g100
ssg81
g2237
sg74
(lp2249
S':'
asbag67
(g88
g69
NtRp2250
(dp2251
g72
(dp2252
sg81
g2237
sg74
(lp2253
g67
(g68
g69
NtRp2254
(dp2255
g72
(dp2256
g80
I5
ssg81
g2250
sg74
(lp2257
S'datetime.datetime(2012, 5, 26, 8, 1, 49, 687842)'
p2258
asbasbasbag67
(g83
g69
NtRp2259
(dp2260
g72
(dp2261
sg81
g77
sg74
(lp2262
g67
(g88
g69
NtRp2263
(dp2264
g72
(dp2265
g92
g93
ssg81
g2259
sg74
(lp2266
S'uuid'
p2267
asbag67
(g88
g69
NtRp2268
(dp2269
g72
(dp2270
g99
g100
ssg81
g2259
sg74
(lp2271
S':'
asbag67
(g88
g69
NtRp2272
(dp2273
g72
(dp2274
sg81
g2259
sg74
(lp2275
g67
(g68
g69
NtRp2276
(dp2277
g72
(dp2278
g80
I5
ssg81
g2272
sg74
(lp2279
S'streamlog/127.0.0.1.2012-05-26.15-01-49.55956470-9acc-483e-bfb8-88257150ceac'
p2280
asbasbasbag67
(g83
g69
NtRp2281
(dp2282
g72
(dp2283
sg81
g77
sg74
(lp2284
g67
(g88
g69
NtRp2285
(dp2286
g72
(dp2287
g92
g93
ssg81
g2281
sg74
(lp2288
S'vars'
p2289
asbag67
(g88
g69
NtRp2290
(dp2291
g72
(dp2292
g99
g100
ssg81
g2281
sg74
(lp2293
S':'
asbag67
(g88
g69
NtRp2294
(dp2295
g72
(dp2296
sg81
g2281
sg74
(lp2297
g67
(g68
g69
NtRp2298
(dp2299
g72
(dp2300
g80
I5
ssg81
g2294
sg74
(lp2301
g67
(g76
g69
NtRp2302
(dp2303
g72
(dp2304
g80
I4
ssg81
Nsg74
(lp2305
sbasbasbasbag67
(g83
g69
NtRp2306
(dp2307
g72
(dp2308
sg81
g77
sg74
(lp2309
g67
(g88
g69
NtRp2310
(dp2311
g72
(dp2312
g92
g93
ssg81
g2306
sg74
(lp2313
S'wsgi'
p2314
asbag67
(g88
g69
NtRp2315
(dp2316
g72
(dp2317
g99
g100
ssg81
g2306
sg74
(lp2318
S':'
asbag67
(g88
g69
NtRp2319
(dp2320
g72
(dp2321
sg81
g2306
sg74
(lp2322
g67
(g68
g69
NtRp2323
(dp2324
g72
(dp2325
g80
I5
ssg81
g2319
sg74
(lp2326
g67
(g76
g69
NtRp2327
(dp2328
g72
(dp2329
g80
I4
ssg81
Nsg74
(lp2330
g67
(g83
g69
NtRp2331
(dp2332
g72
(dp2333
sg81
g2327
sg74
(lp2334
g67
(g88
g69
NtRp2335
(dp2336
g72
(dp2337
g92
g93
ssg81
g2331
sg74
(lp2338
S'environ'
p2339
asbag67
(g88
g69
NtRp2340
(dp2341
g72
(dp2342
g99
g100
ssg81
g2331
sg74
(lp2343
S':'
asbag67
(g88
g69
NtRp2344
(dp2345
g72
(dp2346
sg81
g2331
sg74
(lp2347
g67
(g68
g69
NtRp2348
(dp2349
g72
(dp2350
g80
I4
ssg81
g2344
sg74
(lp2351
g67
(g76
g69
NtRp2352
(dp2353
g72
(dp2354
g80
I3
ssg81
Nsg74
(lp2355
g67
(g83
g69
NtRp2356
(dp2357
g72
(dp2358
sg81
g2352
sg74
(lp2359
g67
(g88
g69
NtRp2360
(dp2361
g72
(dp2362
g92
g93
ssg81
g2356
sg74
(lp2363
S'HTTP_ACCEPT'
p2364
asbag67
(g88
g69
NtRp2365
(dp2366
g72
(dp2367
g99
g100
ssg81
g2356
sg74
(lp2368
S':'
asbag67
(g88
g69
NtRp2369
(dp2370
g72
(dp2371
sg81
g2356
sg74
(lp2372
g67
(g68
g69
NtRp2373
(dp2374
g72
(dp2375
g80
I3
ssg81
g2369
sg74
(lp2376
g1013
asbasbasbag67
(g83
g69
NtRp2377
(dp2378
g72
(dp2379
sg81
g2352
sg74
(lp2380
g67
(g88
g69
NtRp2381
(dp2382
g72
(dp2383
g92
g93
ssg81
g2377
sg74
(lp2384
S'HTTP_ACCEPT_ENCODING'
p2385
asbag67
(g88
g69
NtRp2386
(dp2387
g72
(dp2388
g99
g100
ssg81
g2377
sg74
(lp2389
S':'
asbag67
(g88
g69
NtRp2390
(dp2391
g72
(dp2392
sg81
g2377
sg74
(lp2393
g67
(g68
g69
NtRp2394
(dp2395
g72
(dp2396
g80
I3
ssg81
g2390
sg74
(lp2397
g1035
asbasbasbag67
(g83
g69
NtRp2398
(dp2399
g72
(dp2400
sg81
g2352
sg74
(lp2401
g67
(g88
g69
NtRp2402
(dp2403
g72
(dp2404
g92
g93
ssg81
g2398
sg74
(lp2405
S'HTTP_ACCEPT_LANGUAGE'
p2406
asbag67
(g88
g69
NtRp2407
(dp2408
g72
(dp2409
g99
g100
ssg81
g2398
sg74
(lp2410
S':'
asbag67
(g88
g69
NtRp2411
(dp2412
g72
(dp2413
sg81
g2398
sg74
(lp2414
g67
(g68
g69
NtRp2415
(dp2416
g72
(dp2417
g80
I3
ssg81
g2411
sg74
(lp2418
g1057
asbasbasbag67
(g83
g69
NtRp2419
(dp2420
g72
(dp2421
sg81
g2352
sg74
(lp2422
g67
(g88
g69
NtRp2423
(dp2424
g72
(dp2425
g92
g93
ssg81
g2419
sg74
(lp2426
S'HTTP_CONNECTION'
p2427
asbag67
(g88
g69
NtRp2428
(dp2429
g72
(dp2430
g99
g100
ssg81
g2419
sg74
(lp2431
S':'
asbag67
(g88
g69
NtRp2432
(dp2433
g72
(dp2434
sg81
g2419
sg74
(lp2435
g67
(g68
g69
NtRp2436
(dp2437
g72
(dp2438
g80
I3
ssg81
g2432
sg74
(lp2439
g1079
asbasbasbag67
(g83
g69
NtRp2440
(dp2441
g72
(dp2442
sg81
g2352
sg74
(lp2443
g67
(g88
g69
NtRp2444
(dp2445
g72
(dp2446
g92
g93
ssg81
g2440
sg74
(lp2447
S'HTTP_COOKIE'
p2448
asbag67
(g88
g69
NtRp2449
(dp2450
g72
(dp2451
g99
g100
ssg81
g2440
sg74
(lp2452
S':'
asbag67
(g88
g69
NtRp2453
(dp2454
g72
(dp2455
sg81
g2440
sg74
(lp2456
g67
(g68
g69
NtRp2457
(dp2458
g72
(dp2459
g80
I3
ssg81
g2453
sg74
(lp2460
g1101
asbasbasbag67
(g83
g69
NtRp2461
(dp2462
g72
(dp2463
sg81
g2352
sg74
(lp2464
g67
(g88
g69
NtRp2465
(dp2466
g72
(dp2467
g92
g93
ssg81
g2461
sg74
(lp2468
S'HTTP_HOST'
p2469
asbag67
(g88
g69
NtRp2470
(dp2471
g72
(dp2472
g99
g100
ssg81
g2461
sg74
(lp2473
S':'
asbag67
(g88
g69
NtRp2474
(dp2475
g72
(dp2476
sg81
g2461
sg74
(lp2477
g67
(g68
g69
NtRp2478
(dp2479
g72
(dp2480
g80
I3
ssg81
g2474
sg74
(lp2481
g1123
asbasbasbag67
(g83
g69
NtRp2482
(dp2483
g72
(dp2484
sg81
g2352
sg74
(lp2485
g67
(g88
g69
NtRp2486
(dp2487
g72
(dp2488
g92
g93
ssg81
g2482
sg74
(lp2489
S'HTTP_USER_AGENT'
p2490
asbag67
(g88
g69
NtRp2491
(dp2492
g72
(dp2493
g99
g100
ssg81
g2482
sg74
(lp2494
S':'
asbag67
(g88
g69
NtRp2495
(dp2496
g72
(dp2497
sg81
g2482
sg74
(lp2498
g67
(g68
g69
NtRp2499
(dp2500
g72
(dp2501
g80
I3
ssg81
g2495
sg74
(lp2502
g1145
asbasbasbag67
(g83
g69
NtRp2503
(dp2504
g72
(dp2505
sg81
g2352
sg74
(lp2506
g67
(g88
g69
NtRp2507
(dp2508
g72
(dp2509
g92
g93
ssg81
g2503
sg74
(lp2510
S'PATH_INFO'
p2511
asbag67
(g88
g69
NtRp2512
(dp2513
g72
(dp2514
g99
g100
ssg81
g2503
sg74
(lp2515
S':'
asbag67
(g88
g69
NtRp2516
(dp2517
g72
(dp2518
sg81
g2503
sg74
(lp2519
g67
(g68
g69
NtRp2520
(dp2521
g72
(dp2522
g80
I3
ssg81
g2516
sg74
(lp2523
g1188
asbasbasbag67
(g83
g69
NtRp2524
(dp2525
g72
(dp2526
sg81
g2352
sg74
(lp2527
g67
(g88
g69
NtRp2528
(dp2529
g72
(dp2530
g92
g93
ssg81
g2524
sg74
(lp2531
S'QUERY_STRING'
p2532
asbag67
(g88
g69
NtRp2533
(dp2534
g72
(dp2535
g99
g100
ssg81
g2524
sg74
(lp2536
S':'
asbag67
(g88
g69
NtRp2537
(dp2538
g72
(dp2539
sg81
g2524
sg74
(lp2540
g67
(g68
g69
NtRp2541
(dp2542
g72
(dp2543
g80
I3
ssg81
g2537
sg74
(lp2544
S''
asbasbasbag67
(g83
g69
NtRp2545
(dp2546
g72
(dp2547
sg81
g2352
sg74
(lp2548
g67
(g88
g69
NtRp2549
(dp2550
g72
(dp2551
g92
g93
ssg81
g2545
sg74
(lp2552
S'REMOTE_ADDR'
p2553
asbag67
(g88
g69
NtRp2554
(dp2555
g72
(dp2556
g99
g100
ssg81
g2545
sg74
(lp2557
S':'
asbag67
(g88
g69
NtRp2558
(dp2559
g72
(dp2560
sg81
g2545
sg74
(lp2561
g67
(g68
g69
NtRp2562
(dp2563
g72
(dp2564
g80
I3
ssg81
g2558
sg74
(lp2565
g200
asbasbasbag67
(g83
g69
NtRp2566
(dp2567
g72
(dp2568
sg81
g2352
sg74
(lp2569
g67
(g88
g69
NtRp2570
(dp2571
g72
(dp2572
g92
g93
ssg81
g2566
sg74
(lp2573
S'REMOTE_PORT'
p2574
asbag67
(g88
g69
NtRp2575
(dp2576
g72
(dp2577
g99
g100
ssg81
g2566
sg74
(lp2578
S':'
asbag67
(g88
g69
NtRp2579
(dp2580
g72
(dp2581
sg81
g2566
sg74
(lp2582
g67
(g68
g69
NtRp2583
(dp2584
g72
(dp2585
g80
I3
ssg81
g2579
sg74
(lp2586
g1252
asbasbasbag67
(g83
g69
NtRp2587
(dp2588
g72
(dp2589
sg81
g2352
sg74
(lp2590
g67
(g88
g69
NtRp2591
(dp2592
g72
(dp2593
g92
g93
ssg81
g2587
sg74
(lp2594
S'REQUEST_METHOD'
p2595
asbag67
(g88
g69
NtRp2596
(dp2597
g72
(dp2598
g99
g100
ssg81
g2587
sg74
(lp2599
S':'
asbag67
(g88
g69
NtRp2600
(dp2601
g72
(dp2602
sg81
g2587
sg74
(lp2603
g67
(g68
g69
NtRp2604
(dp2605
g72
(dp2606
g80
I3
ssg81
g2600
sg74
(lp2607
g1274
asbasbasbag67
(g83
g69
NtRp2608
(dp2609
g72
(dp2610
sg81
g2352
sg74
(lp2611
g67
(g88
g69
NtRp2612
(dp2613
g72
(dp2614
g92
g93
ssg81
g2608
sg74
(lp2615
S'SCRIPT_NAME'
p2616
asbag67
(g88
g69
NtRp2617
(dp2618
g72
(dp2619
g99
g100
ssg81
g2608
sg74
(lp2620
S':'
asbag67
(g88
g69
NtRp2621
(dp2622
g72
(dp2623
sg81
g2608
sg74
(lp2624
g67
(g68
g69
NtRp2625
(dp2626
g72
(dp2627
g80
I3
ssg81
g2621
sg74
(lp2628
S''
asbasbasbag67
(g83
g69
NtRp2629
(dp2630
g72
(dp2631
sg81
g2352
sg74
(lp2632
g67
(g88
g69
NtRp2633
(dp2634
g72
(dp2635
g92
g93
ssg81
g2629
sg74
(lp2636
S'SERVER_NAME'
p2637
asbag67
(g88
g69
NtRp2638
(dp2639
g72
(dp2640
g99
g100
ssg81
g2629
sg74
(lp2641
S':'
asbag67
(g88
g69
NtRp2642
(dp2643
g72
(dp2644
sg81
g2629
sg74
(lp2645
g67
(g68
g69
NtRp2646
(dp2647
g72
(dp2648
g80
I3
ssg81
g2642
sg74
(lp2649
g1317
asbasbasbag67
(g83
g69
NtRp2650
(dp2651
g72
(dp2652
sg81
g2352
sg74
(lp2653
g67
(g88
g69
NtRp2654
(dp2655
g72
(dp2656
g92
g93
ssg81
g2650
sg74
(lp2657
S'SERVER_PORT'
p2658
asbag67
(g88
g69
NtRp2659
(dp2660
g72
(dp2661
g99
g100
ssg81
g2650
sg74
(lp2662
S':'
asbag67
(g88
g69
NtRp2663
(dp2664
g72
(dp2665
sg81
g2650
sg74
(lp2666
g67
(g68
g69
NtRp2667
(dp2668
g72
(dp2669
g80
I3
ssg81
g2663
sg74
(lp2670
g1339
asbasbasbag67
(g83
g69
NtRp2671
(dp2672
g72
(dp2673
sg81
g2352
sg74
(lp2674
g67
(g88
g69
NtRp2675
(dp2676
g72
(dp2677
g92
g93
ssg81
g2671
sg74
(lp2678
S'SERVER_PROTOCOL'
p2679
asbag67
(g88
g69
NtRp2680
(dp2681
g72
(dp2682
g99
g100
ssg81
g2671
sg74
(lp2683
S':'
asbag67
(g88
g69
NtRp2684
(dp2685
g72
(dp2686
sg81
g2671
sg74
(lp2687
g67
(g68
g69
NtRp2688
(dp2689
g72
(dp2690
g80
I3
ssg81
g2684
sg74
(lp2691
g1361
asbasbasbag67
(g83
g69
NtRp2692
(dp2693
g72
(dp2694
sg81
g2352
sg74
(lp2695
g67
(g88
g69
NtRp2696
(dp2697
g72
(dp2698
g92
g93
ssg81
g2692
sg74
(lp2699
S'SERVER_SOFTWARE'
p2700
asbag67
(g88
g69
NtRp2701
(dp2702
g72
(dp2703
g99
g100
ssg81
g2692
sg74
(lp2704
S':'
asbag67
(g88
g69
NtRp2705
(dp2706
g72
(dp2707
sg81
g2692
sg74
(lp2708
g67
(g68
g69
NtRp2709
(dp2710
g72
(dp2711
g80
I3
ssg81
g2705
sg74
(lp2712
g1383
asbasbasbag67
(g83
g69
NtRp2713
(dp2714
g72
(dp2715
sg81
g2352
sg74
(lp2716
g67
(g88
g69
NtRp2717
(dp2718
g72
(dp2719
g92
g93
ssg81
g2713
sg74
(lp2720
S'wsgi.errors'
p2721
asbag67
(g88
g69
NtRp2722
(dp2723
g72
(dp2724
g99
g100
ssg81
g2713
sg74
(lp2725
S':'
asbag67
(g88
g69
NtRp2726
(dp2727
g72
(dp2728
sg81
g2713
sg74
(lp2729
g67
(g68
g69
NtRp2730
(dp2731
g72
(dp2732
g80
I3
ssg81
g2726
sg74
(lp2733
S"<open file '<stderr>', mode 'w' at 0x7f84db3ff270>"
p2734
asbasbasbag67
(g83
g69
NtRp2735
(dp2736
g72
(dp2737
sg81
g2352
sg74
(lp2738
g67
(g88
g69
NtRp2739
(dp2740
g72
(dp2741
g92
g93
ssg81
g2735
sg74
(lp2742
S'wsgi.file_wrapper'
p2743
asbag67
(g88
g69
NtRp2744
(dp2745
g72
(dp2746
g99
g100
ssg81
g2735
sg74
(lp2747
S':'
asbag67
(g88
g69
NtRp2748
(dp2749
g72
(dp2750
sg81
g2735
sg74
(lp2751
g67
(g68
g69
NtRp2752
(dp2753
g72
(dp2754
g80
I3
ssg81
g2748
sg74
(lp2755
S'<class wsgiref.util.FileWrapper at 0x1b96d50>'
p2756
asbasbasbag67
(g83
g69
NtRp2757
(dp2758
g72
(dp2759
sg81
g2352
sg74
(lp2760
g67
(g88
g69
NtRp2761
(dp2762
g72
(dp2763
g92
g93
ssg81
g2757
sg74
(lp2764
S'wsgi.input'
p2765
asbag67
(g88
g69
NtRp2766
(dp2767
g72
(dp2768
g99
g100
ssg81
g2757
sg74
(lp2769
S':'
asbag67
(g88
g69
NtRp2770
(dp2771
g72
(dp2772
sg81
g2757
sg74
(lp2773
g67
(g68
g69
NtRp2774
(dp2775
g72
(dp2776
g80
I3
ssg81
g2770
sg74
(lp2777
S'<cStringIO.StringO object at 0x22306c0>'
p2778
asbasbasbag67
(g83
g69
NtRp2779
(dp2780
g72
(dp2781
sg81
g2352
sg74
(lp2782
g67
(g88
g69
NtRp2783
(dp2784
g72
(dp2785
g92
g93
ssg81
g2779
sg74
(lp2786
S'wsgi.multiprocess'
p2787
asbag67
(g88
g69
NtRp2788
(dp2789
g72
(dp2790
g99
g100
ssg81
g2779
sg74
(lp2791
S':'
asbag67
(g88
g69
NtRp2792
(dp2793
g72
(dp2794
sg81
g2779
sg74
(lp2795
g67
(g68
g69
NtRp2796
(dp2797
g72
(dp2798
g80
I3
ssg81
g2792
sg74
(lp2799
g110
asbasbasbag67
(g83
g69
NtRp2800
(dp2801
g72
(dp2802
sg81
g2352
sg74
(lp2803
g67
(g88
g69
NtRp2804
(dp2805
g72
(dp2806
g92
g93
ssg81
g2800
sg74
(lp2807
S'wsgi.multithread'
p2808
asbag67
(g88
g69
NtRp2809
(dp2810
g72
(dp2811
g99
g100
ssg81
g2800
sg74
(lp2812
S':'
asbag67
(g88
g69
NtRp2813
(dp2814
g72
(dp2815
sg81
g2800
sg74
(lp2816
g67
(g68
g69
NtRp2817
(dp2818
g72
(dp2819
g80
I3
ssg81
g2813
sg74
(lp2820
g1623
asbasbasbag67
(g83
g69
NtRp2821
(dp2822
g72
(dp2823
sg81
g2352
sg74
(lp2824
g67
(g88
g69
NtRp2825
(dp2826
g72
(dp2827
g92
g93
ssg81
g2821
sg74
(lp2828
S'wsgi.run_once'
p2829
asbag67
(g88
g69
NtRp2830
(dp2831
g72
(dp2832
g99
g100
ssg81
g2821
sg74
(lp2833
S':'
asbag67
(g88
g69
NtRp2834
(dp2835
g72
(dp2836
sg81
g2821
sg74
(lp2837
g67
(g68
g69
NtRp2838
(dp2839
g72
(dp2840
g80
I3
ssg81
g2834
sg74
(lp2841
g110
asbasbasbag67
(g83
g69
NtRp2842
(dp2843
g72
(dp2844
sg81
g2352
sg74
(lp2845
g67
(g88
g69
NtRp2846
(dp2847
g72
(dp2848
g92
g93
ssg81
g2842
sg74
(lp2849
S'wsgi.url_scheme'
p2850
asbag67
(g88
g69
NtRp2851
(dp2852
g72
(dp2853
g99
g100
ssg81
g2842
sg74
(lp2854
S':'
asbag67
(g88
g69
NtRp2855
(dp2856
g72
(dp2857
sg81
g2842
sg74
(lp2858
g67
(g68
g69
NtRp2859
(dp2860
g72
(dp2861
g80
I3
ssg81
g2855
sg74
(lp2862
g1666
asbasbasbag67
(g83
g69
NtRp2863
(dp2864
g72
(dp2865
sg81
g2352
sg74
(lp2866
g67
(g88
g69
NtRp2867
(dp2868
g72
(dp2869
g92
g93
ssg81
g2863
sg74
(lp2870
S'wsgi.version'
p2871
asbag67
(g88
g69
NtRp2872
(dp2873
g72
(dp2874
g99
g100
ssg81
g2863
sg74
(lp2875
S':'
asbag67
(g88
g69
NtRp2876
(dp2877
g72
(dp2878
sg81
g2863
sg74
(lp2879
g67
(g68
g69
NtRp2880
(dp2881
g72
(dp2882
g80
I3
ssg81
g2876
sg74
(lp2883
S'1'
asbasbasbasbasbasbasbasbasbasbasbasbasbsS'frames'
p2884
(lp2885
(dp2886
S'file'
p2887
S'/home/jose/DESARROLLO/web2py199/gluon/restricted.py'
p2888
sS'dump'
p2889
(dp2890
S'code'
p2891
S"'# -*- coding: utf-8 -*-\\n# this file is released ...###############################################\\n\\n'"
p2892
sS'layer'
p2893
S"'/home/jose/DESARROLLO/web2py199/applications/streamlog/models/menu.py'"
p2894
sS'global compile2'
p2895
S'<function compile2>'
p2896
sS'ccode'
p2897
S'undefined'
p2898
ssS'lnum'
p2899
I193
sS'lines'
p2900
(dp2901
I192
S'        else:'
p2902
sI193
S'            ccode = compile2(code,layer)'
p2903
sI194
S'        exec ccode in environment'
p2904
sI195
S'    except HTTP:'
p2905
sI196
S'        raise'
p2906
sI197
S'    except Exception, error:'
p2907
sI188
S"    environment['__file__'] = layer"
p2908
sI189
S'    try:'
p2909
sI190
S'        if type(code) == types.CodeType:'
p2910
sI191
S'            ccode = code'
p2911
ssS'call'
p2912
S"(code='# -*- coding: utf-8 -*-\\n# this file is released ...###############################################\\n\\n', environment={'A': <class 'gluon.html.A'>, 'Auth': <class 'gluon.tools.Auth'>, 'B': <class 'gluon.html.B'>, 'BEAUTIFY': <class 'gluon.html.BEAUTIFY'>, 'BODY': <class 'gluon.html.BODY'>, 'BR': <class 'gluon.html.BR'>, 'BUTTON': <class 'gluon.html.BUTTON'>, 'CAT': <class 'gluon.html.CAT'>, 'CENTER': <class 'gluon.html.CENTER'>, 'CLEANUP': <class 'gluon.validators.CLEANUP'>, ...}, layer='/home/jose/DESARROLLO/web2py199/applications/streamlog/models/menu.py')"
p2913
sS'func'
p2914
S'restricted'
p2915
sa(dp2916
g2887
S'/home/jose/DESARROLLO/web2py199/gluon/restricted.py'
p2917
sg2889
(dp2918
S'builtincompile'
p2919
S'<built-in function compile>'
p2920
sS'code'
p2921
S"'# -*- coding: utf-8 -*-\\n# this file is released ...###############################################\\n\\n'"
p2922
sS'code.rstrip'
p2923
S'<built-in method rstrip of str object>'
p2924
sS').replace'
p2925
g2898
sS'layer'
p2926
S"'/home/jose/DESARROLLO/web2py199/applications/streamlog/models/menu.py'"
p2927
ssg2899
I179
sg2900
(dp2928
I174
S''
sI175
S'def compile2(code,layer):'
p2929
sI176
S'    """'
p2930
sI177
S"    The +'\\n' is necessary else compile fails when code ends in a comment."
p2931
sI178
S'    """'
p2932
sI179
S"    return compile(code.rstrip().replace('\\r\\n','\\n')+'\\n', layer, 'exec')"
p2933
sI180
S''
sI181
S"def restricted(code, environment=None, layer='Unknown'):"
p2934
sI182
S'    """'
p2935
sI183
S'    runs code in environment and returns the output. if an exception occurs'
p2936
ssg2912
S"(code='# -*- coding: utf-8 -*-\\n# this file is released ...###############################################\\n\\n', layer='/home/jose/DESARROLLO/web2py199/applications/streamlog/models/menu.py')"
p2937
sg2914
S'compile2'
p2938
sasS'pyver'
p2939
S'Python 2.7.2+: /usr/bin/python'
p2940
sS'session'
p2941
g67
(g68
g69
NtRp2942
(dp2943
g72
(dp2944
sg74
(lp2945
g67
(g76
g69
NtRp2946
(dp2947
g72
(dp2948
g80
I5
ssg81
Nsg74
(lp2949
g67
(g83
g69
NtRp2950
(dp2951
g72
(dp2952
sg81
g2946
sg74
(lp2953
g67
(g88
g69
NtRp2954
(dp2955
g72
(dp2956
g92
g93
ssg81
g2950
sg74
(lp2957
S'auth'
p2958
asbag67
(g88
g69
NtRp2959
(dp2960
g72
(dp2961
g99
g100
ssg81
g2950
sg74
(lp2962
S':'
asbag67
(g88
g69
NtRp2963
(dp2964
g72
(dp2965
sg81
g2950
sg74
(lp2966
g67
(g68
g69
NtRp2967
(dp2968
g72
(dp2969
g80
I5
ssg81
g2963
sg74
(lp2970
g67
(g76
g69
NtRp2971
(dp2972
g72
(dp2973
g80
I4
ssg81
Nsg74
(lp2974
g67
(g83
g69
NtRp2975
(dp2976
g72
(dp2977
sg81
g2971
sg74
(lp2978
g67
(g88
g69
NtRp2979
(dp2980
g72
(dp2981
g92
g93
ssg81
g2975
sg74
(lp2982
S'expiration'
p2983
asbag67
(g88
g69
NtRp2984
(dp2985
g72
(dp2986
g99
g100
ssg81
g2975
sg74
(lp2987
S':'
asbag67
(g88
g69
NtRp2988
(dp2989
g72
(dp2990
sg81
g2975
sg74
(lp2991
g67
(g68
g69
NtRp2992
(dp2993
g72
(dp2994
g80
I4
ssg81
g2988
sg74
(lp2995
S'3600'
p2996
asbasbasbag67
(g83
g69
NtRp2997
(dp2998
g72
(dp2999
sg81
g2971
sg74
(lp3000
g67
(g88
g69
NtRp3001
(dp3002
g72
(dp3003
g92
g93
ssg81
g2997
sg74
(lp3004
S'hmac_key'
p3005
asbag67
(g88
g69
NtRp3006
(dp3007
g72
(dp3008
g99
g100
ssg81
g2997
sg74
(lp3009
S':'
asbag67
(g88
g69
NtRp3010
(dp3011
g72
(dp3012
sg81
g2997
sg74
(lp3013
g67
(g68
g69
NtRp3014
(dp3015
g72
(dp3016
g80
I4
ssg81
g3010
sg74
(lp3017
S'4939d400-e4c9-4a5c-be3b-b030e1657229'
p3018
asbasbasbag67
(g83
g69
NtRp3019
(dp3020
g72
(dp3021
sg81
g2971
sg74
(lp3022
g67
(g88
g69
NtRp3023
(dp3024
g72
(dp3025
g92
g93
ssg81
g3019
sg74
(lp3026
S'last_visit'
p3027
asbag67
(g88
g69
NtRp3028
(dp3029
g72
(dp3030
g99
g100
ssg81
g3019
sg74
(lp3031
S':'
asbag67
(g88
g69
NtRp3032
(dp3033
g72
(dp3034
sg81
g3019
sg74
(lp3035
g67
(g68
g69
NtRp3036
(dp3037
g72
(dp3038
g80
I4
ssg81
g3032
sg74
(lp3039
S'datetime.datetime(2012, 5, 26, 14, 58, 39, 171153)'
p3040
asbasbasbag67
(g83
g69
NtRp3041
(dp3042
g72
(dp3043
sg81
g2971
sg74
(lp3044
g67
(g88
g69
NtRp3045
(dp3046
g72
(dp3047
g92
g93
ssg81
g3041
sg74
(lp3048
S'user'
p3049
asbag67
(g88
g69
NtRp3050
(dp3051
g72
(dp3052
g99
g100
ssg81
g3041
sg74
(lp3053
S':'
asbag67
(g88
g69
NtRp3054
(dp3055
g72
(dp3056
sg81
g3041
sg74
(lp3057
g67
(g68
g69
NtRp3058
(dp3059
g72
(dp3060
g80
I4
ssg81
g3054
sg74
(lp3061
g67
(g76
g69
NtRp3062
(dp3063
g72
(dp3064
g80
I3
ssg81
Nsg74
(lp3065
g67
(g83
g69
NtRp3066
(dp3067
g72
(dp3068
sg81
g3062
sg74
(lp3069
g67
(g88
g69
NtRp3070
(dp3071
g72
(dp3072
g92
g93
ssg81
g3066
sg74
(lp3073
S'email'
p3074
asbag67
(g88
g69
NtRp3075
(dp3076
g72
(dp3077
g99
g100
ssg81
g3066
sg74
(lp3078
S':'
asbag67
(g88
g69
NtRp3079
(dp3080
g72
(dp3081
sg81
g3066
sg74
(lp3082
g67
(g68
g69
NtRp3083
(dp3084
g72
(dp3085
g80
I3
ssg81
g3079
sg74
(lp3086
S'josedesoto@gmail.com'
p3087
asbasbasbag67
(g83
g69
NtRp3088
(dp3089
g72
(dp3090
sg81
g3062
sg74
(lp3091
g67
(g88
g69
NtRp3092
(dp3093
g72
(dp3094
g92
g93
ssg81
g3088
sg74
(lp3095
S'first_name'
p3096
asbag67
(g88
g69
NtRp3097
(dp3098
g72
(dp3099
g99
g100
ssg81
g3088
sg74
(lp3100
S':'
asbag67
(g88
g69
NtRp3101
(dp3102
g72
(dp3103
sg81
g3088
sg74
(lp3104
g67
(g68
g69
NtRp3105
(dp3106
g72
(dp3107
g80
I3
ssg81
g3101
sg74
(lp3108
S'jose'
p3109
asbasbasbag67
(g83
g69
NtRp3110
(dp3111
g72
(dp3112
sg81
g3062
sg74
(lp3113
g67
(g88
g69
NtRp3114
(dp3115
g72
(dp3116
g92
g93
ssg81
g3110
sg74
(lp3117
S'id'
p3118
asbag67
(g88
g69
NtRp3119
(dp3120
g72
(dp3121
g99
g100
ssg81
g3110
sg74
(lp3122
S':'
asbag67
(g88
g69
NtRp3123
(dp3124
g72
(dp3125
sg81
g3110
sg74
(lp3126
g67
(g68
g69
NtRp3127
(dp3128
g72
(dp3129
g80
I3
ssg81
g3123
sg74
(lp3130
S'1'
asbasbasbag67
(g83
g69
NtRp3131
(dp3132
g72
(dp3133
sg81
g3062
sg74
(lp3134
g67
(g88
g69
NtRp3135
(dp3136
g72
(dp3137
g92
g93
ssg81
g3131
sg74
(lp3138
S'last_name'
p3139
asbag67
(g88
g69
NtRp3140
(dp3141
g72
(dp3142
g99
g100
ssg81
g3131
sg74
(lp3143
S':'
asbag67
(g88
g69
NtRp3144
(dp3145
g72
(dp3146
sg81
g3131
sg74
(lp3147
g67
(g68
g69
NtRp3148
(dp3149
g72
(dp3150
g80
I3
ssg81
g3144
sg74
(lp3151
S'jose'
p3152
asbasbasbag67
(g83
g69
NtRp3153
(dp3154
g72
(dp3155
sg81
g3062
sg74
(lp3156
g67
(g88
g69
NtRp3157
(dp3158
g72
(dp3159
g92
g93
ssg81
g3153
sg74
(lp3160
S'password'
p3161
asbag67
(g88
g69
NtRp3162
(dp3163
g72
(dp3164
g99
g100
ssg81
g3153
sg74
(lp3165
S':'
asbag67
(g88
g69
NtRp3166
(dp3167
g72
(dp3168
sg81
g3153
sg74
(lp3169
g67
(g68
g69
NtRp3170
(dp3171
g72
(dp3172
g80
I3
ssg81
g3166
sg74
(lp3173
S'2b32eaa2baa0c63b755a4cde1e4dda83'
p3174
asbasbasbag67
(g83
g69
NtRp3175
(dp3176
g72
(dp3177
sg81
g3062
sg74
(lp3178
g67
(g88
g69
NtRp3179
(dp3180
g72
(dp3181
g92
g93
ssg81
g3175
sg74
(lp3182
S'registration_key'
p3183
asbag67
(g88
g69
NtRp3184
(dp3185
g72
(dp3186
g99
g100
ssg81
g3175
sg74
(lp3187
S':'
asbag67
(g88
g69
NtRp3188
(dp3189
g72
(dp3190
sg81
g3175
sg74
(lp3191
g67
(g68
g69
NtRp3192
(dp3193
g72
(dp3194
g80
I3
ssg81
g3188
sg74
(lp3195
S''
asbasbasbag67
(g83
g69
NtRp3196
(dp3197
g72
(dp3198
sg81
g3062
sg74
(lp3199
g67
(g88
g69
NtRp3200
(dp3201
g72
(dp3202
g92
g93
ssg81
g3196
sg74
(lp3203
S'reset_password_key'
p3204
asbag67
(g88
g69
NtRp3205
(dp3206
g72
(dp3207
g99
g100
ssg81
g3196
sg74
(lp3208
S':'
asbag67
(g88
g69
NtRp3209
(dp3210
g72
(dp3211
sg81
g3196
sg74
(lp3212
g67
(g68
g69
NtRp3213
(dp3214
g72
(dp3215
g80
I3
ssg81
g3209
sg74
(lp3216
S''
asbasbasbasbasbasbasbasbasbasbasbag67
(g83
g69
NtRp3217
(dp3218
g72
(dp3219
sg81
g2946
sg74
(lp3220
g67
(g88
g69
NtRp3221
(dp3222
g72
(dp3223
g92
g93
ssg81
g3217
sg74
(lp3224
S'last_query'
p3225
asbag67
(g88
g69
NtRp3226
(dp3227
g72
(dp3228
g99
g100
ssg81
g3217
sg74
(lp3229
S':'
asbag67
(g88
g69
NtRp3230
(dp3231
g72
(dp3232
sg81
g3217
sg74
(lp3233
g67
(g68
g69
NtRp3234
(dp3235
g72
(dp3236
g80
I5
ssg81
g3230
sg74
(lp3237
S'(db.t_project.user==me)&(db.t_server.project==db.t_project.id)'
p3238
asbasbasbasbasbsS'etype'
p3239
S"<type 'exceptions.SyntaxError'>"
p3240
sS'date'
p3241
S'Sat May 26 15:01:49 2012'
p3242
sS'response'
p3243
g67
(g68
g69
NtRp3244
(dp3245
g72
(dp3246
sg74
(lp3247
g67
(g76
g69
NtRp3248
(dp3249
g72
(dp3250
g80
I5
ssg81
Nsg74
(lp3251
g67
(g83
g69
NtRp3252
(dp3253
g72
(dp3254
sg81
g3248
sg74
(lp3255
g67
(g88
g69
NtRp3256
(dp3257
g72
(dp3258
g92
g93
ssg81
g3252
sg74
(lp3259
g165
asbag67
(g88
g69
NtRp3260
(dp3261
g72
(dp3262
g99
g100
ssg81
g3252
sg74
(lp3263
S':'
asbag67
(g88
g69
NtRp3264
(dp3265
g72
(dp3266
sg81
g3252
sg74
(lp3267
g67
(g68
g69
NtRp3268
(dp3269
g72
(dp3270
g80
I5
ssg81
g3264
sg74
(lp3271
S'<cStringIO.StringO object at 0x22303e8>'
p3272
asbasbasbag67
(g83
g69
NtRp3273
(dp3274
g72
(dp3275
sg81
g3248
sg74
(lp3276
g67
(g88
g69
NtRp3277
(dp3278
g72
(dp3279
g92
g93
ssg81
g3273
sg74
(lp3280
g231
asbag67
(g88
g69
NtRp3281
(dp3282
g72
(dp3283
g99
g100
ssg81
g3273
sg74
(lp3284
S':'
asbag67
(g88
g69
NtRp3285
(dp3286
g72
(dp3287
sg81
g3273
sg74
(lp3288
g67
(g68
g69
NtRp3289
(dp3290
g72
(dp3291
g80
I5
ssg81
g3285
sg74
(lp3292
g67
(g76
g69
NtRp3293
(dp3294
g72
(dp3295
g80
I4
ssg81
Nsg74
(lp3296
g67
(g83
g69
NtRp3297
(dp3298
g72
(dp3299
sg81
g3293
sg74
(lp3300
g67
(g88
g69
NtRp3301
(dp3302
g72
(dp3303
g92
g93
ssg81
g3297
sg74
(lp3304
S'session_id_streamlog'
p3305
asbag67
(g88
g69
NtRp3306
(dp3307
g72
(dp3308
g99
g100
ssg81
g3297
sg74
(lp3309
S':'
asbag67
(g88
g69
NtRp3310
(dp3311
g72
(dp3312
sg81
g3297
sg74
(lp3313
g67
(g68
g69
NtRp3314
(dp3315
g72
(dp3316
g80
I4
ssg81
g3310
sg74
(lp3317
g67
(g76
g69
NtRp3318
(dp3319
g72
(dp3320
g80
I3
ssg81
Nsg74
(lp3321
g67
(g83
g69
NtRp3322
(dp3323
g72
(dp3324
sg81
g3318
sg74
(lp3325
g67
(g88
g69
NtRp3326
(dp3327
g72
(dp3328
g92
g93
ssg81
g3322
sg74
(lp3329
g281
asbag67
(g88
g69
NtRp3330
(dp3331
g72
(dp3332
g99
g100
ssg81
g3322
sg74
(lp3333
S':'
asbag67
(g88
g69
NtRp3334
(dp3335
g72
(dp3336
sg81
g3322
sg74
(lp3337
g67
(g68
g69
NtRp3338
(dp3339
g72
(dp3340
g80
I3
ssg81
g3334
sg74
(lp3341
S''
asbasbasbag67
(g83
g69
NtRp3342
(dp3343
g72
(dp3344
sg81
g3318
sg74
(lp3345
g67
(g88
g69
NtRp3346
(dp3347
g72
(dp3348
g92
g93
ssg81
g3342
sg74
(lp3349
g302
asbag67
(g88
g69
NtRp3350
(dp3351
g72
(dp3352
g99
g100
ssg81
g3342
sg74
(lp3353
S':'
asbag67
(g88
g69
NtRp3354
(dp3355
g72
(dp3356
sg81
g3342
sg74
(lp3357
g67
(g68
g69
NtRp3358
(dp3359
g72
(dp3360
g80
I3
ssg81
g3354
sg74
(lp3361
S''
asbasbasbag67
(g83
g69
NtRp3362
(dp3363
g72
(dp3364
sg81
g3318
sg74
(lp3365
g67
(g88
g69
NtRp3366
(dp3367
g72
(dp3368
g92
g93
ssg81
g3362
sg74
(lp3369
g323
asbag67
(g88
g69
NtRp3370
(dp3371
g72
(dp3372
g99
g100
ssg81
g3362
sg74
(lp3373
S':'
asbag67
(g88
g69
NtRp3374
(dp3375
g72
(dp3376
sg81
g3362
sg74
(lp3377
g67
(g68
g69
NtRp3378
(dp3379
g72
(dp3380
g80
I3
ssg81
g3374
sg74
(lp3381
S''
asbasbasbag67
(g83
g69
NtRp3382
(dp3383
g72
(dp3384
sg81
g3318
sg74
(lp3385
g67
(g88
g69
NtRp3386
(dp3387
g72
(dp3388
g92
g93
ssg81
g3382
sg74
(lp3389
g344
asbag67
(g88
g69
NtRp3390
(dp3391
g72
(dp3392
g99
g100
ssg81
g3382
sg74
(lp3393
S':'
asbag67
(g88
g69
NtRp3394
(dp3395
g72
(dp3396
sg81
g3382
sg74
(lp3397
g67
(g68
g69
NtRp3398
(dp3399
g72
(dp3400
g80
I3
ssg81
g3394
sg74
(lp3401
S''
asbasbasbag67
(g83
g69
NtRp3402
(dp3403
g72
(dp3404
sg81
g3318
sg74
(lp3405
g67
(g88
g69
NtRp3406
(dp3407
g72
(dp3408
g92
g93
ssg81
g3402
sg74
(lp3409
g365
asbag67
(g88
g69
NtRp3410
(dp3411
g72
(dp3412
g99
g100
ssg81
g3402
sg74
(lp3413
S':'
asbag67
(g88
g69
NtRp3414
(dp3415
g72
(dp3416
sg81
g3402
sg74
(lp3417
g67
(g68
g69
NtRp3418
(dp3419
g72
(dp3420
g80
I3
ssg81
g3414
sg74
(lp3421
S''
asbasbasbag67
(g83
g69
NtRp3422
(dp3423
g72
(dp3424
sg81
g3318
sg74
(lp3425
g67
(g88
g69
NtRp3426
(dp3427
g72
(dp3428
g92
g93
ssg81
g3422
sg74
(lp3429
g386
asbag67
(g88
g69
NtRp3430
(dp3431
g72
(dp3432
g99
g100
ssg81
g3422
sg74
(lp3433
S':'
asbag67
(g88
g69
NtRp3434
(dp3435
g72
(dp3436
sg81
g3422
sg74
(lp3437
g67
(g68
g69
NtRp3438
(dp3439
g72
(dp3440
g80
I3
ssg81
g3434
sg74
(lp3441
S'/'
asbasbasbag67
(g83
g69
NtRp3442
(dp3443
g72
(dp3444
sg81
g3318
sg74
(lp3445
g67
(g88
g69
NtRp3446
(dp3447
g72
(dp3448
g92
g93
ssg81
g3442
sg74
(lp3449
g407
asbag67
(g88
g69
NtRp3450
(dp3451
g72
(dp3452
g99
g100
ssg81
g3442
sg74
(lp3453
S':'
asbag67
(g88
g69
NtRp3454
(dp3455
g72
(dp3456
sg81
g3442
sg74
(lp3457
g67
(g68
g69
NtRp3458
(dp3459
g72
(dp3460
g80
I3
ssg81
g3454
sg74
(lp3461
S''
asbasbasbag67
(g83
g69
NtRp3462
(dp3463
g72
(dp3464
sg81
g3318
sg74
(lp3465
g67
(g88
g69
NtRp3466
(dp3467
g72
(dp3468
g92
g93
ssg81
g3462
sg74
(lp3469
g428
asbag67
(g88
g69
NtRp3470
(dp3471
g72
(dp3472
g99
g100
ssg81
g3462
sg74
(lp3473
S':'
asbag67
(g88
g69
NtRp3474
(dp3475
g72
(dp3476
sg81
g3462
sg74
(lp3477
g67
(g68
g69
NtRp3478
(dp3479
g72
(dp3480
g80
I3
ssg81
g3474
sg74
(lp3481
S''
asbasbasbasbasbasbasbasbasbasbasbag67
(g83
g69
NtRp3482
(dp3483
g72
(dp3484
sg81
g3248
sg74
(lp3485
g67
(g88
g69
NtRp3486
(dp3487
g72
(dp3488
g92
g93
ssg81
g3482
sg74
(lp3489
S'files'
p3490
asbag67
(g88
g69
NtRp3491
(dp3492
g72
(dp3493
g99
g100
ssg81
g3482
sg74
(lp3494
S':'
asbag67
(g88
g69
NtRp3495
(dp3496
g72
(dp3497
sg81
g3482
sg74
(lp3498
g67
(g68
g69
NtRp3499
(dp3500
g72
(dp3501
g80
I5
ssg81
g3495
sg74
(lp3502
g67
(g76
g69
NtRp3503
(dp3504
g72
(dp3505
g80
I4
ssg81
Nsg74
(lp3506
sbasbasbasbag67
(g83
g69
NtRp3507
(dp3508
g72
(dp3509
sg81
g3248
sg74
(lp3510
g67
(g88
g69
NtRp3511
(dp3512
g72
(dp3513
g92
g93
ssg81
g3507
sg74
(lp3514
S'flash'
p3515
asbag67
(g88
g69
NtRp3516
(dp3517
g72
(dp3518
g99
g100
ssg81
g3507
sg74
(lp3519
S':'
asbag67
(g88
g69
NtRp3520
(dp3521
g72
(dp3522
sg81
g3507
sg74
(lp3523
g67
(g68
g69
NtRp3524
(dp3525
g72
(dp3526
g80
I5
ssg81
g3520
sg74
(lp3527
S''
asbasbasbag67
(g83
g69
NtRp3528
(dp3529
g72
(dp3530
sg81
g3248
sg74
(lp3531
g67
(g88
g69
NtRp3532
(dp3533
g72
(dp3534
g92
g93
ssg81
g3528
sg74
(lp3535
S'generic_patterns'
p3536
asbag67
(g88
g69
NtRp3537
(dp3538
g72
(dp3539
g99
g100
ssg81
g3528
sg74
(lp3540
S':'
asbag67
(g88
g69
NtRp3541
(dp3542
g72
(dp3543
sg81
g3528
sg74
(lp3544
g67
(g68
g69
NtRp3545
(dp3546
g72
(dp3547
g80
I5
ssg81
g3541
sg74
(lp3548
g67
(g76
g69
NtRp3549
(dp3550
g72
(dp3551
g80
I4
ssg81
Nsg74
(lp3552
g67
(g83
g69
NtRp3553
(dp3554
g72
(dp3555
sg81
g3549
sg74
(lp3556
g67
(g88
g69
NtRp3557
(dp3558
g72
(dp3559
sg81
g3553
sg74
(lp3560
g67
(g68
g69
NtRp3561
(dp3562
g72
(dp3563
g80
I4
ssg81
g3557
sg74
(lp3564
S'*'
asbasbasbasbasbasbasbag67
(g83
g69
NtRp3565
(dp3566
g72
(dp3567
sg81
g3248
sg74
(lp3568
g67
(g88
g69
NtRp3569
(dp3570
g72
(dp3571
g92
g93
ssg81
g3565
sg74
(lp3572
S'headers'
p3573
asbag67
(g88
g69
NtRp3574
(dp3575
g72
(dp3576
g99
g100
ssg81
g3565
sg74
(lp3577
S':'
asbag67
(g88
g69
NtRp3578
(dp3579
g72
(dp3580
sg81
g3565
sg74
(lp3581
g67
(g68
g69
NtRp3582
(dp3583
g72
(dp3584
g80
I5
ssg81
g3578
sg74
(lp3585
g67
(g76
g69
NtRp3586
(dp3587
g72
(dp3588
g80
I4
ssg81
Nsg74
(lp3589
g67
(g83
g69
NtRp3590
(dp3591
g72
(dp3592
sg81
g3586
sg74
(lp3593
g67
(g88
g69
NtRp3594
(dp3595
g72
(dp3596
g92
g93
ssg81
g3590
sg74
(lp3597
S'Cache-Control'
p3598
asbag67
(g88
g69
NtRp3599
(dp3600
g72
(dp3601
g99
g100
ssg81
g3590
sg74
(lp3602
S':'
asbag67
(g88
g69
NtRp3603
(dp3604
g72
(dp3605
sg81
g3590
sg74
(lp3606
g67
(g68
g69
NtRp3607
(dp3608
g72
(dp3609
g80
I4
ssg81
g3603
sg74
(lp3610
S'no-store, no-cache, must-revalidate, post-check=0, pre-check=0'
p3611
asbasbasbag67
(g83
g69
NtRp3612
(dp3613
g72
(dp3614
sg81
g3586
sg74
(lp3615
g67
(g88
g69
NtRp3616
(dp3617
g72
(dp3618
g92
g93
ssg81
g3612
sg74
(lp3619
S'Content-Type'
p3620
asbag67
(g88
g69
NtRp3621
(dp3622
g72
(dp3623
g99
g100
ssg81
g3612
sg74
(lp3624
S':'
asbag67
(g88
g69
NtRp3625
(dp3626
g72
(dp3627
sg81
g3612
sg74
(lp3628
g67
(g68
g69
NtRp3629
(dp3630
g72
(dp3631
g80
I4
ssg81
g3625
sg74
(lp3632
S'text/html; charset=utf-8'
p3633
asbasbasbag67
(g83
g69
NtRp3634
(dp3635
g72
(dp3636
sg81
g3586
sg74
(lp3637
g67
(g88
g69
NtRp3638
(dp3639
g72
(dp3640
g92
g93
ssg81
g3634
sg74
(lp3641
S'Expires'
p3642
asbag67
(g88
g69
NtRp3643
(dp3644
g72
(dp3645
g99
g100
ssg81
g3634
sg74
(lp3646
S':'
asbag67
(g88
g69
NtRp3647
(dp3648
g72
(dp3649
sg81
g3634
sg74
(lp3650
g67
(g68
g69
NtRp3651
(dp3652
g72
(dp3653
g80
I4
ssg81
g3647
sg74
(lp3654
S'Sat, 26 May 2012 08:01:49 GMT'
p3655
asbasbasbag67
(g83
g69
NtRp3656
(dp3657
g72
(dp3658
sg81
g3586
sg74
(lp3659
g67
(g88
g69
NtRp3660
(dp3661
g72
(dp3662
g92
g93
ssg81
g3656
sg74
(lp3663
S'Pragma'
p3664
asbag67
(g88
g69
NtRp3665
(dp3666
g72
(dp3667
g99
g100
ssg81
g3656
sg74
(lp3668
S':'
asbag67
(g88
g69
NtRp3669
(dp3670
g72
(dp3671
sg81
g3656
sg74
(lp3672
g67
(g68
g69
NtRp3673
(dp3674
g72
(dp3675
g80
I4
ssg81
g3669
sg74
(lp3676
S'no-cache'
p3677
asbasbasbag67
(g83
g69
NtRp3678
(dp3679
g72
(dp3680
sg81
g3586
sg74
(lp3681
g67
(g88
g69
NtRp3682
(dp3683
g72
(dp3684
g92
g93
ssg81
g3678
sg74
(lp3685
S'X-Powered-By'
p3686
asbag67
(g88
g69
NtRp3687
(dp3688
g72
(dp3689
g99
g100
ssg81
g3678
sg74
(lp3690
S':'
asbag67
(g88
g69
NtRp3691
(dp3692
g72
(dp3693
sg81
g3678
sg74
(lp3694
g67
(g68
g69
NtRp3695
(dp3696
g72
(dp3697
g80
I4
ssg81
g3691
sg74
(lp3698
S'web2py'
p3699
asbasbasbasbasbasbasbag67
(g83
g69
NtRp3700
(dp3701
g72
(dp3702
sg81
g3248
sg74
(lp3703
g67
(g88
g69
NtRp3704
(dp3705
g72
(dp3706
g92
g93
ssg81
g3700
sg74
(lp3707
S'menu'
p3708
asbag67
(g88
g69
NtRp3709
(dp3710
g72
(dp3711
g99
g100
ssg81
g3700
sg74
(lp3712
S':'
asbag67
(g88
g69
NtRp3713
(dp3714
g72
(dp3715
sg81
g3700
sg74
(lp3716
g67
(g68
g69
NtRp3717
(dp3718
g72
(dp3719
g80
I5
ssg81
g3713
sg74
(lp3720
g67
(g76
g69
NtRp3721
(dp3722
g72
(dp3723
g80
I4
ssg81
Nsg74
(lp3724
sbasbasbasbag67
(g83
g69
NtRp3725
(dp3726
g72
(dp3727
sg81
g3248
sg74
(lp3728
g67
(g88
g69
NtRp3729
(dp3730
g72
(dp3731
g92
g93
ssg81
g3725
sg74
(lp3732
S'meta'
p3733
asbag67
(g88
g69
NtRp3734
(dp3735
g72
(dp3736
g99
g100
ssg81
g3725
sg74
(lp3737
S':'
asbag67
(g88
g69
NtRp3738
(dp3739
g72
(dp3740
sg81
g3725
sg74
(lp3741
g67
(g68
g69
NtRp3742
(dp3743
g72
(dp3744
g80
I5
ssg81
g3738
sg74
(lp3745
g67
(g76
g69
NtRp3746
(dp3747
g72
(dp3748
g80
I4
ssg81
Nsg74
(lp3749
sbasbasbasbag67
(g83
g69
NtRp3750
(dp3751
g72
(dp3752
sg81
g3248
sg74
(lp3753
g67
(g88
g69
NtRp3754
(dp3755
g72
(dp3756
g92
g93
ssg81
g3750
sg74
(lp3757
S'postprocessing'
p3758
asbag67
(g88
g69
NtRp3759
(dp3760
g72
(dp3761
g99
g100
ssg81
g3750
sg74
(lp3762
S':'
asbag67
(g88
g69
NtRp3763
(dp3764
g72
(dp3765
sg81
g3750
sg74
(lp3766
g67
(g68
g69
NtRp3767
(dp3768
g72
(dp3769
g80
I5
ssg81
g3763
sg74
(lp3770
g67
(g76
g69
NtRp3771
(dp3772
g72
(dp3773
g80
I4
ssg81
Nsg74
(lp3774
sbasbasbasbag67
(g83
g69
NtRp3775
(dp3776
g72
(dp3777
sg81
g3248
sg74
(lp3778
g67
(g88
g69
NtRp3779
(dp3780
g72
(dp3781
g92
g93
ssg81
g3775
sg74
(lp3782
S'session_file'
p3783
asbag67
(g88
g69
NtRp3784
(dp3785
g72
(dp3786
g99
g100
ssg81
g3775
sg74
(lp3787
S':'
asbag67
(g88
g69
NtRp3788
(dp3789
g72
(dp3790
sg81
g3775
sg74
(lp3791
g67
(g68
g69
NtRp3792
(dp3793
g72
(dp3794
g80
I5
ssg81
g3788
sg74
(lp3795
S"<open file '/home/jose/DESARROLLO/web2py199/applications/streamlog/sessions/127.0.0.1-610b0c7d-3f6f-4500-a76a-b095fb30f7fd', mode 'rb+' at 0x348ec00>"
p3796
asbasbasbag67
(g83
g69
NtRp3797
(dp3798
g72
(dp3799
sg81
g3248
sg74
(lp3800
g67
(g88
g69
NtRp3801
(dp3802
g72
(dp3803
g92
g93
ssg81
g3797
sg74
(lp3804
S'session_filename'
p3805
asbag67
(g88
g69
NtRp3806
(dp3807
g72
(dp3808
g99
g100
ssg81
g3797
sg74
(lp3809
S':'
asbag67
(g88
g69
NtRp3810
(dp3811
g72
(dp3812
sg81
g3797
sg74
(lp3813
g67
(g68
g69
NtRp3814
(dp3815
g72
(dp3816
g80
I5
ssg81
g3810
sg74
(lp3817
S'/home/jose/DESARROLLO/web2py199/applications/streamlog/sessions/127.0.0.1-610b0c7d-3f6f-4500-a76a-b095fb30f7fd'
p3818
asbasbasbag67
(g83
g69
NtRp3819
(dp3820
g72
(dp3821
sg81
g3248
sg74
(lp3822
g67
(g88
g69
NtRp3823
(dp3824
g72
(dp3825
g92
g93
ssg81
g3819
sg74
(lp3826
S'session_id'
p3827
asbag67
(g88
g69
NtRp3828
(dp3829
g72
(dp3830
g99
g100
ssg81
g3819
sg74
(lp3831
S':'
asbag67
(g88
g69
NtRp3832
(dp3833
g72
(dp3834
sg81
g3819
sg74
(lp3835
g67
(g68
g69
NtRp3836
(dp3837
g72
(dp3838
g80
I5
ssg81
g3832
sg74
(lp3839
S'127.0.0.1-610b0c7d-3f6f-4500-a76a-b095fb30f7fd'
p3840
asbasbasbag67
(g83
g69
NtRp3841
(dp3842
g72
(dp3843
sg81
g3248
sg74
(lp3844
g67
(g88
g69
NtRp3845
(dp3846
g72
(dp3847
g92
g93
ssg81
g3841
sg74
(lp3848
S'session_id_name'
p3849
asbag67
(g88
g69
NtRp3850
(dp3851
g72
(dp3852
g99
g100
ssg81
g3841
sg74
(lp3853
S':'
asbag67
(g88
g69
NtRp3854
(dp3855
g72
(dp3856
sg81
g3841
sg74
(lp3857
g67
(g68
g69
NtRp3858
(dp3859
g72
(dp3860
g80
I5
ssg81
g3854
sg74
(lp3861
g3305
asbasbasbag67
(g83
g69
NtRp3862
(dp3863
g72
(dp3864
sg81
g3248
sg74
(lp3865
g67
(g88
g69
NtRp3866
(dp3867
g72
(dp3868
g92
g93
ssg81
g3862
sg74
(lp3869
S'session_locked'
p3870
asbag67
(g88
g69
NtRp3871
(dp3872
g72
(dp3873
g99
g100
ssg81
g3862
sg74
(lp3874
S':'
asbag67
(g88
g69
NtRp3875
(dp3876
g72
(dp3877
sg81
g3862
sg74
(lp3878
g67
(g68
g69
NtRp3879
(dp3880
g72
(dp3881
g80
I5
ssg81
g3875
sg74
(lp3882
g1623
asbasbasbag67
(g83
g69
NtRp3883
(dp3884
g72
(dp3885
sg81
g3248
sg74
(lp3886
g67
(g88
g69
NtRp3887
(dp3888
g72
(dp3889
g92
g93
ssg81
g3883
sg74
(lp3890
S'session_new'
p3891
asbag67
(g88
g69
NtRp3892
(dp3893
g72
(dp3894
g99
g100
ssg81
g3883
sg74
(lp3895
S':'
asbag67
(g88
g69
NtRp3896
(dp3897
g72
(dp3898
sg81
g3883
sg74
(lp3899
g67
(g68
g69
NtRp3900
(dp3901
g72
(dp3902
g80
I5
ssg81
g3896
sg74
(lp3903
g110
asbasbasbag67
(g83
g69
NtRp3904
(dp3905
g72
(dp3906
sg81
g3248
sg74
(lp3907
g67
(g88
g69
NtRp3908
(dp3909
g72
(dp3910
g92
g93
ssg81
g3904
sg74
(lp3911
S'status'
p3912
asbag67
(g88
g69
NtRp3913
(dp3914
g72
(dp3915
g99
g100
ssg81
g3904
sg74
(lp3916
S':'
asbag67
(g88
g69
NtRp3917
(dp3918
g72
(dp3919
sg81
g3904
sg74
(lp3920
g67
(g68
g69
NtRp3921
(dp3922
g72
(dp3923
g80
I5
ssg81
g3917
sg74
(lp3924
S'200'
p3925
asbasbasbag67
(g83
g69
NtRp3926
(dp3927
g72
(dp3928
sg81
g3248
sg74
(lp3929
g67
(g88
g69
NtRp3930
(dp3931
g72
(dp3932
g92
g93
ssg81
g3926
sg74
(lp3933
g2267
asbag67
(g88
g69
NtRp3934
(dp3935
g72
(dp3936
g99
g100
ssg81
g3926
sg74
(lp3937
S':'
asbag67
(g88
g69
NtRp3938
(dp3939
g72
(dp3940
sg81
g3926
sg74
(lp3941
g67
(g68
g69
NtRp3942
(dp3943
g72
(dp3944
g80
I5
ssg81
g3938
sg74
(lp3945
g2280
asbasbasbag67
(g83
g69
NtRp3946
(dp3947
g72
(dp3948
sg81
g3248
sg74
(lp3949
g67
(g88
g69
NtRp3950
(dp3951
g72
(dp3952
g92
g93
ssg81
g3946
sg74
(lp3953
S'view'
p3954
asbag67
(g88
g69
NtRp3955
(dp3956
g72
(dp3957
g99
g100
ssg81
g3946
sg74
(lp3958
S':'
asbag67
(g88
g69
NtRp3959
(dp3960
g72
(dp3961
sg81
g3946
sg74
(lp3962
g67
(g68
g69
NtRp3963
(dp3964
g72
(dp3965
g80
I5
ssg81
g3959
sg74
(lp3966
S'default/index.html'
p3967
asbasbasbasbasbsS'locals'
p3968
(dp3969
g3
S"'/home/jose/DESARROLLO/web2py199/applications/streamlog/models/menu.py'"
p3970
sg5
S"'# -*- coding: utf-8 -*-\\n# this file is released ...###############################################\\n\\n'"
p3971
sssS'traceback'
p3972
S'Traceback (most recent call last):\n  File "/home/jose/DESARROLLO/web2py199/gluon/restricted.py", line 193, in restricted\n    ccode = compile2(code,layer)\n  File "/home/jose/DESARROLLO/web2py199/gluon/restricted.py", line 179, in compile2\n    return compile(code.rstrip().replace(\'\\r\\n\',\'\\n\')+\'\\n\', layer, \'exec\')\n  File "/home/jose/DESARROLLO/web2py199/applications/streamlog/models/menu.py", line 37\n    ]]\n     ^\nSyntaxError: invalid syntax\n'
p3973
s.