(dp1
S'output'
p2
S''
sS'layer'
p3
S'/home/jose/DESARROLLO/web2py199/applications/streamlog/controllers/default.py'
p4
sS'code'
p5
S'# -*- coding: utf-8 -*-\n# this file is released under public domain and you can use without limitations\n\n#########################################################################\n## This is a samples controller\n## - index is the default action of any application\n## - user is required for authentication and authorization\n## - download is for downloading files uploaded in the db (does streaming)\n## - call exposes all registered services (none by default)\n#########################################################################\n\n\n\ndef index():\n    """\n    example action using the internationalization operator T and flash\n    rendered by views/default/index.html or views/generic.html\n    """\n    links = [lambda row:  INPUT(_type=\'button\',_value=\'START STREAM\', _onclick=\'createStream(\'+str(row.id)+\')\')]\n    form=SQLFORM.grid(db.t_log, selectable=False, csv=False,create=False, deletable=False, editable=False, links=links, user_signature=False)\n    return dict(message=T(\'Hello World2\'), form=form)\n\n@service.json\ndef getConnectionData():\n\t\n\treturn {"connection:"[{\'log_name\':\'a\',\'IP\':\'b\',\'port:\'\'c\'}]\n\ndef choose_log():\n    """\n    example action using the internationalization operator T and flash\n    rendered by views/default/index.html or views/generic.html\n    """\n    \n    \n    return dict(message="log")\n\n\ndef type_table():\n    """\n    example action using the internationalization operator T and flash\n    rendered by views/default/index.html or views/generic.html\n    """\n    \n    table=\'<table cellpadding="0" cellspacing="0" border="0" class="display" id="tablelog"> \\\n    <thead> \\\n        <tr> \\\n            <th>IP</th> \\\n            <th>hyphen</th> \\\n            <th>userid</th> \\\n            <th>Time Request</th> \\\n        <th>Request Time</th> \\\n        <th>Status Code</th> \\\n        <th>Size Object</th> \\\n        </tr>\\\n    </thead> \\\n    <tfoot> \\\n        <tr> \\\n            <th>IP</th> \\\n            <th>hyphen</th> \\\n            <th>userid</th>\\\n            <th>Time Request</th> \\\n        <th>Request Time</th> \\\n        <th>Status Code</th> \\\n        <th>Size Object</th> \\\n        </tr>  \\\n    </tfoot>  \\\n        <tbody> \\\n        </tbody> \\\n    </table>\'\n    \n    return table\n\n\ndef user():\n    """\n    exposes:\n    http://..../[app]/default/user/login\n    http://..../[app]/default/user/logout\n    http://..../[app]/default/user/register\n    http://..../[app]/default/user/profile\n    http://..../[app]/default/user/retrieve_password\n    http://..../[app]/default/user/change_password\n    use @auth.requires_login()\n        @auth.requires_membership(\'group name\')\n        @auth.requires_permission(\'read\',\'table name\',record_id)\n    to decorate functions that need access control\n    """\n    return dict(form=auth())\n\ndef error():\n    return dict()\n\n\ndef project_manage():\n    \n    form = SQLFORM.smartgrid(db.t_project)\n    return locals()\n\n\n\ndef server_manage():\n\n    form=SQLFORM.grid(db.t_server)\n    return locals()\n\ndef log_manage():\n \n    #form = SQLFORM.smartgrid(db.t_log,constraints=dict(t_log=query), selectable=True,searchable=False, csv=False,showbuttontext=True,onupdate=auth.archive)\n    #form = SQLFORM.smartgrid(db.t_log)\n    form=SQLFORM.grid(db.t_log)\n    return locals()\n\ndef type_log_manage():\n\n    form=SQLFORM.grid(db.t_type_log)\n    return locals()\n\ndef download():\n    """\n    allows downloading of uploaded files\n    http://..../[app]/default/download/[filename]\n    """\n    return response.download(request,db)\n\n\ndef call():\n    """\n    exposes services. for example:\n    http://..../[app]/default/call/jsonrpc\n    decorate with @services.jsonrpc the functions to expose\n    supports xml, json, xmlrpc, jsonrpc, amfrpc, rss, csv\n    """\n    return service()\n\n\n@auth.requires_signature()\ndef data():\n    """\n    http://..../[app]/default/data/tables\n    http://..../[app]/default/data/create/[table]\n    http://..../[app]/default/data/read/[table]/[id]\n    http://..../[app]/default/data/update/[table]/[id]\n    http://..../[app]/default/data/delete/[table]/[id]\n    http://..../[app]/default/data/select/[table]\n    http://..../[app]/default/data/search/[table]\n    but URLs bust be signed, i.e. linked with\n      A(\'table\',_href=URL(\'data/tables\',user_signature=True))\n    or with the signed load operator\n      LOAD(\'default\',\'data.load\',args=\'tables\',ajax=True,user_signature=True)\n    """\n    return dict(form=crud())\n\nresponse._vars=response._caller(call)\n'
p6
sS'snapshot'
p7
(dp8
S'exception'
p9
(dp10
S'__getslice__'
p11
S"<method-wrapper '__getslice__' of exceptions.SyntaxError object>"
p12
sS'text'
p13
S'\'\\treturn {"connection:"[{\\\'log_name\\\':\\\'a\\\',\\\'IP\\\':\\\'b\\\',\\\'port:\\\'\\\'c\\\'}]\\n\''
p14
sS'__str__'
p15
S"<method-wrapper '__str__' of exceptions.SyntaxError object>"
p16
sS'__reduce__'
p17
S'<built-in method __reduce__ of exceptions.SyntaxError object>'
p18
sS'__dict__'
p19
S'{}'
p20
sS'__sizeof__'
p21
S'<built-in method __sizeof__ of exceptions.SyntaxError object>'
p22
sS'__init__'
p23
S"<method-wrapper '__init__' of exceptions.SyntaxError object>"
p24
sS'__setattr__'
p25
S"<method-wrapper '__setattr__' of exceptions.SyntaxError object>"
p26
sS'__reduce_ex__'
p27
S'<built-in method __reduce_ex__ of exceptions.SyntaxError object>'
p28
sS'__new__'
p29
S'<built-in method __new__ of type object>'
p30
sS'__format__'
p31
S'<built-in method __format__ of exceptions.SyntaxError object>'
p32
sS'__class__'
p33
S"<type 'exceptions.SyntaxError'>"
p34
sS'filename'
p35
S"'/home/jose/DESARROLLO/web2py199/applications/streamlog/controllers/default.py'"
p36
sS'lineno'
p37
S'26'
p38
sS'msg'
p39
S"'invalid syntax'"
p40
sS'__doc__'
p41
S"'Invalid syntax.'"
p42
sS'__getitem__'
p43
S"<method-wrapper '__getitem__' of exceptions.SyntaxError object>"
p44
sS'__setstate__'
p45
S'<built-in method __setstate__ of exceptions.SyntaxError object>'
p46
sS'__getattribute__'
p47
S"<method-wrapper '__getattribute__' of exceptions.SyntaxError object>"
p48
sS'print_file_and_line'
p49
S'None'
p50
sS'args'
p51
S'(\'invalid syntax\', (\'/home/jose/DESARROLLO/web2py199/applications/streamlog/controllers/default.py\', 26, 59, \'\\treturn {"connection:"[{\\\'log_name\\\':\\\'a\\\',\\\'IP\\\':\\\'b\\\',\\\'port:\\\'\\\'c\\\'}]\\n\'))'
p52
sS'__subclasshook__'
p53
S'<built-in method __subclasshook__ of type object>'
p54
sS'offset'
p55
S'59'
p56
sS'__unicode__'
p57
S'<built-in method __unicode__ of exceptions.SyntaxError object>'
p58
sS'__delattr__'
p59
S"<method-wrapper '__delattr__' of exceptions.SyntaxError object>"
p60
sS'__repr__'
p61
S"<method-wrapper '__repr__' of exceptions.SyntaxError object>"
p62
sS'__hash__'
p63
S"<method-wrapper '__hash__' of exceptions.SyntaxError object>"
p64
ssS'evalue'
p65
S'invalid syntax (default.py, line 26)'
p66
sS'request'
p67
ccopy_reg
_reconstructor
p68
(cgluon.html
BEAUTIFY
p69
c__builtin__
object
p70
NtRp71
(dp72
S'attributes'
p73
(dp74
sS'components'
p75
(lp76
g68
(cgluon.html
TABLE
p77
g70
NtRp78
(dp79
g73
(dp80
S'level'
p81
I5
ssS'parent'
p82
Nsg75
(lp83
g68
(cgluon.html
TR
p84
g70
NtRp85
(dp86
g73
(dp87
sg82
g78
sg75
(lp88
g68
(cgluon.html
TD
p89
g70
NtRp90
(dp91
g73
(dp92
S'_style'
p93
S'font-weight:bold;'
p94
ssg82
g85
sg75
(lp95
S'ajax'
p96
asbag68
(g89
g70
NtRp97
(dp98
g73
(dp99
S'_valign'
p100
S'top'
p101
ssg82
g85
sg75
(lp102
S':'
asbag68
(g89
g70
NtRp103
(dp104
g73
(dp105
sg82
g85
sg75
(lp106
g68
(g69
g70
NtRp107
(dp108
g73
(dp109
g81
I5
ssg82
g103
sg75
(lp110
S'True'
p111
asbasbasbag68
(g84
g70
NtRp112
(dp113
g73
(dp114
sg82
g78
sg75
(lp115
g68
(g89
g70
NtRp116
(dp117
g73
(dp118
g93
g94
ssg82
g112
sg75
(lp119
S'application'
p120
asbag68
(g89
g70
NtRp121
(dp122
g73
(dp123
g100
g101
ssg82
g112
sg75
(lp124
S':'
asbag68
(g89
g70
NtRp125
(dp126
g73
(dp127
sg82
g112
sg75
(lp128
g68
(g69
g70
NtRp129
(dp130
g73
(dp131
g81
I5
ssg82
g125
sg75
(lp132
S'streamlog'
p133
asbasbasbag68
(g84
g70
NtRp134
(dp135
g73
(dp136
sg82
g78
sg75
(lp137
g68
(g89
g70
NtRp138
(dp139
g73
(dp140
g93
g94
ssg82
g134
sg75
(lp141
g51
asbag68
(g89
g70
NtRp142
(dp143
g73
(dp144
g100
g101
ssg82
g134
sg75
(lp145
S':'
asbag68
(g89
g70
NtRp146
(dp147
g73
(dp148
sg82
g134
sg75
(lp149
g68
(g69
g70
NtRp150
(dp151
g73
(dp152
g81
I5
ssg82
g146
sg75
(lp153
g68
(g77
g70
NtRp154
(dp155
g73
(dp156
g81
I4
ssg82
Nsg75
(lp157
g68
(g84
g70
NtRp158
(dp159
g73
(dp160
sg82
g154
sg75
(lp161
g68
(g89
g70
NtRp162
(dp163
g73
(dp164
sg82
g158
sg75
(lp165
g68
(g69
g70
NtRp166
(dp167
g73
(dp168
g81
I4
ssg82
g162
sg75
(lp169
S'json'
p170
asbasbasbag68
(g84
g70
NtRp171
(dp172
g73
(dp173
sg82
g154
sg75
(lp174
g68
(g89
g70
NtRp175
(dp176
g73
(dp177
sg82
g171
sg75
(lp178
g68
(g69
g70
NtRp179
(dp180
g73
(dp181
g81
I4
ssg82
g175
sg75
(lp182
S'getConnectionData'
p183
asbasbasbasbasbasbasbag68
(g84
g70
NtRp184
(dp185
g73
(dp186
sg82
g78
sg75
(lp187
g68
(g89
g70
NtRp188
(dp189
g73
(dp190
g93
g94
ssg82
g184
sg75
(lp191
S'body'
p192
asbag68
(g89
g70
NtRp193
(dp194
g73
(dp195
g100
g101
ssg82
g184
sg75
(lp196
S':'
asbag68
(g89
g70
NtRp197
(dp198
g73
(dp199
sg82
g184
sg75
(lp200
g68
(g69
g70
NtRp201
(dp202
g73
(dp203
g81
I5
ssg82
g197
sg75
(lp204
S'<cStringIO.StringO object at 0x44e1730>'
p205
asbasbasbag68
(g84
g70
NtRp206
(dp207
g73
(dp208
sg82
g78
sg75
(lp209
g68
(g89
g70
NtRp210
(dp211
g73
(dp212
g93
g94
ssg82
g206
sg75
(lp213
S'client'
p214
asbag68
(g89
g70
NtRp215
(dp216
g73
(dp217
g100
g101
ssg82
g206
sg75
(lp218
S':'
asbag68
(g89
g70
NtRp219
(dp220
g73
(dp221
sg82
g206
sg75
(lp222
g68
(g69
g70
NtRp223
(dp224
g73
(dp225
g81
I5
ssg82
g219
sg75
(lp226
S'127.0.0.1'
p227
asbasbasbag68
(g84
g70
NtRp228
(dp229
g73
(dp230
sg82
g78
sg75
(lp231
g68
(g89
g70
NtRp232
(dp233
g73
(dp234
g93
g94
ssg82
g228
sg75
(lp235
S'controller'
p236
asbag68
(g89
g70
NtRp237
(dp238
g73
(dp239
g100
g101
ssg82
g228
sg75
(lp240
S':'
asbag68
(g89
g70
NtRp241
(dp242
g73
(dp243
sg82
g228
sg75
(lp244
g68
(g69
g70
NtRp245
(dp246
g73
(dp247
g81
I5
ssg82
g241
sg75
(lp248
S'default'
p249
asbasbasbag68
(g84
g70
NtRp250
(dp251
g73
(dp252
sg82
g78
sg75
(lp253
g68
(g89
g70
NtRp254
(dp255
g73
(dp256
g93
g94
ssg82
g250
sg75
(lp257
S'cookies'
p258
asbag68
(g89
g70
NtRp259
(dp260
g73
(dp261
g100
g101
ssg82
g250
sg75
(lp262
S':'
asbag68
(g89
g70
NtRp263
(dp264
g73
(dp265
sg82
g250
sg75
(lp266
g68
(g69
g70
NtRp267
(dp268
g73
(dp269
g81
I5
ssg82
g263
sg75
(lp270
g68
(g77
g70
NtRp271
(dp272
g73
(dp273
g81
I4
ssg82
Nsg75
(lp274
g68
(g84
g70
NtRp275
(dp276
g73
(dp277
sg82
g271
sg75
(lp278
g68
(g89
g70
NtRp279
(dp280
g73
(dp281
g93
g94
ssg82
g275
sg75
(lp282
S'session_id_admin'
p283
asbag68
(g89
g70
NtRp284
(dp285
g73
(dp286
g100
g101
ssg82
g275
sg75
(lp287
S':'
asbag68
(g89
g70
NtRp288
(dp289
g73
(dp290
sg82
g275
sg75
(lp291
g68
(g69
g70
NtRp292
(dp293
g73
(dp294
g81
I4
ssg82
g288
sg75
(lp295
g68
(g77
g70
NtRp296
(dp297
g73
(dp298
g81
I3
ssg82
Nsg75
(lp299
g68
(g84
g70
NtRp300
(dp301
g73
(dp302
sg82
g296
sg75
(lp303
g68
(g89
g70
NtRp304
(dp305
g73
(dp306
g93
g94
ssg82
g300
sg75
(lp307
S'comment'
p308
asbag68
(g89
g70
NtRp309
(dp310
g73
(dp311
g100
g101
ssg82
g300
sg75
(lp312
S':'
asbag68
(g89
g70
NtRp313
(dp314
g73
(dp315
sg82
g300
sg75
(lp316
g68
(g69
g70
NtRp317
(dp318
g73
(dp319
g81
I3
ssg82
g313
sg75
(lp320
S''
asbasbasbag68
(g84
g70
NtRp321
(dp322
g73
(dp323
sg82
g296
sg75
(lp324
g68
(g89
g70
NtRp325
(dp326
g73
(dp327
g93
g94
ssg82
g321
sg75
(lp328
S'domain'
p329
asbag68
(g89
g70
NtRp330
(dp331
g73
(dp332
g100
g101
ssg82
g321
sg75
(lp333
S':'
asbag68
(g89
g70
NtRp334
(dp335
g73
(dp336
sg82
g321
sg75
(lp337
g68
(g69
g70
NtRp338
(dp339
g73
(dp340
g81
I3
ssg82
g334
sg75
(lp341
S''
asbasbasbag68
(g84
g70
NtRp342
(dp343
g73
(dp344
sg82
g296
sg75
(lp345
g68
(g89
g70
NtRp346
(dp347
g73
(dp348
g93
g94
ssg82
g342
sg75
(lp349
S'expires'
p350
asbag68
(g89
g70
NtRp351
(dp352
g73
(dp353
g100
g101
ssg82
g342
sg75
(lp354
S':'
asbag68
(g89
g70
NtRp355
(dp356
g73
(dp357
sg82
g342
sg75
(lp358
g68
(g69
g70
NtRp359
(dp360
g73
(dp361
g81
I3
ssg82
g355
sg75
(lp362
S''
asbasbasbag68
(g84
g70
NtRp363
(dp364
g73
(dp365
sg82
g296
sg75
(lp366
g68
(g89
g70
NtRp367
(dp368
g73
(dp369
g93
g94
ssg82
g363
sg75
(lp370
S'httponly'
p371
asbag68
(g89
g70
NtRp372
(dp373
g73
(dp374
g100
g101
ssg82
g363
sg75
(lp375
S':'
asbag68
(g89
g70
NtRp376
(dp377
g73
(dp378
sg82
g363
sg75
(lp379
g68
(g69
g70
NtRp380
(dp381
g73
(dp382
g81
I3
ssg82
g376
sg75
(lp383
S''
asbasbasbag68
(g84
g70
NtRp384
(dp385
g73
(dp386
sg82
g296
sg75
(lp387
g68
(g89
g70
NtRp388
(dp389
g73
(dp390
g93
g94
ssg82
g384
sg75
(lp391
S'max-age'
p392
asbag68
(g89
g70
NtRp393
(dp394
g73
(dp395
g100
g101
ssg82
g384
sg75
(lp396
S':'
asbag68
(g89
g70
NtRp397
(dp398
g73
(dp399
sg82
g384
sg75
(lp400
g68
(g69
g70
NtRp401
(dp402
g73
(dp403
g81
I3
ssg82
g397
sg75
(lp404
S''
asbasbasbag68
(g84
g70
NtRp405
(dp406
g73
(dp407
sg82
g296
sg75
(lp408
g68
(g89
g70
NtRp409
(dp410
g73
(dp411
g93
g94
ssg82
g405
sg75
(lp412
S'path'
p413
asbag68
(g89
g70
NtRp414
(dp415
g73
(dp416
g100
g101
ssg82
g405
sg75
(lp417
S':'
asbag68
(g89
g70
NtRp418
(dp419
g73
(dp420
sg82
g405
sg75
(lp421
g68
(g69
g70
NtRp422
(dp423
g73
(dp424
g81
I3
ssg82
g418
sg75
(lp425
S''
asbasbasbag68
(g84
g70
NtRp426
(dp427
g73
(dp428
sg82
g296
sg75
(lp429
g68
(g89
g70
NtRp430
(dp431
g73
(dp432
g93
g94
ssg82
g426
sg75
(lp433
S'secure'
p434
asbag68
(g89
g70
NtRp435
(dp436
g73
(dp437
g100
g101
ssg82
g426
sg75
(lp438
S':'
asbag68
(g89
g70
NtRp439
(dp440
g73
(dp441
sg82
g426
sg75
(lp442
g68
(g69
g70
NtRp443
(dp444
g73
(dp445
g81
I3
ssg82
g439
sg75
(lp446
S''
asbasbasbag68
(g84
g70
NtRp447
(dp448
g73
(dp449
sg82
g296
sg75
(lp450
g68
(g89
g70
NtRp451
(dp452
g73
(dp453
g93
g94
ssg82
g447
sg75
(lp454
S'version'
p455
asbag68
(g89
g70
NtRp456
(dp457
g73
(dp458
g100
g101
ssg82
g447
sg75
(lp459
S':'
asbag68
(g89
g70
NtRp460
(dp461
g73
(dp462
sg82
g447
sg75
(lp463
g68
(g69
g70
NtRp464
(dp465
g73
(dp466
g81
I3
ssg82
g460
sg75
(lp467
S''
asbasbasbasbasbasbasbag68
(g84
g70
NtRp468
(dp469
g73
(dp470
sg82
g271
sg75
(lp471
g68
(g89
g70
NtRp472
(dp473
g73
(dp474
g93
g94
ssg82
g468
sg75
(lp475
S'session_id_streamlog'
p476
asbag68
(g89
g70
NtRp477
(dp478
g73
(dp479
g100
g101
ssg82
g468
sg75
(lp480
S':'
asbag68
(g89
g70
NtRp481
(dp482
g73
(dp483
sg82
g468
sg75
(lp484
g68
(g69
g70
NtRp485
(dp486
g73
(dp487
g81
I4
ssg82
g481
sg75
(lp488
g68
(g77
g70
NtRp489
(dp490
g73
(dp491
g81
I3
ssg82
Nsg75
(lp492
g68
(g84
g70
NtRp493
(dp494
g73
(dp495
sg82
g489
sg75
(lp496
g68
(g89
g70
NtRp497
(dp498
g73
(dp499
g93
g94
ssg82
g493
sg75
(lp500
g308
asbag68
(g89
g70
NtRp501
(dp502
g73
(dp503
g100
g101
ssg82
g493
sg75
(lp504
S':'
asbag68
(g89
g70
NtRp505
(dp506
g73
(dp507
sg82
g493
sg75
(lp508
g68
(g69
g70
NtRp509
(dp510
g73
(dp511
g81
I3
ssg82
g505
sg75
(lp512
S''
asbasbasbag68
(g84
g70
NtRp513
(dp514
g73
(dp515
sg82
g489
sg75
(lp516
g68
(g89
g70
NtRp517
(dp518
g73
(dp519
g93
g94
ssg82
g513
sg75
(lp520
g329
asbag68
(g89
g70
NtRp521
(dp522
g73
(dp523
g100
g101
ssg82
g513
sg75
(lp524
S':'
asbag68
(g89
g70
NtRp525
(dp526
g73
(dp527
sg82
g513
sg75
(lp528
g68
(g69
g70
NtRp529
(dp530
g73
(dp531
g81
I3
ssg82
g525
sg75
(lp532
S''
asbasbasbag68
(g84
g70
NtRp533
(dp534
g73
(dp535
sg82
g489
sg75
(lp536
g68
(g89
g70
NtRp537
(dp538
g73
(dp539
g93
g94
ssg82
g533
sg75
(lp540
g350
asbag68
(g89
g70
NtRp541
(dp542
g73
(dp543
g100
g101
ssg82
g533
sg75
(lp544
S':'
asbag68
(g89
g70
NtRp545
(dp546
g73
(dp547
sg82
g533
sg75
(lp548
g68
(g69
g70
NtRp549
(dp550
g73
(dp551
g81
I3
ssg82
g545
sg75
(lp552
S''
asbasbasbag68
(g84
g70
NtRp553
(dp554
g73
(dp555
sg82
g489
sg75
(lp556
g68
(g89
g70
NtRp557
(dp558
g73
(dp559
g93
g94
ssg82
g553
sg75
(lp560
g371
asbag68
(g89
g70
NtRp561
(dp562
g73
(dp563
g100
g101
ssg82
g553
sg75
(lp564
S':'
asbag68
(g89
g70
NtRp565
(dp566
g73
(dp567
sg82
g553
sg75
(lp568
g68
(g69
g70
NtRp569
(dp570
g73
(dp571
g81
I3
ssg82
g565
sg75
(lp572
S''
asbasbasbag68
(g84
g70
NtRp573
(dp574
g73
(dp575
sg82
g489
sg75
(lp576
g68
(g89
g70
NtRp577
(dp578
g73
(dp579
g93
g94
ssg82
g573
sg75
(lp580
g392
asbag68
(g89
g70
NtRp581
(dp582
g73
(dp583
g100
g101
ssg82
g573
sg75
(lp584
S':'
asbag68
(g89
g70
NtRp585
(dp586
g73
(dp587
sg82
g573
sg75
(lp588
g68
(g69
g70
NtRp589
(dp590
g73
(dp591
g81
I3
ssg82
g585
sg75
(lp592
S''
asbasbasbag68
(g84
g70
NtRp593
(dp594
g73
(dp595
sg82
g489
sg75
(lp596
g68
(g89
g70
NtRp597
(dp598
g73
(dp599
g93
g94
ssg82
g593
sg75
(lp600
g413
asbag68
(g89
g70
NtRp601
(dp602
g73
(dp603
g100
g101
ssg82
g593
sg75
(lp604
S':'
asbag68
(g89
g70
NtRp605
(dp606
g73
(dp607
sg82
g593
sg75
(lp608
g68
(g69
g70
NtRp609
(dp610
g73
(dp611
g81
I3
ssg82
g605
sg75
(lp612
S''
asbasbasbag68
(g84
g70
NtRp613
(dp614
g73
(dp615
sg82
g489
sg75
(lp616
g68
(g89
g70
NtRp617
(dp618
g73
(dp619
g93
g94
ssg82
g613
sg75
(lp620
g434
asbag68
(g89
g70
NtRp621
(dp622
g73
(dp623
g100
g101
ssg82
g613
sg75
(lp624
S':'
asbag68
(g89
g70
NtRp625
(dp626
g73
(dp627
sg82
g613
sg75
(lp628
g68
(g69
g70
NtRp629
(dp630
g73
(dp631
g81
I3
ssg82
g625
sg75
(lp632
S''
asbasbasbag68
(g84
g70
NtRp633
(dp634
g73
(dp635
sg82
g489
sg75
(lp636
g68
(g89
g70
NtRp637
(dp638
g73
(dp639
g93
g94
ssg82
g633
sg75
(lp640
g455
asbag68
(g89
g70
NtRp641
(dp642
g73
(dp643
g100
g101
ssg82
g633
sg75
(lp644
S':'
asbag68
(g89
g70
NtRp645
(dp646
g73
(dp647
sg82
g633
sg75
(lp648
g68
(g69
g70
NtRp649
(dp650
g73
(dp651
g81
I3
ssg82
g645
sg75
(lp652
S''
asbasbasbasbasbasbasbag68
(g84
g70
NtRp653
(dp654
g73
(dp655
sg82
g271
sg75
(lp656
g68
(g89
g70
NtRp657
(dp658
g73
(dp659
g93
g94
ssg82
g653
sg75
(lp660
S'session_id_test3'
p661
asbag68
(g89
g70
NtRp662
(dp663
g73
(dp664
g100
g101
ssg82
g653
sg75
(lp665
S':'
asbag68
(g89
g70
NtRp666
(dp667
g73
(dp668
sg82
g653
sg75
(lp669
g68
(g69
g70
NtRp670
(dp671
g73
(dp672
g81
I4
ssg82
g666
sg75
(lp673
g68
(g77
g70
NtRp674
(dp675
g73
(dp676
g81
I3
ssg82
Nsg75
(lp677
g68
(g84
g70
NtRp678
(dp679
g73
(dp680
sg82
g674
sg75
(lp681
g68
(g89
g70
NtRp682
(dp683
g73
(dp684
g93
g94
ssg82
g678
sg75
(lp685
g308
asbag68
(g89
g70
NtRp686
(dp687
g73
(dp688
g100
g101
ssg82
g678
sg75
(lp689
S':'
asbag68
(g89
g70
NtRp690
(dp691
g73
(dp692
sg82
g678
sg75
(lp693
g68
(g69
g70
NtRp694
(dp695
g73
(dp696
g81
I3
ssg82
g690
sg75
(lp697
S''
asbasbasbag68
(g84
g70
NtRp698
(dp699
g73
(dp700
sg82
g674
sg75
(lp701
g68
(g89
g70
NtRp702
(dp703
g73
(dp704
g93
g94
ssg82
g698
sg75
(lp705
g329
asbag68
(g89
g70
NtRp706
(dp707
g73
(dp708
g100
g101
ssg82
g698
sg75
(lp709
S':'
asbag68
(g89
g70
NtRp710
(dp711
g73
(dp712
sg82
g698
sg75
(lp713
g68
(g69
g70
NtRp714
(dp715
g73
(dp716
g81
I3
ssg82
g710
sg75
(lp717
S''
asbasbasbag68
(g84
g70
NtRp718
(dp719
g73
(dp720
sg82
g674
sg75
(lp721
g68
(g89
g70
NtRp722
(dp723
g73
(dp724
g93
g94
ssg82
g718
sg75
(lp725
g350
asbag68
(g89
g70
NtRp726
(dp727
g73
(dp728
g100
g101
ssg82
g718
sg75
(lp729
S':'
asbag68
(g89
g70
NtRp730
(dp731
g73
(dp732
sg82
g718
sg75
(lp733
g68
(g69
g70
NtRp734
(dp735
g73
(dp736
g81
I3
ssg82
g730
sg75
(lp737
S''
asbasbasbag68
(g84
g70
NtRp738
(dp739
g73
(dp740
sg82
g674
sg75
(lp741
g68
(g89
g70
NtRp742
(dp743
g73
(dp744
g93
g94
ssg82
g738
sg75
(lp745
g371
asbag68
(g89
g70
NtRp746
(dp747
g73
(dp748
g100
g101
ssg82
g738
sg75
(lp749
S':'
asbag68
(g89
g70
NtRp750
(dp751
g73
(dp752
sg82
g738
sg75
(lp753
g68
(g69
g70
NtRp754
(dp755
g73
(dp756
g81
I3
ssg82
g750
sg75
(lp757
S''
asbasbasbag68
(g84
g70
NtRp758
(dp759
g73
(dp760
sg82
g674
sg75
(lp761
g68
(g89
g70
NtRp762
(dp763
g73
(dp764
g93
g94
ssg82
g758
sg75
(lp765
g392
asbag68
(g89
g70
NtRp766
(dp767
g73
(dp768
g100
g101
ssg82
g758
sg75
(lp769
S':'
asbag68
(g89
g70
NtRp770
(dp771
g73
(dp772
sg82
g758
sg75
(lp773
g68
(g69
g70
NtRp774
(dp775
g73
(dp776
g81
I3
ssg82
g770
sg75
(lp777
S''
asbasbasbag68
(g84
g70
NtRp778
(dp779
g73
(dp780
sg82
g674
sg75
(lp781
g68
(g89
g70
NtRp782
(dp783
g73
(dp784
g93
g94
ssg82
g778
sg75
(lp785
g413
asbag68
(g89
g70
NtRp786
(dp787
g73
(dp788
g100
g101
ssg82
g778
sg75
(lp789
S':'
asbag68
(g89
g70
NtRp790
(dp791
g73
(dp792
sg82
g778
sg75
(lp793
g68
(g69
g70
NtRp794
(dp795
g73
(dp796
g81
I3
ssg82
g790
sg75
(lp797
S''
asbasbasbag68
(g84
g70
NtRp798
(dp799
g73
(dp800
sg82
g674
sg75
(lp801
g68
(g89
g70
NtRp802
(dp803
g73
(dp804
g93
g94
ssg82
g798
sg75
(lp805
g434
asbag68
(g89
g70
NtRp806
(dp807
g73
(dp808
g100
g101
ssg82
g798
sg75
(lp809
S':'
asbag68
(g89
g70
NtRp810
(dp811
g73
(dp812
sg82
g798
sg75
(lp813
g68
(g69
g70
NtRp814
(dp815
g73
(dp816
g81
I3
ssg82
g810
sg75
(lp817
S''
asbasbasbag68
(g84
g70
NtRp818
(dp819
g73
(dp820
sg82
g674
sg75
(lp821
g68
(g89
g70
NtRp822
(dp823
g73
(dp824
g93
g94
ssg82
g818
sg75
(lp825
g455
asbag68
(g89
g70
NtRp826
(dp827
g73
(dp828
g100
g101
ssg82
g818
sg75
(lp829
S':'
asbag68
(g89
g70
NtRp830
(dp831
g73
(dp832
sg82
g818
sg75
(lp833
g68
(g69
g70
NtRp834
(dp835
g73
(dp836
g81
I3
ssg82
g830
sg75
(lp837
S''
asbasbasbasbasbasbasbasbasbasbasbag68
(g84
g70
NtRp838
(dp839
g73
(dp840
sg82
g78
sg75
(lp841
g68
(g89
g70
NtRp842
(dp843
g73
(dp844
g93
g94
ssg82
g838
sg75
(lp845
S'env'
p846
asbag68
(g89
g70
NtRp847
(dp848
g73
(dp849
g100
g101
ssg82
g838
sg75
(lp850
S':'
asbag68
(g89
g70
NtRp851
(dp852
g73
(dp853
sg82
g838
sg75
(lp854
g68
(g69
g70
NtRp855
(dp856
g73
(dp857
g81
I5
ssg82
g851
sg75
(lp858
g68
(g77
g70
NtRp859
(dp860
g73
(dp861
g81
I4
ssg82
Nsg75
(lp862
g68
(g84
g70
NtRp863
(dp864
g73
(dp865
sg82
g859
sg75
(lp866
g68
(g89
g70
NtRp867
(dp868
g73
(dp869
g93
g94
ssg82
g863
sg75
(lp870
S'app_folders'
p871
asbag68
(g89
g70
NtRp872
(dp873
g73
(dp874
g100
g101
ssg82
g863
sg75
(lp875
S':'
asbag68
(g89
g70
NtRp876
(dp877
g73
(dp878
sg82
g863
sg75
(lp879
g68
(g69
g70
NtRp880
(dp881
g73
(dp882
g81
I4
ssg82
g876
sg75
(lp883
S"set(['/home/jose/DESARROLLO/web2py199/applications/streamlog/', '/home/jose/DESARROLLO/web2py199/applications/admin/'])"
p884
asbasbasbag68
(g84
g70
NtRp885
(dp886
g73
(dp887
sg82
g859
sg75
(lp888
g68
(g89
g70
NtRp889
(dp890
g73
(dp891
g93
g94
ssg82
g885
sg75
(lp892
S'applications_parent'
p893
asbag68
(g89
g70
NtRp894
(dp895
g73
(dp896
g100
g101
ssg82
g885
sg75
(lp897
S':'
asbag68
(g89
g70
NtRp898
(dp899
g73
(dp900
sg82
g885
sg75
(lp901
g68
(g69
g70
NtRp902
(dp903
g73
(dp904
g81
I4
ssg82
g898
sg75
(lp905
S'/home/jose/DESARROLLO/web2py199'
p906
asbasbasbag68
(g84
g70
NtRp907
(dp908
g73
(dp909
sg82
g859
sg75
(lp910
g68
(g89
g70
NtRp911
(dp912
g73
(dp913
g93
g94
ssg82
g907
sg75
(lp914
S'cmd_args'
p915
asbag68
(g89
g70
NtRp916
(dp917
g73
(dp918
g100
g101
ssg82
g907
sg75
(lp919
S':'
asbag68
(g89
g70
NtRp920
(dp921
g73
(dp922
sg82
g907
sg75
(lp923
g68
(g69
g70
NtRp924
(dp925
g73
(dp926
g81
I4
ssg82
g920
sg75
(lp927
g68
(g77
g70
NtRp928
(dp929
g73
(dp930
g81
I3
ssg82
Nsg75
(lp931
sbasbasbasbag68
(g84
g70
NtRp932
(dp933
g73
(dp934
sg82
g859
sg75
(lp935
g68
(g89
g70
NtRp936
(dp937
g73
(dp938
g93
g94
ssg82
g932
sg75
(lp939
S'cmd_options'
p940
asbag68
(g89
g70
NtRp941
(dp942
g73
(dp943
g100
g101
ssg82
g932
sg75
(lp944
S':'
asbag68
(g89
g70
NtRp945
(dp946
g73
(dp947
sg82
g932
sg75
(lp948
g68
(g69
g70
NtRp949
(dp950
g73
(dp951
g81
I4
ssg82
g945
sg75
(lp952
S"<Values at 0x1c79f80: {'verbose': False, 'ip': '127.0.0.1', 'shutdown_timeout': 5, 'taskbar': False, 'nocron': False, 'pid_filename': 'httpserver.pid', 'maxthreads': None, 'softcron': False, 'server_name': 'jose', 'bpython': False, 'nogui': False, 'port': 8000, 'extcron': False, 'debuglevel': 30, 'test': None, 'folder': '/home/jose/DESARROLLO/web2py199', 'config': '', 'import_models': False, 'winservice': '', 'shell': None, 'run': '', 'log_filename': 'httpserver.log', 'args': [''], 'ssl_ca_certificate': None, 'scheduler': None, 'profiler_filename': None, 'ssl_private_key': '', 'password': 't', 'request_queue_size': 5, 'ssl_certificate': '', 'cronjob': False, 'plain': False, 'quiet': False, 'interfaces': None, 'minthreads': None, 'timeout': 10, 'numthreads': None, 'nobanner': False}>"
p953
asbasbasbag68
(g84
g70
NtRp954
(dp955
g73
(dp956
sg82
g859
sg75
(lp957
g68
(g89
g70
NtRp958
(dp959
g73
(dp960
g93
g94
ssg82
g954
sg75
(lp961
S'db_sessions'
p962
asbag68
(g89
g70
NtRp963
(dp964
g73
(dp965
g100
g101
ssg82
g954
sg75
(lp966
S':'
asbag68
(g89
g70
NtRp967
(dp968
g73
(dp969
sg82
g954
sg75
(lp970
g68
(g69
g70
NtRp971
(dp972
g73
(dp973
g81
I4
ssg82
g967
sg75
(lp974
S'set([])'
p975
asbasbasbag68
(g84
g70
NtRp976
(dp977
g73
(dp978
sg82
g859
sg75
(lp979
g68
(g89
g70
NtRp980
(dp981
g73
(dp982
g93
g94
ssg82
g976
sg75
(lp983
S'debugging'
p984
asbag68
(g89
g70
NtRp985
(dp986
g73
(dp987
g100
g101
ssg82
g976
sg75
(lp988
S':'
asbag68
(g89
g70
NtRp989
(dp990
g73
(dp991
sg82
g976
sg75
(lp992
g68
(g69
g70
NtRp993
(dp994
g73
(dp995
g81
I4
ssg82
g989
sg75
(lp996
S'False'
p997
asbasbasbag68
(g84
g70
NtRp998
(dp999
g73
(dp1000
sg82
g859
sg75
(lp1001
g68
(g89
g70
NtRp1002
(dp1003
g73
(dp1004
g93
g94
ssg82
g998
sg75
(lp1005
S'gluon_parent'
p1006
asbag68
(g89
g70
NtRp1007
(dp1008
g73
(dp1009
g100
g101
ssg82
g998
sg75
(lp1010
S':'
asbag68
(g89
g70
NtRp1011
(dp1012
g73
(dp1013
sg82
g998
sg75
(lp1014
g68
(g69
g70
NtRp1015
(dp1016
g73
(dp1017
g81
I4
ssg82
g1011
sg75
(lp1018
S'/home/jose/DESARROLLO/web2py199'
p1019
asbasbasbag68
(g84
g70
NtRp1020
(dp1021
g73
(dp1022
sg82
g859
sg75
(lp1023
g68
(g89
g70
NtRp1024
(dp1025
g73
(dp1026
g93
g94
ssg82
g1020
sg75
(lp1027
S'http_accept'
p1028
asbag68
(g89
g70
NtRp1029
(dp1030
g73
(dp1031
g100
g101
ssg82
g1020
sg75
(lp1032
S':'
asbag68
(g89
g70
NtRp1033
(dp1034
g73
(dp1035
sg82
g1020
sg75
(lp1036
g68
(g69
g70
NtRp1037
(dp1038
g73
(dp1039
g81
I4
ssg82
g1033
sg75
(lp1040
S'application/json, text/javascript, */*; q=0.01'
p1041
asbasbasbag68
(g84
g70
NtRp1042
(dp1043
g73
(dp1044
sg82
g859
sg75
(lp1045
g68
(g89
g70
NtRp1046
(dp1047
g73
(dp1048
g93
g94
ssg82
g1042
sg75
(lp1049
S'http_accept_encoding'
p1050
asbag68
(g89
g70
NtRp1051
(dp1052
g73
(dp1053
g100
g101
ssg82
g1042
sg75
(lp1054
S':'
asbag68
(g89
g70
NtRp1055
(dp1056
g73
(dp1057
sg82
g1042
sg75
(lp1058
g68
(g69
g70
NtRp1059
(dp1060
g73
(dp1061
g81
I4
ssg82
g1055
sg75
(lp1062
S'gzip, deflate'
p1063
asbasbasbag68
(g84
g70
NtRp1064
(dp1065
g73
(dp1066
sg82
g859
sg75
(lp1067
g68
(g89
g70
NtRp1068
(dp1069
g73
(dp1070
g93
g94
ssg82
g1064
sg75
(lp1071
S'http_accept_language'
p1072
asbag68
(g89
g70
NtRp1073
(dp1074
g73
(dp1075
g100
g101
ssg82
g1064
sg75
(lp1076
S':'
asbag68
(g89
g70
NtRp1077
(dp1078
g73
(dp1079
sg82
g1064
sg75
(lp1080
g68
(g69
g70
NtRp1081
(dp1082
g73
(dp1083
g81
I4
ssg82
g1077
sg75
(lp1084
S'en-us,en;q=0.5'
p1085
asbasbasbag68
(g84
g70
NtRp1086
(dp1087
g73
(dp1088
sg82
g859
sg75
(lp1089
g68
(g89
g70
NtRp1090
(dp1091
g73
(dp1092
g93
g94
ssg82
g1086
sg75
(lp1093
S'http_connection'
p1094
asbag68
(g89
g70
NtRp1095
(dp1096
g73
(dp1097
g100
g101
ssg82
g1086
sg75
(lp1098
S':'
asbag68
(g89
g70
NtRp1099
(dp1100
g73
(dp1101
sg82
g1086
sg75
(lp1102
g68
(g69
g70
NtRp1103
(dp1104
g73
(dp1105
g81
I4
ssg82
g1099
sg75
(lp1106
S'keep-alive'
p1107
asbasbasbag68
(g84
g70
NtRp1108
(dp1109
g73
(dp1110
sg82
g859
sg75
(lp1111
g68
(g89
g70
NtRp1112
(dp1113
g73
(dp1114
g93
g94
ssg82
g1108
sg75
(lp1115
S'http_cookie'
p1116
asbag68
(g89
g70
NtRp1117
(dp1118
g73
(dp1119
g100
g101
ssg82
g1108
sg75
(lp1120
S':'
asbag68
(g89
g70
NtRp1121
(dp1122
g73
(dp1123
sg82
g1108
sg75
(lp1124
g68
(g69
g70
NtRp1125
(dp1126
g73
(dp1127
g81
I4
ssg82
g1121
sg75
(lp1128
S'session_id_streamlog=127.0.0.1-610b0c7d-3f6f-4500-a76a-b095fb30f7fd; session_id_admin=127.0.0.1-8f69464e-4a83-4875-ad25-00cf5c7e8e11; session_id_test3=127.0.0.1-380e7b29-b635-4690-b9ca-812870d6a061'
p1129
asbasbasbag68
(g84
g70
NtRp1130
(dp1131
g73
(dp1132
sg82
g859
sg75
(lp1133
g68
(g89
g70
NtRp1134
(dp1135
g73
(dp1136
g93
g94
ssg82
g1130
sg75
(lp1137
S'http_host'
p1138
asbag68
(g89
g70
NtRp1139
(dp1140
g73
(dp1141
g100
g101
ssg82
g1130
sg75
(lp1142
S':'
asbag68
(g89
g70
NtRp1143
(dp1144
g73
(dp1145
sg82
g1130
sg75
(lp1146
g68
(g69
g70
NtRp1147
(dp1148
g73
(dp1149
g81
I4
ssg82
g1143
sg75
(lp1150
S'localhost:8000'
p1151
asbasbasbag68
(g84
g70
NtRp1152
(dp1153
g73
(dp1154
sg82
g859
sg75
(lp1155
g68
(g89
g70
NtRp1156
(dp1157
g73
(dp1158
g93
g94
ssg82
g1152
sg75
(lp1159
S'http_referer'
p1160
asbag68
(g89
g70
NtRp1161
(dp1162
g73
(dp1163
g100
g101
ssg82
g1152
sg75
(lp1164
S':'
asbag68
(g89
g70
NtRp1165
(dp1166
g73
(dp1167
sg82
g1152
sg75
(lp1168
g68
(g69
g70
NtRp1169
(dp1170
g73
(dp1171
g81
I4
ssg82
g1165
sg75
(lp1172
S'http://localhost:8000/streamlog/default/index'
p1173
asbasbasbag68
(g84
g70
NtRp1174
(dp1175
g73
(dp1176
sg82
g859
sg75
(lp1177
g68
(g89
g70
NtRp1178
(dp1179
g73
(dp1180
g93
g94
ssg82
g1174
sg75
(lp1181
S'http_user_agent'
p1182
asbag68
(g89
g70
NtRp1183
(dp1184
g73
(dp1185
g100
g101
ssg82
g1174
sg75
(lp1186
S':'
asbag68
(g89
g70
NtRp1187
(dp1188
g73
(dp1189
sg82
g1174
sg75
(lp1190
g68
(g69
g70
NtRp1191
(dp1192
g73
(dp1193
g81
I4
ssg82
g1187
sg75
(lp1194
S'Mozilla/5.0 (X11; Ubuntu; Linux x86_64; rv:12.0) Gecko/20100101 Firefox/12.0'
p1195
asbasbasbag68
(g84
g70
NtRp1196
(dp1197
g73
(dp1198
sg82
g859
sg75
(lp1199
g68
(g89
g70
NtRp1200
(dp1201
g73
(dp1202
g93
g94
ssg82
g1196
sg75
(lp1203
S'http_x_requested_with'
p1204
asbag68
(g89
g70
NtRp1205
(dp1206
g73
(dp1207
g100
g101
ssg82
g1196
sg75
(lp1208
S':'
asbag68
(g89
g70
NtRp1209
(dp1210
g73
(dp1211
sg82
g1196
sg75
(lp1212
g68
(g69
g70
NtRp1213
(dp1214
g73
(dp1215
g81
I4
ssg82
g1209
sg75
(lp1216
S'XMLHttpRequest'
p1217
asbasbasbag68
(g84
g70
NtRp1218
(dp1219
g73
(dp1220
sg82
g859
sg75
(lp1221
g68
(g89
g70
NtRp1222
(dp1223
g73
(dp1224
g93
g94
ssg82
g1218
sg75
(lp1225
S'is_jython'
p1226
asbag68
(g89
g70
NtRp1227
(dp1228
g73
(dp1229
g100
g101
ssg82
g1218
sg75
(lp1230
S':'
asbag68
(g89
g70
NtRp1231
(dp1232
g73
(dp1233
sg82
g1218
sg75
(lp1234
g68
(g69
g70
NtRp1235
(dp1236
g73
(dp1237
g81
I4
ssg82
g1231
sg75
(lp1238
g997
asbasbasbag68
(g84
g70
NtRp1239
(dp1240
g73
(dp1241
sg82
g859
sg75
(lp1242
g68
(g89
g70
NtRp1243
(dp1244
g73
(dp1245
g93
g94
ssg82
g1239
sg75
(lp1246
S'path_info'
p1247
asbag68
(g89
g70
NtRp1248
(dp1249
g73
(dp1250
g100
g101
ssg82
g1239
sg75
(lp1251
S':'
asbag68
(g89
g70
NtRp1252
(dp1253
g73
(dp1254
sg82
g1239
sg75
(lp1255
g68
(g69
g70
NtRp1256
(dp1257
g73
(dp1258
g81
I4
ssg82
g1252
sg75
(lp1259
S'/streamlog/default/call/json/getConnectionData'
p1260
asbasbasbag68
(g84
g70
NtRp1261
(dp1262
g73
(dp1263
sg82
g859
sg75
(lp1264
g68
(g89
g70
NtRp1265
(dp1266
g73
(dp1267
g93
g94
ssg82
g1261
sg75
(lp1268
S'query_string'
p1269
asbag68
(g89
g70
NtRp1270
(dp1271
g73
(dp1272
g100
g101
ssg82
g1261
sg75
(lp1273
S':'
asbag68
(g89
g70
NtRp1274
(dp1275
g73
(dp1276
sg82
g1261
sg75
(lp1277
g68
(g69
g70
NtRp1278
(dp1279
g73
(dp1280
g81
I4
ssg82
g1274
sg75
(lp1281
S''
asbasbasbag68
(g84
g70
NtRp1282
(dp1283
g73
(dp1284
sg82
g859
sg75
(lp1285
g68
(g89
g70
NtRp1286
(dp1287
g73
(dp1288
g93
g94
ssg82
g1282
sg75
(lp1289
S'remote_addr'
p1290
asbag68
(g89
g70
NtRp1291
(dp1292
g73
(dp1293
g100
g101
ssg82
g1282
sg75
(lp1294
S':'
asbag68
(g89
g70
NtRp1295
(dp1296
g73
(dp1297
sg82
g1282
sg75
(lp1298
g68
(g69
g70
NtRp1299
(dp1300
g73
(dp1301
g81
I4
ssg82
g1295
sg75
(lp1302
g227
asbasbasbag68
(g84
g70
NtRp1303
(dp1304
g73
(dp1305
sg82
g859
sg75
(lp1306
g68
(g89
g70
NtRp1307
(dp1308
g73
(dp1309
g93
g94
ssg82
g1303
sg75
(lp1310
S'remote_port'
p1311
asbag68
(g89
g70
NtRp1312
(dp1313
g73
(dp1314
g100
g101
ssg82
g1303
sg75
(lp1315
S':'
asbag68
(g89
g70
NtRp1316
(dp1317
g73
(dp1318
sg82
g1303
sg75
(lp1319
g68
(g69
g70
NtRp1320
(dp1321
g73
(dp1322
g81
I4
ssg82
g1316
sg75
(lp1323
S'34814'
p1324
asbasbasbag68
(g84
g70
NtRp1325
(dp1326
g73
(dp1327
sg82
g859
sg75
(lp1328
g68
(g89
g70
NtRp1329
(dp1330
g73
(dp1331
g93
g94
ssg82
g1325
sg75
(lp1332
S'request_method'
p1333
asbag68
(g89
g70
NtRp1334
(dp1335
g73
(dp1336
g100
g101
ssg82
g1325
sg75
(lp1337
S':'
asbag68
(g89
g70
NtRp1338
(dp1339
g73
(dp1340
sg82
g1325
sg75
(lp1341
g68
(g69
g70
NtRp1342
(dp1343
g73
(dp1344
g81
I4
ssg82
g1338
sg75
(lp1345
S'GET'
p1346
asbasbasbag68
(g84
g70
NtRp1347
(dp1348
g73
(dp1349
sg82
g859
sg75
(lp1350
g68
(g89
g70
NtRp1351
(dp1352
g73
(dp1353
g93
g94
ssg82
g1347
sg75
(lp1354
S'script_name'
p1355
asbag68
(g89
g70
NtRp1356
(dp1357
g73
(dp1358
g100
g101
ssg82
g1347
sg75
(lp1359
S':'
asbag68
(g89
g70
NtRp1360
(dp1361
g73
(dp1362
sg82
g1347
sg75
(lp1363
g68
(g69
g70
NtRp1364
(dp1365
g73
(dp1366
g81
I4
ssg82
g1360
sg75
(lp1367
S''
asbasbasbag68
(g84
g70
NtRp1368
(dp1369
g73
(dp1370
sg82
g859
sg75
(lp1371
g68
(g89
g70
NtRp1372
(dp1373
g73
(dp1374
g93
g94
ssg82
g1368
sg75
(lp1375
S'server_name'
p1376
asbag68
(g89
g70
NtRp1377
(dp1378
g73
(dp1379
g100
g101
ssg82
g1368
sg75
(lp1380
S':'
asbag68
(g89
g70
NtRp1381
(dp1382
g73
(dp1383
sg82
g1368
sg75
(lp1384
g68
(g69
g70
NtRp1385
(dp1386
g73
(dp1387
g81
I4
ssg82
g1381
sg75
(lp1388
S'jose'
p1389
asbasbasbag68
(g84
g70
NtRp1390
(dp1391
g73
(dp1392
sg82
g859
sg75
(lp1393
g68
(g89
g70
NtRp1394
(dp1395
g73
(dp1396
g93
g94
ssg82
g1390
sg75
(lp1397
S'server_port'
p1398
asbag68
(g89
g70
NtRp1399
(dp1400
g73
(dp1401
g100
g101
ssg82
g1390
sg75
(lp1402
S':'
asbag68
(g89
g70
NtRp1403
(dp1404
g73
(dp1405
sg82
g1390
sg75
(lp1406
g68
(g69
g70
NtRp1407
(dp1408
g73
(dp1409
g81
I4
ssg82
g1403
sg75
(lp1410
S'8000'
p1411
asbasbasbag68
(g84
g70
NtRp1412
(dp1413
g73
(dp1414
sg82
g859
sg75
(lp1415
g68
(g89
g70
NtRp1416
(dp1417
g73
(dp1418
g93
g94
ssg82
g1412
sg75
(lp1419
S'server_protocol'
p1420
asbag68
(g89
g70
NtRp1421
(dp1422
g73
(dp1423
g100
g101
ssg82
g1412
sg75
(lp1424
S':'
asbag68
(g89
g70
NtRp1425
(dp1426
g73
(dp1427
sg82
g1412
sg75
(lp1428
g68
(g69
g70
NtRp1429
(dp1430
g73
(dp1431
g81
I4
ssg82
g1425
sg75
(lp1432
S'HTTP/1.1'
p1433
asbasbasbag68
(g84
g70
NtRp1434
(dp1435
g73
(dp1436
sg82
g859
sg75
(lp1437
g68
(g89
g70
NtRp1438
(dp1439
g73
(dp1440
g93
g94
ssg82
g1434
sg75
(lp1441
S'server_software'
p1442
asbag68
(g89
g70
NtRp1443
(dp1444
g73
(dp1445
g100
g101
ssg82
g1434
sg75
(lp1446
S':'
asbag68
(g89
g70
NtRp1447
(dp1448
g73
(dp1449
sg82
g1434
sg75
(lp1450
g68
(g69
g70
NtRp1451
(dp1452
g73
(dp1453
g81
I4
ssg82
g1447
sg75
(lp1454
S'Rocket 1.2.4'
p1455
asbasbasbag68
(g84
g70
NtRp1456
(dp1457
g73
(dp1458
sg82
g859
sg75
(lp1459
g68
(g89
g70
NtRp1460
(dp1461
g73
(dp1462
g93
g94
ssg82
g1456
sg75
(lp1463
S'web2py_crontype'
p1464
asbag68
(g89
g70
NtRp1465
(dp1466
g73
(dp1467
g100
g101
ssg82
g1456
sg75
(lp1468
S':'
asbag68
(g89
g70
NtRp1469
(dp1470
g73
(dp1471
sg82
g1456
sg75
(lp1472
g68
(g69
g70
NtRp1473
(dp1474
g73
(dp1475
g81
I4
ssg82
g1469
sg75
(lp1476
S'hard'
p1477
asbasbasbag68
(g84
g70
NtRp1478
(dp1479
g73
(dp1480
sg82
g859
sg75
(lp1481
g68
(g89
g70
NtRp1482
(dp1483
g73
(dp1484
g93
g94
ssg82
g1478
sg75
(lp1485
S'web2py_path'
p1486
asbag68
(g89
g70
NtRp1487
(dp1488
g73
(dp1489
g100
g101
ssg82
g1478
sg75
(lp1490
S':'
asbag68
(g89
g70
NtRp1491
(dp1492
g73
(dp1493
sg82
g1478
sg75
(lp1494
g68
(g69
g70
NtRp1495
(dp1496
g73
(dp1497
g81
I4
ssg82
g1491
sg75
(lp1498
g906
asbasbasbag68
(g84
g70
NtRp1499
(dp1500
g73
(dp1501
sg82
g859
sg75
(lp1502
g68
(g89
g70
NtRp1503
(dp1504
g73
(dp1505
g93
g94
ssg82
g1499
sg75
(lp1506
S'web2py_version'
p1507
asbag68
(g89
g70
NtRp1508
(dp1509
g73
(dp1510
g100
g101
ssg82
g1499
sg75
(lp1511
S':'
asbag68
(g89
g70
NtRp1512
(dp1513
g73
(dp1514
sg82
g1499
sg75
(lp1515
g68
(g69
g70
NtRp1516
(dp1517
g73
(dp1518
g81
I4
ssg82
g1512
sg75
(lp1519
g68
(g77
g70
NtRp1520
(dp1521
g73
(dp1522
g81
I3
ssg82
Nsg75
(lp1523
g68
(g84
g70
NtRp1524
(dp1525
g73
(dp1526
sg82
g1520
sg75
(lp1527
g68
(g89
g70
NtRp1528
(dp1529
g73
(dp1530
sg82
g1524
sg75
(lp1531
g68
(g69
g70
NtRp1532
(dp1533
g73
(dp1534
g81
I3
ssg82
g1528
sg75
(lp1535
S'1'
asbasbasbag68
(g84
g70
NtRp1536
(dp1537
g73
(dp1538
sg82
g1520
sg75
(lp1539
g68
(g89
g70
NtRp1540
(dp1541
g73
(dp1542
sg82
g1536
sg75
(lp1543
g68
(g69
g70
NtRp1544
(dp1545
g73
(dp1546
g81
I3
ssg82
g1540
sg75
(lp1547
S'99'
p1548
asbasbasbag68
(g84
g70
NtRp1549
(dp1550
g73
(dp1551
sg82
g1520
sg75
(lp1552
g68
(g89
g70
NtRp1553
(dp1554
g73
(dp1555
sg82
g1549
sg75
(lp1556
g68
(g69
g70
NtRp1557
(dp1558
g73
(dp1559
g81
I3
ssg82
g1553
sg75
(lp1560
S'2'
asbasbasbag68
(g84
g70
NtRp1561
(dp1562
g73
(dp1563
sg82
g1520
sg75
(lp1564
g68
(g89
g70
NtRp1565
(dp1566
g73
(dp1567
sg82
g1561
sg75
(lp1568
g68
(g69
g70
NtRp1569
(dp1570
g73
(dp1571
g81
I3
ssg82
g1565
sg75
(lp1572
S'datetime.datetime(2011, 9, 26, 6, 55, 33)'
p1573
asbasbasbag68
(g84
g70
NtRp1574
(dp1575
g73
(dp1576
sg82
g1520
sg75
(lp1577
g68
(g89
g70
NtRp1578
(dp1579
g73
(dp1580
sg82
g1574
sg75
(lp1581
g68
(g69
g70
NtRp1582
(dp1583
g73
(dp1584
g81
I3
ssg82
g1578
sg75
(lp1585
S'stable'
p1586
asbasbasbasbasbasbasbag68
(g84
g70
NtRp1587
(dp1588
g73
(dp1589
sg82
g859
sg75
(lp1590
g68
(g89
g70
NtRp1591
(dp1592
g73
(dp1593
g93
g94
ssg82
g1587
sg75
(lp1594
S'wsgi_errors'
p1595
asbag68
(g89
g70
NtRp1596
(dp1597
g73
(dp1598
g100
g101
ssg82
g1587
sg75
(lp1599
S':'
asbag68
(g89
g70
NtRp1600
(dp1601
g73
(dp1602
sg82
g1587
sg75
(lp1603
g68
(g69
g70
NtRp1604
(dp1605
g73
(dp1606
g81
I4
ssg82
g1600
sg75
(lp1607
S"<open file '<stderr>', mode 'w' at 0x7f84db3ff270>"
p1608
asbasbasbag68
(g84
g70
NtRp1609
(dp1610
g73
(dp1611
sg82
g859
sg75
(lp1612
g68
(g89
g70
NtRp1613
(dp1614
g73
(dp1615
g93
g94
ssg82
g1609
sg75
(lp1616
S'wsgi_file_wrapper'
p1617
asbag68
(g89
g70
NtRp1618
(dp1619
g73
(dp1620
g100
g101
ssg82
g1609
sg75
(lp1621
S':'
asbag68
(g89
g70
NtRp1622
(dp1623
g73
(dp1624
sg82
g1609
sg75
(lp1625
g68
(g69
g70
NtRp1626
(dp1627
g73
(dp1628
g81
I4
ssg82
g1622
sg75
(lp1629
S'<class wsgiref.util.FileWrapper at 0x1b96d50>'
p1630
asbasbasbag68
(g84
g70
NtRp1631
(dp1632
g73
(dp1633
sg82
g859
sg75
(lp1634
g68
(g89
g70
NtRp1635
(dp1636
g73
(dp1637
g93
g94
ssg82
g1631
sg75
(lp1638
S'wsgi_input'
p1639
asbag68
(g89
g70
NtRp1640
(dp1641
g73
(dp1642
g100
g101
ssg82
g1631
sg75
(lp1643
S':'
asbag68
(g89
g70
NtRp1644
(dp1645
g73
(dp1646
sg82
g1631
sg75
(lp1647
g68
(g69
g70
NtRp1648
(dp1649
g73
(dp1650
g81
I4
ssg82
g1644
sg75
(lp1651
S'<socket._fileobject object at 0x21fcb50>'
p1652
asbasbasbag68
(g84
g70
NtRp1653
(dp1654
g73
(dp1655
sg82
g859
sg75
(lp1656
g68
(g89
g70
NtRp1657
(dp1658
g73
(dp1659
g93
g94
ssg82
g1653
sg75
(lp1660
S'wsgi_multiprocess'
p1661
asbag68
(g89
g70
NtRp1662
(dp1663
g73
(dp1664
g100
g101
ssg82
g1653
sg75
(lp1665
S':'
asbag68
(g89
g70
NtRp1666
(dp1667
g73
(dp1668
sg82
g1653
sg75
(lp1669
g68
(g69
g70
NtRp1670
(dp1671
g73
(dp1672
g81
I4
ssg82
g1666
sg75
(lp1673
g997
asbasbasbag68
(g84
g70
NtRp1674
(dp1675
g73
(dp1676
sg82
g859
sg75
(lp1677
g68
(g89
g70
NtRp1678
(dp1679
g73
(dp1680
g93
g94
ssg82
g1674
sg75
(lp1681
S'wsgi_multithread'
p1682
asbag68
(g89
g70
NtRp1683
(dp1684
g73
(dp1685
g100
g101
ssg82
g1674
sg75
(lp1686
S':'
asbag68
(g89
g70
NtRp1687
(dp1688
g73
(dp1689
sg82
g1674
sg75
(lp1690
g68
(g69
g70
NtRp1691
(dp1692
g73
(dp1693
g81
I4
ssg82
g1687
sg75
(lp1694
g111
asbasbasbag68
(g84
g70
NtRp1695
(dp1696
g73
(dp1697
sg82
g859
sg75
(lp1698
g68
(g89
g70
NtRp1699
(dp1700
g73
(dp1701
g93
g94
ssg82
g1695
sg75
(lp1702
S'wsgi_run_once'
p1703
asbag68
(g89
g70
NtRp1704
(dp1705
g73
(dp1706
g100
g101
ssg82
g1695
sg75
(lp1707
S':'
asbag68
(g89
g70
NtRp1708
(dp1709
g73
(dp1710
sg82
g1695
sg75
(lp1711
g68
(g69
g70
NtRp1712
(dp1713
g73
(dp1714
g81
I4
ssg82
g1708
sg75
(lp1715
g997
asbasbasbag68
(g84
g70
NtRp1716
(dp1717
g73
(dp1718
sg82
g859
sg75
(lp1719
g68
(g89
g70
NtRp1720
(dp1721
g73
(dp1722
g93
g94
ssg82
g1716
sg75
(lp1723
S'wsgi_url_scheme'
p1724
asbag68
(g89
g70
NtRp1725
(dp1726
g73
(dp1727
g100
g101
ssg82
g1716
sg75
(lp1728
S':'
asbag68
(g89
g70
NtRp1729
(dp1730
g73
(dp1731
sg82
g1716
sg75
(lp1732
g68
(g69
g70
NtRp1733
(dp1734
g73
(dp1735
g81
I4
ssg82
g1729
sg75
(lp1736
S'http'
p1737
asbasbasbag68
(g84
g70
NtRp1738
(dp1739
g73
(dp1740
sg82
g859
sg75
(lp1741
g68
(g89
g70
NtRp1742
(dp1743
g73
(dp1744
g93
g94
ssg82
g1738
sg75
(lp1745
S'wsgi_version'
p1746
asbag68
(g89
g70
NtRp1747
(dp1748
g73
(dp1749
g100
g101
ssg82
g1738
sg75
(lp1750
S':'
asbag68
(g89
g70
NtRp1751
(dp1752
g73
(dp1753
sg82
g1738
sg75
(lp1754
g68
(g69
g70
NtRp1755
(dp1756
g73
(dp1757
g81
I4
ssg82
g1751
sg75
(lp1758
g68
(g77
g70
NtRp1759
(dp1760
g73
(dp1761
g81
I3
ssg82
Nsg75
(lp1762
g68
(g84
g70
NtRp1763
(dp1764
g73
(dp1765
sg82
g1759
sg75
(lp1766
g68
(g89
g70
NtRp1767
(dp1768
g73
(dp1769
sg82
g1763
sg75
(lp1770
g68
(g69
g70
NtRp1771
(dp1772
g73
(dp1773
g81
I3
ssg82
g1767
sg75
(lp1774
S'1'
asbasbasbag68
(g84
g70
NtRp1775
(dp1776
g73
(dp1777
sg82
g1759
sg75
(lp1778
g68
(g89
g70
NtRp1779
(dp1780
g73
(dp1781
sg82
g1775
sg75
(lp1782
g68
(g69
g70
NtRp1783
(dp1784
g73
(dp1785
g81
I3
ssg82
g1779
sg75
(lp1786
S'0'
asbasbasbasbasbasbasbasbasbasbasbag68
(g84
g70
NtRp1787
(dp1788
g73
(dp1789
sg82
g78
sg75
(lp1790
g68
(g89
g70
NtRp1791
(dp1792
g73
(dp1793
g93
g94
ssg82
g1787
sg75
(lp1794
S'extension'
p1795
asbag68
(g89
g70
NtRp1796
(dp1797
g73
(dp1798
g100
g101
ssg82
g1787
sg75
(lp1799
S':'
asbag68
(g89
g70
NtRp1800
(dp1801
g73
(dp1802
sg82
g1787
sg75
(lp1803
g68
(g69
g70
NtRp1804
(dp1805
g73
(dp1806
g81
I5
ssg82
g1800
sg75
(lp1807
S'html'
p1808
asbasbasbag68
(g84
g70
NtRp1809
(dp1810
g73
(dp1811
sg82
g78
sg75
(lp1812
g68
(g89
g70
NtRp1813
(dp1814
g73
(dp1815
g93
g94
ssg82
g1809
sg75
(lp1816
S'folder'
p1817
asbag68
(g89
g70
NtRp1818
(dp1819
g73
(dp1820
g100
g101
ssg82
g1809
sg75
(lp1821
S':'
asbag68
(g89
g70
NtRp1822
(dp1823
g73
(dp1824
sg82
g1809
sg75
(lp1825
g68
(g69
g70
NtRp1826
(dp1827
g73
(dp1828
g81
I5
ssg82
g1822
sg75
(lp1829
S'/home/jose/DESARROLLO/web2py199/applications/streamlog/'
p1830
asbasbasbag68
(g84
g70
NtRp1831
(dp1832
g73
(dp1833
sg82
g78
sg75
(lp1834
g68
(g89
g70
NtRp1835
(dp1836
g73
(dp1837
g93
g94
ssg82
g1831
sg75
(lp1838
S'function'
p1839
asbag68
(g89
g70
NtRp1840
(dp1841
g73
(dp1842
g100
g101
ssg82
g1831
sg75
(lp1843
S':'
asbag68
(g89
g70
NtRp1844
(dp1845
g73
(dp1846
sg82
g1831
sg75
(lp1847
g68
(g69
g70
NtRp1848
(dp1849
g73
(dp1850
g81
I5
ssg82
g1844
sg75
(lp1851
S'call'
p1852
asbasbasbag68
(g84
g70
NtRp1853
(dp1854
g73
(dp1855
sg82
g78
sg75
(lp1856
g68
(g89
g70
NtRp1857
(dp1858
g73
(dp1859
g93
g94
ssg82
g1853
sg75
(lp1860
S'get_vars'
p1861
asbag68
(g89
g70
NtRp1862
(dp1863
g73
(dp1864
g100
g101
ssg82
g1853
sg75
(lp1865
S':'
asbag68
(g89
g70
NtRp1866
(dp1867
g73
(dp1868
sg82
g1853
sg75
(lp1869
g68
(g69
g70
NtRp1870
(dp1871
g73
(dp1872
g81
I5
ssg82
g1866
sg75
(lp1873
g68
(g77
g70
NtRp1874
(dp1875
g73
(dp1876
g81
I4
ssg82
Nsg75
(lp1877
sbasbasbasbag68
(g84
g70
NtRp1878
(dp1879
g73
(dp1880
sg82
g78
sg75
(lp1881
g68
(g89
g70
NtRp1882
(dp1883
g73
(dp1884
g93
g94
ssg82
g1878
sg75
(lp1885
S'global_settings'
p1886
asbag68
(g89
g70
NtRp1887
(dp1888
g73
(dp1889
g100
g101
ssg82
g1878
sg75
(lp1890
S':'
asbag68
(g89
g70
NtRp1891
(dp1892
g73
(dp1893
sg82
g1878
sg75
(lp1894
g68
(g69
g70
NtRp1895
(dp1896
g73
(dp1897
g81
I5
ssg82
g1891
sg75
(lp1898
g68
(g77
g70
NtRp1899
(dp1900
g73
(dp1901
g81
I4
ssg82
Nsg75
(lp1902
g68
(g84
g70
NtRp1903
(dp1904
g73
(dp1905
sg82
g1899
sg75
(lp1906
g68
(g89
g70
NtRp1907
(dp1908
g73
(dp1909
g93
g94
ssg82
g1903
sg75
(lp1910
g871
asbag68
(g89
g70
NtRp1911
(dp1912
g73
(dp1913
g100
g101
ssg82
g1903
sg75
(lp1914
S':'
asbag68
(g89
g70
NtRp1915
(dp1916
g73
(dp1917
sg82
g1903
sg75
(lp1918
g68
(g69
g70
NtRp1919
(dp1920
g73
(dp1921
g81
I4
ssg82
g1915
sg75
(lp1922
S"set(['/home/jose/DESARROLLO/web2py199/applications/streamlog/', '/home/jose/DESARROLLO/web2py199/applications/admin/'])"
p1923
asbasbasbag68
(g84
g70
NtRp1924
(dp1925
g73
(dp1926
sg82
g1899
sg75
(lp1927
g68
(g89
g70
NtRp1928
(dp1929
g73
(dp1930
g93
g94
ssg82
g1924
sg75
(lp1931
g893
asbag68
(g89
g70
NtRp1932
(dp1933
g73
(dp1934
g100
g101
ssg82
g1924
sg75
(lp1935
S':'
asbag68
(g89
g70
NtRp1936
(dp1937
g73
(dp1938
sg82
g1924
sg75
(lp1939
g68
(g69
g70
NtRp1940
(dp1941
g73
(dp1942
g81
I4
ssg82
g1936
sg75
(lp1943
g906
asbasbasbag68
(g84
g70
NtRp1944
(dp1945
g73
(dp1946
sg82
g1899
sg75
(lp1947
g68
(g89
g70
NtRp1948
(dp1949
g73
(dp1950
g93
g94
ssg82
g1944
sg75
(lp1951
g915
asbag68
(g89
g70
NtRp1952
(dp1953
g73
(dp1954
g100
g101
ssg82
g1944
sg75
(lp1955
S':'
asbag68
(g89
g70
NtRp1956
(dp1957
g73
(dp1958
sg82
g1944
sg75
(lp1959
g68
(g69
g70
NtRp1960
(dp1961
g73
(dp1962
g81
I4
ssg82
g1956
sg75
(lp1963
g68
(g77
g70
NtRp1964
(dp1965
g73
(dp1966
g81
I3
ssg82
Nsg75
(lp1967
sbasbasbasbag68
(g84
g70
NtRp1968
(dp1969
g73
(dp1970
sg82
g1899
sg75
(lp1971
g68
(g89
g70
NtRp1972
(dp1973
g73
(dp1974
g93
g94
ssg82
g1968
sg75
(lp1975
g940
asbag68
(g89
g70
NtRp1976
(dp1977
g73
(dp1978
g100
g101
ssg82
g1968
sg75
(lp1979
S':'
asbag68
(g89
g70
NtRp1980
(dp1981
g73
(dp1982
sg82
g1968
sg75
(lp1983
g68
(g69
g70
NtRp1984
(dp1985
g73
(dp1986
g81
I4
ssg82
g1980
sg75
(lp1987
S"<Values at 0x1c79f80: {'verbose': False, 'ip': '127.0.0.1', 'shutdown_timeout': 5, 'taskbar': False, 'nocron': False, 'pid_filename': 'httpserver.pid', 'maxthreads': None, 'softcron': False, 'server_name': 'jose', 'bpython': False, 'nogui': False, 'port': 8000, 'extcron': False, 'debuglevel': 30, 'test': None, 'folder': '/home/jose/DESARROLLO/web2py199', 'config': '', 'import_models': False, 'winservice': '', 'shell': None, 'run': '', 'log_filename': 'httpserver.log', 'args': [''], 'ssl_ca_certificate': None, 'scheduler': None, 'profiler_filename': None, 'ssl_private_key': '', 'password': 't', 'request_queue_size': 5, 'ssl_certificate': '', 'cronjob': False, 'plain': False, 'quiet': False, 'interfaces': None, 'minthreads': None, 'timeout': 10, 'numthreads': None, 'nobanner': False}>"
p1988
asbasbasbag68
(g84
g70
NtRp1989
(dp1990
g73
(dp1991
sg82
g1899
sg75
(lp1992
g68
(g89
g70
NtRp1993
(dp1994
g73
(dp1995
g93
g94
ssg82
g1989
sg75
(lp1996
g962
asbag68
(g89
g70
NtRp1997
(dp1998
g73
(dp1999
g100
g101
ssg82
g1989
sg75
(lp2000
S':'
asbag68
(g89
g70
NtRp2001
(dp2002
g73
(dp2003
sg82
g1989
sg75
(lp2004
g68
(g69
g70
NtRp2005
(dp2006
g73
(dp2007
g81
I4
ssg82
g2001
sg75
(lp2008
S'set([])'
p2009
asbasbasbag68
(g84
g70
NtRp2010
(dp2011
g73
(dp2012
sg82
g1899
sg75
(lp2013
g68
(g89
g70
NtRp2014
(dp2015
g73
(dp2016
g93
g94
ssg82
g2010
sg75
(lp2017
g984
asbag68
(g89
g70
NtRp2018
(dp2019
g73
(dp2020
g100
g101
ssg82
g2010
sg75
(lp2021
S':'
asbag68
(g89
g70
NtRp2022
(dp2023
g73
(dp2024
sg82
g2010
sg75
(lp2025
g68
(g69
g70
NtRp2026
(dp2027
g73
(dp2028
g81
I4
ssg82
g2022
sg75
(lp2029
g997
asbasbasbag68
(g84
g70
NtRp2030
(dp2031
g73
(dp2032
sg82
g1899
sg75
(lp2033
g68
(g89
g70
NtRp2034
(dp2035
g73
(dp2036
g93
g94
ssg82
g2030
sg75
(lp2037
g1006
asbag68
(g89
g70
NtRp2038
(dp2039
g73
(dp2040
g100
g101
ssg82
g2030
sg75
(lp2041
S':'
asbag68
(g89
g70
NtRp2042
(dp2043
g73
(dp2044
sg82
g2030
sg75
(lp2045
g68
(g69
g70
NtRp2046
(dp2047
g73
(dp2048
g81
I4
ssg82
g2042
sg75
(lp2049
g1019
asbasbasbag68
(g84
g70
NtRp2050
(dp2051
g73
(dp2052
sg82
g1899
sg75
(lp2053
g68
(g89
g70
NtRp2054
(dp2055
g73
(dp2056
g93
g94
ssg82
g2050
sg75
(lp2057
g1226
asbag68
(g89
g70
NtRp2058
(dp2059
g73
(dp2060
g100
g101
ssg82
g2050
sg75
(lp2061
S':'
asbag68
(g89
g70
NtRp2062
(dp2063
g73
(dp2064
sg82
g2050
sg75
(lp2065
g68
(g69
g70
NtRp2066
(dp2067
g73
(dp2068
g81
I4
ssg82
g2062
sg75
(lp2069
g997
asbasbasbag68
(g84
g70
NtRp2070
(dp2071
g73
(dp2072
sg82
g1899
sg75
(lp2073
g68
(g89
g70
NtRp2074
(dp2075
g73
(dp2076
g93
g94
ssg82
g2070
sg75
(lp2077
g1464
asbag68
(g89
g70
NtRp2078
(dp2079
g73
(dp2080
g100
g101
ssg82
g2070
sg75
(lp2081
S':'
asbag68
(g89
g70
NtRp2082
(dp2083
g73
(dp2084
sg82
g2070
sg75
(lp2085
g68
(g69
g70
NtRp2086
(dp2087
g73
(dp2088
g81
I4
ssg82
g2082
sg75
(lp2089
g1477
asbasbasbag68
(g84
g70
NtRp2090
(dp2091
g73
(dp2092
sg82
g1899
sg75
(lp2093
g68
(g89
g70
NtRp2094
(dp2095
g73
(dp2096
g93
g94
ssg82
g2090
sg75
(lp2097
g1507
asbag68
(g89
g70
NtRp2098
(dp2099
g73
(dp2100
g100
g101
ssg82
g2090
sg75
(lp2101
S':'
asbag68
(g89
g70
NtRp2102
(dp2103
g73
(dp2104
sg82
g2090
sg75
(lp2105
g68
(g69
g70
NtRp2106
(dp2107
g73
(dp2108
g81
I4
ssg82
g2102
sg75
(lp2109
g68
(g77
g70
NtRp2110
(dp2111
g73
(dp2112
g81
I3
ssg82
Nsg75
(lp2113
g68
(g84
g70
NtRp2114
(dp2115
g73
(dp2116
sg82
g2110
sg75
(lp2117
g68
(g89
g70
NtRp2118
(dp2119
g73
(dp2120
sg82
g2114
sg75
(lp2121
g68
(g69
g70
NtRp2122
(dp2123
g73
(dp2124
g81
I3
ssg82
g2118
sg75
(lp2125
S'1'
asbasbasbag68
(g84
g70
NtRp2126
(dp2127
g73
(dp2128
sg82
g2110
sg75
(lp2129
g68
(g89
g70
NtRp2130
(dp2131
g73
(dp2132
sg82
g2126
sg75
(lp2133
g68
(g69
g70
NtRp2134
(dp2135
g73
(dp2136
g81
I3
ssg82
g2130
sg75
(lp2137
S'99'
p2138
asbasbasbag68
(g84
g70
NtRp2139
(dp2140
g73
(dp2141
sg82
g2110
sg75
(lp2142
g68
(g89
g70
NtRp2143
(dp2144
g73
(dp2145
sg82
g2139
sg75
(lp2146
g68
(g69
g70
NtRp2147
(dp2148
g73
(dp2149
g81
I3
ssg82
g2143
sg75
(lp2150
S'2'
asbasbasbag68
(g84
g70
NtRp2151
(dp2152
g73
(dp2153
sg82
g2110
sg75
(lp2154
g68
(g89
g70
NtRp2155
(dp2156
g73
(dp2157
sg82
g2151
sg75
(lp2158
g68
(g69
g70
NtRp2159
(dp2160
g73
(dp2161
g81
I3
ssg82
g2155
sg75
(lp2162
S'datetime.datetime(2011, 9, 26, 6, 55, 33)'
p2163
asbasbasbag68
(g84
g70
NtRp2164
(dp2165
g73
(dp2166
sg82
g2110
sg75
(lp2167
g68
(g89
g70
NtRp2168
(dp2169
g73
(dp2170
sg82
g2164
sg75
(lp2171
g68
(g69
g70
NtRp2172
(dp2173
g73
(dp2174
g81
I3
ssg82
g2168
sg75
(lp2175
g1586
asbasbasbasbasbasbasbasbasbasbasbag68
(g84
g70
NtRp2176
(dp2177
g73
(dp2178
sg82
g78
sg75
(lp2179
g68
(g89
g70
NtRp2180
(dp2181
g73
(dp2182
g93
g94
ssg82
g2176
sg75
(lp2183
S'is_https'
p2184
asbag68
(g89
g70
NtRp2185
(dp2186
g73
(dp2187
g100
g101
ssg82
g2176
sg75
(lp2188
S':'
asbag68
(g89
g70
NtRp2189
(dp2190
g73
(dp2191
sg82
g2176
sg75
(lp2192
g68
(g69
g70
NtRp2193
(dp2194
g73
(dp2195
g81
I5
ssg82
g2189
sg75
(lp2196
g997
asbasbasbag68
(g84
g70
NtRp2197
(dp2198
g73
(dp2199
sg82
g78
sg75
(lp2200
g68
(g89
g70
NtRp2201
(dp2202
g73
(dp2203
g93
g94
ssg82
g2197
sg75
(lp2204
S'is_local'
p2205
asbag68
(g89
g70
NtRp2206
(dp2207
g73
(dp2208
g100
g101
ssg82
g2197
sg75
(lp2209
S':'
asbag68
(g89
g70
NtRp2210
(dp2211
g73
(dp2212
sg82
g2197
sg75
(lp2213
g68
(g69
g70
NtRp2214
(dp2215
g73
(dp2216
g81
I5
ssg82
g2210
sg75
(lp2217
g111
asbasbasbag68
(g84
g70
NtRp2218
(dp2219
g73
(dp2220
sg82
g78
sg75
(lp2221
g68
(g89
g70
NtRp2222
(dp2223
g73
(dp2224
g93
g94
ssg82
g2218
sg75
(lp2225
S'is_restful'
p2226
asbag68
(g89
g70
NtRp2227
(dp2228
g73
(dp2229
g100
g101
ssg82
g2218
sg75
(lp2230
S':'
asbag68
(g89
g70
NtRp2231
(dp2232
g73
(dp2233
sg82
g2218
sg75
(lp2234
g68
(g69
g70
NtRp2235
(dp2236
g73
(dp2237
g81
I5
ssg82
g2231
sg75
(lp2238
g997
asbasbasbag68
(g84
g70
NtRp2239
(dp2240
g73
(dp2241
sg82
g78
sg75
(lp2242
g68
(g89
g70
NtRp2243
(dp2244
g73
(dp2245
g93
g94
ssg82
g2239
sg75
(lp2246
S'now'
p2247
asbag68
(g89
g70
NtRp2248
(dp2249
g73
(dp2250
g100
g101
ssg82
g2239
sg75
(lp2251
S':'
asbag68
(g89
g70
NtRp2252
(dp2253
g73
(dp2254
sg82
g2239
sg75
(lp2255
g68
(g69
g70
NtRp2256
(dp2257
g73
(dp2258
g81
I5
ssg82
g2252
sg75
(lp2259
S'datetime.datetime(2012, 5, 26, 19, 19, 58, 171873)'
p2260
asbasbasbag68
(g84
g70
NtRp2261
(dp2262
g73
(dp2263
sg82
g78
sg75
(lp2264
g68
(g89
g70
NtRp2265
(dp2266
g73
(dp2267
g93
g94
ssg82
g2261
sg75
(lp2268
S'post_vars'
p2269
asbag68
(g89
g70
NtRp2270
(dp2271
g73
(dp2272
g100
g101
ssg82
g2261
sg75
(lp2273
S':'
asbag68
(g89
g70
NtRp2274
(dp2275
g73
(dp2276
sg82
g2261
sg75
(lp2277
g68
(g69
g70
NtRp2278
(dp2279
g73
(dp2280
g81
I5
ssg82
g2274
sg75
(lp2281
g68
(g77
g70
NtRp2282
(dp2283
g73
(dp2284
g81
I4
ssg82
Nsg75
(lp2285
sbasbasbasbag68
(g84
g70
NtRp2286
(dp2287
g73
(dp2288
sg82
g78
sg75
(lp2289
g68
(g89
g70
NtRp2290
(dp2291
g73
(dp2292
g93
g94
ssg82
g2286
sg75
(lp2293
S'raw_args'
p2294
asbag68
(g89
g70
NtRp2295
(dp2296
g73
(dp2297
g100
g101
ssg82
g2286
sg75
(lp2298
S':'
asbag68
(g89
g70
NtRp2299
(dp2300
g73
(dp2301
sg82
g2286
sg75
(lp2302
g68
(g69
g70
NtRp2303
(dp2304
g73
(dp2305
g81
I5
ssg82
g2299
sg75
(lp2306
S'json/getConnectionData'
p2307
asbasbasbag68
(g84
g70
NtRp2308
(dp2309
g73
(dp2310
sg82
g78
sg75
(lp2311
g68
(g89
g70
NtRp2312
(dp2313
g73
(dp2314
g93
g94
ssg82
g2308
sg75
(lp2315
S'url'
p2316
asbag68
(g89
g70
NtRp2317
(dp2318
g73
(dp2319
g100
g101
ssg82
g2308
sg75
(lp2320
S':'
asbag68
(g89
g70
NtRp2321
(dp2322
g73
(dp2323
sg82
g2308
sg75
(lp2324
g68
(g69
g70
NtRp2325
(dp2326
g73
(dp2327
g81
I5
ssg82
g2321
sg75
(lp2328
S'/streamlog/default/call/json/getConnectionData'
p2329
asbasbasbag68
(g84
g70
NtRp2330
(dp2331
g73
(dp2332
sg82
g78
sg75
(lp2333
g68
(g89
g70
NtRp2334
(dp2335
g73
(dp2336
g93
g94
ssg82
g2330
sg75
(lp2337
S'utcnow'
p2338
asbag68
(g89
g70
NtRp2339
(dp2340
g73
(dp2341
g100
g101
ssg82
g2330
sg75
(lp2342
S':'
asbag68
(g89
g70
NtRp2343
(dp2344
g73
(dp2345
sg82
g2330
sg75
(lp2346
g68
(g69
g70
NtRp2347
(dp2348
g73
(dp2349
g81
I5
ssg82
g2343
sg75
(lp2350
S'datetime.datetime(2012, 5, 26, 12, 19, 58, 171920)'
p2351
asbasbasbag68
(g84
g70
NtRp2352
(dp2353
g73
(dp2354
sg82
g78
sg75
(lp2355
g68
(g89
g70
NtRp2356
(dp2357
g73
(dp2358
g93
g94
ssg82
g2352
sg75
(lp2359
S'uuid'
p2360
asbag68
(g89
g70
NtRp2361
(dp2362
g73
(dp2363
g100
g101
ssg82
g2352
sg75
(lp2364
S':'
asbag68
(g89
g70
NtRp2365
(dp2366
g73
(dp2367
sg82
g2352
sg75
(lp2368
g68
(g69
g70
NtRp2369
(dp2370
g73
(dp2371
g81
I5
ssg82
g2365
sg75
(lp2372
S'streamlog/127.0.0.1.2012-05-26.19-19-58.17ebdc7b-b0eb-4ad1-905b-b50f381b1e57'
p2373
asbasbasbag68
(g84
g70
NtRp2374
(dp2375
g73
(dp2376
sg82
g78
sg75
(lp2377
g68
(g89
g70
NtRp2378
(dp2379
g73
(dp2380
g93
g94
ssg82
g2374
sg75
(lp2381
S'vars'
p2382
asbag68
(g89
g70
NtRp2383
(dp2384
g73
(dp2385
g100
g101
ssg82
g2374
sg75
(lp2386
S':'
asbag68
(g89
g70
NtRp2387
(dp2388
g73
(dp2389
sg82
g2374
sg75
(lp2390
g68
(g69
g70
NtRp2391
(dp2392
g73
(dp2393
g81
I5
ssg82
g2387
sg75
(lp2394
g68
(g77
g70
NtRp2395
(dp2396
g73
(dp2397
g81
I4
ssg82
Nsg75
(lp2398
sbasbasbasbag68
(g84
g70
NtRp2399
(dp2400
g73
(dp2401
sg82
g78
sg75
(lp2402
g68
(g89
g70
NtRp2403
(dp2404
g73
(dp2405
g93
g94
ssg82
g2399
sg75
(lp2406
S'wsgi'
p2407
asbag68
(g89
g70
NtRp2408
(dp2409
g73
(dp2410
g100
g101
ssg82
g2399
sg75
(lp2411
S':'
asbag68
(g89
g70
NtRp2412
(dp2413
g73
(dp2414
sg82
g2399
sg75
(lp2415
g68
(g69
g70
NtRp2416
(dp2417
g73
(dp2418
g81
I5
ssg82
g2412
sg75
(lp2419
g68
(g77
g70
NtRp2420
(dp2421
g73
(dp2422
g81
I4
ssg82
Nsg75
(lp2423
g68
(g84
g70
NtRp2424
(dp2425
g73
(dp2426
sg82
g2420
sg75
(lp2427
g68
(g89
g70
NtRp2428
(dp2429
g73
(dp2430
g93
g94
ssg82
g2424
sg75
(lp2431
S'environ'
p2432
asbag68
(g89
g70
NtRp2433
(dp2434
g73
(dp2435
g100
g101
ssg82
g2424
sg75
(lp2436
S':'
asbag68
(g89
g70
NtRp2437
(dp2438
g73
(dp2439
sg82
g2424
sg75
(lp2440
g68
(g69
g70
NtRp2441
(dp2442
g73
(dp2443
g81
I4
ssg82
g2437
sg75
(lp2444
g68
(g77
g70
NtRp2445
(dp2446
g73
(dp2447
g81
I3
ssg82
Nsg75
(lp2448
g68
(g84
g70
NtRp2449
(dp2450
g73
(dp2451
sg82
g2445
sg75
(lp2452
g68
(g89
g70
NtRp2453
(dp2454
g73
(dp2455
g93
g94
ssg82
g2449
sg75
(lp2456
S'HTTP_ACCEPT'
p2457
asbag68
(g89
g70
NtRp2458
(dp2459
g73
(dp2460
g100
g101
ssg82
g2449
sg75
(lp2461
S':'
asbag68
(g89
g70
NtRp2462
(dp2463
g73
(dp2464
sg82
g2449
sg75
(lp2465
g68
(g69
g70
NtRp2466
(dp2467
g73
(dp2468
g81
I3
ssg82
g2462
sg75
(lp2469
g1041
asbasbasbag68
(g84
g70
NtRp2470
(dp2471
g73
(dp2472
sg82
g2445
sg75
(lp2473
g68
(g89
g70
NtRp2474
(dp2475
g73
(dp2476
g93
g94
ssg82
g2470
sg75
(lp2477
S'HTTP_ACCEPT_ENCODING'
p2478
asbag68
(g89
g70
NtRp2479
(dp2480
g73
(dp2481
g100
g101
ssg82
g2470
sg75
(lp2482
S':'
asbag68
(g89
g70
NtRp2483
(dp2484
g73
(dp2485
sg82
g2470
sg75
(lp2486
g68
(g69
g70
NtRp2487
(dp2488
g73
(dp2489
g81
I3
ssg82
g2483
sg75
(lp2490
g1063
asbasbasbag68
(g84
g70
NtRp2491
(dp2492
g73
(dp2493
sg82
g2445
sg75
(lp2494
g68
(g89
g70
NtRp2495
(dp2496
g73
(dp2497
g93
g94
ssg82
g2491
sg75
(lp2498
S'HTTP_ACCEPT_LANGUAGE'
p2499
asbag68
(g89
g70
NtRp2500
(dp2501
g73
(dp2502
g100
g101
ssg82
g2491
sg75
(lp2503
S':'
asbag68
(g89
g70
NtRp2504
(dp2505
g73
(dp2506
sg82
g2491
sg75
(lp2507
g68
(g69
g70
NtRp2508
(dp2509
g73
(dp2510
g81
I3
ssg82
g2504
sg75
(lp2511
g1085
asbasbasbag68
(g84
g70
NtRp2512
(dp2513
g73
(dp2514
sg82
g2445
sg75
(lp2515
g68
(g89
g70
NtRp2516
(dp2517
g73
(dp2518
g93
g94
ssg82
g2512
sg75
(lp2519
S'HTTP_CONNECTION'
p2520
asbag68
(g89
g70
NtRp2521
(dp2522
g73
(dp2523
g100
g101
ssg82
g2512
sg75
(lp2524
S':'
asbag68
(g89
g70
NtRp2525
(dp2526
g73
(dp2527
sg82
g2512
sg75
(lp2528
g68
(g69
g70
NtRp2529
(dp2530
g73
(dp2531
g81
I3
ssg82
g2525
sg75
(lp2532
g1107
asbasbasbag68
(g84
g70
NtRp2533
(dp2534
g73
(dp2535
sg82
g2445
sg75
(lp2536
g68
(g89
g70
NtRp2537
(dp2538
g73
(dp2539
g93
g94
ssg82
g2533
sg75
(lp2540
S'HTTP_COOKIE'
p2541
asbag68
(g89
g70
NtRp2542
(dp2543
g73
(dp2544
g100
g101
ssg82
g2533
sg75
(lp2545
S':'
asbag68
(g89
g70
NtRp2546
(dp2547
g73
(dp2548
sg82
g2533
sg75
(lp2549
g68
(g69
g70
NtRp2550
(dp2551
g73
(dp2552
g81
I3
ssg82
g2546
sg75
(lp2553
g1129
asbasbasbag68
(g84
g70
NtRp2554
(dp2555
g73
(dp2556
sg82
g2445
sg75
(lp2557
g68
(g89
g70
NtRp2558
(dp2559
g73
(dp2560
g93
g94
ssg82
g2554
sg75
(lp2561
S'HTTP_HOST'
p2562
asbag68
(g89
g70
NtRp2563
(dp2564
g73
(dp2565
g100
g101
ssg82
g2554
sg75
(lp2566
S':'
asbag68
(g89
g70
NtRp2567
(dp2568
g73
(dp2569
sg82
g2554
sg75
(lp2570
g68
(g69
g70
NtRp2571
(dp2572
g73
(dp2573
g81
I3
ssg82
g2567
sg75
(lp2574
g1151
asbasbasbag68
(g84
g70
NtRp2575
(dp2576
g73
(dp2577
sg82
g2445
sg75
(lp2578
g68
(g89
g70
NtRp2579
(dp2580
g73
(dp2581
g93
g94
ssg82
g2575
sg75
(lp2582
S'HTTP_REFERER'
p2583
asbag68
(g89
g70
NtRp2584
(dp2585
g73
(dp2586
g100
g101
ssg82
g2575
sg75
(lp2587
S':'
asbag68
(g89
g70
NtRp2588
(dp2589
g73
(dp2590
sg82
g2575
sg75
(lp2591
g68
(g69
g70
NtRp2592
(dp2593
g73
(dp2594
g81
I3
ssg82
g2588
sg75
(lp2595
g1173
asbasbasbag68
(g84
g70
NtRp2596
(dp2597
g73
(dp2598
sg82
g2445
sg75
(lp2599
g68
(g89
g70
NtRp2600
(dp2601
g73
(dp2602
g93
g94
ssg82
g2596
sg75
(lp2603
S'HTTP_USER_AGENT'
p2604
asbag68
(g89
g70
NtRp2605
(dp2606
g73
(dp2607
g100
g101
ssg82
g2596
sg75
(lp2608
S':'
asbag68
(g89
g70
NtRp2609
(dp2610
g73
(dp2611
sg82
g2596
sg75
(lp2612
g68
(g69
g70
NtRp2613
(dp2614
g73
(dp2615
g81
I3
ssg82
g2609
sg75
(lp2616
g1195
asbasbasbag68
(g84
g70
NtRp2617
(dp2618
g73
(dp2619
sg82
g2445
sg75
(lp2620
g68
(g89
g70
NtRp2621
(dp2622
g73
(dp2623
g93
g94
ssg82
g2617
sg75
(lp2624
S'HTTP_X_REQUESTED_WITH'
p2625
asbag68
(g89
g70
NtRp2626
(dp2627
g73
(dp2628
g100
g101
ssg82
g2617
sg75
(lp2629
S':'
asbag68
(g89
g70
NtRp2630
(dp2631
g73
(dp2632
sg82
g2617
sg75
(lp2633
g68
(g69
g70
NtRp2634
(dp2635
g73
(dp2636
g81
I3
ssg82
g2630
sg75
(lp2637
g1217
asbasbasbag68
(g84
g70
NtRp2638
(dp2639
g73
(dp2640
sg82
g2445
sg75
(lp2641
g68
(g89
g70
NtRp2642
(dp2643
g73
(dp2644
g93
g94
ssg82
g2638
sg75
(lp2645
S'PATH_INFO'
p2646
asbag68
(g89
g70
NtRp2647
(dp2648
g73
(dp2649
g100
g101
ssg82
g2638
sg75
(lp2650
S':'
asbag68
(g89
g70
NtRp2651
(dp2652
g73
(dp2653
sg82
g2638
sg75
(lp2654
g68
(g69
g70
NtRp2655
(dp2656
g73
(dp2657
g81
I3
ssg82
g2651
sg75
(lp2658
g1260
asbasbasbag68
(g84
g70
NtRp2659
(dp2660
g73
(dp2661
sg82
g2445
sg75
(lp2662
g68
(g89
g70
NtRp2663
(dp2664
g73
(dp2665
g93
g94
ssg82
g2659
sg75
(lp2666
S'QUERY_STRING'
p2667
asbag68
(g89
g70
NtRp2668
(dp2669
g73
(dp2670
g100
g101
ssg82
g2659
sg75
(lp2671
S':'
asbag68
(g89
g70
NtRp2672
(dp2673
g73
(dp2674
sg82
g2659
sg75
(lp2675
g68
(g69
g70
NtRp2676
(dp2677
g73
(dp2678
g81
I3
ssg82
g2672
sg75
(lp2679
S''
asbasbasbag68
(g84
g70
NtRp2680
(dp2681
g73
(dp2682
sg82
g2445
sg75
(lp2683
g68
(g89
g70
NtRp2684
(dp2685
g73
(dp2686
g93
g94
ssg82
g2680
sg75
(lp2687
S'REMOTE_ADDR'
p2688
asbag68
(g89
g70
NtRp2689
(dp2690
g73
(dp2691
g100
g101
ssg82
g2680
sg75
(lp2692
S':'
asbag68
(g89
g70
NtRp2693
(dp2694
g73
(dp2695
sg82
g2680
sg75
(lp2696
g68
(g69
g70
NtRp2697
(dp2698
g73
(dp2699
g81
I3
ssg82
g2693
sg75
(lp2700
g227
asbasbasbag68
(g84
g70
NtRp2701
(dp2702
g73
(dp2703
sg82
g2445
sg75
(lp2704
g68
(g89
g70
NtRp2705
(dp2706
g73
(dp2707
g93
g94
ssg82
g2701
sg75
(lp2708
S'REMOTE_PORT'
p2709
asbag68
(g89
g70
NtRp2710
(dp2711
g73
(dp2712
g100
g101
ssg82
g2701
sg75
(lp2713
S':'
asbag68
(g89
g70
NtRp2714
(dp2715
g73
(dp2716
sg82
g2701
sg75
(lp2717
g68
(g69
g70
NtRp2718
(dp2719
g73
(dp2720
g81
I3
ssg82
g2714
sg75
(lp2721
g1324
asbasbasbag68
(g84
g70
NtRp2722
(dp2723
g73
(dp2724
sg82
g2445
sg75
(lp2725
g68
(g89
g70
NtRp2726
(dp2727
g73
(dp2728
g93
g94
ssg82
g2722
sg75
(lp2729
S'REQUEST_METHOD'
p2730
asbag68
(g89
g70
NtRp2731
(dp2732
g73
(dp2733
g100
g101
ssg82
g2722
sg75
(lp2734
S':'
asbag68
(g89
g70
NtRp2735
(dp2736
g73
(dp2737
sg82
g2722
sg75
(lp2738
g68
(g69
g70
NtRp2739
(dp2740
g73
(dp2741
g81
I3
ssg82
g2735
sg75
(lp2742
g1346
asbasbasbag68
(g84
g70
NtRp2743
(dp2744
g73
(dp2745
sg82
g2445
sg75
(lp2746
g68
(g89
g70
NtRp2747
(dp2748
g73
(dp2749
g93
g94
ssg82
g2743
sg75
(lp2750
S'SCRIPT_NAME'
p2751
asbag68
(g89
g70
NtRp2752
(dp2753
g73
(dp2754
g100
g101
ssg82
g2743
sg75
(lp2755
S':'
asbag68
(g89
g70
NtRp2756
(dp2757
g73
(dp2758
sg82
g2743
sg75
(lp2759
g68
(g69
g70
NtRp2760
(dp2761
g73
(dp2762
g81
I3
ssg82
g2756
sg75
(lp2763
S''
asbasbasbag68
(g84
g70
NtRp2764
(dp2765
g73
(dp2766
sg82
g2445
sg75
(lp2767
g68
(g89
g70
NtRp2768
(dp2769
g73
(dp2770
g93
g94
ssg82
g2764
sg75
(lp2771
S'SERVER_NAME'
p2772
asbag68
(g89
g70
NtRp2773
(dp2774
g73
(dp2775
g100
g101
ssg82
g2764
sg75
(lp2776
S':'
asbag68
(g89
g70
NtRp2777
(dp2778
g73
(dp2779
sg82
g2764
sg75
(lp2780
g68
(g69
g70
NtRp2781
(dp2782
g73
(dp2783
g81
I3
ssg82
g2777
sg75
(lp2784
g1389
asbasbasbag68
(g84
g70
NtRp2785
(dp2786
g73
(dp2787
sg82
g2445
sg75
(lp2788
g68
(g89
g70
NtRp2789
(dp2790
g73
(dp2791
g93
g94
ssg82
g2785
sg75
(lp2792
S'SERVER_PORT'
p2793
asbag68
(g89
g70
NtRp2794
(dp2795
g73
(dp2796
g100
g101
ssg82
g2785
sg75
(lp2797
S':'
asbag68
(g89
g70
NtRp2798
(dp2799
g73
(dp2800
sg82
g2785
sg75
(lp2801
g68
(g69
g70
NtRp2802
(dp2803
g73
(dp2804
g81
I3
ssg82
g2798
sg75
(lp2805
g1411
asbasbasbag68
(g84
g70
NtRp2806
(dp2807
g73
(dp2808
sg82
g2445
sg75
(lp2809
g68
(g89
g70
NtRp2810
(dp2811
g73
(dp2812
g93
g94
ssg82
g2806
sg75
(lp2813
S'SERVER_PROTOCOL'
p2814
asbag68
(g89
g70
NtRp2815
(dp2816
g73
(dp2817
g100
g101
ssg82
g2806
sg75
(lp2818
S':'
asbag68
(g89
g70
NtRp2819
(dp2820
g73
(dp2821
sg82
g2806
sg75
(lp2822
g68
(g69
g70
NtRp2823
(dp2824
g73
(dp2825
g81
I3
ssg82
g2819
sg75
(lp2826
g1433
asbasbasbag68
(g84
g70
NtRp2827
(dp2828
g73
(dp2829
sg82
g2445
sg75
(lp2830
g68
(g89
g70
NtRp2831
(dp2832
g73
(dp2833
g93
g94
ssg82
g2827
sg75
(lp2834
S'SERVER_SOFTWARE'
p2835
asbag68
(g89
g70
NtRp2836
(dp2837
g73
(dp2838
g100
g101
ssg82
g2827
sg75
(lp2839
S':'
asbag68
(g89
g70
NtRp2840
(dp2841
g73
(dp2842
sg82
g2827
sg75
(lp2843
g68
(g69
g70
NtRp2844
(dp2845
g73
(dp2846
g81
I3
ssg82
g2840
sg75
(lp2847
g1455
asbasbasbag68
(g84
g70
NtRp2848
(dp2849
g73
(dp2850
sg82
g2445
sg75
(lp2851
g68
(g89
g70
NtRp2852
(dp2853
g73
(dp2854
g93
g94
ssg82
g2848
sg75
(lp2855
S'wsgi.errors'
p2856
asbag68
(g89
g70
NtRp2857
(dp2858
g73
(dp2859
g100
g101
ssg82
g2848
sg75
(lp2860
S':'
asbag68
(g89
g70
NtRp2861
(dp2862
g73
(dp2863
sg82
g2848
sg75
(lp2864
g68
(g69
g70
NtRp2865
(dp2866
g73
(dp2867
g81
I3
ssg82
g2861
sg75
(lp2868
S"<open file '<stderr>', mode 'w' at 0x7f84db3ff270>"
p2869
asbasbasbag68
(g84
g70
NtRp2870
(dp2871
g73
(dp2872
sg82
g2445
sg75
(lp2873
g68
(g89
g70
NtRp2874
(dp2875
g73
(dp2876
g93
g94
ssg82
g2870
sg75
(lp2877
S'wsgi.file_wrapper'
p2878
asbag68
(g89
g70
NtRp2879
(dp2880
g73
(dp2881
g100
g101
ssg82
g2870
sg75
(lp2882
S':'
asbag68
(g89
g70
NtRp2883
(dp2884
g73
(dp2885
sg82
g2870
sg75
(lp2886
g68
(g69
g70
NtRp2887
(dp2888
g73
(dp2889
g81
I3
ssg82
g2883
sg75
(lp2890
S'<class wsgiref.util.FileWrapper at 0x1b96d50>'
p2891
asbasbasbag68
(g84
g70
NtRp2892
(dp2893
g73
(dp2894
sg82
g2445
sg75
(lp2895
g68
(g89
g70
NtRp2896
(dp2897
g73
(dp2898
g93
g94
ssg82
g2892
sg75
(lp2899
S'wsgi.input'
p2900
asbag68
(g89
g70
NtRp2901
(dp2902
g73
(dp2903
g100
g101
ssg82
g2892
sg75
(lp2904
S':'
asbag68
(g89
g70
NtRp2905
(dp2906
g73
(dp2907
sg82
g2892
sg75
(lp2908
g68
(g69
g70
NtRp2909
(dp2910
g73
(dp2911
g81
I3
ssg82
g2905
sg75
(lp2912
S'<cStringIO.StringO object at 0x44e1730>'
p2913
asbasbasbag68
(g84
g70
NtRp2914
(dp2915
g73
(dp2916
sg82
g2445
sg75
(lp2917
g68
(g89
g70
NtRp2918
(dp2919
g73
(dp2920
g93
g94
ssg82
g2914
sg75
(lp2921
S'wsgi.multiprocess'
p2922
asbag68
(g89
g70
NtRp2923
(dp2924
g73
(dp2925
g100
g101
ssg82
g2914
sg75
(lp2926
S':'
asbag68
(g89
g70
NtRp2927
(dp2928
g73
(dp2929
sg82
g2914
sg75
(lp2930
g68
(g69
g70
NtRp2931
(dp2932
g73
(dp2933
g81
I3
ssg82
g2927
sg75
(lp2934
g997
asbasbasbag68
(g84
g70
NtRp2935
(dp2936
g73
(dp2937
sg82
g2445
sg75
(lp2938
g68
(g89
g70
NtRp2939
(dp2940
g73
(dp2941
g93
g94
ssg82
g2935
sg75
(lp2942
S'wsgi.multithread'
p2943
asbag68
(g89
g70
NtRp2944
(dp2945
g73
(dp2946
g100
g101
ssg82
g2935
sg75
(lp2947
S':'
asbag68
(g89
g70
NtRp2948
(dp2949
g73
(dp2950
sg82
g2935
sg75
(lp2951
g68
(g69
g70
NtRp2952
(dp2953
g73
(dp2954
g81
I3
ssg82
g2948
sg75
(lp2955
g111
asbasbasbag68
(g84
g70
NtRp2956
(dp2957
g73
(dp2958
sg82
g2445
sg75
(lp2959
g68
(g89
g70
NtRp2960
(dp2961
g73
(dp2962
g93
g94
ssg82
g2956
sg75
(lp2963
S'wsgi.run_once'
p2964
asbag68
(g89
g70
NtRp2965
(dp2966
g73
(dp2967
g100
g101
ssg82
g2956
sg75
(lp2968
S':'
asbag68
(g89
g70
NtRp2969
(dp2970
g73
(dp2971
sg82
g2956
sg75
(lp2972
g68
(g69
g70
NtRp2973
(dp2974
g73
(dp2975
g81
I3
ssg82
g2969
sg75
(lp2976
g997
asbasbasbag68
(g84
g70
NtRp2977
(dp2978
g73
(dp2979
sg82
g2445
sg75
(lp2980
g68
(g89
g70
NtRp2981
(dp2982
g73
(dp2983
g93
g94
ssg82
g2977
sg75
(lp2984
S'wsgi.url_scheme'
p2985
asbag68
(g89
g70
NtRp2986
(dp2987
g73
(dp2988
g100
g101
ssg82
g2977
sg75
(lp2989
S':'
asbag68
(g89
g70
NtRp2990
(dp2991
g73
(dp2992
sg82
g2977
sg75
(lp2993
g68
(g69
g70
NtRp2994
(dp2995
g73
(dp2996
g81
I3
ssg82
g2990
sg75
(lp2997
g1737
asbasbasbag68
(g84
g70
NtRp2998
(dp2999
g73
(dp3000
sg82
g2445
sg75
(lp3001
g68
(g89
g70
NtRp3002
(dp3003
g73
(dp3004
g93
g94
ssg82
g2998
sg75
(lp3005
S'wsgi.version'
p3006
asbag68
(g89
g70
NtRp3007
(dp3008
g73
(dp3009
g100
g101
ssg82
g2998
sg75
(lp3010
S':'
asbag68
(g89
g70
NtRp3011
(dp3012
g73
(dp3013
sg82
g2998
sg75
(lp3014
g68
(g69
g70
NtRp3015
(dp3016
g73
(dp3017
g81
I3
ssg82
g3011
sg75
(lp3018
S'1'
asbasbasbasbasbasbasbasbasbasbasbasbasbsS'frames'
p3019
(lp3020
(dp3021
S'file'
p3022
S'/home/jose/DESARROLLO/web2py199/gluon/restricted.py'
p3023
sS'dump'
p3024
(dp3025
S'code'
p3026
S"'# -*- coding: utf-8 -*-\\n# this file is released ...m=crud())\\n\\nresponse._vars=response._caller(call)\\n'"
p3027
sS'layer'
p3028
S"'/home/jose/DESARROLLO/web2py199/applications/streamlog/controllers/default.py'"
p3029
sS'global compile2'
p3030
S'<function compile2>'
p3031
sS'ccode'
p3032
S'undefined'
p3033
ssS'lnum'
p3034
I193
sS'lines'
p3035
(dp3036
I192
S'        else:'
p3037
sI193
S'            ccode = compile2(code,layer)'
p3038
sI194
S'        exec ccode in environment'
p3039
sI195
S'    except HTTP:'
p3040
sI196
S'        raise'
p3041
sI197
S'    except Exception, error:'
p3042
sI188
S"    environment['__file__'] = layer"
p3043
sI189
S'    try:'
p3044
sI190
S'        if type(code) == types.CodeType:'
p3045
sI191
S'            ccode = code'
p3046
ssS'call'
p3047
S"(code='# -*- coding: utf-8 -*-\\n# this file is released ...m=crud())\\n\\nresponse._vars=response._caller(call)\\n', environment={'A': <class 'gluon.html.A'>, 'Auth': <class 'gluon.tools.Auth'>, 'B': <class 'gluon.html.B'>, 'BEAUTIFY': <class 'gluon.html.BEAUTIFY'>, 'BODY': <class 'gluon.html.BODY'>, 'BR': <class 'gluon.html.BR'>, 'BUTTON': <class 'gluon.html.BUTTON'>, 'CAT': <class 'gluon.html.CAT'>, 'CENTER': <class 'gluon.html.CENTER'>, 'CLEANUP': <class 'gluon.validators.CLEANUP'>, ...}, layer='/home/jose/DESARROLLO/web2py199/applications/streamlog/controllers/default.py')"
p3048
sS'func'
p3049
S'restricted'
p3050
sa(dp3051
g3022
S'/home/jose/DESARROLLO/web2py199/gluon/restricted.py'
p3052
sg3024
(dp3053
S'builtincompile'
p3054
S'<built-in function compile>'
p3055
sS'code'
p3056
S"'# -*- coding: utf-8 -*-\\n# this file is released ...m=crud())\\n\\nresponse._vars=response._caller(call)\\n'"
p3057
sS'code.rstrip'
p3058
S'<built-in method rstrip of str object>'
p3059
sS').replace'
p3060
g3033
sS'layer'
p3061
S"'/home/jose/DESARROLLO/web2py199/applications/streamlog/controllers/default.py'"
p3062
ssg3034
I179
sg3035
(dp3063
I174
S''
sI175
S'def compile2(code,layer):'
p3064
sI176
S'    """'
p3065
sI177
S"    The +'\\n' is necessary else compile fails when code ends in a comment."
p3066
sI178
S'    """'
p3067
sI179
S"    return compile(code.rstrip().replace('\\r\\n','\\n')+'\\n', layer, 'exec')"
p3068
sI180
S''
sI181
S"def restricted(code, environment=None, layer='Unknown'):"
p3069
sI182
S'    """'
p3070
sI183
S'    runs code in environment and returns the output. if an exception occurs'
p3071
ssg3047
S"(code='# -*- coding: utf-8 -*-\\n# this file is released ...m=crud())\\n\\nresponse._vars=response._caller(call)\\n', layer='/home/jose/DESARROLLO/web2py199/applications/streamlog/controllers/default.py')"
p3072
sg3049
S'compile2'
p3073
sasS'pyver'
p3074
S'Python 2.7.2+: /usr/bin/python'
p3075
sS'session'
p3076
g68
(g69
g70
NtRp3077
(dp3078
g73
(dp3079
sg75
(lp3080
g68
(g77
g70
NtRp3081
(dp3082
g73
(dp3083
g81
I5
ssg82
Nsg75
(lp3084
g68
(g84
g70
NtRp3085
(dp3086
g73
(dp3087
sg82
g3081
sg75
(lp3088
g68
(g89
g70
NtRp3089
(dp3090
g73
(dp3091
g93
g94
ssg82
g3085
sg75
(lp3092
S'auth'
p3093
asbag68
(g89
g70
NtRp3094
(dp3095
g73
(dp3096
g100
g101
ssg82
g3085
sg75
(lp3097
S':'
asbag68
(g89
g70
NtRp3098
(dp3099
g73
(dp3100
sg82
g3085
sg75
(lp3101
g68
(g69
g70
NtRp3102
(dp3103
g73
(dp3104
g81
I5
ssg82
g3098
sg75
(lp3105
g68
(g77
g70
NtRp3106
(dp3107
g73
(dp3108
g81
I4
ssg82
Nsg75
(lp3109
g68
(g84
g70
NtRp3110
(dp3111
g73
(dp3112
sg82
g3106
sg75
(lp3113
g68
(g89
g70
NtRp3114
(dp3115
g73
(dp3116
g93
g94
ssg82
g3110
sg75
(lp3117
S'expiration'
p3118
asbag68
(g89
g70
NtRp3119
(dp3120
g73
(dp3121
g100
g101
ssg82
g3110
sg75
(lp3122
S':'
asbag68
(g89
g70
NtRp3123
(dp3124
g73
(dp3125
sg82
g3110
sg75
(lp3126
g68
(g69
g70
NtRp3127
(dp3128
g73
(dp3129
g81
I4
ssg82
g3123
sg75
(lp3130
S'2592000'
p3131
asbasbasbag68
(g84
g70
NtRp3132
(dp3133
g73
(dp3134
sg82
g3106
sg75
(lp3135
g68
(g89
g70
NtRp3136
(dp3137
g73
(dp3138
g93
g94
ssg82
g3132
sg75
(lp3139
S'hmac_key'
p3140
asbag68
(g89
g70
NtRp3141
(dp3142
g73
(dp3143
g100
g101
ssg82
g3132
sg75
(lp3144
S':'
asbag68
(g89
g70
NtRp3145
(dp3146
g73
(dp3147
sg82
g3132
sg75
(lp3148
g68
(g69
g70
NtRp3149
(dp3150
g73
(dp3151
g81
I4
ssg82
g3145
sg75
(lp3152
S'b954f0e8-95b3-42d2-829e-2e50e94d8454'
p3153
asbasbasbag68
(g84
g70
NtRp3154
(dp3155
g73
(dp3156
sg82
g3106
sg75
(lp3157
g68
(g89
g70
NtRp3158
(dp3159
g73
(dp3160
g93
g94
ssg82
g3154
sg75
(lp3161
S'last_visit'
p3162
asbag68
(g89
g70
NtRp3163
(dp3164
g73
(dp3165
g100
g101
ssg82
g3154
sg75
(lp3166
S':'
asbag68
(g89
g70
NtRp3167
(dp3168
g73
(dp3169
sg82
g3154
sg75
(lp3170
g68
(g69
g70
NtRp3171
(dp3172
g73
(dp3173
g81
I4
ssg82
g3167
sg75
(lp3174
S'datetime.datetime(2012, 5, 26, 18, 42, 33, 844375)'
p3175
asbasbasbag68
(g84
g70
NtRp3176
(dp3177
g73
(dp3178
sg82
g3106
sg75
(lp3179
g68
(g89
g70
NtRp3180
(dp3181
g73
(dp3182
g93
g94
ssg82
g3176
sg75
(lp3183
S'remember'
p3184
asbag68
(g89
g70
NtRp3185
(dp3186
g73
(dp3187
g100
g101
ssg82
g3176
sg75
(lp3188
S':'
asbag68
(g89
g70
NtRp3189
(dp3190
g73
(dp3191
sg82
g3176
sg75
(lp3192
g68
(g69
g70
NtRp3193
(dp3194
g73
(dp3195
g81
I4
ssg82
g3189
sg75
(lp3196
g997
asbasbasbag68
(g84
g70
NtRp3197
(dp3198
g73
(dp3199
sg82
g3106
sg75
(lp3200
g68
(g89
g70
NtRp3201
(dp3202
g73
(dp3203
g93
g94
ssg82
g3197
sg75
(lp3204
S'user'
p3205
asbag68
(g89
g70
NtRp3206
(dp3207
g73
(dp3208
g100
g101
ssg82
g3197
sg75
(lp3209
S':'
asbag68
(g89
g70
NtRp3210
(dp3211
g73
(dp3212
sg82
g3197
sg75
(lp3213
g68
(g69
g70
NtRp3214
(dp3215
g73
(dp3216
g81
I4
ssg82
g3210
sg75
(lp3217
g68
(g77
g70
NtRp3218
(dp3219
g73
(dp3220
g81
I3
ssg82
Nsg75
(lp3221
g68
(g84
g70
NtRp3222
(dp3223
g73
(dp3224
sg82
g3218
sg75
(lp3225
g68
(g89
g70
NtRp3226
(dp3227
g73
(dp3228
g93
g94
ssg82
g3222
sg75
(lp3229
S'email'
p3230
asbag68
(g89
g70
NtRp3231
(dp3232
g73
(dp3233
g100
g101
ssg82
g3222
sg75
(lp3234
S':'
asbag68
(g89
g70
NtRp3235
(dp3236
g73
(dp3237
sg82
g3222
sg75
(lp3238
g68
(g69
g70
NtRp3239
(dp3240
g73
(dp3241
g81
I3
ssg82
g3235
sg75
(lp3242
S'josedesoto@gmail.com'
p3243
asbasbasbag68
(g84
g70
NtRp3244
(dp3245
g73
(dp3246
sg82
g3218
sg75
(lp3247
g68
(g89
g70
NtRp3248
(dp3249
g73
(dp3250
g93
g94
ssg82
g3244
sg75
(lp3251
S'first_name'
p3252
asbag68
(g89
g70
NtRp3253
(dp3254
g73
(dp3255
g100
g101
ssg82
g3244
sg75
(lp3256
S':'
asbag68
(g89
g70
NtRp3257
(dp3258
g73
(dp3259
sg82
g3244
sg75
(lp3260
g68
(g69
g70
NtRp3261
(dp3262
g73
(dp3263
g81
I3
ssg82
g3257
sg75
(lp3264
S'jose'
p3265
asbasbasbag68
(g84
g70
NtRp3266
(dp3267
g73
(dp3268
sg82
g3218
sg75
(lp3269
g68
(g89
g70
NtRp3270
(dp3271
g73
(dp3272
g93
g94
ssg82
g3266
sg75
(lp3273
S'id'
p3274
asbag68
(g89
g70
NtRp3275
(dp3276
g73
(dp3277
g100
g101
ssg82
g3266
sg75
(lp3278
S':'
asbag68
(g89
g70
NtRp3279
(dp3280
g73
(dp3281
sg82
g3266
sg75
(lp3282
g68
(g69
g70
NtRp3283
(dp3284
g73
(dp3285
g81
I3
ssg82
g3279
sg75
(lp3286
S'1'
asbasbasbag68
(g84
g70
NtRp3287
(dp3288
g73
(dp3289
sg82
g3218
sg75
(lp3290
g68
(g89
g70
NtRp3291
(dp3292
g73
(dp3293
g93
g94
ssg82
g3287
sg75
(lp3294
S'last_name'
p3295
asbag68
(g89
g70
NtRp3296
(dp3297
g73
(dp3298
g100
g101
ssg82
g3287
sg75
(lp3299
S':'
asbag68
(g89
g70
NtRp3300
(dp3301
g73
(dp3302
sg82
g3287
sg75
(lp3303
g68
(g69
g70
NtRp3304
(dp3305
g73
(dp3306
g81
I3
ssg82
g3300
sg75
(lp3307
S'jose'
p3308
asbasbasbag68
(g84
g70
NtRp3309
(dp3310
g73
(dp3311
sg82
g3218
sg75
(lp3312
g68
(g89
g70
NtRp3313
(dp3314
g73
(dp3315
g93
g94
ssg82
g3309
sg75
(lp3316
S'password'
p3317
asbag68
(g89
g70
NtRp3318
(dp3319
g73
(dp3320
g100
g101
ssg82
g3309
sg75
(lp3321
S':'
asbag68
(g89
g70
NtRp3322
(dp3323
g73
(dp3324
sg82
g3309
sg75
(lp3325
g68
(g69
g70
NtRp3326
(dp3327
g73
(dp3328
g81
I3
ssg82
g3322
sg75
(lp3329
S'2b32eaa2baa0c63b755a4cde1e4dda83'
p3330
asbasbasbag68
(g84
g70
NtRp3331
(dp3332
g73
(dp3333
sg82
g3218
sg75
(lp3334
g68
(g89
g70
NtRp3335
(dp3336
g73
(dp3337
g93
g94
ssg82
g3331
sg75
(lp3338
S'registration_key'
p3339
asbag68
(g89
g70
NtRp3340
(dp3341
g73
(dp3342
g100
g101
ssg82
g3331
sg75
(lp3343
S':'
asbag68
(g89
g70
NtRp3344
(dp3345
g73
(dp3346
sg82
g3331
sg75
(lp3347
g68
(g69
g70
NtRp3348
(dp3349
g73
(dp3350
g81
I3
ssg82
g3344
sg75
(lp3351
S''
asbasbasbag68
(g84
g70
NtRp3352
(dp3353
g73
(dp3354
sg82
g3218
sg75
(lp3355
g68
(g89
g70
NtRp3356
(dp3357
g73
(dp3358
g93
g94
ssg82
g3352
sg75
(lp3359
S'reset_password_key'
p3360
asbag68
(g89
g70
NtRp3361
(dp3362
g73
(dp3363
g100
g101
ssg82
g3352
sg75
(lp3364
S':'
asbag68
(g89
g70
NtRp3365
(dp3366
g73
(dp3367
sg82
g3352
sg75
(lp3368
g68
(g69
g70
NtRp3369
(dp3370
g73
(dp3371
g81
I3
ssg82
g3365
sg75
(lp3372
S''
asbasbasbasbasbasbasbasbasbasbasbag68
(g84
g70
NtRp3373
(dp3374
g73
(dp3375
sg82
g3081
sg75
(lp3376
g68
(g89
g70
NtRp3377
(dp3378
g73
(dp3379
g93
g94
ssg82
g3373
sg75
(lp3380
S'last_query'
p3381
asbag68
(g89
g70
NtRp3382
(dp3383
g73
(dp3384
g100
g101
ssg82
g3373
sg75
(lp3385
S':'
asbag68
(g89
g70
NtRp3386
(dp3387
g73
(dp3388
sg82
g3373
sg75
(lp3389
g68
(g69
g70
NtRp3390
(dp3391
g73
(dp3392
g81
I5
ssg82
g3386
sg75
(lp3393
S'((db.t_project.user==me)&(db.t_server.project==db.t_project.id)&(db.t_log.server==db.t_server.id))'
p3394
asbasbasbasbasbsS'etype'
p3395
S"<type 'exceptions.SyntaxError'>"
p3396
sS'date'
p3397
S'Sat May 26 19:19:58 2012'
p3398
sS'response'
p3399
g68
(g69
g70
NtRp3400
(dp3401
g73
(dp3402
sg75
(lp3403
g68
(g77
g70
NtRp3404
(dp3405
g73
(dp3406
g81
I5
ssg82
Nsg75
(lp3407
g68
(g84
g70
NtRp3408
(dp3409
g73
(dp3410
sg82
g3404
sg75
(lp3411
g68
(g89
g70
NtRp3412
(dp3413
g73
(dp3414
g93
g94
ssg82
g3408
sg75
(lp3415
g192
asbag68
(g89
g70
NtRp3416
(dp3417
g73
(dp3418
g100
g101
ssg82
g3408
sg75
(lp3419
S':'
asbag68
(g89
g70
NtRp3420
(dp3421
g73
(dp3422
sg82
g3408
sg75
(lp3423
g68
(g69
g70
NtRp3424
(dp3425
g73
(dp3426
g81
I5
ssg82
g3420
sg75
(lp3427
S'<cStringIO.StringO object at 0x4385420>'
p3428
asbasbasbag68
(g84
g70
NtRp3429
(dp3430
g73
(dp3431
sg82
g3404
sg75
(lp3432
g68
(g89
g70
NtRp3433
(dp3434
g73
(dp3435
g93
g94
ssg82
g3429
sg75
(lp3436
g258
asbag68
(g89
g70
NtRp3437
(dp3438
g73
(dp3439
g100
g101
ssg82
g3429
sg75
(lp3440
S':'
asbag68
(g89
g70
NtRp3441
(dp3442
g73
(dp3443
sg82
g3429
sg75
(lp3444
g68
(g69
g70
NtRp3445
(dp3446
g73
(dp3447
g81
I5
ssg82
g3441
sg75
(lp3448
g68
(g77
g70
NtRp3449
(dp3450
g73
(dp3451
g81
I4
ssg82
Nsg75
(lp3452
g68
(g84
g70
NtRp3453
(dp3454
g73
(dp3455
sg82
g3449
sg75
(lp3456
g68
(g89
g70
NtRp3457
(dp3458
g73
(dp3459
g93
g94
ssg82
g3453
sg75
(lp3460
S'session_id_streamlog'
p3461
asbag68
(g89
g70
NtRp3462
(dp3463
g73
(dp3464
g100
g101
ssg82
g3453
sg75
(lp3465
S':'
asbag68
(g89
g70
NtRp3466
(dp3467
g73
(dp3468
sg82
g3453
sg75
(lp3469
g68
(g69
g70
NtRp3470
(dp3471
g73
(dp3472
g81
I4
ssg82
g3466
sg75
(lp3473
g68
(g77
g70
NtRp3474
(dp3475
g73
(dp3476
g81
I3
ssg82
Nsg75
(lp3477
g68
(g84
g70
NtRp3478
(dp3479
g73
(dp3480
sg82
g3474
sg75
(lp3481
g68
(g89
g70
NtRp3482
(dp3483
g73
(dp3484
g93
g94
ssg82
g3478
sg75
(lp3485
g308
asbag68
(g89
g70
NtRp3486
(dp3487
g73
(dp3488
g100
g101
ssg82
g3478
sg75
(lp3489
S':'
asbag68
(g89
g70
NtRp3490
(dp3491
g73
(dp3492
sg82
g3478
sg75
(lp3493
g68
(g69
g70
NtRp3494
(dp3495
g73
(dp3496
g81
I3
ssg82
g3490
sg75
(lp3497
S''
asbasbasbag68
(g84
g70
NtRp3498
(dp3499
g73
(dp3500
sg82
g3474
sg75
(lp3501
g68
(g89
g70
NtRp3502
(dp3503
g73
(dp3504
g93
g94
ssg82
g3498
sg75
(lp3505
g329
asbag68
(g89
g70
NtRp3506
(dp3507
g73
(dp3508
g100
g101
ssg82
g3498
sg75
(lp3509
S':'
asbag68
(g89
g70
NtRp3510
(dp3511
g73
(dp3512
sg82
g3498
sg75
(lp3513
g68
(g69
g70
NtRp3514
(dp3515
g73
(dp3516
g81
I3
ssg82
g3510
sg75
(lp3517
S''
asbasbasbag68
(g84
g70
NtRp3518
(dp3519
g73
(dp3520
sg82
g3474
sg75
(lp3521
g68
(g89
g70
NtRp3522
(dp3523
g73
(dp3524
g93
g94
ssg82
g3518
sg75
(lp3525
g350
asbag68
(g89
g70
NtRp3526
(dp3527
g73
(dp3528
g100
g101
ssg82
g3518
sg75
(lp3529
S':'
asbag68
(g89
g70
NtRp3530
(dp3531
g73
(dp3532
sg82
g3518
sg75
(lp3533
g68
(g69
g70
NtRp3534
(dp3535
g73
(dp3536
g81
I3
ssg82
g3530
sg75
(lp3537
S''
asbasbasbag68
(g84
g70
NtRp3538
(dp3539
g73
(dp3540
sg82
g3474
sg75
(lp3541
g68
(g89
g70
NtRp3542
(dp3543
g73
(dp3544
g93
g94
ssg82
g3538
sg75
(lp3545
g371
asbag68
(g89
g70
NtRp3546
(dp3547
g73
(dp3548
g100
g101
ssg82
g3538
sg75
(lp3549
S':'
asbag68
(g89
g70
NtRp3550
(dp3551
g73
(dp3552
sg82
g3538
sg75
(lp3553
g68
(g69
g70
NtRp3554
(dp3555
g73
(dp3556
g81
I3
ssg82
g3550
sg75
(lp3557
S''
asbasbasbag68
(g84
g70
NtRp3558
(dp3559
g73
(dp3560
sg82
g3474
sg75
(lp3561
g68
(g89
g70
NtRp3562
(dp3563
g73
(dp3564
g93
g94
ssg82
g3558
sg75
(lp3565
g392
asbag68
(g89
g70
NtRp3566
(dp3567
g73
(dp3568
g100
g101
ssg82
g3558
sg75
(lp3569
S':'
asbag68
(g89
g70
NtRp3570
(dp3571
g73
(dp3572
sg82
g3558
sg75
(lp3573
g68
(g69
g70
NtRp3574
(dp3575
g73
(dp3576
g81
I3
ssg82
g3570
sg75
(lp3577
S''
asbasbasbag68
(g84
g70
NtRp3578
(dp3579
g73
(dp3580
sg82
g3474
sg75
(lp3581
g68
(g89
g70
NtRp3582
(dp3583
g73
(dp3584
g93
g94
ssg82
g3578
sg75
(lp3585
g413
asbag68
(g89
g70
NtRp3586
(dp3587
g73
(dp3588
g100
g101
ssg82
g3578
sg75
(lp3589
S':'
asbag68
(g89
g70
NtRp3590
(dp3591
g73
(dp3592
sg82
g3578
sg75
(lp3593
g68
(g69
g70
NtRp3594
(dp3595
g73
(dp3596
g81
I3
ssg82
g3590
sg75
(lp3597
S'/'
asbasbasbag68
(g84
g70
NtRp3598
(dp3599
g73
(dp3600
sg82
g3474
sg75
(lp3601
g68
(g89
g70
NtRp3602
(dp3603
g73
(dp3604
g93
g94
ssg82
g3598
sg75
(lp3605
g434
asbag68
(g89
g70
NtRp3606
(dp3607
g73
(dp3608
g100
g101
ssg82
g3598
sg75
(lp3609
S':'
asbag68
(g89
g70
NtRp3610
(dp3611
g73
(dp3612
sg82
g3598
sg75
(lp3613
g68
(g69
g70
NtRp3614
(dp3615
g73
(dp3616
g81
I3
ssg82
g3610
sg75
(lp3617
S''
asbasbasbag68
(g84
g70
NtRp3618
(dp3619
g73
(dp3620
sg82
g3474
sg75
(lp3621
g68
(g89
g70
NtRp3622
(dp3623
g73
(dp3624
g93
g94
ssg82
g3618
sg75
(lp3625
g455
asbag68
(g89
g70
NtRp3626
(dp3627
g73
(dp3628
g100
g101
ssg82
g3618
sg75
(lp3629
S':'
asbag68
(g89
g70
NtRp3630
(dp3631
g73
(dp3632
sg82
g3618
sg75
(lp3633
g68
(g69
g70
NtRp3634
(dp3635
g73
(dp3636
g81
I3
ssg82
g3630
sg75
(lp3637
S''
asbasbasbasbasbasbasbasbasbasbasbag68
(g84
g70
NtRp3638
(dp3639
g73
(dp3640
sg82
g3404
sg75
(lp3641
g68
(g89
g70
NtRp3642
(dp3643
g73
(dp3644
g93
g94
ssg82
g3638
sg75
(lp3645
S'files'
p3646
asbag68
(g89
g70
NtRp3647
(dp3648
g73
(dp3649
g100
g101
ssg82
g3638
sg75
(lp3650
S':'
asbag68
(g89
g70
NtRp3651
(dp3652
g73
(dp3653
sg82
g3638
sg75
(lp3654
g68
(g69
g70
NtRp3655
(dp3656
g73
(dp3657
g81
I5
ssg82
g3651
sg75
(lp3658
g68
(g77
g70
NtRp3659
(dp3660
g73
(dp3661
g81
I4
ssg82
Nsg75
(lp3662
sbasbasbasbag68
(g84
g70
NtRp3663
(dp3664
g73
(dp3665
sg82
g3404
sg75
(lp3666
g68
(g89
g70
NtRp3667
(dp3668
g73
(dp3669
g93
g94
ssg82
g3663
sg75
(lp3670
S'flash'
p3671
asbag68
(g89
g70
NtRp3672
(dp3673
g73
(dp3674
g100
g101
ssg82
g3663
sg75
(lp3675
S':'
asbag68
(g89
g70
NtRp3676
(dp3677
g73
(dp3678
sg82
g3663
sg75
(lp3679
g68
(g69
g70
NtRp3680
(dp3681
g73
(dp3682
g81
I5
ssg82
g3676
sg75
(lp3683
S''
asbasbasbag68
(g84
g70
NtRp3684
(dp3685
g73
(dp3686
sg82
g3404
sg75
(lp3687
g68
(g89
g70
NtRp3688
(dp3689
g73
(dp3690
g93
g94
ssg82
g3684
sg75
(lp3691
S'generic_patterns'
p3692
asbag68
(g89
g70
NtRp3693
(dp3694
g73
(dp3695
g100
g101
ssg82
g3684
sg75
(lp3696
S':'
asbag68
(g89
g70
NtRp3697
(dp3698
g73
(dp3699
sg82
g3684
sg75
(lp3700
g68
(g69
g70
NtRp3701
(dp3702
g73
(dp3703
g81
I5
ssg82
g3697
sg75
(lp3704
g68
(g77
g70
NtRp3705
(dp3706
g73
(dp3707
g81
I4
ssg82
Nsg75
(lp3708
g68
(g84
g70
NtRp3709
(dp3710
g73
(dp3711
sg82
g3705
sg75
(lp3712
g68
(g89
g70
NtRp3713
(dp3714
g73
(dp3715
sg82
g3709
sg75
(lp3716
g68
(g69
g70
NtRp3717
(dp3718
g73
(dp3719
g81
I4
ssg82
g3713
sg75
(lp3720
S'*'
asbasbasbasbasbasbasbag68
(g84
g70
NtRp3721
(dp3722
g73
(dp3723
sg82
g3404
sg75
(lp3724
g68
(g89
g70
NtRp3725
(dp3726
g73
(dp3727
g93
g94
ssg82
g3721
sg75
(lp3728
S'headers'
p3729
asbag68
(g89
g70
NtRp3730
(dp3731
g73
(dp3732
g100
g101
ssg82
g3721
sg75
(lp3733
S':'
asbag68
(g89
g70
NtRp3734
(dp3735
g73
(dp3736
sg82
g3721
sg75
(lp3737
g68
(g69
g70
NtRp3738
(dp3739
g73
(dp3740
g81
I5
ssg82
g3734
sg75
(lp3741
g68
(g77
g70
NtRp3742
(dp3743
g73
(dp3744
g81
I4
ssg82
Nsg75
(lp3745
g68
(g84
g70
NtRp3746
(dp3747
g73
(dp3748
sg82
g3742
sg75
(lp3749
g68
(g89
g70
NtRp3750
(dp3751
g73
(dp3752
g93
g94
ssg82
g3746
sg75
(lp3753
S'Cache-Control'
p3754
asbag68
(g89
g70
NtRp3755
(dp3756
g73
(dp3757
g100
g101
ssg82
g3746
sg75
(lp3758
S':'
asbag68
(g89
g70
NtRp3759
(dp3760
g73
(dp3761
sg82
g3746
sg75
(lp3762
g68
(g69
g70
NtRp3763
(dp3764
g73
(dp3765
g81
I4
ssg82
g3759
sg75
(lp3766
S'no-store, no-cache, must-revalidate, post-check=0, pre-check=0'
p3767
asbasbasbag68
(g84
g70
NtRp3768
(dp3769
g73
(dp3770
sg82
g3742
sg75
(lp3771
g68
(g89
g70
NtRp3772
(dp3773
g73
(dp3774
g93
g94
ssg82
g3768
sg75
(lp3775
S'Content-Type'
p3776
asbag68
(g89
g70
NtRp3777
(dp3778
g73
(dp3779
g100
g101
ssg82
g3768
sg75
(lp3780
S':'
asbag68
(g89
g70
NtRp3781
(dp3782
g73
(dp3783
sg82
g3768
sg75
(lp3784
g68
(g69
g70
NtRp3785
(dp3786
g73
(dp3787
g81
I4
ssg82
g3781
sg75
(lp3788
S'text/html; charset=utf-8'
p3789
asbasbasbag68
(g84
g70
NtRp3790
(dp3791
g73
(dp3792
sg82
g3742
sg75
(lp3793
g68
(g89
g70
NtRp3794
(dp3795
g73
(dp3796
g93
g94
ssg82
g3790
sg75
(lp3797
S'Expires'
p3798
asbag68
(g89
g70
NtRp3799
(dp3800
g73
(dp3801
g100
g101
ssg82
g3790
sg75
(lp3802
S':'
asbag68
(g89
g70
NtRp3803
(dp3804
g73
(dp3805
sg82
g3790
sg75
(lp3806
g68
(g69
g70
NtRp3807
(dp3808
g73
(dp3809
g81
I4
ssg82
g3803
sg75
(lp3810
S'Sat, 26 May 2012 12:19:58 GMT'
p3811
asbasbasbag68
(g84
g70
NtRp3812
(dp3813
g73
(dp3814
sg82
g3742
sg75
(lp3815
g68
(g89
g70
NtRp3816
(dp3817
g73
(dp3818
g93
g94
ssg82
g3812
sg75
(lp3819
S'Pragma'
p3820
asbag68
(g89
g70
NtRp3821
(dp3822
g73
(dp3823
g100
g101
ssg82
g3812
sg75
(lp3824
S':'
asbag68
(g89
g70
NtRp3825
(dp3826
g73
(dp3827
sg82
g3812
sg75
(lp3828
g68
(g69
g70
NtRp3829
(dp3830
g73
(dp3831
g81
I4
ssg82
g3825
sg75
(lp3832
S'no-cache'
p3833
asbasbasbag68
(g84
g70
NtRp3834
(dp3835
g73
(dp3836
sg82
g3742
sg75
(lp3837
g68
(g89
g70
NtRp3838
(dp3839
g73
(dp3840
g93
g94
ssg82
g3834
sg75
(lp3841
S'X-Powered-By'
p3842
asbag68
(g89
g70
NtRp3843
(dp3844
g73
(dp3845
g100
g101
ssg82
g3834
sg75
(lp3846
S':'
asbag68
(g89
g70
NtRp3847
(dp3848
g73
(dp3849
sg82
g3834
sg75
(lp3850
g68
(g69
g70
NtRp3851
(dp3852
g73
(dp3853
g81
I4
ssg82
g3847
sg75
(lp3854
S'web2py'
p3855
asbasbasbasbasbasbasbag68
(g84
g70
NtRp3856
(dp3857
g73
(dp3858
sg82
g3404
sg75
(lp3859
g68
(g89
g70
NtRp3860
(dp3861
g73
(dp3862
g93
g94
ssg82
g3856
sg75
(lp3863
S'menu'
p3864
asbag68
(g89
g70
NtRp3865
(dp3866
g73
(dp3867
g100
g101
ssg82
g3856
sg75
(lp3868
S':'
asbag68
(g89
g70
NtRp3869
(dp3870
g73
(dp3871
sg82
g3856
sg75
(lp3872
g68
(g69
g70
NtRp3873
(dp3874
g73
(dp3875
g81
I5
ssg82
g3869
sg75
(lp3876
g68
(g77
g70
NtRp3877
(dp3878
g73
(dp3879
g81
I4
ssg82
Nsg75
(lp3880
g68
(g84
g70
NtRp3881
(dp3882
g73
(dp3883
sg82
g3877
sg75
(lp3884
g68
(g89
g70
NtRp3885
(dp3886
g73
(dp3887
sg82
g3881
sg75
(lp3888
g68
(g69
g70
NtRp3889
(dp3890
g73
(dp3891
g81
I4
ssg82
g3885
sg75
(lp3892
g68
(g77
g70
NtRp3893
(dp3894
g73
(dp3895
g81
I3
ssg82
Nsg75
(lp3896
g68
(g84
g70
NtRp3897
(dp3898
g73
(dp3899
sg82
g3893
sg75
(lp3900
g68
(g89
g70
NtRp3901
(dp3902
g73
(dp3903
sg82
g3897
sg75
(lp3904
g68
(g69
g70
NtRp3905
(dp3906
g73
(dp3907
g81
I3
ssg82
g3901
sg75
(lp3908
cgluon.languages
lazyT_unpickle
p3909
(S's\n\x00\x00\x00Clear Page'
tRp3910
asbasbasbag68
(g84
g70
NtRp3911
(dp3912
g73
(dp3913
sg82
g3893
sg75
(lp3914
g68
(g89
g70
NtRp3915
(dp3916
g73
(dp3917
sg82
g3911
sg75
(lp3918
g68
(g69
g70
NtRp3919
(dp3920
g73
(dp3921
g81
I3
ssg82
g3915
sg75
(lp3922
g997
asbasbasbag68
(g84
g70
NtRp3923
(dp3924
g73
(dp3925
sg82
g3893
sg75
(lp3926
g68
(g89
g70
NtRp3927
(dp3928
g73
(dp3929
sg82
g3923
sg75
(lp3930
g68
(g69
g70
NtRp3931
(dp3932
g73
(dp3933
g81
I3
ssg82
g3927
sg75
(lp3934
S'/streamlog/default/index'
p3935
asbasbasbag68
(g84
g70
NtRp3936
(dp3937
g73
(dp3938
sg82
g3893
sg75
(lp3939
g68
(g89
g70
NtRp3940
(dp3941
g73
(dp3942
sg82
g3936
sg75
(lp3943
g68
(g69
g70
NtRp3944
(dp3945
g73
(dp3946
g81
I3
ssg82
g3940
sg75
(lp3947
g68
(g77
g70
NtRp3948
(dp3949
g73
(dp3950
g81
I2
ssg82
Nsg75
(lp3951
sbasbasbasbasbasbasbasbag68
(g84
g70
NtRp3952
(dp3953
g73
(dp3954
sg82
g3877
sg75
(lp3955
g68
(g89
g70
NtRp3956
(dp3957
g73
(dp3958
sg82
g3952
sg75
(lp3959
g68
(g69
g70
NtRp3960
(dp3961
g73
(dp3962
g81
I4
ssg82
g3956
sg75
(lp3963
g68
(g77
g70
NtRp3964
(dp3965
g73
(dp3966
g81
I3
ssg82
Nsg75
(lp3967
g68
(g84
g70
NtRp3968
(dp3969
g73
(dp3970
sg82
g3964
sg75
(lp3971
g68
(g89
g70
NtRp3972
(dp3973
g73
(dp3974
sg82
g3968
sg75
(lp3975
g68
(g69
g70
NtRp3976
(dp3977
g73
(dp3978
g81
I3
ssg82
g3972
sg75
(lp3979
g3909
(S't\x06\x00\x00\x00Manage'
tRp3980
asbasbasbag68
(g84
g70
NtRp3981
(dp3982
g73
(dp3983
sg82
g3964
sg75
(lp3984
g68
(g89
g70
NtRp3985
(dp3986
g73
(dp3987
sg82
g3981
sg75
(lp3988
g68
(g69
g70
NtRp3989
(dp3990
g73
(dp3991
g81
I3
ssg82
g3985
sg75
(lp3992
g997
asbasbasbag68
(g84
g70
NtRp3993
(dp3994
g73
(dp3995
sg82
g3964
sg75
(lp3996
g68
(g89
g70
NtRp3997
(dp3998
g73
(dp3999
sg82
g3993
sg75
(lp4000
g68
(g69
g70
NtRp4001
(dp4002
g73
(dp4003
g81
I3
ssg82
g3997
sg75
(lp4004
S'None'
p4005
asbasbasbag68
(g84
g70
NtRp4006
(dp4007
g73
(dp4008
sg82
g3964
sg75
(lp4009
g68
(g89
g70
NtRp4010
(dp4011
g73
(dp4012
sg82
g4006
sg75
(lp4013
g68
(g69
g70
NtRp4014
(dp4015
g73
(dp4016
g81
I3
ssg82
g4010
sg75
(lp4017
g68
(g77
g70
NtRp4018
(dp4019
g73
(dp4020
g81
I2
ssg82
Nsg75
(lp4021
g68
(g84
g70
NtRp4022
(dp4023
g73
(dp4024
sg82
g4018
sg75
(lp4025
g68
(g89
g70
NtRp4026
(dp4027
g73
(dp4028
sg82
g4022
sg75
(lp4029
g68
(g69
g70
NtRp4030
(dp4031
g73
(dp4032
g81
I2
ssg82
g4026
sg75
(lp4033
g68
(g77
g70
NtRp4034
(dp4035
g73
(dp4036
g81
I1
ssg82
Nsg75
(lp4037
g68
(g84
g70
NtRp4038
(dp4039
g73
(dp4040
sg82
g4034
sg75
(lp4041
g68
(g89
g70
NtRp4042
(dp4043
g73
(dp4044
sg82
g4038
sg75
(lp4045
g68
(g69
g70
NtRp4046
(dp4047
g73
(dp4048
g81
I1
ssg82
g4042
sg75
(lp4049
g3909
(S't\x04\x00\x00\x00Logs'
tRp4050
asbasbasbag68
(g84
g70
NtRp4051
(dp4052
g73
(dp4053
sg82
g4034
sg75
(lp4054
g68
(g89
g70
NtRp4055
(dp4056
g73
(dp4057
sg82
g4051
sg75
(lp4058
g68
(g69
g70
NtRp4059
(dp4060
g73
(dp4061
g81
I1
ssg82
g4055
sg75
(lp4062
I00
asbasbasbag68
(g84
g70
NtRp4063
(dp4064
g73
(dp4065
sg82
g4034
sg75
(lp4066
g68
(g89
g70
NtRp4067
(dp4068
g73
(dp4069
sg82
g4063
sg75
(lp4070
g68
(g69
g70
NtRp4071
(dp4072
g73
(dp4073
g81
I1
ssg82
g4067
sg75
(lp4074
S'/streamlog/default/log_manage'
p4075
asbasbasbag68
(g84
g70
NtRp4076
(dp4077
g73
(dp4078
sg82
g4034
sg75
(lp4079
g68
(g89
g70
NtRp4080
(dp4081
g73
(dp4082
sg82
g4076
sg75
(lp4083
g68
(g69
g70
NtRp4084
(dp4085
g73
(dp4086
g81
I1
ssg82
g4080
sg75
(lp4087
(lp4088
asbasbasbasbasbasbasbag68
(g84
g70
NtRp4089
(dp4090
g73
(dp4091
sg82
g4018
sg75
(lp4092
g68
(g89
g70
NtRp4093
(dp4094
g73
(dp4095
sg82
g4089
sg75
(lp4096
g68
(g69
g70
NtRp4097
(dp4098
g73
(dp4099
g81
I2
ssg82
g4093
sg75
(lp4100
g68
(g77
g70
NtRp4101
(dp4102
g73
(dp4103
g81
I1
ssg82
Nsg75
(lp4104
g68
(g84
g70
NtRp4105
(dp4106
g73
(dp4107
sg82
g4101
sg75
(lp4108
g68
(g89
g70
NtRp4109
(dp4110
g73
(dp4111
sg82
g4105
sg75
(lp4112
g68
(g69
g70
NtRp4113
(dp4114
g73
(dp4115
g81
I1
ssg82
g4109
sg75
(lp4116
g3909
(S't\x07\x00\x00\x00Servers'
tRp4117
asbasbasbag68
(g84
g70
NtRp4118
(dp4119
g73
(dp4120
sg82
g4101
sg75
(lp4121
g68
(g89
g70
NtRp4122
(dp4123
g73
(dp4124
sg82
g4118
sg75
(lp4125
g68
(g69
g70
NtRp4126
(dp4127
g73
(dp4128
g81
I1
ssg82
g4122
sg75
(lp4129
I00
asbasbasbag68
(g84
g70
NtRp4130
(dp4131
g73
(dp4132
sg82
g4101
sg75
(lp4133
g68
(g89
g70
NtRp4134
(dp4135
g73
(dp4136
sg82
g4130
sg75
(lp4137
g68
(g69
g70
NtRp4138
(dp4139
g73
(dp4140
g81
I1
ssg82
g4134
sg75
(lp4141
S'/streamlog/default/server_manage'
p4142
asbasbasbag68
(g84
g70
NtRp4143
(dp4144
g73
(dp4145
sg82
g4101
sg75
(lp4146
g68
(g89
g70
NtRp4147
(dp4148
g73
(dp4149
sg82
g4143
sg75
(lp4150
g68
(g69
g70
NtRp4151
(dp4152
g73
(dp4153
g81
I1
ssg82
g4147
sg75
(lp4154
(lp4155
asbasbasbasbasbasbasbag68
(g84
g70
NtRp4156
(dp4157
g73
(dp4158
sg82
g4018
sg75
(lp4159
g68
(g89
g70
NtRp4160
(dp4161
g73
(dp4162
sg82
g4156
sg75
(lp4163
g68
(g69
g70
NtRp4164
(dp4165
g73
(dp4166
g81
I2
ssg82
g4160
sg75
(lp4167
g68
(g77
g70
NtRp4168
(dp4169
g73
(dp4170
g81
I1
ssg82
Nsg75
(lp4171
g68
(g84
g70
NtRp4172
(dp4173
g73
(dp4174
sg82
g4168
sg75
(lp4175
g68
(g89
g70
NtRp4176
(dp4177
g73
(dp4178
sg82
g4172
sg75
(lp4179
g68
(g69
g70
NtRp4180
(dp4181
g73
(dp4182
g81
I1
ssg82
g4176
sg75
(lp4183
g3909
(S't\x08\x00\x00\x00Projects'
tRp4184
asbasbasbag68
(g84
g70
NtRp4185
(dp4186
g73
(dp4187
sg82
g4168
sg75
(lp4188
g68
(g89
g70
NtRp4189
(dp4190
g73
(dp4191
sg82
g4185
sg75
(lp4192
g68
(g69
g70
NtRp4193
(dp4194
g73
(dp4195
g81
I1
ssg82
g4189
sg75
(lp4196
I00
asbasbasbag68
(g84
g70
NtRp4197
(dp4198
g73
(dp4199
sg82
g4168
sg75
(lp4200
g68
(g89
g70
NtRp4201
(dp4202
g73
(dp4203
sg82
g4197
sg75
(lp4204
g68
(g69
g70
NtRp4205
(dp4206
g73
(dp4207
g81
I1
ssg82
g4201
sg75
(lp4208
S'/streamlog/default/project_manage'
p4209
asbasbasbag68
(g84
g70
NtRp4210
(dp4211
g73
(dp4212
sg82
g4168
sg75
(lp4213
g68
(g89
g70
NtRp4214
(dp4215
g73
(dp4216
sg82
g4210
sg75
(lp4217
g68
(g69
g70
NtRp4218
(dp4219
g73
(dp4220
g81
I1
ssg82
g4214
sg75
(lp4221
(lp4222
asbasbasbasbasbasbasbag68
(g84
g70
NtRp4223
(dp4224
g73
(dp4225
sg82
g4018
sg75
(lp4226
g68
(g89
g70
NtRp4227
(dp4228
g73
(dp4229
sg82
g4223
sg75
(lp4230
g68
(g69
g70
NtRp4231
(dp4232
g73
(dp4233
g81
I2
ssg82
g4227
sg75
(lp4234
g68
(g77
g70
NtRp4235
(dp4236
g73
(dp4237
g81
I1
ssg82
Nsg75
(lp4238
g68
(g84
g70
NtRp4239
(dp4240
g73
(dp4241
sg82
g4235
sg75
(lp4242
g68
(g89
g70
NtRp4243
(dp4244
g73
(dp4245
sg82
g4239
sg75
(lp4246
g68
(g69
g70
NtRp4247
(dp4248
g73
(dp4249
g81
I1
ssg82
g4243
sg75
(lp4250
g3909
(S's\t\x00\x00\x00Type Logs'
tRp4251
asbasbasbag68
(g84
g70
NtRp4252
(dp4253
g73
(dp4254
sg82
g4235
sg75
(lp4255
g68
(g89
g70
NtRp4256
(dp4257
g73
(dp4258
sg82
g4252
sg75
(lp4259
g68
(g69
g70
NtRp4260
(dp4261
g73
(dp4262
g81
I1
ssg82
g4256
sg75
(lp4263
I00
asbasbasbag68
(g84
g70
NtRp4264
(dp4265
g73
(dp4266
sg82
g4235
sg75
(lp4267
g68
(g89
g70
NtRp4268
(dp4269
g73
(dp4270
sg82
g4264
sg75
(lp4271
g68
(g69
g70
NtRp4272
(dp4273
g73
(dp4274
g81
I1
ssg82
g4268
sg75
(lp4275
S'/streamlog/default/type_log_manage'
p4276
asbasbasbag68
(g84
g70
NtRp4277
(dp4278
g73
(dp4279
sg82
g4235
sg75
(lp4280
g68
(g89
g70
NtRp4281
(dp4282
g73
(dp4283
sg82
g4277
sg75
(lp4284
g68
(g69
g70
NtRp4285
(dp4286
g73
(dp4287
g81
I1
ssg82
g4281
sg75
(lp4288
(lp4289
asbasbasbasbasbasbasbasbasbasbasbasbasbasbasbasbasbasbasbag68
(g84
g70
NtRp4290
(dp4291
g73
(dp4292
sg82
g3404
sg75
(lp4293
g68
(g89
g70
NtRp4294
(dp4295
g73
(dp4296
g93
g94
ssg82
g4290
sg75
(lp4297
S'meta'
p4298
asbag68
(g89
g70
NtRp4299
(dp4300
g73
(dp4301
g100
g101
ssg82
g4290
sg75
(lp4302
S':'
asbag68
(g89
g70
NtRp4303
(dp4304
g73
(dp4305
sg82
g4290
sg75
(lp4306
g68
(g69
g70
NtRp4307
(dp4308
g73
(dp4309
g81
I5
ssg82
g4303
sg75
(lp4310
g68
(g77
g70
NtRp4311
(dp4312
g73
(dp4313
g81
I4
ssg82
Nsg75
(lp4314
g68
(g84
g70
NtRp4315
(dp4316
g73
(dp4317
sg82
g4311
sg75
(lp4318
g68
(g89
g70
NtRp4319
(dp4320
g73
(dp4321
g93
g94
ssg82
g4315
sg75
(lp4322
S'author'
p4323
asbag68
(g89
g70
NtRp4324
(dp4325
g73
(dp4326
g100
g101
ssg82
g4315
sg75
(lp4327
S':'
asbag68
(g89
g70
NtRp4328
(dp4329
g73
(dp4330
sg82
g4315
sg75
(lp4331
g68
(g69
g70
NtRp4332
(dp4333
g73
(dp4334
g81
I4
ssg82
g4328
sg75
(lp4335
S'Jose de Soto <josedesoto@gmail.com>'
p4336
asbasbasbag68
(g84
g70
NtRp4337
(dp4338
g73
(dp4339
sg82
g4311
sg75
(lp4340
g68
(g89
g70
NtRp4341
(dp4342
g73
(dp4343
g93
g94
ssg82
g4337
sg75
(lp4344
S'copyright'
p4345
asbag68
(g89
g70
NtRp4346
(dp4347
g73
(dp4348
g100
g101
ssg82
g4337
sg75
(lp4349
S':'
asbag68
(g89
g70
NtRp4350
(dp4351
g73
(dp4352
sg82
g4337
sg75
(lp4353
g68
(g69
g70
NtRp4354
(dp4355
g73
(dp4356
g81
I4
ssg82
g4350
sg75
(lp4357
S'Copyright 2011'
p4358
asbasbasbag68
(g84
g70
NtRp4359
(dp4360
g73
(dp4361
sg82
g4311
sg75
(lp4362
g68
(g89
g70
NtRp4363
(dp4364
g73
(dp4365
g93
g94
ssg82
g4359
sg75
(lp4366
S'description'
p4367
asbag68
(g89
g70
NtRp4368
(dp4369
g73
(dp4370
g100
g101
ssg82
g4359
sg75
(lp4371
S':'
asbag68
(g89
g70
NtRp4372
(dp4373
g73
(dp4374
sg82
g4359
sg75
(lp4375
g68
(g69
g70
NtRp4376
(dp4377
g73
(dp4378
g81
I4
ssg82
g4372
sg75
(lp4379
S'a cool new app'
p4380
asbasbasbag68
(g84
g70
NtRp4381
(dp4382
g73
(dp4383
sg82
g4311
sg75
(lp4384
g68
(g89
g70
NtRp4385
(dp4386
g73
(dp4387
g93
g94
ssg82
g4381
sg75
(lp4388
S'generator'
p4389
asbag68
(g89
g70
NtRp4390
(dp4391
g73
(dp4392
g100
g101
ssg82
g4381
sg75
(lp4393
S':'
asbag68
(g89
g70
NtRp4394
(dp4395
g73
(dp4396
sg82
g4381
sg75
(lp4397
g68
(g69
g70
NtRp4398
(dp4399
g73
(dp4400
g81
I4
ssg82
g4394
sg75
(lp4401
S'Web2py Web Framework'
p4402
asbasbasbag68
(g84
g70
NtRp4403
(dp4404
g73
(dp4405
sg82
g4311
sg75
(lp4406
g68
(g89
g70
NtRp4407
(dp4408
g73
(dp4409
g93
g94
ssg82
g4403
sg75
(lp4410
S'keywords'
p4411
asbag68
(g89
g70
NtRp4412
(dp4413
g73
(dp4414
g100
g101
ssg82
g4403
sg75
(lp4415
S':'
asbag68
(g89
g70
NtRp4416
(dp4417
g73
(dp4418
sg82
g4403
sg75
(lp4419
g68
(g69
g70
NtRp4420
(dp4421
g73
(dp4422
g81
I4
ssg82
g4416
sg75
(lp4423
S'web2py, python, framework'
p4424
asbasbasbasbasbasbasbag68
(g84
g70
NtRp4425
(dp4426
g73
(dp4427
sg82
g3404
sg75
(lp4428
g68
(g89
g70
NtRp4429
(dp4430
g73
(dp4431
g93
g94
ssg82
g4425
sg75
(lp4432
S'postprocessing'
p4433
asbag68
(g89
g70
NtRp4434
(dp4435
g73
(dp4436
g100
g101
ssg82
g4425
sg75
(lp4437
S':'
asbag68
(g89
g70
NtRp4438
(dp4439
g73
(dp4440
sg82
g4425
sg75
(lp4441
g68
(g69
g70
NtRp4442
(dp4443
g73
(dp4444
g81
I5
ssg82
g4438
sg75
(lp4445
g68
(g77
g70
NtRp4446
(dp4447
g73
(dp4448
g81
I4
ssg82
Nsg75
(lp4449
sbasbasbasbag68
(g84
g70
NtRp4450
(dp4451
g73
(dp4452
sg82
g3404
sg75
(lp4453
g68
(g89
g70
NtRp4454
(dp4455
g73
(dp4456
g93
g94
ssg82
g4450
sg75
(lp4457
S'session_file'
p4458
asbag68
(g89
g70
NtRp4459
(dp4460
g73
(dp4461
g100
g101
ssg82
g4450
sg75
(lp4462
S':'
asbag68
(g89
g70
NtRp4463
(dp4464
g73
(dp4465
sg82
g4450
sg75
(lp4466
g68
(g69
g70
NtRp4467
(dp4468
g73
(dp4469
g81
I5
ssg82
g4463
sg75
(lp4470
S"<open file '/home/jose/DESARROLLO/web2py199/applications/streamlog/sessions/127.0.0.1-610b0c7d-3f6f-4500-a76a-b095fb30f7fd', mode 'rb+' at 0x2ab69c0>"
p4471
asbasbasbag68
(g84
g70
NtRp4472
(dp4473
g73
(dp4474
sg82
g3404
sg75
(lp4475
g68
(g89
g70
NtRp4476
(dp4477
g73
(dp4478
g93
g94
ssg82
g4472
sg75
(lp4479
S'session_filename'
p4480
asbag68
(g89
g70
NtRp4481
(dp4482
g73
(dp4483
g100
g101
ssg82
g4472
sg75
(lp4484
S':'
asbag68
(g89
g70
NtRp4485
(dp4486
g73
(dp4487
sg82
g4472
sg75
(lp4488
g68
(g69
g70
NtRp4489
(dp4490
g73
(dp4491
g81
I5
ssg82
g4485
sg75
(lp4492
S'/home/jose/DESARROLLO/web2py199/applications/streamlog/sessions/127.0.0.1-610b0c7d-3f6f-4500-a76a-b095fb30f7fd'
p4493
asbasbasbag68
(g84
g70
NtRp4494
(dp4495
g73
(dp4496
sg82
g3404
sg75
(lp4497
g68
(g89
g70
NtRp4498
(dp4499
g73
(dp4500
g93
g94
ssg82
g4494
sg75
(lp4501
S'session_id'
p4502
asbag68
(g89
g70
NtRp4503
(dp4504
g73
(dp4505
g100
g101
ssg82
g4494
sg75
(lp4506
S':'
asbag68
(g89
g70
NtRp4507
(dp4508
g73
(dp4509
sg82
g4494
sg75
(lp4510
g68
(g69
g70
NtRp4511
(dp4512
g73
(dp4513
g81
I5
ssg82
g4507
sg75
(lp4514
S'127.0.0.1-610b0c7d-3f6f-4500-a76a-b095fb30f7fd'
p4515
asbasbasbag68
(g84
g70
NtRp4516
(dp4517
g73
(dp4518
sg82
g3404
sg75
(lp4519
g68
(g89
g70
NtRp4520
(dp4521
g73
(dp4522
g93
g94
ssg82
g4516
sg75
(lp4523
S'session_id_name'
p4524
asbag68
(g89
g70
NtRp4525
(dp4526
g73
(dp4527
g100
g101
ssg82
g4516
sg75
(lp4528
S':'
asbag68
(g89
g70
NtRp4529
(dp4530
g73
(dp4531
sg82
g4516
sg75
(lp4532
g68
(g69
g70
NtRp4533
(dp4534
g73
(dp4535
g81
I5
ssg82
g4529
sg75
(lp4536
g3461
asbasbasbag68
(g84
g70
NtRp4537
(dp4538
g73
(dp4539
sg82
g3404
sg75
(lp4540
g68
(g89
g70
NtRp4541
(dp4542
g73
(dp4543
g93
g94
ssg82
g4537
sg75
(lp4544
S'session_locked'
p4545
asbag68
(g89
g70
NtRp4546
(dp4547
g73
(dp4548
g100
g101
ssg82
g4537
sg75
(lp4549
S':'
asbag68
(g89
g70
NtRp4550
(dp4551
g73
(dp4552
sg82
g4537
sg75
(lp4553
g68
(g69
g70
NtRp4554
(dp4555
g73
(dp4556
g81
I5
ssg82
g4550
sg75
(lp4557
g111
asbasbasbag68
(g84
g70
NtRp4558
(dp4559
g73
(dp4560
sg82
g3404
sg75
(lp4561
g68
(g89
g70
NtRp4562
(dp4563
g73
(dp4564
g93
g94
ssg82
g4558
sg75
(lp4565
S'session_new'
p4566
asbag68
(g89
g70
NtRp4567
(dp4568
g73
(dp4569
g100
g101
ssg82
g4558
sg75
(lp4570
S':'
asbag68
(g89
g70
NtRp4571
(dp4572
g73
(dp4573
sg82
g4558
sg75
(lp4574
g68
(g69
g70
NtRp4575
(dp4576
g73
(dp4577
g81
I5
ssg82
g4571
sg75
(lp4578
g997
asbasbasbag68
(g84
g70
NtRp4579
(dp4580
g73
(dp4581
sg82
g3404
sg75
(lp4582
g68
(g89
g70
NtRp4583
(dp4584
g73
(dp4585
g93
g94
ssg82
g4579
sg75
(lp4586
S'status'
p4587
asbag68
(g89
g70
NtRp4588
(dp4589
g73
(dp4590
g100
g101
ssg82
g4579
sg75
(lp4591
S':'
asbag68
(g89
g70
NtRp4592
(dp4593
g73
(dp4594
sg82
g4579
sg75
(lp4595
g68
(g69
g70
NtRp4596
(dp4597
g73
(dp4598
g81
I5
ssg82
g4592
sg75
(lp4599
S'200'
p4600
asbasbasbag68
(g84
g70
NtRp4601
(dp4602
g73
(dp4603
sg82
g3404
sg75
(lp4604
g68
(g89
g70
NtRp4605
(dp4606
g73
(dp4607
g93
g94
ssg82
g4601
sg75
(lp4608
S'subtitle'
p4609
asbag68
(g89
g70
NtRp4610
(dp4611
g73
(dp4612
g100
g101
ssg82
g4601
sg75
(lp4613
S':'
asbag68
(g89
g70
NtRp4614
(dp4615
g73
(dp4616
sg82
g4601
sg75
(lp4617
g68
(g69
g70
NtRp4618
(dp4619
g73
(dp4620
g81
I5
ssg82
g4614
sg75
(lp4621
g3909
(S's\x12\x00\x00\x00Stream Log Client!'
tRp4622
asbasbasbag68
(g84
g70
NtRp4623
(dp4624
g73
(dp4625
sg82
g3404
sg75
(lp4626
g68
(g89
g70
NtRp4627
(dp4628
g73
(dp4629
g93
g94
ssg82
g4623
sg75
(lp4630
S'title'
p4631
asbag68
(g89
g70
NtRp4632
(dp4633
g73
(dp4634
g100
g101
ssg82
g4623
sg75
(lp4635
S':'
asbag68
(g89
g70
NtRp4636
(dp4637
g73
(dp4638
sg82
g4623
sg75
(lp4639
g68
(g69
g70
NtRp4640
(dp4641
g73
(dp4642
g81
I5
ssg82
g4636
sg75
(lp4643
g133
asbasbasbag68
(g84
g70
NtRp4644
(dp4645
g73
(dp4646
sg82
g3404
sg75
(lp4647
g68
(g89
g70
NtRp4648
(dp4649
g73
(dp4650
g93
g94
ssg82
g4644
sg75
(lp4651
g2360
asbag68
(g89
g70
NtRp4652
(dp4653
g73
(dp4654
g100
g101
ssg82
g4644
sg75
(lp4655
S':'
asbag68
(g89
g70
NtRp4656
(dp4657
g73
(dp4658
sg82
g4644
sg75
(lp4659
g68
(g69
g70
NtRp4660
(dp4661
g73
(dp4662
g81
I5
ssg82
g4656
sg75
(lp4663
g2373
asbasbasbag68
(g84
g70
NtRp4664
(dp4665
g73
(dp4666
sg82
g3404
sg75
(lp4667
g68
(g89
g70
NtRp4668
(dp4669
g73
(dp4670
g93
g94
ssg82
g4664
sg75
(lp4671
S'view'
p4672
asbag68
(g89
g70
NtRp4673
(dp4674
g73
(dp4675
g100
g101
ssg82
g4664
sg75
(lp4676
S':'
asbag68
(g89
g70
NtRp4677
(dp4678
g73
(dp4679
sg82
g4664
sg75
(lp4680
g68
(g69
g70
NtRp4681
(dp4682
g73
(dp4683
g81
I5
ssg82
g4677
sg75
(lp4684
S'default/call.html'
p4685
asbasbasbasbasbsS'locals'
p4686
(dp4687
g3
S"'/home/jose/DESARROLLO/web2py199/applications/streamlog/controllers/default.py'"
p4688
sg5
S"'# -*- coding: utf-8 -*-\\n# this file is released ...m=crud())\\n\\nresponse._vars=response._caller(call)\\n'"
p4689
sssS'traceback'
p4690
S'Traceback (most recent call last):\n  File "/home/jose/DESARROLLO/web2py199/gluon/restricted.py", line 193, in restricted\n    ccode = compile2(code,layer)\n  File "/home/jose/DESARROLLO/web2py199/gluon/restricted.py", line 179, in compile2\n    return compile(code.rstrip().replace(\'\\r\\n\',\'\\n\')+\'\\n\', layer, \'exec\')\n  File "/home/jose/DESARROLLO/web2py199/applications/streamlog/controllers/default.py", line 26\n    return {"connection:"[{\'log_name\':\'a\',\'IP\':\'b\',\'port:\'\'c\'}]\n                                                             ^\nSyntaxError: invalid syntax\n'
p4691
s.