(dp1
S'output'
p2
S''
sS'layer'
p3
S'/home/jose/DESARROLLO/web2py199/applications/streamlog/controllers/default.py'
p4
sS'code'
p5
S'# -*- coding: utf-8 -*-\n# this file is released under public domain and you can use without limitations\n\n#########################################################################\n## This is a samples controller\n## - index is the default action of any application\n## - user is required for authentication and authorization\n## - download is for downloading files uploaded in the db (does streaming)\n## - call exposes all registered services (none by default)\n#########################################################################\n\n\n\ndef index():\n    """\n    example action using the internationalization operator T and flash\n    rendered by views/default/index.html or views/generic.html\n    """\n    links = [lambda row:  INPUT(_type=\'button\',_value=\'START STREAM\', _onclick=\'createStream(\'+str(row.id)+\')\')]\n    form=SQLFORM.grid(db.t_log, selectable=False, csv=False,create=False, deletable=False, editable=False, links=links, user_signature=False)\n    return dict(message=T(\'Hello World2\'), form=form)\n\n@service.json\ndef getConnectionData():\n\t\n\treturn ([\'bar\': (\'baz\', None, 1.0, 2)])\n\ndef choose_log():\n    """\n    example action using the internationalization operator T and flash\n    rendered by views/default/index.html or views/generic.html\n    """\n    \n    \n    return dict(message="log")\n\n\ndef type_table():\n    """\n    example action using the internationalization operator T and flash\n    rendered by views/default/index.html or views/generic.html\n    """\n    \n    table=\'<table cellpadding="0" cellspacing="0" border="0" class="display" id="tablelog"> \\\n    <thead> \\\n        <tr> \\\n            <th>IP</th> \\\n            <th>hyphen</th> \\\n            <th>userid</th> \\\n            <th>Time Request</th> \\\n        <th>Request Time</th> \\\n        <th>Status Code</th> \\\n        <th>Size Object</th> \\\n        </tr>\\\n    </thead> \\\n    <tfoot> \\\n        <tr> \\\n            <th>IP</th> \\\n            <th>hyphen</th> \\\n            <th>userid</th>\\\n            <th>Time Request</th> \\\n        <th>Request Time</th> \\\n        <th>Status Code</th> \\\n        <th>Size Object</th> \\\n        </tr>  \\\n    </tfoot>  \\\n        <tbody> \\\n        </tbody> \\\n    </table>\'\n    \n    return table\n\n\ndef user():\n    """\n    exposes:\n    http://..../[app]/default/user/login\n    http://..../[app]/default/user/logout\n    http://..../[app]/default/user/register\n    http://..../[app]/default/user/profile\n    http://..../[app]/default/user/retrieve_password\n    http://..../[app]/default/user/change_password\n    use @auth.requires_login()\n        @auth.requires_membership(\'group name\')\n        @auth.requires_permission(\'read\',\'table name\',record_id)\n    to decorate functions that need access control\n    """\n    return dict(form=auth())\n\ndef error():\n    return dict()\n\n\ndef project_manage():\n    \n    form = SQLFORM.smartgrid(db.t_project)\n    return locals()\n\n\n\ndef server_manage():\n\n    form=SQLFORM.grid(db.t_server)\n    return locals()\n\ndef log_manage():\n \n    #form = SQLFORM.smartgrid(db.t_log,constraints=dict(t_log=query), selectable=True,searchable=False, csv=False,showbuttontext=True,onupdate=auth.archive)\n    #form = SQLFORM.smartgrid(db.t_log)\n    form=SQLFORM.grid(db.t_log)\n    return locals()\n\ndef type_log_manage():\n\n    form=SQLFORM.grid(db.t_type_log)\n    return locals()\n\ndef download():\n    """\n    allows downloading of uploaded files\n    http://..../[app]/default/download/[filename]\n    """\n    return response.download(request,db)\n\n\ndef call():\n    """\n    exposes services. for example:\n    http://..../[app]/default/call/jsonrpc\n    decorate with @services.jsonrpc the functions to expose\n    supports xml, json, xmlrpc, jsonrpc, amfrpc, rss, csv\n    """\n    return service()\n\n\n@auth.requires_signature()\ndef data():\n    """\n    http://..../[app]/default/data/tables\n    http://..../[app]/default/data/create/[table]\n    http://..../[app]/default/data/read/[table]/[id]\n    http://..../[app]/default/data/update/[table]/[id]\n    http://..../[app]/default/data/delete/[table]/[id]\n    http://..../[app]/default/data/select/[table]\n    http://..../[app]/default/data/search/[table]\n    but URLs bust be signed, i.e. linked with\n      A(\'table\',_href=URL(\'data/tables\',user_signature=True))\n    or with the signed load operator\n      LOAD(\'default\',\'data.load\',args=\'tables\',ajax=True,user_signature=True)\n    """\n    return dict(form=crud())\n\nresponse._vars=response._caller(getConnectionData)\n'
p6
sS'snapshot'
p7
(dp8
S'exception'
p9
(dp10
S'__getslice__'
p11
S"<method-wrapper '__getslice__' of exceptions.SyntaxError object>"
p12
sS'text'
p13
S'"\\treturn ([\'bar\': (\'baz\', None, 1.0, 2)])\\n"'
p14
sS'__str__'
p15
S"<method-wrapper '__str__' of exceptions.SyntaxError object>"
p16
sS'__reduce__'
p17
S'<built-in method __reduce__ of exceptions.SyntaxError object>'
p18
sS'__dict__'
p19
S'{}'
p20
sS'__sizeof__'
p21
S'<built-in method __sizeof__ of exceptions.SyntaxError object>'
p22
sS'__init__'
p23
S"<method-wrapper '__init__' of exceptions.SyntaxError object>"
p24
sS'__setattr__'
p25
S"<method-wrapper '__setattr__' of exceptions.SyntaxError object>"
p26
sS'__reduce_ex__'
p27
S'<built-in method __reduce_ex__ of exceptions.SyntaxError object>'
p28
sS'__new__'
p29
S'<built-in method __new__ of type object>'
p30
sS'__format__'
p31
S'<built-in method __format__ of exceptions.SyntaxError object>'
p32
sS'__class__'
p33
S"<type 'exceptions.SyntaxError'>"
p34
sS'filename'
p35
S"'/home/jose/DESARROLLO/web2py199/applications/streamlog/controllers/default.py'"
p36
sS'lineno'
p37
S'26'
p38
sS'msg'
p39
S"'invalid syntax'"
p40
sS'__doc__'
p41
S"'Invalid syntax.'"
p42
sS'__getitem__'
p43
S"<method-wrapper '__getitem__' of exceptions.SyntaxError object>"
p44
sS'__setstate__'
p45
S'<built-in method __setstate__ of exceptions.SyntaxError object>'
p46
sS'__getattribute__'
p47
S"<method-wrapper '__getattribute__' of exceptions.SyntaxError object>"
p48
sS'print_file_and_line'
p49
S'None'
p50
sS'args'
p51
S'(\'invalid syntax\', (\'/home/jose/DESARROLLO/web2py199/applications/streamlog/controllers/default.py\', 26, 16, "\\treturn ([\'bar\': (\'baz\', None, 1.0, 2)])\\n"))'
p52
sS'__subclasshook__'
p53
S'<built-in method __subclasshook__ of type object>'
p54
sS'offset'
p55
S'16'
p56
sS'__unicode__'
p57
S'<built-in method __unicode__ of exceptions.SyntaxError object>'
p58
sS'__delattr__'
p59
S"<method-wrapper '__delattr__' of exceptions.SyntaxError object>"
p60
sS'__repr__'
p61
S"<method-wrapper '__repr__' of exceptions.SyntaxError object>"
p62
sS'__hash__'
p63
S"<method-wrapper '__hash__' of exceptions.SyntaxError object>"
p64
ssS'evalue'
p65
S'invalid syntax (default.py, line 26)'
p66
sS'request'
p67
ccopy_reg
_reconstructor
p68
(cgluon.html
BEAUTIFY
p69
c__builtin__
object
p70
NtRp71
(dp72
S'attributes'
p73
(dp74
sS'components'
p75
(lp76
g68
(cgluon.html
TABLE
p77
g70
NtRp78
(dp79
g73
(dp80
S'level'
p81
I5
ssS'parent'
p82
Nsg75
(lp83
g68
(cgluon.html
TR
p84
g70
NtRp85
(dp86
g73
(dp87
sg82
g78
sg75
(lp88
g68
(cgluon.html
TD
p89
g70
NtRp90
(dp91
g73
(dp92
S'_style'
p93
S'font-weight:bold;'
p94
ssg82
g85
sg75
(lp95
S'ajax'
p96
asbag68
(g89
g70
NtRp97
(dp98
g73
(dp99
S'_valign'
p100
S'top'
p101
ssg82
g85
sg75
(lp102
S':'
asbag68
(g89
g70
NtRp103
(dp104
g73
(dp105
sg82
g85
sg75
(lp106
g68
(g69
g70
NtRp107
(dp108
g73
(dp109
g81
I5
ssg82
g103
sg75
(lp110
S'False'
p111
asbasbasbag68
(g84
g70
NtRp112
(dp113
g73
(dp114
sg82
g78
sg75
(lp115
g68
(g89
g70
NtRp116
(dp117
g73
(dp118
g93
g94
ssg82
g112
sg75
(lp119
S'application'
p120
asbag68
(g89
g70
NtRp121
(dp122
g73
(dp123
g100
g101
ssg82
g112
sg75
(lp124
S':'
asbag68
(g89
g70
NtRp125
(dp126
g73
(dp127
sg82
g112
sg75
(lp128
g68
(g69
g70
NtRp129
(dp130
g73
(dp131
g81
I5
ssg82
g125
sg75
(lp132
S'streamlog'
p133
asbasbasbag68
(g84
g70
NtRp134
(dp135
g73
(dp136
sg82
g78
sg75
(lp137
g68
(g89
g70
NtRp138
(dp139
g73
(dp140
g93
g94
ssg82
g134
sg75
(lp141
g51
asbag68
(g89
g70
NtRp142
(dp143
g73
(dp144
g100
g101
ssg82
g134
sg75
(lp145
S':'
asbag68
(g89
g70
NtRp146
(dp147
g73
(dp148
sg82
g134
sg75
(lp149
g68
(g69
g70
NtRp150
(dp151
g73
(dp152
g81
I5
ssg82
g146
sg75
(lp153
g68
(g77
g70
NtRp154
(dp155
g73
(dp156
g81
I4
ssg82
Nsg75
(lp157
g68
(g84
g70
NtRp158
(dp159
g73
(dp160
sg82
g154
sg75
(lp161
g68
(g89
g70
NtRp162
(dp163
g73
(dp164
sg82
g158
sg75
(lp165
g68
(g69
g70
NtRp166
(dp167
g73
(dp168
g81
I4
ssg82
g162
sg75
(lp169
S'2'
asbasbasbasbasbasbasbag68
(g84
g70
NtRp170
(dp171
g73
(dp172
sg82
g78
sg75
(lp173
g68
(g89
g70
NtRp174
(dp175
g73
(dp176
g93
g94
ssg82
g170
sg75
(lp177
S'body'
p178
asbag68
(g89
g70
NtRp179
(dp180
g73
(dp181
g100
g101
ssg82
g170
sg75
(lp182
S':'
asbag68
(g89
g70
NtRp183
(dp184
g73
(dp185
sg82
g170
sg75
(lp186
g68
(g69
g70
NtRp187
(dp188
g73
(dp189
g81
I5
ssg82
g183
sg75
(lp190
S'<cStringIO.StringO object at 0x24d9ce0>'
p191
asbasbasbag68
(g84
g70
NtRp192
(dp193
g73
(dp194
sg82
g78
sg75
(lp195
g68
(g89
g70
NtRp196
(dp197
g73
(dp198
g93
g94
ssg82
g192
sg75
(lp199
S'client'
p200
asbag68
(g89
g70
NtRp201
(dp202
g73
(dp203
g100
g101
ssg82
g192
sg75
(lp204
S':'
asbag68
(g89
g70
NtRp205
(dp206
g73
(dp207
sg82
g192
sg75
(lp208
g68
(g69
g70
NtRp209
(dp210
g73
(dp211
g81
I5
ssg82
g205
sg75
(lp212
S'127.0.0.1'
p213
asbasbasbag68
(g84
g70
NtRp214
(dp215
g73
(dp216
sg82
g78
sg75
(lp217
g68
(g89
g70
NtRp218
(dp219
g73
(dp220
g93
g94
ssg82
g214
sg75
(lp221
S'controller'
p222
asbag68
(g89
g70
NtRp223
(dp224
g73
(dp225
g100
g101
ssg82
g214
sg75
(lp226
S':'
asbag68
(g89
g70
NtRp227
(dp228
g73
(dp229
sg82
g214
sg75
(lp230
g68
(g69
g70
NtRp231
(dp232
g73
(dp233
g81
I5
ssg82
g227
sg75
(lp234
S'default'
p235
asbasbasbag68
(g84
g70
NtRp236
(dp237
g73
(dp238
sg82
g78
sg75
(lp239
g68
(g89
g70
NtRp240
(dp241
g73
(dp242
g93
g94
ssg82
g236
sg75
(lp243
S'cookies'
p244
asbag68
(g89
g70
NtRp245
(dp246
g73
(dp247
g100
g101
ssg82
g236
sg75
(lp248
S':'
asbag68
(g89
g70
NtRp249
(dp250
g73
(dp251
sg82
g236
sg75
(lp252
g68
(g69
g70
NtRp253
(dp254
g73
(dp255
g81
I5
ssg82
g249
sg75
(lp256
g68
(g77
g70
NtRp257
(dp258
g73
(dp259
g81
I4
ssg82
Nsg75
(lp260
g68
(g84
g70
NtRp261
(dp262
g73
(dp263
sg82
g257
sg75
(lp264
g68
(g89
g70
NtRp265
(dp266
g73
(dp267
g93
g94
ssg82
g261
sg75
(lp268
S'session_id_admin'
p269
asbag68
(g89
g70
NtRp270
(dp271
g73
(dp272
g100
g101
ssg82
g261
sg75
(lp273
S':'
asbag68
(g89
g70
NtRp274
(dp275
g73
(dp276
sg82
g261
sg75
(lp277
g68
(g69
g70
NtRp278
(dp279
g73
(dp280
g81
I4
ssg82
g274
sg75
(lp281
g68
(g77
g70
NtRp282
(dp283
g73
(dp284
g81
I3
ssg82
Nsg75
(lp285
g68
(g84
g70
NtRp286
(dp287
g73
(dp288
sg82
g282
sg75
(lp289
g68
(g89
g70
NtRp290
(dp291
g73
(dp292
g93
g94
ssg82
g286
sg75
(lp293
S'comment'
p294
asbag68
(g89
g70
NtRp295
(dp296
g73
(dp297
g100
g101
ssg82
g286
sg75
(lp298
S':'
asbag68
(g89
g70
NtRp299
(dp300
g73
(dp301
sg82
g286
sg75
(lp302
g68
(g69
g70
NtRp303
(dp304
g73
(dp305
g81
I3
ssg82
g299
sg75
(lp306
S''
asbasbasbag68
(g84
g70
NtRp307
(dp308
g73
(dp309
sg82
g282
sg75
(lp310
g68
(g89
g70
NtRp311
(dp312
g73
(dp313
g93
g94
ssg82
g307
sg75
(lp314
S'domain'
p315
asbag68
(g89
g70
NtRp316
(dp317
g73
(dp318
g100
g101
ssg82
g307
sg75
(lp319
S':'
asbag68
(g89
g70
NtRp320
(dp321
g73
(dp322
sg82
g307
sg75
(lp323
g68
(g69
g70
NtRp324
(dp325
g73
(dp326
g81
I3
ssg82
g320
sg75
(lp327
S''
asbasbasbag68
(g84
g70
NtRp328
(dp329
g73
(dp330
sg82
g282
sg75
(lp331
g68
(g89
g70
NtRp332
(dp333
g73
(dp334
g93
g94
ssg82
g328
sg75
(lp335
S'expires'
p336
asbag68
(g89
g70
NtRp337
(dp338
g73
(dp339
g100
g101
ssg82
g328
sg75
(lp340
S':'
asbag68
(g89
g70
NtRp341
(dp342
g73
(dp343
sg82
g328
sg75
(lp344
g68
(g69
g70
NtRp345
(dp346
g73
(dp347
g81
I3
ssg82
g341
sg75
(lp348
S''
asbasbasbag68
(g84
g70
NtRp349
(dp350
g73
(dp351
sg82
g282
sg75
(lp352
g68
(g89
g70
NtRp353
(dp354
g73
(dp355
g93
g94
ssg82
g349
sg75
(lp356
S'httponly'
p357
asbag68
(g89
g70
NtRp358
(dp359
g73
(dp360
g100
g101
ssg82
g349
sg75
(lp361
S':'
asbag68
(g89
g70
NtRp362
(dp363
g73
(dp364
sg82
g349
sg75
(lp365
g68
(g69
g70
NtRp366
(dp367
g73
(dp368
g81
I3
ssg82
g362
sg75
(lp369
S''
asbasbasbag68
(g84
g70
NtRp370
(dp371
g73
(dp372
sg82
g282
sg75
(lp373
g68
(g89
g70
NtRp374
(dp375
g73
(dp376
g93
g94
ssg82
g370
sg75
(lp377
S'max-age'
p378
asbag68
(g89
g70
NtRp379
(dp380
g73
(dp381
g100
g101
ssg82
g370
sg75
(lp382
S':'
asbag68
(g89
g70
NtRp383
(dp384
g73
(dp385
sg82
g370
sg75
(lp386
g68
(g69
g70
NtRp387
(dp388
g73
(dp389
g81
I3
ssg82
g383
sg75
(lp390
S''
asbasbasbag68
(g84
g70
NtRp391
(dp392
g73
(dp393
sg82
g282
sg75
(lp394
g68
(g89
g70
NtRp395
(dp396
g73
(dp397
g93
g94
ssg82
g391
sg75
(lp398
S'path'
p399
asbag68
(g89
g70
NtRp400
(dp401
g73
(dp402
g100
g101
ssg82
g391
sg75
(lp403
S':'
asbag68
(g89
g70
NtRp404
(dp405
g73
(dp406
sg82
g391
sg75
(lp407
g68
(g69
g70
NtRp408
(dp409
g73
(dp410
g81
I3
ssg82
g404
sg75
(lp411
S''
asbasbasbag68
(g84
g70
NtRp412
(dp413
g73
(dp414
sg82
g282
sg75
(lp415
g68
(g89
g70
NtRp416
(dp417
g73
(dp418
g93
g94
ssg82
g412
sg75
(lp419
S'secure'
p420
asbag68
(g89
g70
NtRp421
(dp422
g73
(dp423
g100
g101
ssg82
g412
sg75
(lp424
S':'
asbag68
(g89
g70
NtRp425
(dp426
g73
(dp427
sg82
g412
sg75
(lp428
g68
(g69
g70
NtRp429
(dp430
g73
(dp431
g81
I3
ssg82
g425
sg75
(lp432
S''
asbasbasbag68
(g84
g70
NtRp433
(dp434
g73
(dp435
sg82
g282
sg75
(lp436
g68
(g89
g70
NtRp437
(dp438
g73
(dp439
g93
g94
ssg82
g433
sg75
(lp440
S'version'
p441
asbag68
(g89
g70
NtRp442
(dp443
g73
(dp444
g100
g101
ssg82
g433
sg75
(lp445
S':'
asbag68
(g89
g70
NtRp446
(dp447
g73
(dp448
sg82
g433
sg75
(lp449
g68
(g69
g70
NtRp450
(dp451
g73
(dp452
g81
I3
ssg82
g446
sg75
(lp453
S''
asbasbasbasbasbasbasbag68
(g84
g70
NtRp454
(dp455
g73
(dp456
sg82
g257
sg75
(lp457
g68
(g89
g70
NtRp458
(dp459
g73
(dp460
g93
g94
ssg82
g454
sg75
(lp461
S'session_id_streamlog'
p462
asbag68
(g89
g70
NtRp463
(dp464
g73
(dp465
g100
g101
ssg82
g454
sg75
(lp466
S':'
asbag68
(g89
g70
NtRp467
(dp468
g73
(dp469
sg82
g454
sg75
(lp470
g68
(g69
g70
NtRp471
(dp472
g73
(dp473
g81
I4
ssg82
g467
sg75
(lp474
g68
(g77
g70
NtRp475
(dp476
g73
(dp477
g81
I3
ssg82
Nsg75
(lp478
g68
(g84
g70
NtRp479
(dp480
g73
(dp481
sg82
g475
sg75
(lp482
g68
(g89
g70
NtRp483
(dp484
g73
(dp485
g93
g94
ssg82
g479
sg75
(lp486
g294
asbag68
(g89
g70
NtRp487
(dp488
g73
(dp489
g100
g101
ssg82
g479
sg75
(lp490
S':'
asbag68
(g89
g70
NtRp491
(dp492
g73
(dp493
sg82
g479
sg75
(lp494
g68
(g69
g70
NtRp495
(dp496
g73
(dp497
g81
I3
ssg82
g491
sg75
(lp498
S''
asbasbasbag68
(g84
g70
NtRp499
(dp500
g73
(dp501
sg82
g475
sg75
(lp502
g68
(g89
g70
NtRp503
(dp504
g73
(dp505
g93
g94
ssg82
g499
sg75
(lp506
g315
asbag68
(g89
g70
NtRp507
(dp508
g73
(dp509
g100
g101
ssg82
g499
sg75
(lp510
S':'
asbag68
(g89
g70
NtRp511
(dp512
g73
(dp513
sg82
g499
sg75
(lp514
g68
(g69
g70
NtRp515
(dp516
g73
(dp517
g81
I3
ssg82
g511
sg75
(lp518
S''
asbasbasbag68
(g84
g70
NtRp519
(dp520
g73
(dp521
sg82
g475
sg75
(lp522
g68
(g89
g70
NtRp523
(dp524
g73
(dp525
g93
g94
ssg82
g519
sg75
(lp526
g336
asbag68
(g89
g70
NtRp527
(dp528
g73
(dp529
g100
g101
ssg82
g519
sg75
(lp530
S':'
asbag68
(g89
g70
NtRp531
(dp532
g73
(dp533
sg82
g519
sg75
(lp534
g68
(g69
g70
NtRp535
(dp536
g73
(dp537
g81
I3
ssg82
g531
sg75
(lp538
S''
asbasbasbag68
(g84
g70
NtRp539
(dp540
g73
(dp541
sg82
g475
sg75
(lp542
g68
(g89
g70
NtRp543
(dp544
g73
(dp545
g93
g94
ssg82
g539
sg75
(lp546
g357
asbag68
(g89
g70
NtRp547
(dp548
g73
(dp549
g100
g101
ssg82
g539
sg75
(lp550
S':'
asbag68
(g89
g70
NtRp551
(dp552
g73
(dp553
sg82
g539
sg75
(lp554
g68
(g69
g70
NtRp555
(dp556
g73
(dp557
g81
I3
ssg82
g551
sg75
(lp558
S''
asbasbasbag68
(g84
g70
NtRp559
(dp560
g73
(dp561
sg82
g475
sg75
(lp562
g68
(g89
g70
NtRp563
(dp564
g73
(dp565
g93
g94
ssg82
g559
sg75
(lp566
g378
asbag68
(g89
g70
NtRp567
(dp568
g73
(dp569
g100
g101
ssg82
g559
sg75
(lp570
S':'
asbag68
(g89
g70
NtRp571
(dp572
g73
(dp573
sg82
g559
sg75
(lp574
g68
(g69
g70
NtRp575
(dp576
g73
(dp577
g81
I3
ssg82
g571
sg75
(lp578
S''
asbasbasbag68
(g84
g70
NtRp579
(dp580
g73
(dp581
sg82
g475
sg75
(lp582
g68
(g89
g70
NtRp583
(dp584
g73
(dp585
g93
g94
ssg82
g579
sg75
(lp586
g399
asbag68
(g89
g70
NtRp587
(dp588
g73
(dp589
g100
g101
ssg82
g579
sg75
(lp590
S':'
asbag68
(g89
g70
NtRp591
(dp592
g73
(dp593
sg82
g579
sg75
(lp594
g68
(g69
g70
NtRp595
(dp596
g73
(dp597
g81
I3
ssg82
g591
sg75
(lp598
S''
asbasbasbag68
(g84
g70
NtRp599
(dp600
g73
(dp601
sg82
g475
sg75
(lp602
g68
(g89
g70
NtRp603
(dp604
g73
(dp605
g93
g94
ssg82
g599
sg75
(lp606
g420
asbag68
(g89
g70
NtRp607
(dp608
g73
(dp609
g100
g101
ssg82
g599
sg75
(lp610
S':'
asbag68
(g89
g70
NtRp611
(dp612
g73
(dp613
sg82
g599
sg75
(lp614
g68
(g69
g70
NtRp615
(dp616
g73
(dp617
g81
I3
ssg82
g611
sg75
(lp618
S''
asbasbasbag68
(g84
g70
NtRp619
(dp620
g73
(dp621
sg82
g475
sg75
(lp622
g68
(g89
g70
NtRp623
(dp624
g73
(dp625
g93
g94
ssg82
g619
sg75
(lp626
g441
asbag68
(g89
g70
NtRp627
(dp628
g73
(dp629
g100
g101
ssg82
g619
sg75
(lp630
S':'
asbag68
(g89
g70
NtRp631
(dp632
g73
(dp633
sg82
g619
sg75
(lp634
g68
(g69
g70
NtRp635
(dp636
g73
(dp637
g81
I3
ssg82
g631
sg75
(lp638
S''
asbasbasbasbasbasbasbag68
(g84
g70
NtRp639
(dp640
g73
(dp641
sg82
g257
sg75
(lp642
g68
(g89
g70
NtRp643
(dp644
g73
(dp645
g93
g94
ssg82
g639
sg75
(lp646
S'session_id_test3'
p647
asbag68
(g89
g70
NtRp648
(dp649
g73
(dp650
g100
g101
ssg82
g639
sg75
(lp651
S':'
asbag68
(g89
g70
NtRp652
(dp653
g73
(dp654
sg82
g639
sg75
(lp655
g68
(g69
g70
NtRp656
(dp657
g73
(dp658
g81
I4
ssg82
g652
sg75
(lp659
g68
(g77
g70
NtRp660
(dp661
g73
(dp662
g81
I3
ssg82
Nsg75
(lp663
g68
(g84
g70
NtRp664
(dp665
g73
(dp666
sg82
g660
sg75
(lp667
g68
(g89
g70
NtRp668
(dp669
g73
(dp670
g93
g94
ssg82
g664
sg75
(lp671
g294
asbag68
(g89
g70
NtRp672
(dp673
g73
(dp674
g100
g101
ssg82
g664
sg75
(lp675
S':'
asbag68
(g89
g70
NtRp676
(dp677
g73
(dp678
sg82
g664
sg75
(lp679
g68
(g69
g70
NtRp680
(dp681
g73
(dp682
g81
I3
ssg82
g676
sg75
(lp683
S''
asbasbasbag68
(g84
g70
NtRp684
(dp685
g73
(dp686
sg82
g660
sg75
(lp687
g68
(g89
g70
NtRp688
(dp689
g73
(dp690
g93
g94
ssg82
g684
sg75
(lp691
g315
asbag68
(g89
g70
NtRp692
(dp693
g73
(dp694
g100
g101
ssg82
g684
sg75
(lp695
S':'
asbag68
(g89
g70
NtRp696
(dp697
g73
(dp698
sg82
g684
sg75
(lp699
g68
(g69
g70
NtRp700
(dp701
g73
(dp702
g81
I3
ssg82
g696
sg75
(lp703
S''
asbasbasbag68
(g84
g70
NtRp704
(dp705
g73
(dp706
sg82
g660
sg75
(lp707
g68
(g89
g70
NtRp708
(dp709
g73
(dp710
g93
g94
ssg82
g704
sg75
(lp711
g336
asbag68
(g89
g70
NtRp712
(dp713
g73
(dp714
g100
g101
ssg82
g704
sg75
(lp715
S':'
asbag68
(g89
g70
NtRp716
(dp717
g73
(dp718
sg82
g704
sg75
(lp719
g68
(g69
g70
NtRp720
(dp721
g73
(dp722
g81
I3
ssg82
g716
sg75
(lp723
S''
asbasbasbag68
(g84
g70
NtRp724
(dp725
g73
(dp726
sg82
g660
sg75
(lp727
g68
(g89
g70
NtRp728
(dp729
g73
(dp730
g93
g94
ssg82
g724
sg75
(lp731
g357
asbag68
(g89
g70
NtRp732
(dp733
g73
(dp734
g100
g101
ssg82
g724
sg75
(lp735
S':'
asbag68
(g89
g70
NtRp736
(dp737
g73
(dp738
sg82
g724
sg75
(lp739
g68
(g69
g70
NtRp740
(dp741
g73
(dp742
g81
I3
ssg82
g736
sg75
(lp743
S''
asbasbasbag68
(g84
g70
NtRp744
(dp745
g73
(dp746
sg82
g660
sg75
(lp747
g68
(g89
g70
NtRp748
(dp749
g73
(dp750
g93
g94
ssg82
g744
sg75
(lp751
g378
asbag68
(g89
g70
NtRp752
(dp753
g73
(dp754
g100
g101
ssg82
g744
sg75
(lp755
S':'
asbag68
(g89
g70
NtRp756
(dp757
g73
(dp758
sg82
g744
sg75
(lp759
g68
(g69
g70
NtRp760
(dp761
g73
(dp762
g81
I3
ssg82
g756
sg75
(lp763
S''
asbasbasbag68
(g84
g70
NtRp764
(dp765
g73
(dp766
sg82
g660
sg75
(lp767
g68
(g89
g70
NtRp768
(dp769
g73
(dp770
g93
g94
ssg82
g764
sg75
(lp771
g399
asbag68
(g89
g70
NtRp772
(dp773
g73
(dp774
g100
g101
ssg82
g764
sg75
(lp775
S':'
asbag68
(g89
g70
NtRp776
(dp777
g73
(dp778
sg82
g764
sg75
(lp779
g68
(g69
g70
NtRp780
(dp781
g73
(dp782
g81
I3
ssg82
g776
sg75
(lp783
S''
asbasbasbag68
(g84
g70
NtRp784
(dp785
g73
(dp786
sg82
g660
sg75
(lp787
g68
(g89
g70
NtRp788
(dp789
g73
(dp790
g93
g94
ssg82
g784
sg75
(lp791
g420
asbag68
(g89
g70
NtRp792
(dp793
g73
(dp794
g100
g101
ssg82
g784
sg75
(lp795
S':'
asbag68
(g89
g70
NtRp796
(dp797
g73
(dp798
sg82
g784
sg75
(lp799
g68
(g69
g70
NtRp800
(dp801
g73
(dp802
g81
I3
ssg82
g796
sg75
(lp803
S''
asbasbasbag68
(g84
g70
NtRp804
(dp805
g73
(dp806
sg82
g660
sg75
(lp807
g68
(g89
g70
NtRp808
(dp809
g73
(dp810
g93
g94
ssg82
g804
sg75
(lp811
g441
asbag68
(g89
g70
NtRp812
(dp813
g73
(dp814
g100
g101
ssg82
g804
sg75
(lp815
S':'
asbag68
(g89
g70
NtRp816
(dp817
g73
(dp818
sg82
g804
sg75
(lp819
g68
(g69
g70
NtRp820
(dp821
g73
(dp822
g81
I3
ssg82
g816
sg75
(lp823
S''
asbasbasbasbasbasbasbasbasbasbasbag68
(g84
g70
NtRp824
(dp825
g73
(dp826
sg82
g78
sg75
(lp827
g68
(g89
g70
NtRp828
(dp829
g73
(dp830
g93
g94
ssg82
g824
sg75
(lp831
S'env'
p832
asbag68
(g89
g70
NtRp833
(dp834
g73
(dp835
g100
g101
ssg82
g824
sg75
(lp836
S':'
asbag68
(g89
g70
NtRp837
(dp838
g73
(dp839
sg82
g824
sg75
(lp840
g68
(g69
g70
NtRp841
(dp842
g73
(dp843
g81
I5
ssg82
g837
sg75
(lp844
g68
(g77
g70
NtRp845
(dp846
g73
(dp847
g81
I4
ssg82
Nsg75
(lp848
g68
(g84
g70
NtRp849
(dp850
g73
(dp851
sg82
g845
sg75
(lp852
g68
(g89
g70
NtRp853
(dp854
g73
(dp855
g93
g94
ssg82
g849
sg75
(lp856
S'app_folders'
p857
asbag68
(g89
g70
NtRp858
(dp859
g73
(dp860
g100
g101
ssg82
g849
sg75
(lp861
S':'
asbag68
(g89
g70
NtRp862
(dp863
g73
(dp864
sg82
g849
sg75
(lp865
g68
(g69
g70
NtRp866
(dp867
g73
(dp868
g81
I4
ssg82
g862
sg75
(lp869
S"set(['/home/jose/DESARROLLO/web2py199/applications/streamlog/', '/home/jose/DESARROLLO/web2py199/applications/admin/'])"
p870
asbasbasbag68
(g84
g70
NtRp871
(dp872
g73
(dp873
sg82
g845
sg75
(lp874
g68
(g89
g70
NtRp875
(dp876
g73
(dp877
g93
g94
ssg82
g871
sg75
(lp878
S'applications_parent'
p879
asbag68
(g89
g70
NtRp880
(dp881
g73
(dp882
g100
g101
ssg82
g871
sg75
(lp883
S':'
asbag68
(g89
g70
NtRp884
(dp885
g73
(dp886
sg82
g871
sg75
(lp887
g68
(g69
g70
NtRp888
(dp889
g73
(dp890
g81
I4
ssg82
g884
sg75
(lp891
S'/home/jose/DESARROLLO/web2py199'
p892
asbasbasbag68
(g84
g70
NtRp893
(dp894
g73
(dp895
sg82
g845
sg75
(lp896
g68
(g89
g70
NtRp897
(dp898
g73
(dp899
g93
g94
ssg82
g893
sg75
(lp900
S'cmd_args'
p901
asbag68
(g89
g70
NtRp902
(dp903
g73
(dp904
g100
g101
ssg82
g893
sg75
(lp905
S':'
asbag68
(g89
g70
NtRp906
(dp907
g73
(dp908
sg82
g893
sg75
(lp909
g68
(g69
g70
NtRp910
(dp911
g73
(dp912
g81
I4
ssg82
g906
sg75
(lp913
g68
(g77
g70
NtRp914
(dp915
g73
(dp916
g81
I3
ssg82
Nsg75
(lp917
sbasbasbasbag68
(g84
g70
NtRp918
(dp919
g73
(dp920
sg82
g845
sg75
(lp921
g68
(g89
g70
NtRp922
(dp923
g73
(dp924
g93
g94
ssg82
g918
sg75
(lp925
S'cmd_options'
p926
asbag68
(g89
g70
NtRp927
(dp928
g73
(dp929
g100
g101
ssg82
g918
sg75
(lp930
S':'
asbag68
(g89
g70
NtRp931
(dp932
g73
(dp933
sg82
g918
sg75
(lp934
g68
(g69
g70
NtRp935
(dp936
g73
(dp937
g81
I4
ssg82
g931
sg75
(lp938
S"<Values at 0x1c79f80: {'verbose': False, 'ip': '127.0.0.1', 'shutdown_timeout': 5, 'taskbar': False, 'nocron': False, 'pid_filename': 'httpserver.pid', 'maxthreads': None, 'softcron': False, 'server_name': 'jose', 'bpython': False, 'nogui': False, 'port': 8000, 'extcron': False, 'debuglevel': 30, 'test': None, 'folder': '/home/jose/DESARROLLO/web2py199', 'config': '', 'import_models': False, 'winservice': '', 'shell': None, 'run': '', 'log_filename': 'httpserver.log', 'args': [''], 'ssl_ca_certificate': None, 'scheduler': None, 'profiler_filename': None, 'ssl_private_key': '', 'password': 't', 'request_queue_size': 5, 'ssl_certificate': '', 'cronjob': False, 'plain': False, 'quiet': False, 'interfaces': None, 'minthreads': None, 'timeout': 10, 'numthreads': None, 'nobanner': False}>"
p939
asbasbasbag68
(g84
g70
NtRp940
(dp941
g73
(dp942
sg82
g845
sg75
(lp943
g68
(g89
g70
NtRp944
(dp945
g73
(dp946
g93
g94
ssg82
g940
sg75
(lp947
S'db_sessions'
p948
asbag68
(g89
g70
NtRp949
(dp950
g73
(dp951
g100
g101
ssg82
g940
sg75
(lp952
S':'
asbag68
(g89
g70
NtRp953
(dp954
g73
(dp955
sg82
g940
sg75
(lp956
g68
(g69
g70
NtRp957
(dp958
g73
(dp959
g81
I4
ssg82
g953
sg75
(lp960
S'set([])'
p961
asbasbasbag68
(g84
g70
NtRp962
(dp963
g73
(dp964
sg82
g845
sg75
(lp965
g68
(g89
g70
NtRp966
(dp967
g73
(dp968
g93
g94
ssg82
g962
sg75
(lp969
S'debugging'
p970
asbag68
(g89
g70
NtRp971
(dp972
g73
(dp973
g100
g101
ssg82
g962
sg75
(lp974
S':'
asbag68
(g89
g70
NtRp975
(dp976
g73
(dp977
sg82
g962
sg75
(lp978
g68
(g69
g70
NtRp979
(dp980
g73
(dp981
g81
I4
ssg82
g975
sg75
(lp982
g111
asbasbasbag68
(g84
g70
NtRp983
(dp984
g73
(dp985
sg82
g845
sg75
(lp986
g68
(g89
g70
NtRp987
(dp988
g73
(dp989
g93
g94
ssg82
g983
sg75
(lp990
S'gluon_parent'
p991
asbag68
(g89
g70
NtRp992
(dp993
g73
(dp994
g100
g101
ssg82
g983
sg75
(lp995
S':'
asbag68
(g89
g70
NtRp996
(dp997
g73
(dp998
sg82
g983
sg75
(lp999
g68
(g69
g70
NtRp1000
(dp1001
g73
(dp1002
g81
I4
ssg82
g996
sg75
(lp1003
S'/home/jose/DESARROLLO/web2py199'
p1004
asbasbasbag68
(g84
g70
NtRp1005
(dp1006
g73
(dp1007
sg82
g845
sg75
(lp1008
g68
(g89
g70
NtRp1009
(dp1010
g73
(dp1011
g93
g94
ssg82
g1005
sg75
(lp1012
S'http_accept'
p1013
asbag68
(g89
g70
NtRp1014
(dp1015
g73
(dp1016
g100
g101
ssg82
g1005
sg75
(lp1017
S':'
asbag68
(g89
g70
NtRp1018
(dp1019
g73
(dp1020
sg82
g1005
sg75
(lp1021
g68
(g69
g70
NtRp1022
(dp1023
g73
(dp1024
g81
I4
ssg82
g1018
sg75
(lp1025
S'text/html,application/xhtml+xml,application/xml;q=0.9,*/*;q=0.8'
p1026
asbasbasbag68
(g84
g70
NtRp1027
(dp1028
g73
(dp1029
sg82
g845
sg75
(lp1030
g68
(g89
g70
NtRp1031
(dp1032
g73
(dp1033
g93
g94
ssg82
g1027
sg75
(lp1034
S'http_accept_encoding'
p1035
asbag68
(g89
g70
NtRp1036
(dp1037
g73
(dp1038
g100
g101
ssg82
g1027
sg75
(lp1039
S':'
asbag68
(g89
g70
NtRp1040
(dp1041
g73
(dp1042
sg82
g1027
sg75
(lp1043
g68
(g69
g70
NtRp1044
(dp1045
g73
(dp1046
g81
I4
ssg82
g1040
sg75
(lp1047
S'gzip, deflate'
p1048
asbasbasbag68
(g84
g70
NtRp1049
(dp1050
g73
(dp1051
sg82
g845
sg75
(lp1052
g68
(g89
g70
NtRp1053
(dp1054
g73
(dp1055
g93
g94
ssg82
g1049
sg75
(lp1056
S'http_accept_language'
p1057
asbag68
(g89
g70
NtRp1058
(dp1059
g73
(dp1060
g100
g101
ssg82
g1049
sg75
(lp1061
S':'
asbag68
(g89
g70
NtRp1062
(dp1063
g73
(dp1064
sg82
g1049
sg75
(lp1065
g68
(g69
g70
NtRp1066
(dp1067
g73
(dp1068
g81
I4
ssg82
g1062
sg75
(lp1069
S'en-us,en;q=0.5'
p1070
asbasbasbag68
(g84
g70
NtRp1071
(dp1072
g73
(dp1073
sg82
g845
sg75
(lp1074
g68
(g89
g70
NtRp1075
(dp1076
g73
(dp1077
g93
g94
ssg82
g1071
sg75
(lp1078
S'http_connection'
p1079
asbag68
(g89
g70
NtRp1080
(dp1081
g73
(dp1082
g100
g101
ssg82
g1071
sg75
(lp1083
S':'
asbag68
(g89
g70
NtRp1084
(dp1085
g73
(dp1086
sg82
g1071
sg75
(lp1087
g68
(g69
g70
NtRp1088
(dp1089
g73
(dp1090
g81
I4
ssg82
g1084
sg75
(lp1091
S'keep-alive'
p1092
asbasbasbag68
(g84
g70
NtRp1093
(dp1094
g73
(dp1095
sg82
g845
sg75
(lp1096
g68
(g89
g70
NtRp1097
(dp1098
g73
(dp1099
g93
g94
ssg82
g1093
sg75
(lp1100
S'http_cookie'
p1101
asbag68
(g89
g70
NtRp1102
(dp1103
g73
(dp1104
g100
g101
ssg82
g1093
sg75
(lp1105
S':'
asbag68
(g89
g70
NtRp1106
(dp1107
g73
(dp1108
sg82
g1093
sg75
(lp1109
g68
(g69
g70
NtRp1110
(dp1111
g73
(dp1112
g81
I4
ssg82
g1106
sg75
(lp1113
S'session_id_streamlog=127.0.0.1-610b0c7d-3f6f-4500-a76a-b095fb30f7fd; session_id_admin=127.0.0.1-8f69464e-4a83-4875-ad25-00cf5c7e8e11; session_id_test3=127.0.0.1-380e7b29-b635-4690-b9ca-812870d6a061'
p1114
asbasbasbag68
(g84
g70
NtRp1115
(dp1116
g73
(dp1117
sg82
g845
sg75
(lp1118
g68
(g89
g70
NtRp1119
(dp1120
g73
(dp1121
g93
g94
ssg82
g1115
sg75
(lp1122
S'http_host'
p1123
asbag68
(g89
g70
NtRp1124
(dp1125
g73
(dp1126
g100
g101
ssg82
g1115
sg75
(lp1127
S':'
asbag68
(g89
g70
NtRp1128
(dp1129
g73
(dp1130
sg82
g1115
sg75
(lp1131
g68
(g69
g70
NtRp1132
(dp1133
g73
(dp1134
g81
I4
ssg82
g1128
sg75
(lp1135
S'localhost:8000'
p1136
asbasbasbag68
(g84
g70
NtRp1137
(dp1138
g73
(dp1139
sg82
g845
sg75
(lp1140
g68
(g89
g70
NtRp1141
(dp1142
g73
(dp1143
g93
g94
ssg82
g1137
sg75
(lp1144
S'http_user_agent'
p1145
asbag68
(g89
g70
NtRp1146
(dp1147
g73
(dp1148
g100
g101
ssg82
g1137
sg75
(lp1149
S':'
asbag68
(g89
g70
NtRp1150
(dp1151
g73
(dp1152
sg82
g1137
sg75
(lp1153
g68
(g69
g70
NtRp1154
(dp1155
g73
(dp1156
g81
I4
ssg82
g1150
sg75
(lp1157
S'Mozilla/5.0 (X11; Ubuntu; Linux x86_64; rv:12.0) Gecko/20100101 Firefox/12.0'
p1158
asbasbasbag68
(g84
g70
NtRp1159
(dp1160
g73
(dp1161
sg82
g845
sg75
(lp1162
g68
(g89
g70
NtRp1163
(dp1164
g73
(dp1165
g93
g94
ssg82
g1159
sg75
(lp1166
S'is_jython'
p1167
asbag68
(g89
g70
NtRp1168
(dp1169
g73
(dp1170
g100
g101
ssg82
g1159
sg75
(lp1171
S':'
asbag68
(g89
g70
NtRp1172
(dp1173
g73
(dp1174
sg82
g1159
sg75
(lp1175
g68
(g69
g70
NtRp1176
(dp1177
g73
(dp1178
g81
I4
ssg82
g1172
sg75
(lp1179
g111
asbasbasbag68
(g84
g70
NtRp1180
(dp1181
g73
(dp1182
sg82
g845
sg75
(lp1183
g68
(g89
g70
NtRp1184
(dp1185
g73
(dp1186
g93
g94
ssg82
g1180
sg75
(lp1187
S'path_info'
p1188
asbag68
(g89
g70
NtRp1189
(dp1190
g73
(dp1191
g100
g101
ssg82
g1180
sg75
(lp1192
S':'
asbag68
(g89
g70
NtRp1193
(dp1194
g73
(dp1195
sg82
g1180
sg75
(lp1196
g68
(g69
g70
NtRp1197
(dp1198
g73
(dp1199
g81
I4
ssg82
g1193
sg75
(lp1200
S'/streamlog/default/getConnectionData/2'
p1201
asbasbasbag68
(g84
g70
NtRp1202
(dp1203
g73
(dp1204
sg82
g845
sg75
(lp1205
g68
(g89
g70
NtRp1206
(dp1207
g73
(dp1208
g93
g94
ssg82
g1202
sg75
(lp1209
S'query_string'
p1210
asbag68
(g89
g70
NtRp1211
(dp1212
g73
(dp1213
g100
g101
ssg82
g1202
sg75
(lp1214
S':'
asbag68
(g89
g70
NtRp1215
(dp1216
g73
(dp1217
sg82
g1202
sg75
(lp1218
g68
(g69
g70
NtRp1219
(dp1220
g73
(dp1221
g81
I4
ssg82
g1215
sg75
(lp1222
S''
asbasbasbag68
(g84
g70
NtRp1223
(dp1224
g73
(dp1225
sg82
g845
sg75
(lp1226
g68
(g89
g70
NtRp1227
(dp1228
g73
(dp1229
g93
g94
ssg82
g1223
sg75
(lp1230
S'remote_addr'
p1231
asbag68
(g89
g70
NtRp1232
(dp1233
g73
(dp1234
g100
g101
ssg82
g1223
sg75
(lp1235
S':'
asbag68
(g89
g70
NtRp1236
(dp1237
g73
(dp1238
sg82
g1223
sg75
(lp1239
g68
(g69
g70
NtRp1240
(dp1241
g73
(dp1242
g81
I4
ssg82
g1236
sg75
(lp1243
g213
asbasbasbag68
(g84
g70
NtRp1244
(dp1245
g73
(dp1246
sg82
g845
sg75
(lp1247
g68
(g89
g70
NtRp1248
(dp1249
g73
(dp1250
g93
g94
ssg82
g1244
sg75
(lp1251
S'remote_port'
p1252
asbag68
(g89
g70
NtRp1253
(dp1254
g73
(dp1255
g100
g101
ssg82
g1244
sg75
(lp1256
S':'
asbag68
(g89
g70
NtRp1257
(dp1258
g73
(dp1259
sg82
g1244
sg75
(lp1260
g68
(g69
g70
NtRp1261
(dp1262
g73
(dp1263
g81
I4
ssg82
g1257
sg75
(lp1264
S'35552'
p1265
asbasbasbag68
(g84
g70
NtRp1266
(dp1267
g73
(dp1268
sg82
g845
sg75
(lp1269
g68
(g89
g70
NtRp1270
(dp1271
g73
(dp1272
g93
g94
ssg82
g1266
sg75
(lp1273
S'request_method'
p1274
asbag68
(g89
g70
NtRp1275
(dp1276
g73
(dp1277
g100
g101
ssg82
g1266
sg75
(lp1278
S':'
asbag68
(g89
g70
NtRp1279
(dp1280
g73
(dp1281
sg82
g1266
sg75
(lp1282
g68
(g69
g70
NtRp1283
(dp1284
g73
(dp1285
g81
I4
ssg82
g1279
sg75
(lp1286
S'GET'
p1287
asbasbasbag68
(g84
g70
NtRp1288
(dp1289
g73
(dp1290
sg82
g845
sg75
(lp1291
g68
(g89
g70
NtRp1292
(dp1293
g73
(dp1294
g93
g94
ssg82
g1288
sg75
(lp1295
S'script_name'
p1296
asbag68
(g89
g70
NtRp1297
(dp1298
g73
(dp1299
g100
g101
ssg82
g1288
sg75
(lp1300
S':'
asbag68
(g89
g70
NtRp1301
(dp1302
g73
(dp1303
sg82
g1288
sg75
(lp1304
g68
(g69
g70
NtRp1305
(dp1306
g73
(dp1307
g81
I4
ssg82
g1301
sg75
(lp1308
S''
asbasbasbag68
(g84
g70
NtRp1309
(dp1310
g73
(dp1311
sg82
g845
sg75
(lp1312
g68
(g89
g70
NtRp1313
(dp1314
g73
(dp1315
g93
g94
ssg82
g1309
sg75
(lp1316
S'server_name'
p1317
asbag68
(g89
g70
NtRp1318
(dp1319
g73
(dp1320
g100
g101
ssg82
g1309
sg75
(lp1321
S':'
asbag68
(g89
g70
NtRp1322
(dp1323
g73
(dp1324
sg82
g1309
sg75
(lp1325
g68
(g69
g70
NtRp1326
(dp1327
g73
(dp1328
g81
I4
ssg82
g1322
sg75
(lp1329
S'jose'
p1330
asbasbasbag68
(g84
g70
NtRp1331
(dp1332
g73
(dp1333
sg82
g845
sg75
(lp1334
g68
(g89
g70
NtRp1335
(dp1336
g73
(dp1337
g93
g94
ssg82
g1331
sg75
(lp1338
S'server_port'
p1339
asbag68
(g89
g70
NtRp1340
(dp1341
g73
(dp1342
g100
g101
ssg82
g1331
sg75
(lp1343
S':'
asbag68
(g89
g70
NtRp1344
(dp1345
g73
(dp1346
sg82
g1331
sg75
(lp1347
g68
(g69
g70
NtRp1348
(dp1349
g73
(dp1350
g81
I4
ssg82
g1344
sg75
(lp1351
S'8000'
p1352
asbasbasbag68
(g84
g70
NtRp1353
(dp1354
g73
(dp1355
sg82
g845
sg75
(lp1356
g68
(g89
g70
NtRp1357
(dp1358
g73
(dp1359
g93
g94
ssg82
g1353
sg75
(lp1360
S'server_protocol'
p1361
asbag68
(g89
g70
NtRp1362
(dp1363
g73
(dp1364
g100
g101
ssg82
g1353
sg75
(lp1365
S':'
asbag68
(g89
g70
NtRp1366
(dp1367
g73
(dp1368
sg82
g1353
sg75
(lp1369
g68
(g69
g70
NtRp1370
(dp1371
g73
(dp1372
g81
I4
ssg82
g1366
sg75
(lp1373
S'HTTP/1.1'
p1374
asbasbasbag68
(g84
g70
NtRp1375
(dp1376
g73
(dp1377
sg82
g845
sg75
(lp1378
g68
(g89
g70
NtRp1379
(dp1380
g73
(dp1381
g93
g94
ssg82
g1375
sg75
(lp1382
S'server_software'
p1383
asbag68
(g89
g70
NtRp1384
(dp1385
g73
(dp1386
g100
g101
ssg82
g1375
sg75
(lp1387
S':'
asbag68
(g89
g70
NtRp1388
(dp1389
g73
(dp1390
sg82
g1375
sg75
(lp1391
g68
(g69
g70
NtRp1392
(dp1393
g73
(dp1394
g81
I4
ssg82
g1388
sg75
(lp1395
S'Rocket 1.2.4'
p1396
asbasbasbag68
(g84
g70
NtRp1397
(dp1398
g73
(dp1399
sg82
g845
sg75
(lp1400
g68
(g89
g70
NtRp1401
(dp1402
g73
(dp1403
g93
g94
ssg82
g1397
sg75
(lp1404
S'web2py_crontype'
p1405
asbag68
(g89
g70
NtRp1406
(dp1407
g73
(dp1408
g100
g101
ssg82
g1397
sg75
(lp1409
S':'
asbag68
(g89
g70
NtRp1410
(dp1411
g73
(dp1412
sg82
g1397
sg75
(lp1413
g68
(g69
g70
NtRp1414
(dp1415
g73
(dp1416
g81
I4
ssg82
g1410
sg75
(lp1417
S'hard'
p1418
asbasbasbag68
(g84
g70
NtRp1419
(dp1420
g73
(dp1421
sg82
g845
sg75
(lp1422
g68
(g89
g70
NtRp1423
(dp1424
g73
(dp1425
g93
g94
ssg82
g1419
sg75
(lp1426
S'web2py_path'
p1427
asbag68
(g89
g70
NtRp1428
(dp1429
g73
(dp1430
g100
g101
ssg82
g1419
sg75
(lp1431
S':'
asbag68
(g89
g70
NtRp1432
(dp1433
g73
(dp1434
sg82
g1419
sg75
(lp1435
g68
(g69
g70
NtRp1436
(dp1437
g73
(dp1438
g81
I4
ssg82
g1432
sg75
(lp1439
g892
asbasbasbag68
(g84
g70
NtRp1440
(dp1441
g73
(dp1442
sg82
g845
sg75
(lp1443
g68
(g89
g70
NtRp1444
(dp1445
g73
(dp1446
g93
g94
ssg82
g1440
sg75
(lp1447
S'web2py_version'
p1448
asbag68
(g89
g70
NtRp1449
(dp1450
g73
(dp1451
g100
g101
ssg82
g1440
sg75
(lp1452
S':'
asbag68
(g89
g70
NtRp1453
(dp1454
g73
(dp1455
sg82
g1440
sg75
(lp1456
g68
(g69
g70
NtRp1457
(dp1458
g73
(dp1459
g81
I4
ssg82
g1453
sg75
(lp1460
g68
(g77
g70
NtRp1461
(dp1462
g73
(dp1463
g81
I3
ssg82
Nsg75
(lp1464
g68
(g84
g70
NtRp1465
(dp1466
g73
(dp1467
sg82
g1461
sg75
(lp1468
g68
(g89
g70
NtRp1469
(dp1470
g73
(dp1471
sg82
g1465
sg75
(lp1472
g68
(g69
g70
NtRp1473
(dp1474
g73
(dp1475
g81
I3
ssg82
g1469
sg75
(lp1476
S'1'
asbasbasbag68
(g84
g70
NtRp1477
(dp1478
g73
(dp1479
sg82
g1461
sg75
(lp1480
g68
(g89
g70
NtRp1481
(dp1482
g73
(dp1483
sg82
g1477
sg75
(lp1484
g68
(g69
g70
NtRp1485
(dp1486
g73
(dp1487
g81
I3
ssg82
g1481
sg75
(lp1488
S'99'
p1489
asbasbasbag68
(g84
g70
NtRp1490
(dp1491
g73
(dp1492
sg82
g1461
sg75
(lp1493
g68
(g89
g70
NtRp1494
(dp1495
g73
(dp1496
sg82
g1490
sg75
(lp1497
g68
(g69
g70
NtRp1498
(dp1499
g73
(dp1500
g81
I3
ssg82
g1494
sg75
(lp1501
S'2'
asbasbasbag68
(g84
g70
NtRp1502
(dp1503
g73
(dp1504
sg82
g1461
sg75
(lp1505
g68
(g89
g70
NtRp1506
(dp1507
g73
(dp1508
sg82
g1502
sg75
(lp1509
g68
(g69
g70
NtRp1510
(dp1511
g73
(dp1512
g81
I3
ssg82
g1506
sg75
(lp1513
S'datetime.datetime(2011, 9, 26, 6, 55, 33)'
p1514
asbasbasbag68
(g84
g70
NtRp1515
(dp1516
g73
(dp1517
sg82
g1461
sg75
(lp1518
g68
(g89
g70
NtRp1519
(dp1520
g73
(dp1521
sg82
g1515
sg75
(lp1522
g68
(g69
g70
NtRp1523
(dp1524
g73
(dp1525
g81
I3
ssg82
g1519
sg75
(lp1526
S'stable'
p1527
asbasbasbasbasbasbasbag68
(g84
g70
NtRp1528
(dp1529
g73
(dp1530
sg82
g845
sg75
(lp1531
g68
(g89
g70
NtRp1532
(dp1533
g73
(dp1534
g93
g94
ssg82
g1528
sg75
(lp1535
S'wsgi_errors'
p1536
asbag68
(g89
g70
NtRp1537
(dp1538
g73
(dp1539
g100
g101
ssg82
g1528
sg75
(lp1540
S':'
asbag68
(g89
g70
NtRp1541
(dp1542
g73
(dp1543
sg82
g1528
sg75
(lp1544
g68
(g69
g70
NtRp1545
(dp1546
g73
(dp1547
g81
I4
ssg82
g1541
sg75
(lp1548
S"<open file '<stderr>', mode 'w' at 0x7f84db3ff270>"
p1549
asbasbasbag68
(g84
g70
NtRp1550
(dp1551
g73
(dp1552
sg82
g845
sg75
(lp1553
g68
(g89
g70
NtRp1554
(dp1555
g73
(dp1556
g93
g94
ssg82
g1550
sg75
(lp1557
S'wsgi_file_wrapper'
p1558
asbag68
(g89
g70
NtRp1559
(dp1560
g73
(dp1561
g100
g101
ssg82
g1550
sg75
(lp1562
S':'
asbag68
(g89
g70
NtRp1563
(dp1564
g73
(dp1565
sg82
g1550
sg75
(lp1566
g68
(g69
g70
NtRp1567
(dp1568
g73
(dp1569
g81
I4
ssg82
g1563
sg75
(lp1570
S'<class wsgiref.util.FileWrapper at 0x1b96d50>'
p1571
asbasbasbag68
(g84
g70
NtRp1572
(dp1573
g73
(dp1574
sg82
g845
sg75
(lp1575
g68
(g89
g70
NtRp1576
(dp1577
g73
(dp1578
g93
g94
ssg82
g1572
sg75
(lp1579
S'wsgi_input'
p1580
asbag68
(g89
g70
NtRp1581
(dp1582
g73
(dp1583
g100
g101
ssg82
g1572
sg75
(lp1584
S':'
asbag68
(g89
g70
NtRp1585
(dp1586
g73
(dp1587
sg82
g1572
sg75
(lp1588
g68
(g69
g70
NtRp1589
(dp1590
g73
(dp1591
g81
I4
ssg82
g1585
sg75
(lp1592
S'<socket._fileobject object at 0x2a300d0>'
p1593
asbasbasbag68
(g84
g70
NtRp1594
(dp1595
g73
(dp1596
sg82
g845
sg75
(lp1597
g68
(g89
g70
NtRp1598
(dp1599
g73
(dp1600
g93
g94
ssg82
g1594
sg75
(lp1601
S'wsgi_multiprocess'
p1602
asbag68
(g89
g70
NtRp1603
(dp1604
g73
(dp1605
g100
g101
ssg82
g1594
sg75
(lp1606
S':'
asbag68
(g89
g70
NtRp1607
(dp1608
g73
(dp1609
sg82
g1594
sg75
(lp1610
g68
(g69
g70
NtRp1611
(dp1612
g73
(dp1613
g81
I4
ssg82
g1607
sg75
(lp1614
g111
asbasbasbag68
(g84
g70
NtRp1615
(dp1616
g73
(dp1617
sg82
g845
sg75
(lp1618
g68
(g89
g70
NtRp1619
(dp1620
g73
(dp1621
g93
g94
ssg82
g1615
sg75
(lp1622
S'wsgi_multithread'
p1623
asbag68
(g89
g70
NtRp1624
(dp1625
g73
(dp1626
g100
g101
ssg82
g1615
sg75
(lp1627
S':'
asbag68
(g89
g70
NtRp1628
(dp1629
g73
(dp1630
sg82
g1615
sg75
(lp1631
g68
(g69
g70
NtRp1632
(dp1633
g73
(dp1634
g81
I4
ssg82
g1628
sg75
(lp1635
S'True'
p1636
asbasbasbag68
(g84
g70
NtRp1637
(dp1638
g73
(dp1639
sg82
g845
sg75
(lp1640
g68
(g89
g70
NtRp1641
(dp1642
g73
(dp1643
g93
g94
ssg82
g1637
sg75
(lp1644
S'wsgi_run_once'
p1645
asbag68
(g89
g70
NtRp1646
(dp1647
g73
(dp1648
g100
g101
ssg82
g1637
sg75
(lp1649
S':'
asbag68
(g89
g70
NtRp1650
(dp1651
g73
(dp1652
sg82
g1637
sg75
(lp1653
g68
(g69
g70
NtRp1654
(dp1655
g73
(dp1656
g81
I4
ssg82
g1650
sg75
(lp1657
g111
asbasbasbag68
(g84
g70
NtRp1658
(dp1659
g73
(dp1660
sg82
g845
sg75
(lp1661
g68
(g89
g70
NtRp1662
(dp1663
g73
(dp1664
g93
g94
ssg82
g1658
sg75
(lp1665
S'wsgi_url_scheme'
p1666
asbag68
(g89
g70
NtRp1667
(dp1668
g73
(dp1669
g100
g101
ssg82
g1658
sg75
(lp1670
S':'
asbag68
(g89
g70
NtRp1671
(dp1672
g73
(dp1673
sg82
g1658
sg75
(lp1674
g68
(g69
g70
NtRp1675
(dp1676
g73
(dp1677
g81
I4
ssg82
g1671
sg75
(lp1678
S'http'
p1679
asbasbasbag68
(g84
g70
NtRp1680
(dp1681
g73
(dp1682
sg82
g845
sg75
(lp1683
g68
(g89
g70
NtRp1684
(dp1685
g73
(dp1686
g93
g94
ssg82
g1680
sg75
(lp1687
S'wsgi_version'
p1688
asbag68
(g89
g70
NtRp1689
(dp1690
g73
(dp1691
g100
g101
ssg82
g1680
sg75
(lp1692
S':'
asbag68
(g89
g70
NtRp1693
(dp1694
g73
(dp1695
sg82
g1680
sg75
(lp1696
g68
(g69
g70
NtRp1697
(dp1698
g73
(dp1699
g81
I4
ssg82
g1693
sg75
(lp1700
g68
(g77
g70
NtRp1701
(dp1702
g73
(dp1703
g81
I3
ssg82
Nsg75
(lp1704
g68
(g84
g70
NtRp1705
(dp1706
g73
(dp1707
sg82
g1701
sg75
(lp1708
g68
(g89
g70
NtRp1709
(dp1710
g73
(dp1711
sg82
g1705
sg75
(lp1712
g68
(g69
g70
NtRp1713
(dp1714
g73
(dp1715
g81
I3
ssg82
g1709
sg75
(lp1716
S'1'
asbasbasbag68
(g84
g70
NtRp1717
(dp1718
g73
(dp1719
sg82
g1701
sg75
(lp1720
g68
(g89
g70
NtRp1721
(dp1722
g73
(dp1723
sg82
g1717
sg75
(lp1724
g68
(g69
g70
NtRp1725
(dp1726
g73
(dp1727
g81
I3
ssg82
g1721
sg75
(lp1728
S'0'
asbasbasbasbasbasbasbasbasbasbasbag68
(g84
g70
NtRp1729
(dp1730
g73
(dp1731
sg82
g78
sg75
(lp1732
g68
(g89
g70
NtRp1733
(dp1734
g73
(dp1735
g93
g94
ssg82
g1729
sg75
(lp1736
S'extension'
p1737
asbag68
(g89
g70
NtRp1738
(dp1739
g73
(dp1740
g100
g101
ssg82
g1729
sg75
(lp1741
S':'
asbag68
(g89
g70
NtRp1742
(dp1743
g73
(dp1744
sg82
g1729
sg75
(lp1745
g68
(g69
g70
NtRp1746
(dp1747
g73
(dp1748
g81
I5
ssg82
g1742
sg75
(lp1749
S'html'
p1750
asbasbasbag68
(g84
g70
NtRp1751
(dp1752
g73
(dp1753
sg82
g78
sg75
(lp1754
g68
(g89
g70
NtRp1755
(dp1756
g73
(dp1757
g93
g94
ssg82
g1751
sg75
(lp1758
S'folder'
p1759
asbag68
(g89
g70
NtRp1760
(dp1761
g73
(dp1762
g100
g101
ssg82
g1751
sg75
(lp1763
S':'
asbag68
(g89
g70
NtRp1764
(dp1765
g73
(dp1766
sg82
g1751
sg75
(lp1767
g68
(g69
g70
NtRp1768
(dp1769
g73
(dp1770
g81
I5
ssg82
g1764
sg75
(lp1771
S'/home/jose/DESARROLLO/web2py199/applications/streamlog/'
p1772
asbasbasbag68
(g84
g70
NtRp1773
(dp1774
g73
(dp1775
sg82
g78
sg75
(lp1776
g68
(g89
g70
NtRp1777
(dp1778
g73
(dp1779
g93
g94
ssg82
g1773
sg75
(lp1780
S'function'
p1781
asbag68
(g89
g70
NtRp1782
(dp1783
g73
(dp1784
g100
g101
ssg82
g1773
sg75
(lp1785
S':'
asbag68
(g89
g70
NtRp1786
(dp1787
g73
(dp1788
sg82
g1773
sg75
(lp1789
g68
(g69
g70
NtRp1790
(dp1791
g73
(dp1792
g81
I5
ssg82
g1786
sg75
(lp1793
S'getConnectionData'
p1794
asbasbasbag68
(g84
g70
NtRp1795
(dp1796
g73
(dp1797
sg82
g78
sg75
(lp1798
g68
(g89
g70
NtRp1799
(dp1800
g73
(dp1801
g93
g94
ssg82
g1795
sg75
(lp1802
S'get_vars'
p1803
asbag68
(g89
g70
NtRp1804
(dp1805
g73
(dp1806
g100
g101
ssg82
g1795
sg75
(lp1807
S':'
asbag68
(g89
g70
NtRp1808
(dp1809
g73
(dp1810
sg82
g1795
sg75
(lp1811
g68
(g69
g70
NtRp1812
(dp1813
g73
(dp1814
g81
I5
ssg82
g1808
sg75
(lp1815
g68
(g77
g70
NtRp1816
(dp1817
g73
(dp1818
g81
I4
ssg82
Nsg75
(lp1819
sbasbasbasbag68
(g84
g70
NtRp1820
(dp1821
g73
(dp1822
sg82
g78
sg75
(lp1823
g68
(g89
g70
NtRp1824
(dp1825
g73
(dp1826
g93
g94
ssg82
g1820
sg75
(lp1827
S'global_settings'
p1828
asbag68
(g89
g70
NtRp1829
(dp1830
g73
(dp1831
g100
g101
ssg82
g1820
sg75
(lp1832
S':'
asbag68
(g89
g70
NtRp1833
(dp1834
g73
(dp1835
sg82
g1820
sg75
(lp1836
g68
(g69
g70
NtRp1837
(dp1838
g73
(dp1839
g81
I5
ssg82
g1833
sg75
(lp1840
g68
(g77
g70
NtRp1841
(dp1842
g73
(dp1843
g81
I4
ssg82
Nsg75
(lp1844
g68
(g84
g70
NtRp1845
(dp1846
g73
(dp1847
sg82
g1841
sg75
(lp1848
g68
(g89
g70
NtRp1849
(dp1850
g73
(dp1851
g93
g94
ssg82
g1845
sg75
(lp1852
g857
asbag68
(g89
g70
NtRp1853
(dp1854
g73
(dp1855
g100
g101
ssg82
g1845
sg75
(lp1856
S':'
asbag68
(g89
g70
NtRp1857
(dp1858
g73
(dp1859
sg82
g1845
sg75
(lp1860
g68
(g69
g70
NtRp1861
(dp1862
g73
(dp1863
g81
I4
ssg82
g1857
sg75
(lp1864
S"set(['/home/jose/DESARROLLO/web2py199/applications/streamlog/', '/home/jose/DESARROLLO/web2py199/applications/admin/'])"
p1865
asbasbasbag68
(g84
g70
NtRp1866
(dp1867
g73
(dp1868
sg82
g1841
sg75
(lp1869
g68
(g89
g70
NtRp1870
(dp1871
g73
(dp1872
g93
g94
ssg82
g1866
sg75
(lp1873
g879
asbag68
(g89
g70
NtRp1874
(dp1875
g73
(dp1876
g100
g101
ssg82
g1866
sg75
(lp1877
S':'
asbag68
(g89
g70
NtRp1878
(dp1879
g73
(dp1880
sg82
g1866
sg75
(lp1881
g68
(g69
g70
NtRp1882
(dp1883
g73
(dp1884
g81
I4
ssg82
g1878
sg75
(lp1885
g892
asbasbasbag68
(g84
g70
NtRp1886
(dp1887
g73
(dp1888
sg82
g1841
sg75
(lp1889
g68
(g89
g70
NtRp1890
(dp1891
g73
(dp1892
g93
g94
ssg82
g1886
sg75
(lp1893
g901
asbag68
(g89
g70
NtRp1894
(dp1895
g73
(dp1896
g100
g101
ssg82
g1886
sg75
(lp1897
S':'
asbag68
(g89
g70
NtRp1898
(dp1899
g73
(dp1900
sg82
g1886
sg75
(lp1901
g68
(g69
g70
NtRp1902
(dp1903
g73
(dp1904
g81
I4
ssg82
g1898
sg75
(lp1905
g68
(g77
g70
NtRp1906
(dp1907
g73
(dp1908
g81
I3
ssg82
Nsg75
(lp1909
sbasbasbasbag68
(g84
g70
NtRp1910
(dp1911
g73
(dp1912
sg82
g1841
sg75
(lp1913
g68
(g89
g70
NtRp1914
(dp1915
g73
(dp1916
g93
g94
ssg82
g1910
sg75
(lp1917
g926
asbag68
(g89
g70
NtRp1918
(dp1919
g73
(dp1920
g100
g101
ssg82
g1910
sg75
(lp1921
S':'
asbag68
(g89
g70
NtRp1922
(dp1923
g73
(dp1924
sg82
g1910
sg75
(lp1925
g68
(g69
g70
NtRp1926
(dp1927
g73
(dp1928
g81
I4
ssg82
g1922
sg75
(lp1929
S"<Values at 0x1c79f80: {'verbose': False, 'ip': '127.0.0.1', 'shutdown_timeout': 5, 'taskbar': False, 'nocron': False, 'pid_filename': 'httpserver.pid', 'maxthreads': None, 'softcron': False, 'server_name': 'jose', 'bpython': False, 'nogui': False, 'port': 8000, 'extcron': False, 'debuglevel': 30, 'test': None, 'folder': '/home/jose/DESARROLLO/web2py199', 'config': '', 'import_models': False, 'winservice': '', 'shell': None, 'run': '', 'log_filename': 'httpserver.log', 'args': [''], 'ssl_ca_certificate': None, 'scheduler': None, 'profiler_filename': None, 'ssl_private_key': '', 'password': 't', 'request_queue_size': 5, 'ssl_certificate': '', 'cronjob': False, 'plain': False, 'quiet': False, 'interfaces': None, 'minthreads': None, 'timeout': 10, 'numthreads': None, 'nobanner': False}>"
p1930
asbasbasbag68
(g84
g70
NtRp1931
(dp1932
g73
(dp1933
sg82
g1841
sg75
(lp1934
g68
(g89
g70
NtRp1935
(dp1936
g73
(dp1937
g93
g94
ssg82
g1931
sg75
(lp1938
g948
asbag68
(g89
g70
NtRp1939
(dp1940
g73
(dp1941
g100
g101
ssg82
g1931
sg75
(lp1942
S':'
asbag68
(g89
g70
NtRp1943
(dp1944
g73
(dp1945
sg82
g1931
sg75
(lp1946
g68
(g69
g70
NtRp1947
(dp1948
g73
(dp1949
g81
I4
ssg82
g1943
sg75
(lp1950
S'set([])'
p1951
asbasbasbag68
(g84
g70
NtRp1952
(dp1953
g73
(dp1954
sg82
g1841
sg75
(lp1955
g68
(g89
g70
NtRp1956
(dp1957
g73
(dp1958
g93
g94
ssg82
g1952
sg75
(lp1959
g970
asbag68
(g89
g70
NtRp1960
(dp1961
g73
(dp1962
g100
g101
ssg82
g1952
sg75
(lp1963
S':'
asbag68
(g89
g70
NtRp1964
(dp1965
g73
(dp1966
sg82
g1952
sg75
(lp1967
g68
(g69
g70
NtRp1968
(dp1969
g73
(dp1970
g81
I4
ssg82
g1964
sg75
(lp1971
g111
asbasbasbag68
(g84
g70
NtRp1972
(dp1973
g73
(dp1974
sg82
g1841
sg75
(lp1975
g68
(g89
g70
NtRp1976
(dp1977
g73
(dp1978
g93
g94
ssg82
g1972
sg75
(lp1979
g991
asbag68
(g89
g70
NtRp1980
(dp1981
g73
(dp1982
g100
g101
ssg82
g1972
sg75
(lp1983
S':'
asbag68
(g89
g70
NtRp1984
(dp1985
g73
(dp1986
sg82
g1972
sg75
(lp1987
g68
(g69
g70
NtRp1988
(dp1989
g73
(dp1990
g81
I4
ssg82
g1984
sg75
(lp1991
g1004
asbasbasbag68
(g84
g70
NtRp1992
(dp1993
g73
(dp1994
sg82
g1841
sg75
(lp1995
g68
(g89
g70
NtRp1996
(dp1997
g73
(dp1998
g93
g94
ssg82
g1992
sg75
(lp1999
g1167
asbag68
(g89
g70
NtRp2000
(dp2001
g73
(dp2002
g100
g101
ssg82
g1992
sg75
(lp2003
S':'
asbag68
(g89
g70
NtRp2004
(dp2005
g73
(dp2006
sg82
g1992
sg75
(lp2007
g68
(g69
g70
NtRp2008
(dp2009
g73
(dp2010
g81
I4
ssg82
g2004
sg75
(lp2011
g111
asbasbasbag68
(g84
g70
NtRp2012
(dp2013
g73
(dp2014
sg82
g1841
sg75
(lp2015
g68
(g89
g70
NtRp2016
(dp2017
g73
(dp2018
g93
g94
ssg82
g2012
sg75
(lp2019
g1405
asbag68
(g89
g70
NtRp2020
(dp2021
g73
(dp2022
g100
g101
ssg82
g2012
sg75
(lp2023
S':'
asbag68
(g89
g70
NtRp2024
(dp2025
g73
(dp2026
sg82
g2012
sg75
(lp2027
g68
(g69
g70
NtRp2028
(dp2029
g73
(dp2030
g81
I4
ssg82
g2024
sg75
(lp2031
g1418
asbasbasbag68
(g84
g70
NtRp2032
(dp2033
g73
(dp2034
sg82
g1841
sg75
(lp2035
g68
(g89
g70
NtRp2036
(dp2037
g73
(dp2038
g93
g94
ssg82
g2032
sg75
(lp2039
g1448
asbag68
(g89
g70
NtRp2040
(dp2041
g73
(dp2042
g100
g101
ssg82
g2032
sg75
(lp2043
S':'
asbag68
(g89
g70
NtRp2044
(dp2045
g73
(dp2046
sg82
g2032
sg75
(lp2047
g68
(g69
g70
NtRp2048
(dp2049
g73
(dp2050
g81
I4
ssg82
g2044
sg75
(lp2051
g68
(g77
g70
NtRp2052
(dp2053
g73
(dp2054
g81
I3
ssg82
Nsg75
(lp2055
g68
(g84
g70
NtRp2056
(dp2057
g73
(dp2058
sg82
g2052
sg75
(lp2059
g68
(g89
g70
NtRp2060
(dp2061
g73
(dp2062
sg82
g2056
sg75
(lp2063
g68
(g69
g70
NtRp2064
(dp2065
g73
(dp2066
g81
I3
ssg82
g2060
sg75
(lp2067
S'1'
asbasbasbag68
(g84
g70
NtRp2068
(dp2069
g73
(dp2070
sg82
g2052
sg75
(lp2071
g68
(g89
g70
NtRp2072
(dp2073
g73
(dp2074
sg82
g2068
sg75
(lp2075
g68
(g69
g70
NtRp2076
(dp2077
g73
(dp2078
g81
I3
ssg82
g2072
sg75
(lp2079
S'99'
p2080
asbasbasbag68
(g84
g70
NtRp2081
(dp2082
g73
(dp2083
sg82
g2052
sg75
(lp2084
g68
(g89
g70
NtRp2085
(dp2086
g73
(dp2087
sg82
g2081
sg75
(lp2088
g68
(g69
g70
NtRp2089
(dp2090
g73
(dp2091
g81
I3
ssg82
g2085
sg75
(lp2092
S'2'
asbasbasbag68
(g84
g70
NtRp2093
(dp2094
g73
(dp2095
sg82
g2052
sg75
(lp2096
g68
(g89
g70
NtRp2097
(dp2098
g73
(dp2099
sg82
g2093
sg75
(lp2100
g68
(g69
g70
NtRp2101
(dp2102
g73
(dp2103
g81
I3
ssg82
g2097
sg75
(lp2104
S'datetime.datetime(2011, 9, 26, 6, 55, 33)'
p2105
asbasbasbag68
(g84
g70
NtRp2106
(dp2107
g73
(dp2108
sg82
g2052
sg75
(lp2109
g68
(g89
g70
NtRp2110
(dp2111
g73
(dp2112
sg82
g2106
sg75
(lp2113
g68
(g69
g70
NtRp2114
(dp2115
g73
(dp2116
g81
I3
ssg82
g2110
sg75
(lp2117
g1527
asbasbasbasbasbasbasbasbasbasbasbag68
(g84
g70
NtRp2118
(dp2119
g73
(dp2120
sg82
g78
sg75
(lp2121
g68
(g89
g70
NtRp2122
(dp2123
g73
(dp2124
g93
g94
ssg82
g2118
sg75
(lp2125
S'is_https'
p2126
asbag68
(g89
g70
NtRp2127
(dp2128
g73
(dp2129
g100
g101
ssg82
g2118
sg75
(lp2130
S':'
asbag68
(g89
g70
NtRp2131
(dp2132
g73
(dp2133
sg82
g2118
sg75
(lp2134
g68
(g69
g70
NtRp2135
(dp2136
g73
(dp2137
g81
I5
ssg82
g2131
sg75
(lp2138
g111
asbasbasbag68
(g84
g70
NtRp2139
(dp2140
g73
(dp2141
sg82
g78
sg75
(lp2142
g68
(g89
g70
NtRp2143
(dp2144
g73
(dp2145
g93
g94
ssg82
g2139
sg75
(lp2146
S'is_local'
p2147
asbag68
(g89
g70
NtRp2148
(dp2149
g73
(dp2150
g100
g101
ssg82
g2139
sg75
(lp2151
S':'
asbag68
(g89
g70
NtRp2152
(dp2153
g73
(dp2154
sg82
g2139
sg75
(lp2155
g68
(g69
g70
NtRp2156
(dp2157
g73
(dp2158
g81
I5
ssg82
g2152
sg75
(lp2159
g1636
asbasbasbag68
(g84
g70
NtRp2160
(dp2161
g73
(dp2162
sg82
g78
sg75
(lp2163
g68
(g89
g70
NtRp2164
(dp2165
g73
(dp2166
g93
g94
ssg82
g2160
sg75
(lp2167
S'is_restful'
p2168
asbag68
(g89
g70
NtRp2169
(dp2170
g73
(dp2171
g100
g101
ssg82
g2160
sg75
(lp2172
S':'
asbag68
(g89
g70
NtRp2173
(dp2174
g73
(dp2175
sg82
g2160
sg75
(lp2176
g68
(g69
g70
NtRp2177
(dp2178
g73
(dp2179
g81
I5
ssg82
g2173
sg75
(lp2180
g111
asbasbasbag68
(g84
g70
NtRp2181
(dp2182
g73
(dp2183
sg82
g78
sg75
(lp2184
g68
(g89
g70
NtRp2185
(dp2186
g73
(dp2187
g93
g94
ssg82
g2181
sg75
(lp2188
S'now'
p2189
asbag68
(g89
g70
NtRp2190
(dp2191
g73
(dp2192
g100
g101
ssg82
g2181
sg75
(lp2193
S':'
asbag68
(g89
g70
NtRp2194
(dp2195
g73
(dp2196
sg82
g2181
sg75
(lp2197
g68
(g69
g70
NtRp2198
(dp2199
g73
(dp2200
g81
I5
ssg82
g2194
sg75
(lp2201
S'datetime.datetime(2012, 5, 26, 19, 57, 29, 373775)'
p2202
asbasbasbag68
(g84
g70
NtRp2203
(dp2204
g73
(dp2205
sg82
g78
sg75
(lp2206
g68
(g89
g70
NtRp2207
(dp2208
g73
(dp2209
g93
g94
ssg82
g2203
sg75
(lp2210
S'post_vars'
p2211
asbag68
(g89
g70
NtRp2212
(dp2213
g73
(dp2214
g100
g101
ssg82
g2203
sg75
(lp2215
S':'
asbag68
(g89
g70
NtRp2216
(dp2217
g73
(dp2218
sg82
g2203
sg75
(lp2219
g68
(g69
g70
NtRp2220
(dp2221
g73
(dp2222
g81
I5
ssg82
g2216
sg75
(lp2223
g68
(g77
g70
NtRp2224
(dp2225
g73
(dp2226
g81
I4
ssg82
Nsg75
(lp2227
sbasbasbasbag68
(g84
g70
NtRp2228
(dp2229
g73
(dp2230
sg82
g78
sg75
(lp2231
g68
(g89
g70
NtRp2232
(dp2233
g73
(dp2234
g93
g94
ssg82
g2228
sg75
(lp2235
S'raw_args'
p2236
asbag68
(g89
g70
NtRp2237
(dp2238
g73
(dp2239
g100
g101
ssg82
g2228
sg75
(lp2240
S':'
asbag68
(g89
g70
NtRp2241
(dp2242
g73
(dp2243
sg82
g2228
sg75
(lp2244
g68
(g69
g70
NtRp2245
(dp2246
g73
(dp2247
g81
I5
ssg82
g2241
sg75
(lp2248
S'2'
asbasbasbag68
(g84
g70
NtRp2249
(dp2250
g73
(dp2251
sg82
g78
sg75
(lp2252
g68
(g89
g70
NtRp2253
(dp2254
g73
(dp2255
g93
g94
ssg82
g2249
sg75
(lp2256
S'url'
p2257
asbag68
(g89
g70
NtRp2258
(dp2259
g73
(dp2260
g100
g101
ssg82
g2249
sg75
(lp2261
S':'
asbag68
(g89
g70
NtRp2262
(dp2263
g73
(dp2264
sg82
g2249
sg75
(lp2265
g68
(g69
g70
NtRp2266
(dp2267
g73
(dp2268
g81
I5
ssg82
g2262
sg75
(lp2269
S'/streamlog/default/getConnectionData/2'
p2270
asbasbasbag68
(g84
g70
NtRp2271
(dp2272
g73
(dp2273
sg82
g78
sg75
(lp2274
g68
(g89
g70
NtRp2275
(dp2276
g73
(dp2277
g93
g94
ssg82
g2271
sg75
(lp2278
S'utcnow'
p2279
asbag68
(g89
g70
NtRp2280
(dp2281
g73
(dp2282
g100
g101
ssg82
g2271
sg75
(lp2283
S':'
asbag68
(g89
g70
NtRp2284
(dp2285
g73
(dp2286
sg82
g2271
sg75
(lp2287
g68
(g69
g70
NtRp2288
(dp2289
g73
(dp2290
g81
I5
ssg82
g2284
sg75
(lp2291
S'datetime.datetime(2012, 5, 26, 12, 57, 29, 373830)'
p2292
asbasbasbag68
(g84
g70
NtRp2293
(dp2294
g73
(dp2295
sg82
g78
sg75
(lp2296
g68
(g89
g70
NtRp2297
(dp2298
g73
(dp2299
g93
g94
ssg82
g2293
sg75
(lp2300
S'uuid'
p2301
asbag68
(g89
g70
NtRp2302
(dp2303
g73
(dp2304
g100
g101
ssg82
g2293
sg75
(lp2305
S':'
asbag68
(g89
g70
NtRp2306
(dp2307
g73
(dp2308
sg82
g2293
sg75
(lp2309
g68
(g69
g70
NtRp2310
(dp2311
g73
(dp2312
g81
I5
ssg82
g2306
sg75
(lp2313
S'streamlog/127.0.0.1.2012-05-26.19-57-29.4ad3ea0c-9eb9-4c51-bf71-ad14d690625a'
p2314
asbasbasbag68
(g84
g70
NtRp2315
(dp2316
g73
(dp2317
sg82
g78
sg75
(lp2318
g68
(g89
g70
NtRp2319
(dp2320
g73
(dp2321
g93
g94
ssg82
g2315
sg75
(lp2322
S'vars'
p2323
asbag68
(g89
g70
NtRp2324
(dp2325
g73
(dp2326
g100
g101
ssg82
g2315
sg75
(lp2327
S':'
asbag68
(g89
g70
NtRp2328
(dp2329
g73
(dp2330
sg82
g2315
sg75
(lp2331
g68
(g69
g70
NtRp2332
(dp2333
g73
(dp2334
g81
I5
ssg82
g2328
sg75
(lp2335
g68
(g77
g70
NtRp2336
(dp2337
g73
(dp2338
g81
I4
ssg82
Nsg75
(lp2339
sbasbasbasbag68
(g84
g70
NtRp2340
(dp2341
g73
(dp2342
sg82
g78
sg75
(lp2343
g68
(g89
g70
NtRp2344
(dp2345
g73
(dp2346
g93
g94
ssg82
g2340
sg75
(lp2347
S'wsgi'
p2348
asbag68
(g89
g70
NtRp2349
(dp2350
g73
(dp2351
g100
g101
ssg82
g2340
sg75
(lp2352
S':'
asbag68
(g89
g70
NtRp2353
(dp2354
g73
(dp2355
sg82
g2340
sg75
(lp2356
g68
(g69
g70
NtRp2357
(dp2358
g73
(dp2359
g81
I5
ssg82
g2353
sg75
(lp2360
g68
(g77
g70
NtRp2361
(dp2362
g73
(dp2363
g81
I4
ssg82
Nsg75
(lp2364
g68
(g84
g70
NtRp2365
(dp2366
g73
(dp2367
sg82
g2361
sg75
(lp2368
g68
(g89
g70
NtRp2369
(dp2370
g73
(dp2371
g93
g94
ssg82
g2365
sg75
(lp2372
S'environ'
p2373
asbag68
(g89
g70
NtRp2374
(dp2375
g73
(dp2376
g100
g101
ssg82
g2365
sg75
(lp2377
S':'
asbag68
(g89
g70
NtRp2378
(dp2379
g73
(dp2380
sg82
g2365
sg75
(lp2381
g68
(g69
g70
NtRp2382
(dp2383
g73
(dp2384
g81
I4
ssg82
g2378
sg75
(lp2385
g68
(g77
g70
NtRp2386
(dp2387
g73
(dp2388
g81
I3
ssg82
Nsg75
(lp2389
g68
(g84
g70
NtRp2390
(dp2391
g73
(dp2392
sg82
g2386
sg75
(lp2393
g68
(g89
g70
NtRp2394
(dp2395
g73
(dp2396
g93
g94
ssg82
g2390
sg75
(lp2397
S'HTTP_ACCEPT'
p2398
asbag68
(g89
g70
NtRp2399
(dp2400
g73
(dp2401
g100
g101
ssg82
g2390
sg75
(lp2402
S':'
asbag68
(g89
g70
NtRp2403
(dp2404
g73
(dp2405
sg82
g2390
sg75
(lp2406
g68
(g69
g70
NtRp2407
(dp2408
g73
(dp2409
g81
I3
ssg82
g2403
sg75
(lp2410
g1026
asbasbasbag68
(g84
g70
NtRp2411
(dp2412
g73
(dp2413
sg82
g2386
sg75
(lp2414
g68
(g89
g70
NtRp2415
(dp2416
g73
(dp2417
g93
g94
ssg82
g2411
sg75
(lp2418
S'HTTP_ACCEPT_ENCODING'
p2419
asbag68
(g89
g70
NtRp2420
(dp2421
g73
(dp2422
g100
g101
ssg82
g2411
sg75
(lp2423
S':'
asbag68
(g89
g70
NtRp2424
(dp2425
g73
(dp2426
sg82
g2411
sg75
(lp2427
g68
(g69
g70
NtRp2428
(dp2429
g73
(dp2430
g81
I3
ssg82
g2424
sg75
(lp2431
g1048
asbasbasbag68
(g84
g70
NtRp2432
(dp2433
g73
(dp2434
sg82
g2386
sg75
(lp2435
g68
(g89
g70
NtRp2436
(dp2437
g73
(dp2438
g93
g94
ssg82
g2432
sg75
(lp2439
S'HTTP_ACCEPT_LANGUAGE'
p2440
asbag68
(g89
g70
NtRp2441
(dp2442
g73
(dp2443
g100
g101
ssg82
g2432
sg75
(lp2444
S':'
asbag68
(g89
g70
NtRp2445
(dp2446
g73
(dp2447
sg82
g2432
sg75
(lp2448
g68
(g69
g70
NtRp2449
(dp2450
g73
(dp2451
g81
I3
ssg82
g2445
sg75
(lp2452
g1070
asbasbasbag68
(g84
g70
NtRp2453
(dp2454
g73
(dp2455
sg82
g2386
sg75
(lp2456
g68
(g89
g70
NtRp2457
(dp2458
g73
(dp2459
g93
g94
ssg82
g2453
sg75
(lp2460
S'HTTP_CONNECTION'
p2461
asbag68
(g89
g70
NtRp2462
(dp2463
g73
(dp2464
g100
g101
ssg82
g2453
sg75
(lp2465
S':'
asbag68
(g89
g70
NtRp2466
(dp2467
g73
(dp2468
sg82
g2453
sg75
(lp2469
g68
(g69
g70
NtRp2470
(dp2471
g73
(dp2472
g81
I3
ssg82
g2466
sg75
(lp2473
g1092
asbasbasbag68
(g84
g70
NtRp2474
(dp2475
g73
(dp2476
sg82
g2386
sg75
(lp2477
g68
(g89
g70
NtRp2478
(dp2479
g73
(dp2480
g93
g94
ssg82
g2474
sg75
(lp2481
S'HTTP_COOKIE'
p2482
asbag68
(g89
g70
NtRp2483
(dp2484
g73
(dp2485
g100
g101
ssg82
g2474
sg75
(lp2486
S':'
asbag68
(g89
g70
NtRp2487
(dp2488
g73
(dp2489
sg82
g2474
sg75
(lp2490
g68
(g69
g70
NtRp2491
(dp2492
g73
(dp2493
g81
I3
ssg82
g2487
sg75
(lp2494
g1114
asbasbasbag68
(g84
g70
NtRp2495
(dp2496
g73
(dp2497
sg82
g2386
sg75
(lp2498
g68
(g89
g70
NtRp2499
(dp2500
g73
(dp2501
g93
g94
ssg82
g2495
sg75
(lp2502
S'HTTP_HOST'
p2503
asbag68
(g89
g70
NtRp2504
(dp2505
g73
(dp2506
g100
g101
ssg82
g2495
sg75
(lp2507
S':'
asbag68
(g89
g70
NtRp2508
(dp2509
g73
(dp2510
sg82
g2495
sg75
(lp2511
g68
(g69
g70
NtRp2512
(dp2513
g73
(dp2514
g81
I3
ssg82
g2508
sg75
(lp2515
g1136
asbasbasbag68
(g84
g70
NtRp2516
(dp2517
g73
(dp2518
sg82
g2386
sg75
(lp2519
g68
(g89
g70
NtRp2520
(dp2521
g73
(dp2522
g93
g94
ssg82
g2516
sg75
(lp2523
S'HTTP_USER_AGENT'
p2524
asbag68
(g89
g70
NtRp2525
(dp2526
g73
(dp2527
g100
g101
ssg82
g2516
sg75
(lp2528
S':'
asbag68
(g89
g70
NtRp2529
(dp2530
g73
(dp2531
sg82
g2516
sg75
(lp2532
g68
(g69
g70
NtRp2533
(dp2534
g73
(dp2535
g81
I3
ssg82
g2529
sg75
(lp2536
g1158
asbasbasbag68
(g84
g70
NtRp2537
(dp2538
g73
(dp2539
sg82
g2386
sg75
(lp2540
g68
(g89
g70
NtRp2541
(dp2542
g73
(dp2543
g93
g94
ssg82
g2537
sg75
(lp2544
S'PATH_INFO'
p2545
asbag68
(g89
g70
NtRp2546
(dp2547
g73
(dp2548
g100
g101
ssg82
g2537
sg75
(lp2549
S':'
asbag68
(g89
g70
NtRp2550
(dp2551
g73
(dp2552
sg82
g2537
sg75
(lp2553
g68
(g69
g70
NtRp2554
(dp2555
g73
(dp2556
g81
I3
ssg82
g2550
sg75
(lp2557
g1201
asbasbasbag68
(g84
g70
NtRp2558
(dp2559
g73
(dp2560
sg82
g2386
sg75
(lp2561
g68
(g89
g70
NtRp2562
(dp2563
g73
(dp2564
g93
g94
ssg82
g2558
sg75
(lp2565
S'QUERY_STRING'
p2566
asbag68
(g89
g70
NtRp2567
(dp2568
g73
(dp2569
g100
g101
ssg82
g2558
sg75
(lp2570
S':'
asbag68
(g89
g70
NtRp2571
(dp2572
g73
(dp2573
sg82
g2558
sg75
(lp2574
g68
(g69
g70
NtRp2575
(dp2576
g73
(dp2577
g81
I3
ssg82
g2571
sg75
(lp2578
S''
asbasbasbag68
(g84
g70
NtRp2579
(dp2580
g73
(dp2581
sg82
g2386
sg75
(lp2582
g68
(g89
g70
NtRp2583
(dp2584
g73
(dp2585
g93
g94
ssg82
g2579
sg75
(lp2586
S'REMOTE_ADDR'
p2587
asbag68
(g89
g70
NtRp2588
(dp2589
g73
(dp2590
g100
g101
ssg82
g2579
sg75
(lp2591
S':'
asbag68
(g89
g70
NtRp2592
(dp2593
g73
(dp2594
sg82
g2579
sg75
(lp2595
g68
(g69
g70
NtRp2596
(dp2597
g73
(dp2598
g81
I3
ssg82
g2592
sg75
(lp2599
g213
asbasbasbag68
(g84
g70
NtRp2600
(dp2601
g73
(dp2602
sg82
g2386
sg75
(lp2603
g68
(g89
g70
NtRp2604
(dp2605
g73
(dp2606
g93
g94
ssg82
g2600
sg75
(lp2607
S'REMOTE_PORT'
p2608
asbag68
(g89
g70
NtRp2609
(dp2610
g73
(dp2611
g100
g101
ssg82
g2600
sg75
(lp2612
S':'
asbag68
(g89
g70
NtRp2613
(dp2614
g73
(dp2615
sg82
g2600
sg75
(lp2616
g68
(g69
g70
NtRp2617
(dp2618
g73
(dp2619
g81
I3
ssg82
g2613
sg75
(lp2620
g1265
asbasbasbag68
(g84
g70
NtRp2621
(dp2622
g73
(dp2623
sg82
g2386
sg75
(lp2624
g68
(g89
g70
NtRp2625
(dp2626
g73
(dp2627
g93
g94
ssg82
g2621
sg75
(lp2628
S'REQUEST_METHOD'
p2629
asbag68
(g89
g70
NtRp2630
(dp2631
g73
(dp2632
g100
g101
ssg82
g2621
sg75
(lp2633
S':'
asbag68
(g89
g70
NtRp2634
(dp2635
g73
(dp2636
sg82
g2621
sg75
(lp2637
g68
(g69
g70
NtRp2638
(dp2639
g73
(dp2640
g81
I3
ssg82
g2634
sg75
(lp2641
g1287
asbasbasbag68
(g84
g70
NtRp2642
(dp2643
g73
(dp2644
sg82
g2386
sg75
(lp2645
g68
(g89
g70
NtRp2646
(dp2647
g73
(dp2648
g93
g94
ssg82
g2642
sg75
(lp2649
S'SCRIPT_NAME'
p2650
asbag68
(g89
g70
NtRp2651
(dp2652
g73
(dp2653
g100
g101
ssg82
g2642
sg75
(lp2654
S':'
asbag68
(g89
g70
NtRp2655
(dp2656
g73
(dp2657
sg82
g2642
sg75
(lp2658
g68
(g69
g70
NtRp2659
(dp2660
g73
(dp2661
g81
I3
ssg82
g2655
sg75
(lp2662
S''
asbasbasbag68
(g84
g70
NtRp2663
(dp2664
g73
(dp2665
sg82
g2386
sg75
(lp2666
g68
(g89
g70
NtRp2667
(dp2668
g73
(dp2669
g93
g94
ssg82
g2663
sg75
(lp2670
S'SERVER_NAME'
p2671
asbag68
(g89
g70
NtRp2672
(dp2673
g73
(dp2674
g100
g101
ssg82
g2663
sg75
(lp2675
S':'
asbag68
(g89
g70
NtRp2676
(dp2677
g73
(dp2678
sg82
g2663
sg75
(lp2679
g68
(g69
g70
NtRp2680
(dp2681
g73
(dp2682
g81
I3
ssg82
g2676
sg75
(lp2683
g1330
asbasbasbag68
(g84
g70
NtRp2684
(dp2685
g73
(dp2686
sg82
g2386
sg75
(lp2687
g68
(g89
g70
NtRp2688
(dp2689
g73
(dp2690
g93
g94
ssg82
g2684
sg75
(lp2691
S'SERVER_PORT'
p2692
asbag68
(g89
g70
NtRp2693
(dp2694
g73
(dp2695
g100
g101
ssg82
g2684
sg75
(lp2696
S':'
asbag68
(g89
g70
NtRp2697
(dp2698
g73
(dp2699
sg82
g2684
sg75
(lp2700
g68
(g69
g70
NtRp2701
(dp2702
g73
(dp2703
g81
I3
ssg82
g2697
sg75
(lp2704
g1352
asbasbasbag68
(g84
g70
NtRp2705
(dp2706
g73
(dp2707
sg82
g2386
sg75
(lp2708
g68
(g89
g70
NtRp2709
(dp2710
g73
(dp2711
g93
g94
ssg82
g2705
sg75
(lp2712
S'SERVER_PROTOCOL'
p2713
asbag68
(g89
g70
NtRp2714
(dp2715
g73
(dp2716
g100
g101
ssg82
g2705
sg75
(lp2717
S':'
asbag68
(g89
g70
NtRp2718
(dp2719
g73
(dp2720
sg82
g2705
sg75
(lp2721
g68
(g69
g70
NtRp2722
(dp2723
g73
(dp2724
g81
I3
ssg82
g2718
sg75
(lp2725
g1374
asbasbasbag68
(g84
g70
NtRp2726
(dp2727
g73
(dp2728
sg82
g2386
sg75
(lp2729
g68
(g89
g70
NtRp2730
(dp2731
g73
(dp2732
g93
g94
ssg82
g2726
sg75
(lp2733
S'SERVER_SOFTWARE'
p2734
asbag68
(g89
g70
NtRp2735
(dp2736
g73
(dp2737
g100
g101
ssg82
g2726
sg75
(lp2738
S':'
asbag68
(g89
g70
NtRp2739
(dp2740
g73
(dp2741
sg82
g2726
sg75
(lp2742
g68
(g69
g70
NtRp2743
(dp2744
g73
(dp2745
g81
I3
ssg82
g2739
sg75
(lp2746
g1396
asbasbasbag68
(g84
g70
NtRp2747
(dp2748
g73
(dp2749
sg82
g2386
sg75
(lp2750
g68
(g89
g70
NtRp2751
(dp2752
g73
(dp2753
g93
g94
ssg82
g2747
sg75
(lp2754
S'wsgi.errors'
p2755
asbag68
(g89
g70
NtRp2756
(dp2757
g73
(dp2758
g100
g101
ssg82
g2747
sg75
(lp2759
S':'
asbag68
(g89
g70
NtRp2760
(dp2761
g73
(dp2762
sg82
g2747
sg75
(lp2763
g68
(g69
g70
NtRp2764
(dp2765
g73
(dp2766
g81
I3
ssg82
g2760
sg75
(lp2767
S"<open file '<stderr>', mode 'w' at 0x7f84db3ff270>"
p2768
asbasbasbag68
(g84
g70
NtRp2769
(dp2770
g73
(dp2771
sg82
g2386
sg75
(lp2772
g68
(g89
g70
NtRp2773
(dp2774
g73
(dp2775
g93
g94
ssg82
g2769
sg75
(lp2776
S'wsgi.file_wrapper'
p2777
asbag68
(g89
g70
NtRp2778
(dp2779
g73
(dp2780
g100
g101
ssg82
g2769
sg75
(lp2781
S':'
asbag68
(g89
g70
NtRp2782
(dp2783
g73
(dp2784
sg82
g2769
sg75
(lp2785
g68
(g69
g70
NtRp2786
(dp2787
g73
(dp2788
g81
I3
ssg82
g2782
sg75
(lp2789
S'<class wsgiref.util.FileWrapper at 0x1b96d50>'
p2790
asbasbasbag68
(g84
g70
NtRp2791
(dp2792
g73
(dp2793
sg82
g2386
sg75
(lp2794
g68
(g89
g70
NtRp2795
(dp2796
g73
(dp2797
g93
g94
ssg82
g2791
sg75
(lp2798
S'wsgi.input'
p2799
asbag68
(g89
g70
NtRp2800
(dp2801
g73
(dp2802
g100
g101
ssg82
g2791
sg75
(lp2803
S':'
asbag68
(g89
g70
NtRp2804
(dp2805
g73
(dp2806
sg82
g2791
sg75
(lp2807
g68
(g69
g70
NtRp2808
(dp2809
g73
(dp2810
g81
I3
ssg82
g2804
sg75
(lp2811
S'<cStringIO.StringO object at 0x24d9ce0>'
p2812
asbasbasbag68
(g84
g70
NtRp2813
(dp2814
g73
(dp2815
sg82
g2386
sg75
(lp2816
g68
(g89
g70
NtRp2817
(dp2818
g73
(dp2819
g93
g94
ssg82
g2813
sg75
(lp2820
S'wsgi.multiprocess'
p2821
asbag68
(g89
g70
NtRp2822
(dp2823
g73
(dp2824
g100
g101
ssg82
g2813
sg75
(lp2825
S':'
asbag68
(g89
g70
NtRp2826
(dp2827
g73
(dp2828
sg82
g2813
sg75
(lp2829
g68
(g69
g70
NtRp2830
(dp2831
g73
(dp2832
g81
I3
ssg82
g2826
sg75
(lp2833
g111
asbasbasbag68
(g84
g70
NtRp2834
(dp2835
g73
(dp2836
sg82
g2386
sg75
(lp2837
g68
(g89
g70
NtRp2838
(dp2839
g73
(dp2840
g93
g94
ssg82
g2834
sg75
(lp2841
S'wsgi.multithread'
p2842
asbag68
(g89
g70
NtRp2843
(dp2844
g73
(dp2845
g100
g101
ssg82
g2834
sg75
(lp2846
S':'
asbag68
(g89
g70
NtRp2847
(dp2848
g73
(dp2849
sg82
g2834
sg75
(lp2850
g68
(g69
g70
NtRp2851
(dp2852
g73
(dp2853
g81
I3
ssg82
g2847
sg75
(lp2854
g1636
asbasbasbag68
(g84
g70
NtRp2855
(dp2856
g73
(dp2857
sg82
g2386
sg75
(lp2858
g68
(g89
g70
NtRp2859
(dp2860
g73
(dp2861
g93
g94
ssg82
g2855
sg75
(lp2862
S'wsgi.run_once'
p2863
asbag68
(g89
g70
NtRp2864
(dp2865
g73
(dp2866
g100
g101
ssg82
g2855
sg75
(lp2867
S':'
asbag68
(g89
g70
NtRp2868
(dp2869
g73
(dp2870
sg82
g2855
sg75
(lp2871
g68
(g69
g70
NtRp2872
(dp2873
g73
(dp2874
g81
I3
ssg82
g2868
sg75
(lp2875
g111
asbasbasbag68
(g84
g70
NtRp2876
(dp2877
g73
(dp2878
sg82
g2386
sg75
(lp2879
g68
(g89
g70
NtRp2880
(dp2881
g73
(dp2882
g93
g94
ssg82
g2876
sg75
(lp2883
S'wsgi.url_scheme'
p2884
asbag68
(g89
g70
NtRp2885
(dp2886
g73
(dp2887
g100
g101
ssg82
g2876
sg75
(lp2888
S':'
asbag68
(g89
g70
NtRp2889
(dp2890
g73
(dp2891
sg82
g2876
sg75
(lp2892
g68
(g69
g70
NtRp2893
(dp2894
g73
(dp2895
g81
I3
ssg82
g2889
sg75
(lp2896
g1679
asbasbasbag68
(g84
g70
NtRp2897
(dp2898
g73
(dp2899
sg82
g2386
sg75
(lp2900
g68
(g89
g70
NtRp2901
(dp2902
g73
(dp2903
g93
g94
ssg82
g2897
sg75
(lp2904
S'wsgi.version'
p2905
asbag68
(g89
g70
NtRp2906
(dp2907
g73
(dp2908
g100
g101
ssg82
g2897
sg75
(lp2909
S':'
asbag68
(g89
g70
NtRp2910
(dp2911
g73
(dp2912
sg82
g2897
sg75
(lp2913
g68
(g69
g70
NtRp2914
(dp2915
g73
(dp2916
g81
I3
ssg82
g2910
sg75
(lp2917
S'1'
asbasbasbasbasbasbasbasbasbasbasbasbasbsS'frames'
p2918
(lp2919
(dp2920
S'file'
p2921
S'/home/jose/DESARROLLO/web2py199/gluon/restricted.py'
p2922
sS'dump'
p2923
(dp2924
S'code'
p2925
S"'# -*- coding: utf-8 -*-\\n# this file is released ...sponse._vars=response._caller(getConnectionData)\\n'"
p2926
sS'layer'
p2927
S"'/home/jose/DESARROLLO/web2py199/applications/streamlog/controllers/default.py'"
p2928
sS'global compile2'
p2929
S'<function compile2>'
p2930
sS'ccode'
p2931
S'undefined'
p2932
ssS'lnum'
p2933
I193
sS'lines'
p2934
(dp2935
I192
S'        else:'
p2936
sI193
S'            ccode = compile2(code,layer)'
p2937
sI194
S'        exec ccode in environment'
p2938
sI195
S'    except HTTP:'
p2939
sI196
S'        raise'
p2940
sI197
S'    except Exception, error:'
p2941
sI188
S"    environment['__file__'] = layer"
p2942
sI189
S'    try:'
p2943
sI190
S'        if type(code) == types.CodeType:'
p2944
sI191
S'            ccode = code'
p2945
ssS'call'
p2946
S"(code='# -*- coding: utf-8 -*-\\n# this file is released ...sponse._vars=response._caller(getConnectionData)\\n', environment={'A': <class 'gluon.html.A'>, 'Auth': <class 'gluon.tools.Auth'>, 'B': <class 'gluon.html.B'>, 'BEAUTIFY': <class 'gluon.html.BEAUTIFY'>, 'BODY': <class 'gluon.html.BODY'>, 'BR': <class 'gluon.html.BR'>, 'BUTTON': <class 'gluon.html.BUTTON'>, 'CAT': <class 'gluon.html.CAT'>, 'CENTER': <class 'gluon.html.CENTER'>, 'CLEANUP': <class 'gluon.validators.CLEANUP'>, ...}, layer='/home/jose/DESARROLLO/web2py199/applications/streamlog/controllers/default.py')"
p2947
sS'func'
p2948
S'restricted'
p2949
sa(dp2950
g2921
S'/home/jose/DESARROLLO/web2py199/gluon/restricted.py'
p2951
sg2923
(dp2952
S'builtincompile'
p2953
S'<built-in function compile>'
p2954
sS'code'
p2955
S"'# -*- coding: utf-8 -*-\\n# this file is released ...sponse._vars=response._caller(getConnectionData)\\n'"
p2956
sS'code.rstrip'
p2957
S'<built-in method rstrip of str object>'
p2958
sS').replace'
p2959
g2932
sS'layer'
p2960
S"'/home/jose/DESARROLLO/web2py199/applications/streamlog/controllers/default.py'"
p2961
ssg2933
I179
sg2934
(dp2962
I174
S''
sI175
S'def compile2(code,layer):'
p2963
sI176
S'    """'
p2964
sI177
S"    The +'\\n' is necessary else compile fails when code ends in a comment."
p2965
sI178
S'    """'
p2966
sI179
S"    return compile(code.rstrip().replace('\\r\\n','\\n')+'\\n', layer, 'exec')"
p2967
sI180
S''
sI181
S"def restricted(code, environment=None, layer='Unknown'):"
p2968
sI182
S'    """'
p2969
sI183
S'    runs code in environment and returns the output. if an exception occurs'
p2970
ssg2946
S"(code='# -*- coding: utf-8 -*-\\n# this file is released ...sponse._vars=response._caller(getConnectionData)\\n', layer='/home/jose/DESARROLLO/web2py199/applications/streamlog/controllers/default.py')"
p2971
sg2948
S'compile2'
p2972
sasS'pyver'
p2973
S'Python 2.7.2+: /usr/bin/python'
p2974
sS'session'
p2975
g68
(g69
g70
NtRp2976
(dp2977
g73
(dp2978
sg75
(lp2979
g68
(g77
g70
NtRp2980
(dp2981
g73
(dp2982
g81
I5
ssg82
Nsg75
(lp2983
g68
(g84
g70
NtRp2984
(dp2985
g73
(dp2986
sg82
g2980
sg75
(lp2987
g68
(g89
g70
NtRp2988
(dp2989
g73
(dp2990
g93
g94
ssg82
g2984
sg75
(lp2991
S'auth'
p2992
asbag68
(g89
g70
NtRp2993
(dp2994
g73
(dp2995
g100
g101
ssg82
g2984
sg75
(lp2996
S':'
asbag68
(g89
g70
NtRp2997
(dp2998
g73
(dp2999
sg82
g2984
sg75
(lp3000
g68
(g69
g70
NtRp3001
(dp3002
g73
(dp3003
g81
I5
ssg82
g2997
sg75
(lp3004
g68
(g77
g70
NtRp3005
(dp3006
g73
(dp3007
g81
I4
ssg82
Nsg75
(lp3008
g68
(g84
g70
NtRp3009
(dp3010
g73
(dp3011
sg82
g3005
sg75
(lp3012
g68
(g89
g70
NtRp3013
(dp3014
g73
(dp3015
g93
g94
ssg82
g3009
sg75
(lp3016
S'expiration'
p3017
asbag68
(g89
g70
NtRp3018
(dp3019
g73
(dp3020
g100
g101
ssg82
g3009
sg75
(lp3021
S':'
asbag68
(g89
g70
NtRp3022
(dp3023
g73
(dp3024
sg82
g3009
sg75
(lp3025
g68
(g69
g70
NtRp3026
(dp3027
g73
(dp3028
g81
I4
ssg82
g3022
sg75
(lp3029
S'2592000'
p3030
asbasbasbag68
(g84
g70
NtRp3031
(dp3032
g73
(dp3033
sg82
g3005
sg75
(lp3034
g68
(g89
g70
NtRp3035
(dp3036
g73
(dp3037
g93
g94
ssg82
g3031
sg75
(lp3038
S'hmac_key'
p3039
asbag68
(g89
g70
NtRp3040
(dp3041
g73
(dp3042
g100
g101
ssg82
g3031
sg75
(lp3043
S':'
asbag68
(g89
g70
NtRp3044
(dp3045
g73
(dp3046
sg82
g3031
sg75
(lp3047
g68
(g69
g70
NtRp3048
(dp3049
g73
(dp3050
g81
I4
ssg82
g3044
sg75
(lp3051
S'b954f0e8-95b3-42d2-829e-2e50e94d8454'
p3052
asbasbasbag68
(g84
g70
NtRp3053
(dp3054
g73
(dp3055
sg82
g3005
sg75
(lp3056
g68
(g89
g70
NtRp3057
(dp3058
g73
(dp3059
g93
g94
ssg82
g3053
sg75
(lp3060
S'last_visit'
p3061
asbag68
(g89
g70
NtRp3062
(dp3063
g73
(dp3064
g100
g101
ssg82
g3053
sg75
(lp3065
S':'
asbag68
(g89
g70
NtRp3066
(dp3067
g73
(dp3068
sg82
g3053
sg75
(lp3069
g68
(g69
g70
NtRp3070
(dp3071
g73
(dp3072
g81
I4
ssg82
g3066
sg75
(lp3073
S'datetime.datetime(2012, 5, 26, 18, 42, 33, 844375)'
p3074
asbasbasbag68
(g84
g70
NtRp3075
(dp3076
g73
(dp3077
sg82
g3005
sg75
(lp3078
g68
(g89
g70
NtRp3079
(dp3080
g73
(dp3081
g93
g94
ssg82
g3075
sg75
(lp3082
S'remember'
p3083
asbag68
(g89
g70
NtRp3084
(dp3085
g73
(dp3086
g100
g101
ssg82
g3075
sg75
(lp3087
S':'
asbag68
(g89
g70
NtRp3088
(dp3089
g73
(dp3090
sg82
g3075
sg75
(lp3091
g68
(g69
g70
NtRp3092
(dp3093
g73
(dp3094
g81
I4
ssg82
g3088
sg75
(lp3095
g111
asbasbasbag68
(g84
g70
NtRp3096
(dp3097
g73
(dp3098
sg82
g3005
sg75
(lp3099
g68
(g89
g70
NtRp3100
(dp3101
g73
(dp3102
g93
g94
ssg82
g3096
sg75
(lp3103
S'user'
p3104
asbag68
(g89
g70
NtRp3105
(dp3106
g73
(dp3107
g100
g101
ssg82
g3096
sg75
(lp3108
S':'
asbag68
(g89
g70
NtRp3109
(dp3110
g73
(dp3111
sg82
g3096
sg75
(lp3112
g68
(g69
g70
NtRp3113
(dp3114
g73
(dp3115
g81
I4
ssg82
g3109
sg75
(lp3116
g68
(g77
g70
NtRp3117
(dp3118
g73
(dp3119
g81
I3
ssg82
Nsg75
(lp3120
g68
(g84
g70
NtRp3121
(dp3122
g73
(dp3123
sg82
g3117
sg75
(lp3124
g68
(g89
g70
NtRp3125
(dp3126
g73
(dp3127
g93
g94
ssg82
g3121
sg75
(lp3128
S'email'
p3129
asbag68
(g89
g70
NtRp3130
(dp3131
g73
(dp3132
g100
g101
ssg82
g3121
sg75
(lp3133
S':'
asbag68
(g89
g70
NtRp3134
(dp3135
g73
(dp3136
sg82
g3121
sg75
(lp3137
g68
(g69
g70
NtRp3138
(dp3139
g73
(dp3140
g81
I3
ssg82
g3134
sg75
(lp3141
S'josedesoto@gmail.com'
p3142
asbasbasbag68
(g84
g70
NtRp3143
(dp3144
g73
(dp3145
sg82
g3117
sg75
(lp3146
g68
(g89
g70
NtRp3147
(dp3148
g73
(dp3149
g93
g94
ssg82
g3143
sg75
(lp3150
S'first_name'
p3151
asbag68
(g89
g70
NtRp3152
(dp3153
g73
(dp3154
g100
g101
ssg82
g3143
sg75
(lp3155
S':'
asbag68
(g89
g70
NtRp3156
(dp3157
g73
(dp3158
sg82
g3143
sg75
(lp3159
g68
(g69
g70
NtRp3160
(dp3161
g73
(dp3162
g81
I3
ssg82
g3156
sg75
(lp3163
S'jose'
p3164
asbasbasbag68
(g84
g70
NtRp3165
(dp3166
g73
(dp3167
sg82
g3117
sg75
(lp3168
g68
(g89
g70
NtRp3169
(dp3170
g73
(dp3171
g93
g94
ssg82
g3165
sg75
(lp3172
S'id'
p3173
asbag68
(g89
g70
NtRp3174
(dp3175
g73
(dp3176
g100
g101
ssg82
g3165
sg75
(lp3177
S':'
asbag68
(g89
g70
NtRp3178
(dp3179
g73
(dp3180
sg82
g3165
sg75
(lp3181
g68
(g69
g70
NtRp3182
(dp3183
g73
(dp3184
g81
I3
ssg82
g3178
sg75
(lp3185
S'1'
asbasbasbag68
(g84
g70
NtRp3186
(dp3187
g73
(dp3188
sg82
g3117
sg75
(lp3189
g68
(g89
g70
NtRp3190
(dp3191
g73
(dp3192
g93
g94
ssg82
g3186
sg75
(lp3193
S'last_name'
p3194
asbag68
(g89
g70
NtRp3195
(dp3196
g73
(dp3197
g100
g101
ssg82
g3186
sg75
(lp3198
S':'
asbag68
(g89
g70
NtRp3199
(dp3200
g73
(dp3201
sg82
g3186
sg75
(lp3202
g68
(g69
g70
NtRp3203
(dp3204
g73
(dp3205
g81
I3
ssg82
g3199
sg75
(lp3206
S'jose'
p3207
asbasbasbag68
(g84
g70
NtRp3208
(dp3209
g73
(dp3210
sg82
g3117
sg75
(lp3211
g68
(g89
g70
NtRp3212
(dp3213
g73
(dp3214
g93
g94
ssg82
g3208
sg75
(lp3215
S'password'
p3216
asbag68
(g89
g70
NtRp3217
(dp3218
g73
(dp3219
g100
g101
ssg82
g3208
sg75
(lp3220
S':'
asbag68
(g89
g70
NtRp3221
(dp3222
g73
(dp3223
sg82
g3208
sg75
(lp3224
g68
(g69
g70
NtRp3225
(dp3226
g73
(dp3227
g81
I3
ssg82
g3221
sg75
(lp3228
S'2b32eaa2baa0c63b755a4cde1e4dda83'
p3229
asbasbasbag68
(g84
g70
NtRp3230
(dp3231
g73
(dp3232
sg82
g3117
sg75
(lp3233
g68
(g89
g70
NtRp3234
(dp3235
g73
(dp3236
g93
g94
ssg82
g3230
sg75
(lp3237
S'registration_key'
p3238
asbag68
(g89
g70
NtRp3239
(dp3240
g73
(dp3241
g100
g101
ssg82
g3230
sg75
(lp3242
S':'
asbag68
(g89
g70
NtRp3243
(dp3244
g73
(dp3245
sg82
g3230
sg75
(lp3246
g68
(g69
g70
NtRp3247
(dp3248
g73
(dp3249
g81
I3
ssg82
g3243
sg75
(lp3250
S''
asbasbasbag68
(g84
g70
NtRp3251
(dp3252
g73
(dp3253
sg82
g3117
sg75
(lp3254
g68
(g89
g70
NtRp3255
(dp3256
g73
(dp3257
g93
g94
ssg82
g3251
sg75
(lp3258
S'reset_password_key'
p3259
asbag68
(g89
g70
NtRp3260
(dp3261
g73
(dp3262
g100
g101
ssg82
g3251
sg75
(lp3263
S':'
asbag68
(g89
g70
NtRp3264
(dp3265
g73
(dp3266
sg82
g3251
sg75
(lp3267
g68
(g69
g70
NtRp3268
(dp3269
g73
(dp3270
g81
I3
ssg82
g3264
sg75
(lp3271
S''
asbasbasbasbasbasbasbasbasbasbasbag68
(g84
g70
NtRp3272
(dp3273
g73
(dp3274
sg82
g2980
sg75
(lp3275
g68
(g89
g70
NtRp3276
(dp3277
g73
(dp3278
g93
g94
ssg82
g3272
sg75
(lp3279
S'last_query'
p3280
asbag68
(g89
g70
NtRp3281
(dp3282
g73
(dp3283
g100
g101
ssg82
g3272
sg75
(lp3284
S':'
asbag68
(g89
g70
NtRp3285
(dp3286
g73
(dp3287
sg82
g3272
sg75
(lp3288
g68
(g69
g70
NtRp3289
(dp3290
g73
(dp3291
g81
I5
ssg82
g3285
sg75
(lp3292
S'((db.t_project.user==me)&(db.t_server.project==db.t_project.id)&(db.t_log.server==db.t_server.id))'
p3293
asbasbasbasbasbsS'etype'
p3294
S"<type 'exceptions.SyntaxError'>"
p3295
sS'date'
p3296
S'Sat May 26 19:57:29 2012'
p3297
sS'response'
p3298
g68
(g69
g70
NtRp3299
(dp3300
g73
(dp3301
sg75
(lp3302
g68
(g77
g70
NtRp3303
(dp3304
g73
(dp3305
g81
I5
ssg82
Nsg75
(lp3306
g68
(g84
g70
NtRp3307
(dp3308
g73
(dp3309
sg82
g3303
sg75
(lp3310
g68
(g89
g70
NtRp3311
(dp3312
g73
(dp3313
g93
g94
ssg82
g3307
sg75
(lp3314
g178
asbag68
(g89
g70
NtRp3315
(dp3316
g73
(dp3317
g100
g101
ssg82
g3307
sg75
(lp3318
S':'
asbag68
(g89
g70
NtRp3319
(dp3320
g73
(dp3321
sg82
g3307
sg75
(lp3322
g68
(g69
g70
NtRp3323
(dp3324
g73
(dp3325
g81
I5
ssg82
g3319
sg75
(lp3326
S'<cStringIO.StringO object at 0x2214068>'
p3327
asbasbasbag68
(g84
g70
NtRp3328
(dp3329
g73
(dp3330
sg82
g3303
sg75
(lp3331
g68
(g89
g70
NtRp3332
(dp3333
g73
(dp3334
g93
g94
ssg82
g3328
sg75
(lp3335
g244
asbag68
(g89
g70
NtRp3336
(dp3337
g73
(dp3338
g100
g101
ssg82
g3328
sg75
(lp3339
S':'
asbag68
(g89
g70
NtRp3340
(dp3341
g73
(dp3342
sg82
g3328
sg75
(lp3343
g68
(g69
g70
NtRp3344
(dp3345
g73
(dp3346
g81
I5
ssg82
g3340
sg75
(lp3347
g68
(g77
g70
NtRp3348
(dp3349
g73
(dp3350
g81
I4
ssg82
Nsg75
(lp3351
g68
(g84
g70
NtRp3352
(dp3353
g73
(dp3354
sg82
g3348
sg75
(lp3355
g68
(g89
g70
NtRp3356
(dp3357
g73
(dp3358
g93
g94
ssg82
g3352
sg75
(lp3359
S'session_id_streamlog'
p3360
asbag68
(g89
g70
NtRp3361
(dp3362
g73
(dp3363
g100
g101
ssg82
g3352
sg75
(lp3364
S':'
asbag68
(g89
g70
NtRp3365
(dp3366
g73
(dp3367
sg82
g3352
sg75
(lp3368
g68
(g69
g70
NtRp3369
(dp3370
g73
(dp3371
g81
I4
ssg82
g3365
sg75
(lp3372
g68
(g77
g70
NtRp3373
(dp3374
g73
(dp3375
g81
I3
ssg82
Nsg75
(lp3376
g68
(g84
g70
NtRp3377
(dp3378
g73
(dp3379
sg82
g3373
sg75
(lp3380
g68
(g89
g70
NtRp3381
(dp3382
g73
(dp3383
g93
g94
ssg82
g3377
sg75
(lp3384
g294
asbag68
(g89
g70
NtRp3385
(dp3386
g73
(dp3387
g100
g101
ssg82
g3377
sg75
(lp3388
S':'
asbag68
(g89
g70
NtRp3389
(dp3390
g73
(dp3391
sg82
g3377
sg75
(lp3392
g68
(g69
g70
NtRp3393
(dp3394
g73
(dp3395
g81
I3
ssg82
g3389
sg75
(lp3396
S''
asbasbasbag68
(g84
g70
NtRp3397
(dp3398
g73
(dp3399
sg82
g3373
sg75
(lp3400
g68
(g89
g70
NtRp3401
(dp3402
g73
(dp3403
g93
g94
ssg82
g3397
sg75
(lp3404
g315
asbag68
(g89
g70
NtRp3405
(dp3406
g73
(dp3407
g100
g101
ssg82
g3397
sg75
(lp3408
S':'
asbag68
(g89
g70
NtRp3409
(dp3410
g73
(dp3411
sg82
g3397
sg75
(lp3412
g68
(g69
g70
NtRp3413
(dp3414
g73
(dp3415
g81
I3
ssg82
g3409
sg75
(lp3416
S''
asbasbasbag68
(g84
g70
NtRp3417
(dp3418
g73
(dp3419
sg82
g3373
sg75
(lp3420
g68
(g89
g70
NtRp3421
(dp3422
g73
(dp3423
g93
g94
ssg82
g3417
sg75
(lp3424
g336
asbag68
(g89
g70
NtRp3425
(dp3426
g73
(dp3427
g100
g101
ssg82
g3417
sg75
(lp3428
S':'
asbag68
(g89
g70
NtRp3429
(dp3430
g73
(dp3431
sg82
g3417
sg75
(lp3432
g68
(g69
g70
NtRp3433
(dp3434
g73
(dp3435
g81
I3
ssg82
g3429
sg75
(lp3436
S''
asbasbasbag68
(g84
g70
NtRp3437
(dp3438
g73
(dp3439
sg82
g3373
sg75
(lp3440
g68
(g89
g70
NtRp3441
(dp3442
g73
(dp3443
g93
g94
ssg82
g3437
sg75
(lp3444
g357
asbag68
(g89
g70
NtRp3445
(dp3446
g73
(dp3447
g100
g101
ssg82
g3437
sg75
(lp3448
S':'
asbag68
(g89
g70
NtRp3449
(dp3450
g73
(dp3451
sg82
g3437
sg75
(lp3452
g68
(g69
g70
NtRp3453
(dp3454
g73
(dp3455
g81
I3
ssg82
g3449
sg75
(lp3456
S''
asbasbasbag68
(g84
g70
NtRp3457
(dp3458
g73
(dp3459
sg82
g3373
sg75
(lp3460
g68
(g89
g70
NtRp3461
(dp3462
g73
(dp3463
g93
g94
ssg82
g3457
sg75
(lp3464
g378
asbag68
(g89
g70
NtRp3465
(dp3466
g73
(dp3467
g100
g101
ssg82
g3457
sg75
(lp3468
S':'
asbag68
(g89
g70
NtRp3469
(dp3470
g73
(dp3471
sg82
g3457
sg75
(lp3472
g68
(g69
g70
NtRp3473
(dp3474
g73
(dp3475
g81
I3
ssg82
g3469
sg75
(lp3476
S''
asbasbasbag68
(g84
g70
NtRp3477
(dp3478
g73
(dp3479
sg82
g3373
sg75
(lp3480
g68
(g89
g70
NtRp3481
(dp3482
g73
(dp3483
g93
g94
ssg82
g3477
sg75
(lp3484
g399
asbag68
(g89
g70
NtRp3485
(dp3486
g73
(dp3487
g100
g101
ssg82
g3477
sg75
(lp3488
S':'
asbag68
(g89
g70
NtRp3489
(dp3490
g73
(dp3491
sg82
g3477
sg75
(lp3492
g68
(g69
g70
NtRp3493
(dp3494
g73
(dp3495
g81
I3
ssg82
g3489
sg75
(lp3496
S'/'
asbasbasbag68
(g84
g70
NtRp3497
(dp3498
g73
(dp3499
sg82
g3373
sg75
(lp3500
g68
(g89
g70
NtRp3501
(dp3502
g73
(dp3503
g93
g94
ssg82
g3497
sg75
(lp3504
g420
asbag68
(g89
g70
NtRp3505
(dp3506
g73
(dp3507
g100
g101
ssg82
g3497
sg75
(lp3508
S':'
asbag68
(g89
g70
NtRp3509
(dp3510
g73
(dp3511
sg82
g3497
sg75
(lp3512
g68
(g69
g70
NtRp3513
(dp3514
g73
(dp3515
g81
I3
ssg82
g3509
sg75
(lp3516
S''
asbasbasbag68
(g84
g70
NtRp3517
(dp3518
g73
(dp3519
sg82
g3373
sg75
(lp3520
g68
(g89
g70
NtRp3521
(dp3522
g73
(dp3523
g93
g94
ssg82
g3517
sg75
(lp3524
g441
asbag68
(g89
g70
NtRp3525
(dp3526
g73
(dp3527
g100
g101
ssg82
g3517
sg75
(lp3528
S':'
asbag68
(g89
g70
NtRp3529
(dp3530
g73
(dp3531
sg82
g3517
sg75
(lp3532
g68
(g69
g70
NtRp3533
(dp3534
g73
(dp3535
g81
I3
ssg82
g3529
sg75
(lp3536
S''
asbasbasbasbasbasbasbasbasbasbasbag68
(g84
g70
NtRp3537
(dp3538
g73
(dp3539
sg82
g3303
sg75
(lp3540
g68
(g89
g70
NtRp3541
(dp3542
g73
(dp3543
g93
g94
ssg82
g3537
sg75
(lp3544
S'files'
p3545
asbag68
(g89
g70
NtRp3546
(dp3547
g73
(dp3548
g100
g101
ssg82
g3537
sg75
(lp3549
S':'
asbag68
(g89
g70
NtRp3550
(dp3551
g73
(dp3552
sg82
g3537
sg75
(lp3553
g68
(g69
g70
NtRp3554
(dp3555
g73
(dp3556
g81
I5
ssg82
g3550
sg75
(lp3557
g68
(g77
g70
NtRp3558
(dp3559
g73
(dp3560
g81
I4
ssg82
Nsg75
(lp3561
sbasbasbasbag68
(g84
g70
NtRp3562
(dp3563
g73
(dp3564
sg82
g3303
sg75
(lp3565
g68
(g89
g70
NtRp3566
(dp3567
g73
(dp3568
g93
g94
ssg82
g3562
sg75
(lp3569
S'flash'
p3570
asbag68
(g89
g70
NtRp3571
(dp3572
g73
(dp3573
g100
g101
ssg82
g3562
sg75
(lp3574
S':'
asbag68
(g89
g70
NtRp3575
(dp3576
g73
(dp3577
sg82
g3562
sg75
(lp3578
g68
(g69
g70
NtRp3579
(dp3580
g73
(dp3581
g81
I5
ssg82
g3575
sg75
(lp3582
S''
asbasbasbag68
(g84
g70
NtRp3583
(dp3584
g73
(dp3585
sg82
g3303
sg75
(lp3586
g68
(g89
g70
NtRp3587
(dp3588
g73
(dp3589
g93
g94
ssg82
g3583
sg75
(lp3590
S'generic_patterns'
p3591
asbag68
(g89
g70
NtRp3592
(dp3593
g73
(dp3594
g100
g101
ssg82
g3583
sg75
(lp3595
S':'
asbag68
(g89
g70
NtRp3596
(dp3597
g73
(dp3598
sg82
g3583
sg75
(lp3599
g68
(g69
g70
NtRp3600
(dp3601
g73
(dp3602
g81
I5
ssg82
g3596
sg75
(lp3603
g68
(g77
g70
NtRp3604
(dp3605
g73
(dp3606
g81
I4
ssg82
Nsg75
(lp3607
g68
(g84
g70
NtRp3608
(dp3609
g73
(dp3610
sg82
g3604
sg75
(lp3611
g68
(g89
g70
NtRp3612
(dp3613
g73
(dp3614
sg82
g3608
sg75
(lp3615
g68
(g69
g70
NtRp3616
(dp3617
g73
(dp3618
g81
I4
ssg82
g3612
sg75
(lp3619
S'*'
asbasbasbasbasbasbasbag68
(g84
g70
NtRp3620
(dp3621
g73
(dp3622
sg82
g3303
sg75
(lp3623
g68
(g89
g70
NtRp3624
(dp3625
g73
(dp3626
g93
g94
ssg82
g3620
sg75
(lp3627
S'headers'
p3628
asbag68
(g89
g70
NtRp3629
(dp3630
g73
(dp3631
g100
g101
ssg82
g3620
sg75
(lp3632
S':'
asbag68
(g89
g70
NtRp3633
(dp3634
g73
(dp3635
sg82
g3620
sg75
(lp3636
g68
(g69
g70
NtRp3637
(dp3638
g73
(dp3639
g81
I5
ssg82
g3633
sg75
(lp3640
g68
(g77
g70
NtRp3641
(dp3642
g73
(dp3643
g81
I4
ssg82
Nsg75
(lp3644
g68
(g84
g70
NtRp3645
(dp3646
g73
(dp3647
sg82
g3641
sg75
(lp3648
g68
(g89
g70
NtRp3649
(dp3650
g73
(dp3651
g93
g94
ssg82
g3645
sg75
(lp3652
S'Cache-Control'
p3653
asbag68
(g89
g70
NtRp3654
(dp3655
g73
(dp3656
g100
g101
ssg82
g3645
sg75
(lp3657
S':'
asbag68
(g89
g70
NtRp3658
(dp3659
g73
(dp3660
sg82
g3645
sg75
(lp3661
g68
(g69
g70
NtRp3662
(dp3663
g73
(dp3664
g81
I4
ssg82
g3658
sg75
(lp3665
S'no-store, no-cache, must-revalidate, post-check=0, pre-check=0'
p3666
asbasbasbag68
(g84
g70
NtRp3667
(dp3668
g73
(dp3669
sg82
g3641
sg75
(lp3670
g68
(g89
g70
NtRp3671
(dp3672
g73
(dp3673
g93
g94
ssg82
g3667
sg75
(lp3674
S'Content-Type'
p3675
asbag68
(g89
g70
NtRp3676
(dp3677
g73
(dp3678
g100
g101
ssg82
g3667
sg75
(lp3679
S':'
asbag68
(g89
g70
NtRp3680
(dp3681
g73
(dp3682
sg82
g3667
sg75
(lp3683
g68
(g69
g70
NtRp3684
(dp3685
g73
(dp3686
g81
I4
ssg82
g3680
sg75
(lp3687
S'text/html; charset=utf-8'
p3688
asbasbasbag68
(g84
g70
NtRp3689
(dp3690
g73
(dp3691
sg82
g3641
sg75
(lp3692
g68
(g89
g70
NtRp3693
(dp3694
g73
(dp3695
g93
g94
ssg82
g3689
sg75
(lp3696
S'Expires'
p3697
asbag68
(g89
g70
NtRp3698
(dp3699
g73
(dp3700
g100
g101
ssg82
g3689
sg75
(lp3701
S':'
asbag68
(g89
g70
NtRp3702
(dp3703
g73
(dp3704
sg82
g3689
sg75
(lp3705
g68
(g69
g70
NtRp3706
(dp3707
g73
(dp3708
g81
I4
ssg82
g3702
sg75
(lp3709
S'Sat, 26 May 2012 12:57:29 GMT'
p3710
asbasbasbag68
(g84
g70
NtRp3711
(dp3712
g73
(dp3713
sg82
g3641
sg75
(lp3714
g68
(g89
g70
NtRp3715
(dp3716
g73
(dp3717
g93
g94
ssg82
g3711
sg75
(lp3718
S'Pragma'
p3719
asbag68
(g89
g70
NtRp3720
(dp3721
g73
(dp3722
g100
g101
ssg82
g3711
sg75
(lp3723
S':'
asbag68
(g89
g70
NtRp3724
(dp3725
g73
(dp3726
sg82
g3711
sg75
(lp3727
g68
(g69
g70
NtRp3728
(dp3729
g73
(dp3730
g81
I4
ssg82
g3724
sg75
(lp3731
S'no-cache'
p3732
asbasbasbag68
(g84
g70
NtRp3733
(dp3734
g73
(dp3735
sg82
g3641
sg75
(lp3736
g68
(g89
g70
NtRp3737
(dp3738
g73
(dp3739
g93
g94
ssg82
g3733
sg75
(lp3740
S'X-Powered-By'
p3741
asbag68
(g89
g70
NtRp3742
(dp3743
g73
(dp3744
g100
g101
ssg82
g3733
sg75
(lp3745
S':'
asbag68
(g89
g70
NtRp3746
(dp3747
g73
(dp3748
sg82
g3733
sg75
(lp3749
g68
(g69
g70
NtRp3750
(dp3751
g73
(dp3752
g81
I4
ssg82
g3746
sg75
(lp3753
S'web2py'
p3754
asbasbasbasbasbasbasbag68
(g84
g70
NtRp3755
(dp3756
g73
(dp3757
sg82
g3303
sg75
(lp3758
g68
(g89
g70
NtRp3759
(dp3760
g73
(dp3761
g93
g94
ssg82
g3755
sg75
(lp3762
S'menu'
p3763
asbag68
(g89
g70
NtRp3764
(dp3765
g73
(dp3766
g100
g101
ssg82
g3755
sg75
(lp3767
S':'
asbag68
(g89
g70
NtRp3768
(dp3769
g73
(dp3770
sg82
g3755
sg75
(lp3771
g68
(g69
g70
NtRp3772
(dp3773
g73
(dp3774
g81
I5
ssg82
g3768
sg75
(lp3775
g68
(g77
g70
NtRp3776
(dp3777
g73
(dp3778
g81
I4
ssg82
Nsg75
(lp3779
g68
(g84
g70
NtRp3780
(dp3781
g73
(dp3782
sg82
g3776
sg75
(lp3783
g68
(g89
g70
NtRp3784
(dp3785
g73
(dp3786
sg82
g3780
sg75
(lp3787
g68
(g69
g70
NtRp3788
(dp3789
g73
(dp3790
g81
I4
ssg82
g3784
sg75
(lp3791
g68
(g77
g70
NtRp3792
(dp3793
g73
(dp3794
g81
I3
ssg82
Nsg75
(lp3795
g68
(g84
g70
NtRp3796
(dp3797
g73
(dp3798
sg82
g3792
sg75
(lp3799
g68
(g89
g70
NtRp3800
(dp3801
g73
(dp3802
sg82
g3796
sg75
(lp3803
g68
(g69
g70
NtRp3804
(dp3805
g73
(dp3806
g81
I3
ssg82
g3800
sg75
(lp3807
cgluon.languages
lazyT_unpickle
p3808
(S's\n\x00\x00\x00Clear Page'
tRp3809
asbasbasbag68
(g84
g70
NtRp3810
(dp3811
g73
(dp3812
sg82
g3792
sg75
(lp3813
g68
(g89
g70
NtRp3814
(dp3815
g73
(dp3816
sg82
g3810
sg75
(lp3817
g68
(g69
g70
NtRp3818
(dp3819
g73
(dp3820
g81
I3
ssg82
g3814
sg75
(lp3821
g111
asbasbasbag68
(g84
g70
NtRp3822
(dp3823
g73
(dp3824
sg82
g3792
sg75
(lp3825
g68
(g89
g70
NtRp3826
(dp3827
g73
(dp3828
sg82
g3822
sg75
(lp3829
g68
(g69
g70
NtRp3830
(dp3831
g73
(dp3832
g81
I3
ssg82
g3826
sg75
(lp3833
S'/streamlog/default/index'
p3834
asbasbasbag68
(g84
g70
NtRp3835
(dp3836
g73
(dp3837
sg82
g3792
sg75
(lp3838
g68
(g89
g70
NtRp3839
(dp3840
g73
(dp3841
sg82
g3835
sg75
(lp3842
g68
(g69
g70
NtRp3843
(dp3844
g73
(dp3845
g81
I3
ssg82
g3839
sg75
(lp3846
g68
(g77
g70
NtRp3847
(dp3848
g73
(dp3849
g81
I2
ssg82
Nsg75
(lp3850
sbasbasbasbasbasbasbasbag68
(g84
g70
NtRp3851
(dp3852
g73
(dp3853
sg82
g3776
sg75
(lp3854
g68
(g89
g70
NtRp3855
(dp3856
g73
(dp3857
sg82
g3851
sg75
(lp3858
g68
(g69
g70
NtRp3859
(dp3860
g73
(dp3861
g81
I4
ssg82
g3855
sg75
(lp3862
g68
(g77
g70
NtRp3863
(dp3864
g73
(dp3865
g81
I3
ssg82
Nsg75
(lp3866
g68
(g84
g70
NtRp3867
(dp3868
g73
(dp3869
sg82
g3863
sg75
(lp3870
g68
(g89
g70
NtRp3871
(dp3872
g73
(dp3873
sg82
g3867
sg75
(lp3874
g68
(g69
g70
NtRp3875
(dp3876
g73
(dp3877
g81
I3
ssg82
g3871
sg75
(lp3878
g3808
(S't\x06\x00\x00\x00Manage'
tRp3879
asbasbasbag68
(g84
g70
NtRp3880
(dp3881
g73
(dp3882
sg82
g3863
sg75
(lp3883
g68
(g89
g70
NtRp3884
(dp3885
g73
(dp3886
sg82
g3880
sg75
(lp3887
g68
(g69
g70
NtRp3888
(dp3889
g73
(dp3890
g81
I3
ssg82
g3884
sg75
(lp3891
g111
asbasbasbag68
(g84
g70
NtRp3892
(dp3893
g73
(dp3894
sg82
g3863
sg75
(lp3895
g68
(g89
g70
NtRp3896
(dp3897
g73
(dp3898
sg82
g3892
sg75
(lp3899
g68
(g69
g70
NtRp3900
(dp3901
g73
(dp3902
g81
I3
ssg82
g3896
sg75
(lp3903
S'None'
p3904
asbasbasbag68
(g84
g70
NtRp3905
(dp3906
g73
(dp3907
sg82
g3863
sg75
(lp3908
g68
(g89
g70
NtRp3909
(dp3910
g73
(dp3911
sg82
g3905
sg75
(lp3912
g68
(g69
g70
NtRp3913
(dp3914
g73
(dp3915
g81
I3
ssg82
g3909
sg75
(lp3916
g68
(g77
g70
NtRp3917
(dp3918
g73
(dp3919
g81
I2
ssg82
Nsg75
(lp3920
g68
(g84
g70
NtRp3921
(dp3922
g73
(dp3923
sg82
g3917
sg75
(lp3924
g68
(g89
g70
NtRp3925
(dp3926
g73
(dp3927
sg82
g3921
sg75
(lp3928
g68
(g69
g70
NtRp3929
(dp3930
g73
(dp3931
g81
I2
ssg82
g3925
sg75
(lp3932
g68
(g77
g70
NtRp3933
(dp3934
g73
(dp3935
g81
I1
ssg82
Nsg75
(lp3936
g68
(g84
g70
NtRp3937
(dp3938
g73
(dp3939
sg82
g3933
sg75
(lp3940
g68
(g89
g70
NtRp3941
(dp3942
g73
(dp3943
sg82
g3937
sg75
(lp3944
g68
(g69
g70
NtRp3945
(dp3946
g73
(dp3947
g81
I1
ssg82
g3941
sg75
(lp3948
g3808
(S't\x04\x00\x00\x00Logs'
tRp3949
asbasbasbag68
(g84
g70
NtRp3950
(dp3951
g73
(dp3952
sg82
g3933
sg75
(lp3953
g68
(g89
g70
NtRp3954
(dp3955
g73
(dp3956
sg82
g3950
sg75
(lp3957
g68
(g69
g70
NtRp3958
(dp3959
g73
(dp3960
g81
I1
ssg82
g3954
sg75
(lp3961
I00
asbasbasbag68
(g84
g70
NtRp3962
(dp3963
g73
(dp3964
sg82
g3933
sg75
(lp3965
g68
(g89
g70
NtRp3966
(dp3967
g73
(dp3968
sg82
g3962
sg75
(lp3969
g68
(g69
g70
NtRp3970
(dp3971
g73
(dp3972
g81
I1
ssg82
g3966
sg75
(lp3973
S'/streamlog/default/log_manage'
p3974
asbasbasbag68
(g84
g70
NtRp3975
(dp3976
g73
(dp3977
sg82
g3933
sg75
(lp3978
g68
(g89
g70
NtRp3979
(dp3980
g73
(dp3981
sg82
g3975
sg75
(lp3982
g68
(g69
g70
NtRp3983
(dp3984
g73
(dp3985
g81
I1
ssg82
g3979
sg75
(lp3986
(lp3987
asbasbasbasbasbasbasbag68
(g84
g70
NtRp3988
(dp3989
g73
(dp3990
sg82
g3917
sg75
(lp3991
g68
(g89
g70
NtRp3992
(dp3993
g73
(dp3994
sg82
g3988
sg75
(lp3995
g68
(g69
g70
NtRp3996
(dp3997
g73
(dp3998
g81
I2
ssg82
g3992
sg75
(lp3999
g68
(g77
g70
NtRp4000
(dp4001
g73
(dp4002
g81
I1
ssg82
Nsg75
(lp4003
g68
(g84
g70
NtRp4004
(dp4005
g73
(dp4006
sg82
g4000
sg75
(lp4007
g68
(g89
g70
NtRp4008
(dp4009
g73
(dp4010
sg82
g4004
sg75
(lp4011
g68
(g69
g70
NtRp4012
(dp4013
g73
(dp4014
g81
I1
ssg82
g4008
sg75
(lp4015
g3808
(S't\x07\x00\x00\x00Servers'
tRp4016
asbasbasbag68
(g84
g70
NtRp4017
(dp4018
g73
(dp4019
sg82
g4000
sg75
(lp4020
g68
(g89
g70
NtRp4021
(dp4022
g73
(dp4023
sg82
g4017
sg75
(lp4024
g68
(g69
g70
NtRp4025
(dp4026
g73
(dp4027
g81
I1
ssg82
g4021
sg75
(lp4028
I00
asbasbasbag68
(g84
g70
NtRp4029
(dp4030
g73
(dp4031
sg82
g4000
sg75
(lp4032
g68
(g89
g70
NtRp4033
(dp4034
g73
(dp4035
sg82
g4029
sg75
(lp4036
g68
(g69
g70
NtRp4037
(dp4038
g73
(dp4039
g81
I1
ssg82
g4033
sg75
(lp4040
S'/streamlog/default/server_manage'
p4041
asbasbasbag68
(g84
g70
NtRp4042
(dp4043
g73
(dp4044
sg82
g4000
sg75
(lp4045
g68
(g89
g70
NtRp4046
(dp4047
g73
(dp4048
sg82
g4042
sg75
(lp4049
g68
(g69
g70
NtRp4050
(dp4051
g73
(dp4052
g81
I1
ssg82
g4046
sg75
(lp4053
(lp4054
asbasbasbasbasbasbasbag68
(g84
g70
NtRp4055
(dp4056
g73
(dp4057
sg82
g3917
sg75
(lp4058
g68
(g89
g70
NtRp4059
(dp4060
g73
(dp4061
sg82
g4055
sg75
(lp4062
g68
(g69
g70
NtRp4063
(dp4064
g73
(dp4065
g81
I2
ssg82
g4059
sg75
(lp4066
g68
(g77
g70
NtRp4067
(dp4068
g73
(dp4069
g81
I1
ssg82
Nsg75
(lp4070
g68
(g84
g70
NtRp4071
(dp4072
g73
(dp4073
sg82
g4067
sg75
(lp4074
g68
(g89
g70
NtRp4075
(dp4076
g73
(dp4077
sg82
g4071
sg75
(lp4078
g68
(g69
g70
NtRp4079
(dp4080
g73
(dp4081
g81
I1
ssg82
g4075
sg75
(lp4082
g3808
(S't\x08\x00\x00\x00Projects'
tRp4083
asbasbasbag68
(g84
g70
NtRp4084
(dp4085
g73
(dp4086
sg82
g4067
sg75
(lp4087
g68
(g89
g70
NtRp4088
(dp4089
g73
(dp4090
sg82
g4084
sg75
(lp4091
g68
(g69
g70
NtRp4092
(dp4093
g73
(dp4094
g81
I1
ssg82
g4088
sg75
(lp4095
I00
asbasbasbag68
(g84
g70
NtRp4096
(dp4097
g73
(dp4098
sg82
g4067
sg75
(lp4099
g68
(g89
g70
NtRp4100
(dp4101
g73
(dp4102
sg82
g4096
sg75
(lp4103
g68
(g69
g70
NtRp4104
(dp4105
g73
(dp4106
g81
I1
ssg82
g4100
sg75
(lp4107
S'/streamlog/default/project_manage'
p4108
asbasbasbag68
(g84
g70
NtRp4109
(dp4110
g73
(dp4111
sg82
g4067
sg75
(lp4112
g68
(g89
g70
NtRp4113
(dp4114
g73
(dp4115
sg82
g4109
sg75
(lp4116
g68
(g69
g70
NtRp4117
(dp4118
g73
(dp4119
g81
I1
ssg82
g4113
sg75
(lp4120
(lp4121
asbasbasbasbasbasbasbag68
(g84
g70
NtRp4122
(dp4123
g73
(dp4124
sg82
g3917
sg75
(lp4125
g68
(g89
g70
NtRp4126
(dp4127
g73
(dp4128
sg82
g4122
sg75
(lp4129
g68
(g69
g70
NtRp4130
(dp4131
g73
(dp4132
g81
I2
ssg82
g4126
sg75
(lp4133
g68
(g77
g70
NtRp4134
(dp4135
g73
(dp4136
g81
I1
ssg82
Nsg75
(lp4137
g68
(g84
g70
NtRp4138
(dp4139
g73
(dp4140
sg82
g4134
sg75
(lp4141
g68
(g89
g70
NtRp4142
(dp4143
g73
(dp4144
sg82
g4138
sg75
(lp4145
g68
(g69
g70
NtRp4146
(dp4147
g73
(dp4148
g81
I1
ssg82
g4142
sg75
(lp4149
g3808
(S's\t\x00\x00\x00Type Logs'
tRp4150
asbasbasbag68
(g84
g70
NtRp4151
(dp4152
g73
(dp4153
sg82
g4134
sg75
(lp4154
g68
(g89
g70
NtRp4155
(dp4156
g73
(dp4157
sg82
g4151
sg75
(lp4158
g68
(g69
g70
NtRp4159
(dp4160
g73
(dp4161
g81
I1
ssg82
g4155
sg75
(lp4162
I00
asbasbasbag68
(g84
g70
NtRp4163
(dp4164
g73
(dp4165
sg82
g4134
sg75
(lp4166
g68
(g89
g70
NtRp4167
(dp4168
g73
(dp4169
sg82
g4163
sg75
(lp4170
g68
(g69
g70
NtRp4171
(dp4172
g73
(dp4173
g81
I1
ssg82
g4167
sg75
(lp4174
S'/streamlog/default/type_log_manage'
p4175
asbasbasbag68
(g84
g70
NtRp4176
(dp4177
g73
(dp4178
sg82
g4134
sg75
(lp4179
g68
(g89
g70
NtRp4180
(dp4181
g73
(dp4182
sg82
g4176
sg75
(lp4183
g68
(g69
g70
NtRp4184
(dp4185
g73
(dp4186
g81
I1
ssg82
g4180
sg75
(lp4187
(lp4188
asbasbasbasbasbasbasbasbasbasbasbasbasbasbasbasbasbasbasbag68
(g84
g70
NtRp4189
(dp4190
g73
(dp4191
sg82
g3303
sg75
(lp4192
g68
(g89
g70
NtRp4193
(dp4194
g73
(dp4195
g93
g94
ssg82
g4189
sg75
(lp4196
S'meta'
p4197
asbag68
(g89
g70
NtRp4198
(dp4199
g73
(dp4200
g100
g101
ssg82
g4189
sg75
(lp4201
S':'
asbag68
(g89
g70
NtRp4202
(dp4203
g73
(dp4204
sg82
g4189
sg75
(lp4205
g68
(g69
g70
NtRp4206
(dp4207
g73
(dp4208
g81
I5
ssg82
g4202
sg75
(lp4209
g68
(g77
g70
NtRp4210
(dp4211
g73
(dp4212
g81
I4
ssg82
Nsg75
(lp4213
g68
(g84
g70
NtRp4214
(dp4215
g73
(dp4216
sg82
g4210
sg75
(lp4217
g68
(g89
g70
NtRp4218
(dp4219
g73
(dp4220
g93
g94
ssg82
g4214
sg75
(lp4221
S'author'
p4222
asbag68
(g89
g70
NtRp4223
(dp4224
g73
(dp4225
g100
g101
ssg82
g4214
sg75
(lp4226
S':'
asbag68
(g89
g70
NtRp4227
(dp4228
g73
(dp4229
sg82
g4214
sg75
(lp4230
g68
(g69
g70
NtRp4231
(dp4232
g73
(dp4233
g81
I4
ssg82
g4227
sg75
(lp4234
S'Jose de Soto <josedesoto@gmail.com>'
p4235
asbasbasbag68
(g84
g70
NtRp4236
(dp4237
g73
(dp4238
sg82
g4210
sg75
(lp4239
g68
(g89
g70
NtRp4240
(dp4241
g73
(dp4242
g93
g94
ssg82
g4236
sg75
(lp4243
S'copyright'
p4244
asbag68
(g89
g70
NtRp4245
(dp4246
g73
(dp4247
g100
g101
ssg82
g4236
sg75
(lp4248
S':'
asbag68
(g89
g70
NtRp4249
(dp4250
g73
(dp4251
sg82
g4236
sg75
(lp4252
g68
(g69
g70
NtRp4253
(dp4254
g73
(dp4255
g81
I4
ssg82
g4249
sg75
(lp4256
S'Copyright 2011'
p4257
asbasbasbag68
(g84
g70
NtRp4258
(dp4259
g73
(dp4260
sg82
g4210
sg75
(lp4261
g68
(g89
g70
NtRp4262
(dp4263
g73
(dp4264
g93
g94
ssg82
g4258
sg75
(lp4265
S'description'
p4266
asbag68
(g89
g70
NtRp4267
(dp4268
g73
(dp4269
g100
g101
ssg82
g4258
sg75
(lp4270
S':'
asbag68
(g89
g70
NtRp4271
(dp4272
g73
(dp4273
sg82
g4258
sg75
(lp4274
g68
(g69
g70
NtRp4275
(dp4276
g73
(dp4277
g81
I4
ssg82
g4271
sg75
(lp4278
S'a cool new app'
p4279
asbasbasbag68
(g84
g70
NtRp4280
(dp4281
g73
(dp4282
sg82
g4210
sg75
(lp4283
g68
(g89
g70
NtRp4284
(dp4285
g73
(dp4286
g93
g94
ssg82
g4280
sg75
(lp4287
S'generator'
p4288
asbag68
(g89
g70
NtRp4289
(dp4290
g73
(dp4291
g100
g101
ssg82
g4280
sg75
(lp4292
S':'
asbag68
(g89
g70
NtRp4293
(dp4294
g73
(dp4295
sg82
g4280
sg75
(lp4296
g68
(g69
g70
NtRp4297
(dp4298
g73
(dp4299
g81
I4
ssg82
g4293
sg75
(lp4300
S'Web2py Web Framework'
p4301
asbasbasbag68
(g84
g70
NtRp4302
(dp4303
g73
(dp4304
sg82
g4210
sg75
(lp4305
g68
(g89
g70
NtRp4306
(dp4307
g73
(dp4308
g93
g94
ssg82
g4302
sg75
(lp4309
S'keywords'
p4310
asbag68
(g89
g70
NtRp4311
(dp4312
g73
(dp4313
g100
g101
ssg82
g4302
sg75
(lp4314
S':'
asbag68
(g89
g70
NtRp4315
(dp4316
g73
(dp4317
sg82
g4302
sg75
(lp4318
g68
(g69
g70
NtRp4319
(dp4320
g73
(dp4321
g81
I4
ssg82
g4315
sg75
(lp4322
S'web2py, python, framework'
p4323
asbasbasbasbasbasbasbag68
(g84
g70
NtRp4324
(dp4325
g73
(dp4326
sg82
g3303
sg75
(lp4327
g68
(g89
g70
NtRp4328
(dp4329
g73
(dp4330
g93
g94
ssg82
g4324
sg75
(lp4331
S'postprocessing'
p4332
asbag68
(g89
g70
NtRp4333
(dp4334
g73
(dp4335
g100
g101
ssg82
g4324
sg75
(lp4336
S':'
asbag68
(g89
g70
NtRp4337
(dp4338
g73
(dp4339
sg82
g4324
sg75
(lp4340
g68
(g69
g70
NtRp4341
(dp4342
g73
(dp4343
g81
I5
ssg82
g4337
sg75
(lp4344
g68
(g77
g70
NtRp4345
(dp4346
g73
(dp4347
g81
I4
ssg82
Nsg75
(lp4348
sbasbasbasbag68
(g84
g70
NtRp4349
(dp4350
g73
(dp4351
sg82
g3303
sg75
(lp4352
g68
(g89
g70
NtRp4353
(dp4354
g73
(dp4355
g93
g94
ssg82
g4349
sg75
(lp4356
S'session_file'
p4357
asbag68
(g89
g70
NtRp4358
(dp4359
g73
(dp4360
g100
g101
ssg82
g4349
sg75
(lp4361
S':'
asbag68
(g89
g70
NtRp4362
(dp4363
g73
(dp4364
sg82
g4349
sg75
(lp4365
g68
(g69
g70
NtRp4366
(dp4367
g73
(dp4368
g81
I5
ssg82
g4362
sg75
(lp4369
S"<open file '/home/jose/DESARROLLO/web2py199/applications/streamlog/sessions/127.0.0.1-610b0c7d-3f6f-4500-a76a-b095fb30f7fd', mode 'rb+' at 0x2ab6db0>"
p4370
asbasbasbag68
(g84
g70
NtRp4371
(dp4372
g73
(dp4373
sg82
g3303
sg75
(lp4374
g68
(g89
g70
NtRp4375
(dp4376
g73
(dp4377
g93
g94
ssg82
g4371
sg75
(lp4378
S'session_filename'
p4379
asbag68
(g89
g70
NtRp4380
(dp4381
g73
(dp4382
g100
g101
ssg82
g4371
sg75
(lp4383
S':'
asbag68
(g89
g70
NtRp4384
(dp4385
g73
(dp4386
sg82
g4371
sg75
(lp4387
g68
(g69
g70
NtRp4388
(dp4389
g73
(dp4390
g81
I5
ssg82
g4384
sg75
(lp4391
S'/home/jose/DESARROLLO/web2py199/applications/streamlog/sessions/127.0.0.1-610b0c7d-3f6f-4500-a76a-b095fb30f7fd'
p4392
asbasbasbag68
(g84
g70
NtRp4393
(dp4394
g73
(dp4395
sg82
g3303
sg75
(lp4396
g68
(g89
g70
NtRp4397
(dp4398
g73
(dp4399
g93
g94
ssg82
g4393
sg75
(lp4400
S'session_id'
p4401
asbag68
(g89
g70
NtRp4402
(dp4403
g73
(dp4404
g100
g101
ssg82
g4393
sg75
(lp4405
S':'
asbag68
(g89
g70
NtRp4406
(dp4407
g73
(dp4408
sg82
g4393
sg75
(lp4409
g68
(g69
g70
NtRp4410
(dp4411
g73
(dp4412
g81
I5
ssg82
g4406
sg75
(lp4413
S'127.0.0.1-610b0c7d-3f6f-4500-a76a-b095fb30f7fd'
p4414
asbasbasbag68
(g84
g70
NtRp4415
(dp4416
g73
(dp4417
sg82
g3303
sg75
(lp4418
g68
(g89
g70
NtRp4419
(dp4420
g73
(dp4421
g93
g94
ssg82
g4415
sg75
(lp4422
S'session_id_name'
p4423
asbag68
(g89
g70
NtRp4424
(dp4425
g73
(dp4426
g100
g101
ssg82
g4415
sg75
(lp4427
S':'
asbag68
(g89
g70
NtRp4428
(dp4429
g73
(dp4430
sg82
g4415
sg75
(lp4431
g68
(g69
g70
NtRp4432
(dp4433
g73
(dp4434
g81
I5
ssg82
g4428
sg75
(lp4435
g3360
asbasbasbag68
(g84
g70
NtRp4436
(dp4437
g73
(dp4438
sg82
g3303
sg75
(lp4439
g68
(g89
g70
NtRp4440
(dp4441
g73
(dp4442
g93
g94
ssg82
g4436
sg75
(lp4443
S'session_locked'
p4444
asbag68
(g89
g70
NtRp4445
(dp4446
g73
(dp4447
g100
g101
ssg82
g4436
sg75
(lp4448
S':'
asbag68
(g89
g70
NtRp4449
(dp4450
g73
(dp4451
sg82
g4436
sg75
(lp4452
g68
(g69
g70
NtRp4453
(dp4454
g73
(dp4455
g81
I5
ssg82
g4449
sg75
(lp4456
g1636
asbasbasbag68
(g84
g70
NtRp4457
(dp4458
g73
(dp4459
sg82
g3303
sg75
(lp4460
g68
(g89
g70
NtRp4461
(dp4462
g73
(dp4463
g93
g94
ssg82
g4457
sg75
(lp4464
S'session_new'
p4465
asbag68
(g89
g70
NtRp4466
(dp4467
g73
(dp4468
g100
g101
ssg82
g4457
sg75
(lp4469
S':'
asbag68
(g89
g70
NtRp4470
(dp4471
g73
(dp4472
sg82
g4457
sg75
(lp4473
g68
(g69
g70
NtRp4474
(dp4475
g73
(dp4476
g81
I5
ssg82
g4470
sg75
(lp4477
g111
asbasbasbag68
(g84
g70
NtRp4478
(dp4479
g73
(dp4480
sg82
g3303
sg75
(lp4481
g68
(g89
g70
NtRp4482
(dp4483
g73
(dp4484
g93
g94
ssg82
g4478
sg75
(lp4485
S'status'
p4486
asbag68
(g89
g70
NtRp4487
(dp4488
g73
(dp4489
g100
g101
ssg82
g4478
sg75
(lp4490
S':'
asbag68
(g89
g70
NtRp4491
(dp4492
g73
(dp4493
sg82
g4478
sg75
(lp4494
g68
(g69
g70
NtRp4495
(dp4496
g73
(dp4497
g81
I5
ssg82
g4491
sg75
(lp4498
S'200'
p4499
asbasbasbag68
(g84
g70
NtRp4500
(dp4501
g73
(dp4502
sg82
g3303
sg75
(lp4503
g68
(g89
g70
NtRp4504
(dp4505
g73
(dp4506
g93
g94
ssg82
g4500
sg75
(lp4507
S'subtitle'
p4508
asbag68
(g89
g70
NtRp4509
(dp4510
g73
(dp4511
g100
g101
ssg82
g4500
sg75
(lp4512
S':'
asbag68
(g89
g70
NtRp4513
(dp4514
g73
(dp4515
sg82
g4500
sg75
(lp4516
g68
(g69
g70
NtRp4517
(dp4518
g73
(dp4519
g81
I5
ssg82
g4513
sg75
(lp4520
g3808
(S's\x12\x00\x00\x00Stream Log Client!'
tRp4521
asbasbasbag68
(g84
g70
NtRp4522
(dp4523
g73
(dp4524
sg82
g3303
sg75
(lp4525
g68
(g89
g70
NtRp4526
(dp4527
g73
(dp4528
g93
g94
ssg82
g4522
sg75
(lp4529
S'title'
p4530
asbag68
(g89
g70
NtRp4531
(dp4532
g73
(dp4533
g100
g101
ssg82
g4522
sg75
(lp4534
S':'
asbag68
(g89
g70
NtRp4535
(dp4536
g73
(dp4537
sg82
g4522
sg75
(lp4538
g68
(g69
g70
NtRp4539
(dp4540
g73
(dp4541
g81
I5
ssg82
g4535
sg75
(lp4542
g133
asbasbasbag68
(g84
g70
NtRp4543
(dp4544
g73
(dp4545
sg82
g3303
sg75
(lp4546
g68
(g89
g70
NtRp4547
(dp4548
g73
(dp4549
g93
g94
ssg82
g4543
sg75
(lp4550
g2301
asbag68
(g89
g70
NtRp4551
(dp4552
g73
(dp4553
g100
g101
ssg82
g4543
sg75
(lp4554
S':'
asbag68
(g89
g70
NtRp4555
(dp4556
g73
(dp4557
sg82
g4543
sg75
(lp4558
g68
(g69
g70
NtRp4559
(dp4560
g73
(dp4561
g81
I5
ssg82
g4555
sg75
(lp4562
g2314
asbasbasbag68
(g84
g70
NtRp4563
(dp4564
g73
(dp4565
sg82
g3303
sg75
(lp4566
g68
(g89
g70
NtRp4567
(dp4568
g73
(dp4569
g93
g94
ssg82
g4563
sg75
(lp4570
S'view'
p4571
asbag68
(g89
g70
NtRp4572
(dp4573
g73
(dp4574
g100
g101
ssg82
g4563
sg75
(lp4575
S':'
asbag68
(g89
g70
NtRp4576
(dp4577
g73
(dp4578
sg82
g4563
sg75
(lp4579
g68
(g69
g70
NtRp4580
(dp4581
g73
(dp4582
g81
I5
ssg82
g4576
sg75
(lp4583
S'default/getConnectionData.html'
p4584
asbasbasbasbasbsS'locals'
p4585
(dp4586
g3
S"'/home/jose/DESARROLLO/web2py199/applications/streamlog/controllers/default.py'"
p4587
sg5
S"'# -*- coding: utf-8 -*-\\n# this file is released ...sponse._vars=response._caller(getConnectionData)\\n'"
p4588
sssS'traceback'
p4589
S'Traceback (most recent call last):\n  File "/home/jose/DESARROLLO/web2py199/gluon/restricted.py", line 193, in restricted\n    ccode = compile2(code,layer)\n  File "/home/jose/DESARROLLO/web2py199/gluon/restricted.py", line 179, in compile2\n    return compile(code.rstrip().replace(\'\\r\\n\',\'\\n\')+\'\\n\', layer, \'exec\')\n  File "/home/jose/DESARROLLO/web2py199/applications/streamlog/controllers/default.py", line 26\n    return ([\'bar\': (\'baz\', None, 1.0, 2)])\n                  ^\nSyntaxError: invalid syntax\n'
p4590
s.