(dp1
S'output'
p2
S''
sS'layer'
p3
S'/home/jose/DESARROLLO/web2py199/applications/streamlog/controllers/default.py'
p4
sS'code'
p5
S'# -*- coding: utf-8 -*-\n# this file is released under public domain and you can use without limitations\n\n#########################################################################\n## This is a samples controller\n## - index is the default action of any application\n## - user is required for authentication and authorization\n## - download is for downloading files uploaded in the db (does streaming)\n## - call exposes all registered services (none by default)\n#########################################################################\n\n\n\ndef index():\n    """\n    example action using the internationalization operator T and flash\n    rendered by views/default/index.html or views/generic.html\n    """\n    db.t_log.id.readable=False\n    db.t_log.server.readable=False\n    \n    db.t_log.type_log.readable=False\n    links = [lambda row:  INPUT(_type=\'button\',_value=\'START STREAM\', _onclick=\'createStream(\'+str(row.id)+\')\')]\n    form=SQLFORM.grid(db.t_log, selectable=False, csv=False,create=False, deletable=False, editable=False, links=links, user_signature=False)\n    return dict(message=T(\'Hello World2\'), form=form)\n\n\ndef getConnectionData():\n    \n    id_log=request.args[0]\n    ip=\'\'\n    port=\'\'\n    name_log=\'\'\n    \n    data_connection=db((db.t_log.id==id_log)&(db.t_log.server==db.t_server.id)).select(db.t_log.name,db.t_server.IP,db.t_server.port)\n  \n    for row in data_connection:\n        ip=row.t_server.IP\n        port=row.t_server.port\n        name_log=row.t_log.name\n        \n    \n    regex=db((db.t_log.id==id_log)&(db.t_log.type_log==db.t_type_log.id)).select(db.t_type_log.regex_code)\n    \n    regex_doce\n    for row in regex:\n        regex_code=row.t_type_log.regex_code\n    \n    return response.json([{\'name_log\': name_log,\'IP\': ip,\'port\': port,\'regex\': regex_code}])\n\ndef choose_log():\n    """\n    example action using the internationalization operator T and flash\n    rendered by views/default/index.html or views/generic.html\n    """\n    \n    \n    return dict(message="log")\n\n\ndef getTypeTable():\n    """\n    example action using the internationalization operator T and flash\n    rendered by views/default/index.html or views/generic.html\n    """\n    table=\'\'\n    id_log=request.args[0]\n    type_table=db((db.t_log.id==id_log)&(db.t_log.type_log==db.t_type_log.id)).select(db.t_type_log.html_table)\n    for row in type_table:\n        table=row.html_table\n        \n    \'\'\'\n    table=\'<table cellpadding="0" cellspacing="0" border="0" class="display" id="tablelog"> \\\n    <thead> \\\n        <tr> \\\n            <th>IP</th> \\\n            <th>hyphen</th> \\\n            <th>userid</th> \\\n            <th>Time Request</th> \\\n        <th>Request Time</th> \\\n        <th>Status Code</th> \\\n        <th>Size Object</th> \\\n        </tr>\\\n    </thead> \\\n    <tfoot> \\\n        <tr> \\\n            <th>IP</th> \\\n            <th>hyphen</th> \\\n            <th>userid</th>\\\n            <th>Time Request</th> \\\n        <th>Request Time</th> \\\n        <th>Status Code</th> \\\n        <th>Size Object</th> \\\n        </tr>  \\\n    </tfoot>  \\\n        <tbody> \\\n        </tbody> \\\n    </table>\'\n    \'\'\'\n    \n    return table\n\n\ndef user():\n    """\n    exposes:\n    http://..../[app]/default/user/login\n    http://..../[app]/default/user/logout\n    http://..../[app]/default/user/register\n    http://..../[app]/default/user/profile\n    http://..../[app]/default/user/retrieve_password\n    http://..../[app]/default/user/change_password\n    use @auth.requires_login()\n        @auth.requires_membership(\'group name\')\n        @auth.requires_permission(\'read\',\'table name\',record_id)\n    to decorate functions that need access control\n    """\n    return dict(form=auth())\n\ndef error():\n    return dict()\n\n\ndef project_manage():\n    \n    form = SQLFORM.smartgrid(db.t_project)\n    return locals()\n\n\n\ndef server_manage():\n\n    form=SQLFORM.grid(db.t_server)\n    return locals()\n\ndef log_manage():\n \n    #form = SQLFORM.smartgrid(db.t_log,constraints=dict(t_log=query), selectable=True,searchable=False, csv=False,showbuttontext=True,onupdate=auth.archive)\n    #form = SQLFORM.smartgrid(db.t_log)\n    form=SQLFORM.grid(db.t_log)\n    return locals()\n\ndef type_log_manage():\n\n    form=SQLFORM.grid(db.t_type_log)\n    return locals()\n\ndef download():\n    """\n    allows downloading of uploaded files\n    http://..../[app]/default/download/[filename]\n    """\n    return response.download(request,db)\n\n\ndef call():\n    """\n    exposes services. for example:\n    http://..../[app]/default/call/jsonrpc\n    decorate with @services.jsonrpc the functions to expose\n    supports xml, json, xmlrpc, jsonrpc, amfrpc, rss, csv\n    """\n    return service()\n\n\n@auth.requires_signature()\ndef data():\n    """\n    http://..../[app]/default/data/tables\n    http://..../[app]/default/data/create/[table]\n    http://..../[app]/default/data/read/[table]/[id]\n    http://..../[app]/default/data/update/[table]/[id]\n    http://..../[app]/default/data/delete/[table]/[id]\n    http://..../[app]/default/data/select/[table]\n    http://..../[app]/default/data/search/[table]\n    but URLs bust be signed, i.e. linked with\n      A(\'table\',_href=URL(\'data/tables\',user_signature=True))\n    or with the signed load operator\n      LOAD(\'default\',\'data.load\',args=\'tables\',ajax=True,user_signature=True)\n    """\n    return dict(form=crud())\n\nresponse._vars=response._caller(getConnectionData)\n'
p6
sS'snapshot'
p7
(dp8
S'exception'
p9
(dp10
S'__hash__'
p11
S"<method-wrapper '__hash__' of exceptions.NameError object>"
p12
sS'__setattr__'
p13
S"<method-wrapper '__setattr__' of exceptions.NameError object>"
p14
sS'__reduce_ex__'
p15
S'<built-in method __reduce_ex__ of exceptions.NameError object>'
p16
sS'__getslice__'
p17
S"<method-wrapper '__getslice__' of exceptions.NameError object>"
p18
sS'__getitem__'
p19
S"<method-wrapper '__getitem__' of exceptions.NameError object>"
p20
sS'__setstate__'
p21
S'<built-in method __setstate__ of exceptions.NameError object>'
p22
sS'args'
p23
S'("global name \'regex_doce\' is not defined",)'
p24
sS'__reduce__'
p25
S'<built-in method __reduce__ of exceptions.NameError object>'
p26
sS'__str__'
p27
S"<method-wrapper '__str__' of exceptions.NameError object>"
p28
sS'__format__'
p29
S'<built-in method __format__ of exceptions.NameError object>'
p30
sS'__getattribute__'
p31
S"<method-wrapper '__getattribute__' of exceptions.NameError object>"
p32
sS'__class__'
p33
S"<type 'exceptions.NameError'>"
p34
sS'__unicode__'
p35
S'<built-in method __unicode__ of exceptions.NameError object>'
p36
sS'__delattr__'
p37
S"<method-wrapper '__delattr__' of exceptions.NameError object>"
p38
sS'__subclasshook__'
p39
S'<built-in method __subclasshook__ of type object>'
p40
sS'__repr__'
p41
S"<method-wrapper '__repr__' of exceptions.NameError object>"
p42
sS'__dict__'
p43
S'{}'
p44
sS'__sizeof__'
p45
S'<built-in method __sizeof__ of exceptions.NameError object>'
p46
sS'__doc__'
p47
S"'Name not found globally.'"
p48
sS'__init__'
p49
S"<method-wrapper '__init__' of exceptions.NameError object>"
p50
sS'__new__'
p51
S'<built-in method __new__ of type object>'
p52
ssS'evalue'
p53
S"global name 'regex_doce' is not defined"
p54
sS'request'
p55
ccopy_reg
_reconstructor
p56
(cgluon.html
BEAUTIFY
p57
c__builtin__
object
p58
NtRp59
(dp60
S'attributes'
p61
(dp62
sS'components'
p63
(lp64
g56
(cgluon.html
TABLE
p65
g58
NtRp66
(dp67
g61
(dp68
S'level'
p69
I5
ssS'parent'
p70
Nsg63
(lp71
g56
(cgluon.html
TR
p72
g58
NtRp73
(dp74
g61
(dp75
sg70
g66
sg63
(lp76
g56
(cgluon.html
TD
p77
g58
NtRp78
(dp79
g61
(dp80
S'_style'
p81
S'font-weight:bold;'
p82
ssg70
g73
sg63
(lp83
S'ajax'
p84
asbag56
(g77
g58
NtRp85
(dp86
g61
(dp87
S'_valign'
p88
S'top'
p89
ssg70
g73
sg63
(lp90
S':'
asbag56
(g77
g58
NtRp91
(dp92
g61
(dp93
sg70
g73
sg63
(lp94
g56
(g57
g58
NtRp95
(dp96
g61
(dp97
g69
I5
ssg70
g91
sg63
(lp98
S'False'
p99
asbasbasbag56
(g72
g58
NtRp100
(dp101
g61
(dp102
sg70
g66
sg63
(lp103
g56
(g77
g58
NtRp104
(dp105
g61
(dp106
g81
g82
ssg70
g100
sg63
(lp107
S'application'
p108
asbag56
(g77
g58
NtRp109
(dp110
g61
(dp111
g88
g89
ssg70
g100
sg63
(lp112
S':'
asbag56
(g77
g58
NtRp113
(dp114
g61
(dp115
sg70
g100
sg63
(lp116
g56
(g57
g58
NtRp117
(dp118
g61
(dp119
g69
I5
ssg70
g113
sg63
(lp120
S'streamlog'
p121
asbasbasbag56
(g72
g58
NtRp122
(dp123
g61
(dp124
sg70
g66
sg63
(lp125
g56
(g77
g58
NtRp126
(dp127
g61
(dp128
g81
g82
ssg70
g122
sg63
(lp129
g23
asbag56
(g77
g58
NtRp130
(dp131
g61
(dp132
g88
g89
ssg70
g122
sg63
(lp133
S':'
asbag56
(g77
g58
NtRp134
(dp135
g61
(dp136
sg70
g122
sg63
(lp137
g56
(g57
g58
NtRp138
(dp139
g61
(dp140
g69
I5
ssg70
g134
sg63
(lp141
g56
(g65
g58
NtRp142
(dp143
g61
(dp144
g69
I4
ssg70
Nsg63
(lp145
g56
(g72
g58
NtRp146
(dp147
g61
(dp148
sg70
g142
sg63
(lp149
g56
(g77
g58
NtRp150
(dp151
g61
(dp152
sg70
g146
sg63
(lp153
g56
(g57
g58
NtRp154
(dp155
g61
(dp156
g69
I4
ssg70
g150
sg63
(lp157
S'1'
asbasbasbasbasbasbasbag56
(g72
g58
NtRp158
(dp159
g61
(dp160
sg70
g66
sg63
(lp161
g56
(g77
g58
NtRp162
(dp163
g61
(dp164
g81
g82
ssg70
g158
sg63
(lp165
S'body'
p166
asbag56
(g77
g58
NtRp167
(dp168
g61
(dp169
g88
g89
ssg70
g158
sg63
(lp170
S':'
asbag56
(g77
g58
NtRp171
(dp172
g61
(dp173
sg70
g158
sg63
(lp174
g56
(g57
g58
NtRp175
(dp176
g61
(dp177
g69
I5
ssg70
g171
sg63
(lp178
S'<cStringIO.StringO object at 0x2d68960>'
p179
asbasbasbag56
(g72
g58
NtRp180
(dp181
g61
(dp182
sg70
g66
sg63
(lp183
g56
(g77
g58
NtRp184
(dp185
g61
(dp186
g81
g82
ssg70
g180
sg63
(lp187
S'client'
p188
asbag56
(g77
g58
NtRp189
(dp190
g61
(dp191
g88
g89
ssg70
g180
sg63
(lp192
S':'
asbag56
(g77
g58
NtRp193
(dp194
g61
(dp195
sg70
g180
sg63
(lp196
g56
(g57
g58
NtRp197
(dp198
g61
(dp199
g69
I5
ssg70
g193
sg63
(lp200
S'127.0.0.1'
p201
asbasbasbag56
(g72
g58
NtRp202
(dp203
g61
(dp204
sg70
g66
sg63
(lp205
g56
(g77
g58
NtRp206
(dp207
g61
(dp208
g81
g82
ssg70
g202
sg63
(lp209
S'controller'
p210
asbag56
(g77
g58
NtRp211
(dp212
g61
(dp213
g88
g89
ssg70
g202
sg63
(lp214
S':'
asbag56
(g77
g58
NtRp215
(dp216
g61
(dp217
sg70
g202
sg63
(lp218
g56
(g57
g58
NtRp219
(dp220
g61
(dp221
g69
I5
ssg70
g215
sg63
(lp222
S'default'
p223
asbasbasbag56
(g72
g58
NtRp224
(dp225
g61
(dp226
sg70
g66
sg63
(lp227
g56
(g77
g58
NtRp228
(dp229
g61
(dp230
g81
g82
ssg70
g224
sg63
(lp231
S'cookies'
p232
asbag56
(g77
g58
NtRp233
(dp234
g61
(dp235
g88
g89
ssg70
g224
sg63
(lp236
S':'
asbag56
(g77
g58
NtRp237
(dp238
g61
(dp239
sg70
g224
sg63
(lp240
g56
(g57
g58
NtRp241
(dp242
g61
(dp243
g69
I5
ssg70
g237
sg63
(lp244
g56
(g65
g58
NtRp245
(dp246
g61
(dp247
g69
I4
ssg70
Nsg63
(lp248
g56
(g72
g58
NtRp249
(dp250
g61
(dp251
sg70
g245
sg63
(lp252
g56
(g77
g58
NtRp253
(dp254
g61
(dp255
g81
g82
ssg70
g249
sg63
(lp256
S'session_id_admin'
p257
asbag56
(g77
g58
NtRp258
(dp259
g61
(dp260
g88
g89
ssg70
g249
sg63
(lp261
S':'
asbag56
(g77
g58
NtRp262
(dp263
g61
(dp264
sg70
g249
sg63
(lp265
g56
(g57
g58
NtRp266
(dp267
g61
(dp268
g69
I4
ssg70
g262
sg63
(lp269
g56
(g65
g58
NtRp270
(dp271
g61
(dp272
g69
I3
ssg70
Nsg63
(lp273
g56
(g72
g58
NtRp274
(dp275
g61
(dp276
sg70
g270
sg63
(lp277
g56
(g77
g58
NtRp278
(dp279
g61
(dp280
g81
g82
ssg70
g274
sg63
(lp281
S'comment'
p282
asbag56
(g77
g58
NtRp283
(dp284
g61
(dp285
g88
g89
ssg70
g274
sg63
(lp286
S':'
asbag56
(g77
g58
NtRp287
(dp288
g61
(dp289
sg70
g274
sg63
(lp290
g56
(g57
g58
NtRp291
(dp292
g61
(dp293
g69
I3
ssg70
g287
sg63
(lp294
S''
asbasbasbag56
(g72
g58
NtRp295
(dp296
g61
(dp297
sg70
g270
sg63
(lp298
g56
(g77
g58
NtRp299
(dp300
g61
(dp301
g81
g82
ssg70
g295
sg63
(lp302
S'domain'
p303
asbag56
(g77
g58
NtRp304
(dp305
g61
(dp306
g88
g89
ssg70
g295
sg63
(lp307
S':'
asbag56
(g77
g58
NtRp308
(dp309
g61
(dp310
sg70
g295
sg63
(lp311
g56
(g57
g58
NtRp312
(dp313
g61
(dp314
g69
I3
ssg70
g308
sg63
(lp315
S''
asbasbasbag56
(g72
g58
NtRp316
(dp317
g61
(dp318
sg70
g270
sg63
(lp319
g56
(g77
g58
NtRp320
(dp321
g61
(dp322
g81
g82
ssg70
g316
sg63
(lp323
S'expires'
p324
asbag56
(g77
g58
NtRp325
(dp326
g61
(dp327
g88
g89
ssg70
g316
sg63
(lp328
S':'
asbag56
(g77
g58
NtRp329
(dp330
g61
(dp331
sg70
g316
sg63
(lp332
g56
(g57
g58
NtRp333
(dp334
g61
(dp335
g69
I3
ssg70
g329
sg63
(lp336
S''
asbasbasbag56
(g72
g58
NtRp337
(dp338
g61
(dp339
sg70
g270
sg63
(lp340
g56
(g77
g58
NtRp341
(dp342
g61
(dp343
g81
g82
ssg70
g337
sg63
(lp344
S'httponly'
p345
asbag56
(g77
g58
NtRp346
(dp347
g61
(dp348
g88
g89
ssg70
g337
sg63
(lp349
S':'
asbag56
(g77
g58
NtRp350
(dp351
g61
(dp352
sg70
g337
sg63
(lp353
g56
(g57
g58
NtRp354
(dp355
g61
(dp356
g69
I3
ssg70
g350
sg63
(lp357
S''
asbasbasbag56
(g72
g58
NtRp358
(dp359
g61
(dp360
sg70
g270
sg63
(lp361
g56
(g77
g58
NtRp362
(dp363
g61
(dp364
g81
g82
ssg70
g358
sg63
(lp365
S'max-age'
p366
asbag56
(g77
g58
NtRp367
(dp368
g61
(dp369
g88
g89
ssg70
g358
sg63
(lp370
S':'
asbag56
(g77
g58
NtRp371
(dp372
g61
(dp373
sg70
g358
sg63
(lp374
g56
(g57
g58
NtRp375
(dp376
g61
(dp377
g69
I3
ssg70
g371
sg63
(lp378
S''
asbasbasbag56
(g72
g58
NtRp379
(dp380
g61
(dp381
sg70
g270
sg63
(lp382
g56
(g77
g58
NtRp383
(dp384
g61
(dp385
g81
g82
ssg70
g379
sg63
(lp386
S'path'
p387
asbag56
(g77
g58
NtRp388
(dp389
g61
(dp390
g88
g89
ssg70
g379
sg63
(lp391
S':'
asbag56
(g77
g58
NtRp392
(dp393
g61
(dp394
sg70
g379
sg63
(lp395
g56
(g57
g58
NtRp396
(dp397
g61
(dp398
g69
I3
ssg70
g392
sg63
(lp399
S''
asbasbasbag56
(g72
g58
NtRp400
(dp401
g61
(dp402
sg70
g270
sg63
(lp403
g56
(g77
g58
NtRp404
(dp405
g61
(dp406
g81
g82
ssg70
g400
sg63
(lp407
S'secure'
p408
asbag56
(g77
g58
NtRp409
(dp410
g61
(dp411
g88
g89
ssg70
g400
sg63
(lp412
S':'
asbag56
(g77
g58
NtRp413
(dp414
g61
(dp415
sg70
g400
sg63
(lp416
g56
(g57
g58
NtRp417
(dp418
g61
(dp419
g69
I3
ssg70
g413
sg63
(lp420
S''
asbasbasbag56
(g72
g58
NtRp421
(dp422
g61
(dp423
sg70
g270
sg63
(lp424
g56
(g77
g58
NtRp425
(dp426
g61
(dp427
g81
g82
ssg70
g421
sg63
(lp428
S'version'
p429
asbag56
(g77
g58
NtRp430
(dp431
g61
(dp432
g88
g89
ssg70
g421
sg63
(lp433
S':'
asbag56
(g77
g58
NtRp434
(dp435
g61
(dp436
sg70
g421
sg63
(lp437
g56
(g57
g58
NtRp438
(dp439
g61
(dp440
g69
I3
ssg70
g434
sg63
(lp441
S''
asbasbasbasbasbasbasbag56
(g72
g58
NtRp442
(dp443
g61
(dp444
sg70
g245
sg63
(lp445
g56
(g77
g58
NtRp446
(dp447
g61
(dp448
g81
g82
ssg70
g442
sg63
(lp449
S'session_id_streamlog'
p450
asbag56
(g77
g58
NtRp451
(dp452
g61
(dp453
g88
g89
ssg70
g442
sg63
(lp454
S':'
asbag56
(g77
g58
NtRp455
(dp456
g61
(dp457
sg70
g442
sg63
(lp458
g56
(g57
g58
NtRp459
(dp460
g61
(dp461
g69
I4
ssg70
g455
sg63
(lp462
g56
(g65
g58
NtRp463
(dp464
g61
(dp465
g69
I3
ssg70
Nsg63
(lp466
g56
(g72
g58
NtRp467
(dp468
g61
(dp469
sg70
g463
sg63
(lp470
g56
(g77
g58
NtRp471
(dp472
g61
(dp473
g81
g82
ssg70
g467
sg63
(lp474
g282
asbag56
(g77
g58
NtRp475
(dp476
g61
(dp477
g88
g89
ssg70
g467
sg63
(lp478
S':'
asbag56
(g77
g58
NtRp479
(dp480
g61
(dp481
sg70
g467
sg63
(lp482
g56
(g57
g58
NtRp483
(dp484
g61
(dp485
g69
I3
ssg70
g479
sg63
(lp486
S''
asbasbasbag56
(g72
g58
NtRp487
(dp488
g61
(dp489
sg70
g463
sg63
(lp490
g56
(g77
g58
NtRp491
(dp492
g61
(dp493
g81
g82
ssg70
g487
sg63
(lp494
g303
asbag56
(g77
g58
NtRp495
(dp496
g61
(dp497
g88
g89
ssg70
g487
sg63
(lp498
S':'
asbag56
(g77
g58
NtRp499
(dp500
g61
(dp501
sg70
g487
sg63
(lp502
g56
(g57
g58
NtRp503
(dp504
g61
(dp505
g69
I3
ssg70
g499
sg63
(lp506
S''
asbasbasbag56
(g72
g58
NtRp507
(dp508
g61
(dp509
sg70
g463
sg63
(lp510
g56
(g77
g58
NtRp511
(dp512
g61
(dp513
g81
g82
ssg70
g507
sg63
(lp514
g324
asbag56
(g77
g58
NtRp515
(dp516
g61
(dp517
g88
g89
ssg70
g507
sg63
(lp518
S':'
asbag56
(g77
g58
NtRp519
(dp520
g61
(dp521
sg70
g507
sg63
(lp522
g56
(g57
g58
NtRp523
(dp524
g61
(dp525
g69
I3
ssg70
g519
sg63
(lp526
S''
asbasbasbag56
(g72
g58
NtRp527
(dp528
g61
(dp529
sg70
g463
sg63
(lp530
g56
(g77
g58
NtRp531
(dp532
g61
(dp533
g81
g82
ssg70
g527
sg63
(lp534
g345
asbag56
(g77
g58
NtRp535
(dp536
g61
(dp537
g88
g89
ssg70
g527
sg63
(lp538
S':'
asbag56
(g77
g58
NtRp539
(dp540
g61
(dp541
sg70
g527
sg63
(lp542
g56
(g57
g58
NtRp543
(dp544
g61
(dp545
g69
I3
ssg70
g539
sg63
(lp546
S''
asbasbasbag56
(g72
g58
NtRp547
(dp548
g61
(dp549
sg70
g463
sg63
(lp550
g56
(g77
g58
NtRp551
(dp552
g61
(dp553
g81
g82
ssg70
g547
sg63
(lp554
g366
asbag56
(g77
g58
NtRp555
(dp556
g61
(dp557
g88
g89
ssg70
g547
sg63
(lp558
S':'
asbag56
(g77
g58
NtRp559
(dp560
g61
(dp561
sg70
g547
sg63
(lp562
g56
(g57
g58
NtRp563
(dp564
g61
(dp565
g69
I3
ssg70
g559
sg63
(lp566
S''
asbasbasbag56
(g72
g58
NtRp567
(dp568
g61
(dp569
sg70
g463
sg63
(lp570
g56
(g77
g58
NtRp571
(dp572
g61
(dp573
g81
g82
ssg70
g567
sg63
(lp574
g387
asbag56
(g77
g58
NtRp575
(dp576
g61
(dp577
g88
g89
ssg70
g567
sg63
(lp578
S':'
asbag56
(g77
g58
NtRp579
(dp580
g61
(dp581
sg70
g567
sg63
(lp582
g56
(g57
g58
NtRp583
(dp584
g61
(dp585
g69
I3
ssg70
g579
sg63
(lp586
S''
asbasbasbag56
(g72
g58
NtRp587
(dp588
g61
(dp589
sg70
g463
sg63
(lp590
g56
(g77
g58
NtRp591
(dp592
g61
(dp593
g81
g82
ssg70
g587
sg63
(lp594
g408
asbag56
(g77
g58
NtRp595
(dp596
g61
(dp597
g88
g89
ssg70
g587
sg63
(lp598
S':'
asbag56
(g77
g58
NtRp599
(dp600
g61
(dp601
sg70
g587
sg63
(lp602
g56
(g57
g58
NtRp603
(dp604
g61
(dp605
g69
I3
ssg70
g599
sg63
(lp606
S''
asbasbasbag56
(g72
g58
NtRp607
(dp608
g61
(dp609
sg70
g463
sg63
(lp610
g56
(g77
g58
NtRp611
(dp612
g61
(dp613
g81
g82
ssg70
g607
sg63
(lp614
g429
asbag56
(g77
g58
NtRp615
(dp616
g61
(dp617
g88
g89
ssg70
g607
sg63
(lp618
S':'
asbag56
(g77
g58
NtRp619
(dp620
g61
(dp621
sg70
g607
sg63
(lp622
g56
(g57
g58
NtRp623
(dp624
g61
(dp625
g69
I3
ssg70
g619
sg63
(lp626
S''
asbasbasbasbasbasbasbag56
(g72
g58
NtRp627
(dp628
g61
(dp629
sg70
g245
sg63
(lp630
g56
(g77
g58
NtRp631
(dp632
g61
(dp633
g81
g82
ssg70
g627
sg63
(lp634
S'session_id_test3'
p635
asbag56
(g77
g58
NtRp636
(dp637
g61
(dp638
g88
g89
ssg70
g627
sg63
(lp639
S':'
asbag56
(g77
g58
NtRp640
(dp641
g61
(dp642
sg70
g627
sg63
(lp643
g56
(g57
g58
NtRp644
(dp645
g61
(dp646
g69
I4
ssg70
g640
sg63
(lp647
g56
(g65
g58
NtRp648
(dp649
g61
(dp650
g69
I3
ssg70
Nsg63
(lp651
g56
(g72
g58
NtRp652
(dp653
g61
(dp654
sg70
g648
sg63
(lp655
g56
(g77
g58
NtRp656
(dp657
g61
(dp658
g81
g82
ssg70
g652
sg63
(lp659
g282
asbag56
(g77
g58
NtRp660
(dp661
g61
(dp662
g88
g89
ssg70
g652
sg63
(lp663
S':'
asbag56
(g77
g58
NtRp664
(dp665
g61
(dp666
sg70
g652
sg63
(lp667
g56
(g57
g58
NtRp668
(dp669
g61
(dp670
g69
I3
ssg70
g664
sg63
(lp671
S''
asbasbasbag56
(g72
g58
NtRp672
(dp673
g61
(dp674
sg70
g648
sg63
(lp675
g56
(g77
g58
NtRp676
(dp677
g61
(dp678
g81
g82
ssg70
g672
sg63
(lp679
g303
asbag56
(g77
g58
NtRp680
(dp681
g61
(dp682
g88
g89
ssg70
g672
sg63
(lp683
S':'
asbag56
(g77
g58
NtRp684
(dp685
g61
(dp686
sg70
g672
sg63
(lp687
g56
(g57
g58
NtRp688
(dp689
g61
(dp690
g69
I3
ssg70
g684
sg63
(lp691
S''
asbasbasbag56
(g72
g58
NtRp692
(dp693
g61
(dp694
sg70
g648
sg63
(lp695
g56
(g77
g58
NtRp696
(dp697
g61
(dp698
g81
g82
ssg70
g692
sg63
(lp699
g324
asbag56
(g77
g58
NtRp700
(dp701
g61
(dp702
g88
g89
ssg70
g692
sg63
(lp703
S':'
asbag56
(g77
g58
NtRp704
(dp705
g61
(dp706
sg70
g692
sg63
(lp707
g56
(g57
g58
NtRp708
(dp709
g61
(dp710
g69
I3
ssg70
g704
sg63
(lp711
S''
asbasbasbag56
(g72
g58
NtRp712
(dp713
g61
(dp714
sg70
g648
sg63
(lp715
g56
(g77
g58
NtRp716
(dp717
g61
(dp718
g81
g82
ssg70
g712
sg63
(lp719
g345
asbag56
(g77
g58
NtRp720
(dp721
g61
(dp722
g88
g89
ssg70
g712
sg63
(lp723
S':'
asbag56
(g77
g58
NtRp724
(dp725
g61
(dp726
sg70
g712
sg63
(lp727
g56
(g57
g58
NtRp728
(dp729
g61
(dp730
g69
I3
ssg70
g724
sg63
(lp731
S''
asbasbasbag56
(g72
g58
NtRp732
(dp733
g61
(dp734
sg70
g648
sg63
(lp735
g56
(g77
g58
NtRp736
(dp737
g61
(dp738
g81
g82
ssg70
g732
sg63
(lp739
g366
asbag56
(g77
g58
NtRp740
(dp741
g61
(dp742
g88
g89
ssg70
g732
sg63
(lp743
S':'
asbag56
(g77
g58
NtRp744
(dp745
g61
(dp746
sg70
g732
sg63
(lp747
g56
(g57
g58
NtRp748
(dp749
g61
(dp750
g69
I3
ssg70
g744
sg63
(lp751
S''
asbasbasbag56
(g72
g58
NtRp752
(dp753
g61
(dp754
sg70
g648
sg63
(lp755
g56
(g77
g58
NtRp756
(dp757
g61
(dp758
g81
g82
ssg70
g752
sg63
(lp759
g387
asbag56
(g77
g58
NtRp760
(dp761
g61
(dp762
g88
g89
ssg70
g752
sg63
(lp763
S':'
asbag56
(g77
g58
NtRp764
(dp765
g61
(dp766
sg70
g752
sg63
(lp767
g56
(g57
g58
NtRp768
(dp769
g61
(dp770
g69
I3
ssg70
g764
sg63
(lp771
S''
asbasbasbag56
(g72
g58
NtRp772
(dp773
g61
(dp774
sg70
g648
sg63
(lp775
g56
(g77
g58
NtRp776
(dp777
g61
(dp778
g81
g82
ssg70
g772
sg63
(lp779
g408
asbag56
(g77
g58
NtRp780
(dp781
g61
(dp782
g88
g89
ssg70
g772
sg63
(lp783
S':'
asbag56
(g77
g58
NtRp784
(dp785
g61
(dp786
sg70
g772
sg63
(lp787
g56
(g57
g58
NtRp788
(dp789
g61
(dp790
g69
I3
ssg70
g784
sg63
(lp791
S''
asbasbasbag56
(g72
g58
NtRp792
(dp793
g61
(dp794
sg70
g648
sg63
(lp795
g56
(g77
g58
NtRp796
(dp797
g61
(dp798
g81
g82
ssg70
g792
sg63
(lp799
g429
asbag56
(g77
g58
NtRp800
(dp801
g61
(dp802
g88
g89
ssg70
g792
sg63
(lp803
S':'
asbag56
(g77
g58
NtRp804
(dp805
g61
(dp806
sg70
g792
sg63
(lp807
g56
(g57
g58
NtRp808
(dp809
g61
(dp810
g69
I3
ssg70
g804
sg63
(lp811
S''
asbasbasbasbasbasbasbasbasbasbasbag56
(g72
g58
NtRp812
(dp813
g61
(dp814
sg70
g66
sg63
(lp815
g56
(g77
g58
NtRp816
(dp817
g61
(dp818
g81
g82
ssg70
g812
sg63
(lp819
S'env'
p820
asbag56
(g77
g58
NtRp821
(dp822
g61
(dp823
g88
g89
ssg70
g812
sg63
(lp824
S':'
asbag56
(g77
g58
NtRp825
(dp826
g61
(dp827
sg70
g812
sg63
(lp828
g56
(g57
g58
NtRp829
(dp830
g61
(dp831
g69
I5
ssg70
g825
sg63
(lp832
g56
(g65
g58
NtRp833
(dp834
g61
(dp835
g69
I4
ssg70
Nsg63
(lp836
g56
(g72
g58
NtRp837
(dp838
g61
(dp839
sg70
g833
sg63
(lp840
g56
(g77
g58
NtRp841
(dp842
g61
(dp843
g81
g82
ssg70
g837
sg63
(lp844
S'app_folders'
p845
asbag56
(g77
g58
NtRp846
(dp847
g61
(dp848
g88
g89
ssg70
g837
sg63
(lp849
S':'
asbag56
(g77
g58
NtRp850
(dp851
g61
(dp852
sg70
g837
sg63
(lp853
g56
(g57
g58
NtRp854
(dp855
g61
(dp856
g69
I4
ssg70
g850
sg63
(lp857
S"set(['/home/jose/DESARROLLO/web2py199/applications/streamlog/'])"
p858
asbasbasbag56
(g72
g58
NtRp859
(dp860
g61
(dp861
sg70
g833
sg63
(lp862
g56
(g77
g58
NtRp863
(dp864
g61
(dp865
g81
g82
ssg70
g859
sg63
(lp866
S'applications_parent'
p867
asbag56
(g77
g58
NtRp868
(dp869
g61
(dp870
g88
g89
ssg70
g859
sg63
(lp871
S':'
asbag56
(g77
g58
NtRp872
(dp873
g61
(dp874
sg70
g859
sg63
(lp875
g56
(g57
g58
NtRp876
(dp877
g61
(dp878
g69
I4
ssg70
g872
sg63
(lp879
S'/home/jose/DESARROLLO/web2py199'
p880
asbasbasbag56
(g72
g58
NtRp881
(dp882
g61
(dp883
sg70
g833
sg63
(lp884
g56
(g77
g58
NtRp885
(dp886
g61
(dp887
g81
g82
ssg70
g881
sg63
(lp888
S'cmd_args'
p889
asbag56
(g77
g58
NtRp890
(dp891
g61
(dp892
g88
g89
ssg70
g881
sg63
(lp893
S':'
asbag56
(g77
g58
NtRp894
(dp895
g61
(dp896
sg70
g881
sg63
(lp897
g56
(g57
g58
NtRp898
(dp899
g61
(dp900
g69
I4
ssg70
g894
sg63
(lp901
g56
(g65
g58
NtRp902
(dp903
g61
(dp904
g69
I3
ssg70
Nsg63
(lp905
sbasbasbasbag56
(g72
g58
NtRp906
(dp907
g61
(dp908
sg70
g833
sg63
(lp909
g56
(g77
g58
NtRp910
(dp911
g61
(dp912
g81
g82
ssg70
g906
sg63
(lp913
S'cmd_options'
p914
asbag56
(g77
g58
NtRp915
(dp916
g61
(dp917
g88
g89
ssg70
g906
sg63
(lp918
S':'
asbag56
(g77
g58
NtRp919
(dp920
g61
(dp921
sg70
g906
sg63
(lp922
g56
(g57
g58
NtRp923
(dp924
g61
(dp925
g69
I4
ssg70
g919
sg63
(lp926
S"<Values at 0x2a2ff80: {'verbose': False, 'ip': '127.0.0.1', 'shutdown_timeout': 5, 'taskbar': False, 'nocron': False, 'pid_filename': 'httpserver.pid', 'maxthreads': None, 'softcron': False, 'server_name': 'jose', 'bpython': False, 'nogui': False, 'port': 8000, 'extcron': False, 'debuglevel': 30, 'test': None, 'folder': '/home/jose/DESARROLLO/web2py199', 'config': '', 'import_models': False, 'winservice': '', 'shell': None, 'run': '', 'log_filename': 'httpserver.log', 'args': [''], 'ssl_ca_certificate': None, 'scheduler': None, 'profiler_filename': None, 'ssl_private_key': '', 'password': 't', 'request_queue_size': 5, 'ssl_certificate': '', 'cronjob': False, 'plain': False, 'quiet': False, 'interfaces': None, 'minthreads': None, 'timeout': 10, 'numthreads': None, 'nobanner': False}>"
p927
asbasbasbag56
(g72
g58
NtRp928
(dp929
g61
(dp930
sg70
g833
sg63
(lp931
g56
(g77
g58
NtRp932
(dp933
g61
(dp934
g81
g82
ssg70
g928
sg63
(lp935
S'db_sessions'
p936
asbag56
(g77
g58
NtRp937
(dp938
g61
(dp939
g88
g89
ssg70
g928
sg63
(lp940
S':'
asbag56
(g77
g58
NtRp941
(dp942
g61
(dp943
sg70
g928
sg63
(lp944
g56
(g57
g58
NtRp945
(dp946
g61
(dp947
g69
I4
ssg70
g941
sg63
(lp948
S'set([])'
p949
asbasbasbag56
(g72
g58
NtRp950
(dp951
g61
(dp952
sg70
g833
sg63
(lp953
g56
(g77
g58
NtRp954
(dp955
g61
(dp956
g81
g82
ssg70
g950
sg63
(lp957
S'debugging'
p958
asbag56
(g77
g58
NtRp959
(dp960
g61
(dp961
g88
g89
ssg70
g950
sg63
(lp962
S':'
asbag56
(g77
g58
NtRp963
(dp964
g61
(dp965
sg70
g950
sg63
(lp966
g56
(g57
g58
NtRp967
(dp968
g61
(dp969
g69
I4
ssg70
g963
sg63
(lp970
g99
asbasbasbag56
(g72
g58
NtRp971
(dp972
g61
(dp973
sg70
g833
sg63
(lp974
g56
(g77
g58
NtRp975
(dp976
g61
(dp977
g81
g82
ssg70
g971
sg63
(lp978
S'gluon_parent'
p979
asbag56
(g77
g58
NtRp980
(dp981
g61
(dp982
g88
g89
ssg70
g971
sg63
(lp983
S':'
asbag56
(g77
g58
NtRp984
(dp985
g61
(dp986
sg70
g971
sg63
(lp987
g56
(g57
g58
NtRp988
(dp989
g61
(dp990
g69
I4
ssg70
g984
sg63
(lp991
S'/home/jose/DESARROLLO/web2py199'
p992
asbasbasbag56
(g72
g58
NtRp993
(dp994
g61
(dp995
sg70
g833
sg63
(lp996
g56
(g77
g58
NtRp997
(dp998
g61
(dp999
g81
g82
ssg70
g993
sg63
(lp1000
S'http_accept'
p1001
asbag56
(g77
g58
NtRp1002
(dp1003
g61
(dp1004
g88
g89
ssg70
g993
sg63
(lp1005
S':'
asbag56
(g77
g58
NtRp1006
(dp1007
g61
(dp1008
sg70
g993
sg63
(lp1009
g56
(g57
g58
NtRp1010
(dp1011
g61
(dp1012
g69
I4
ssg70
g1006
sg63
(lp1013
S'text/html,application/xhtml+xml,application/xml;q=0.9,*/*;q=0.8'
p1014
asbasbasbag56
(g72
g58
NtRp1015
(dp1016
g61
(dp1017
sg70
g833
sg63
(lp1018
g56
(g77
g58
NtRp1019
(dp1020
g61
(dp1021
g81
g82
ssg70
g1015
sg63
(lp1022
S'http_accept_encoding'
p1023
asbag56
(g77
g58
NtRp1024
(dp1025
g61
(dp1026
g88
g89
ssg70
g1015
sg63
(lp1027
S':'
asbag56
(g77
g58
NtRp1028
(dp1029
g61
(dp1030
sg70
g1015
sg63
(lp1031
g56
(g57
g58
NtRp1032
(dp1033
g61
(dp1034
g69
I4
ssg70
g1028
sg63
(lp1035
S'gzip, deflate'
p1036
asbasbasbag56
(g72
g58
NtRp1037
(dp1038
g61
(dp1039
sg70
g833
sg63
(lp1040
g56
(g77
g58
NtRp1041
(dp1042
g61
(dp1043
g81
g82
ssg70
g1037
sg63
(lp1044
S'http_accept_language'
p1045
asbag56
(g77
g58
NtRp1046
(dp1047
g61
(dp1048
g88
g89
ssg70
g1037
sg63
(lp1049
S':'
asbag56
(g77
g58
NtRp1050
(dp1051
g61
(dp1052
sg70
g1037
sg63
(lp1053
g56
(g57
g58
NtRp1054
(dp1055
g61
(dp1056
g69
I4
ssg70
g1050
sg63
(lp1057
S'en-us,en;q=0.5'
p1058
asbasbasbag56
(g72
g58
NtRp1059
(dp1060
g61
(dp1061
sg70
g833
sg63
(lp1062
g56
(g77
g58
NtRp1063
(dp1064
g61
(dp1065
g81
g82
ssg70
g1059
sg63
(lp1066
S'http_connection'
p1067
asbag56
(g77
g58
NtRp1068
(dp1069
g61
(dp1070
g88
g89
ssg70
g1059
sg63
(lp1071
S':'
asbag56
(g77
g58
NtRp1072
(dp1073
g61
(dp1074
sg70
g1059
sg63
(lp1075
g56
(g57
g58
NtRp1076
(dp1077
g61
(dp1078
g69
I4
ssg70
g1072
sg63
(lp1079
S'keep-alive'
p1080
asbasbasbag56
(g72
g58
NtRp1081
(dp1082
g61
(dp1083
sg70
g833
sg63
(lp1084
g56
(g77
g58
NtRp1085
(dp1086
g61
(dp1087
g81
g82
ssg70
g1081
sg63
(lp1088
S'http_cookie'
p1089
asbag56
(g77
g58
NtRp1090
(dp1091
g61
(dp1092
g88
g89
ssg70
g1081
sg63
(lp1093
S':'
asbag56
(g77
g58
NtRp1094
(dp1095
g61
(dp1096
sg70
g1081
sg63
(lp1097
g56
(g57
g58
NtRp1098
(dp1099
g61
(dp1100
g69
I4
ssg70
g1094
sg63
(lp1101
S'session_id_test3=127.0.0.1-380e7b29-b635-4690-b9ca-812870d6a061; session_id_admin=127.0.0.1-8f69464e-4a83-4875-ad25-00cf5c7e8e11; session_id_streamlog=127.0.0.1-610b0c7d-3f6f-4500-a76a-b095fb30f7fd'
p1102
asbasbasbag56
(g72
g58
NtRp1103
(dp1104
g61
(dp1105
sg70
g833
sg63
(lp1106
g56
(g77
g58
NtRp1107
(dp1108
g61
(dp1109
g81
g82
ssg70
g1103
sg63
(lp1110
S'http_host'
p1111
asbag56
(g77
g58
NtRp1112
(dp1113
g61
(dp1114
g88
g89
ssg70
g1103
sg63
(lp1115
S':'
asbag56
(g77
g58
NtRp1116
(dp1117
g61
(dp1118
sg70
g1103
sg63
(lp1119
g56
(g57
g58
NtRp1120
(dp1121
g61
(dp1122
g69
I4
ssg70
g1116
sg63
(lp1123
S'localhost:8000'
p1124
asbasbasbag56
(g72
g58
NtRp1125
(dp1126
g61
(dp1127
sg70
g833
sg63
(lp1128
g56
(g77
g58
NtRp1129
(dp1130
g61
(dp1131
g81
g82
ssg70
g1125
sg63
(lp1132
S'http_user_agent'
p1133
asbag56
(g77
g58
NtRp1134
(dp1135
g61
(dp1136
g88
g89
ssg70
g1125
sg63
(lp1137
S':'
asbag56
(g77
g58
NtRp1138
(dp1139
g61
(dp1140
sg70
g1125
sg63
(lp1141
g56
(g57
g58
NtRp1142
(dp1143
g61
(dp1144
g69
I4
ssg70
g1138
sg63
(lp1145
S'Mozilla/5.0 (X11; Ubuntu; Linux x86_64; rv:12.0) Gecko/20100101 Firefox/12.0'
p1146
asbasbasbag56
(g72
g58
NtRp1147
(dp1148
g61
(dp1149
sg70
g833
sg63
(lp1150
g56
(g77
g58
NtRp1151
(dp1152
g61
(dp1153
g81
g82
ssg70
g1147
sg63
(lp1154
S'is_jython'
p1155
asbag56
(g77
g58
NtRp1156
(dp1157
g61
(dp1158
g88
g89
ssg70
g1147
sg63
(lp1159
S':'
asbag56
(g77
g58
NtRp1160
(dp1161
g61
(dp1162
sg70
g1147
sg63
(lp1163
g56
(g57
g58
NtRp1164
(dp1165
g61
(dp1166
g69
I4
ssg70
g1160
sg63
(lp1167
g99
asbasbasbag56
(g72
g58
NtRp1168
(dp1169
g61
(dp1170
sg70
g833
sg63
(lp1171
g56
(g77
g58
NtRp1172
(dp1173
g61
(dp1174
g81
g82
ssg70
g1168
sg63
(lp1175
S'path_info'
p1176
asbag56
(g77
g58
NtRp1177
(dp1178
g61
(dp1179
g88
g89
ssg70
g1168
sg63
(lp1180
S':'
asbag56
(g77
g58
NtRp1181
(dp1182
g61
(dp1183
sg70
g1168
sg63
(lp1184
g56
(g57
g58
NtRp1185
(dp1186
g61
(dp1187
g69
I4
ssg70
g1181
sg63
(lp1188
S'/streamlog/default/getConnectionData/1'
p1189
asbasbasbag56
(g72
g58
NtRp1190
(dp1191
g61
(dp1192
sg70
g833
sg63
(lp1193
g56
(g77
g58
NtRp1194
(dp1195
g61
(dp1196
g81
g82
ssg70
g1190
sg63
(lp1197
S'query_string'
p1198
asbag56
(g77
g58
NtRp1199
(dp1200
g61
(dp1201
g88
g89
ssg70
g1190
sg63
(lp1202
S':'
asbag56
(g77
g58
NtRp1203
(dp1204
g61
(dp1205
sg70
g1190
sg63
(lp1206
g56
(g57
g58
NtRp1207
(dp1208
g61
(dp1209
g69
I4
ssg70
g1203
sg63
(lp1210
S''
asbasbasbag56
(g72
g58
NtRp1211
(dp1212
g61
(dp1213
sg70
g833
sg63
(lp1214
g56
(g77
g58
NtRp1215
(dp1216
g61
(dp1217
g81
g82
ssg70
g1211
sg63
(lp1218
S'remote_addr'
p1219
asbag56
(g77
g58
NtRp1220
(dp1221
g61
(dp1222
g88
g89
ssg70
g1211
sg63
(lp1223
S':'
asbag56
(g77
g58
NtRp1224
(dp1225
g61
(dp1226
sg70
g1211
sg63
(lp1227
g56
(g57
g58
NtRp1228
(dp1229
g61
(dp1230
g69
I4
ssg70
g1224
sg63
(lp1231
g201
asbasbasbag56
(g72
g58
NtRp1232
(dp1233
g61
(dp1234
sg70
g833
sg63
(lp1235
g56
(g77
g58
NtRp1236
(dp1237
g61
(dp1238
g81
g82
ssg70
g1232
sg63
(lp1239
S'remote_port'
p1240
asbag56
(g77
g58
NtRp1241
(dp1242
g61
(dp1243
g88
g89
ssg70
g1232
sg63
(lp1244
S':'
asbag56
(g77
g58
NtRp1245
(dp1246
g61
(dp1247
sg70
g1232
sg63
(lp1248
g56
(g57
g58
NtRp1249
(dp1250
g61
(dp1251
g69
I4
ssg70
g1245
sg63
(lp1252
S'38870'
p1253
asbasbasbag56
(g72
g58
NtRp1254
(dp1255
g61
(dp1256
sg70
g833
sg63
(lp1257
g56
(g77
g58
NtRp1258
(dp1259
g61
(dp1260
g81
g82
ssg70
g1254
sg63
(lp1261
S'request_method'
p1262
asbag56
(g77
g58
NtRp1263
(dp1264
g61
(dp1265
g88
g89
ssg70
g1254
sg63
(lp1266
S':'
asbag56
(g77
g58
NtRp1267
(dp1268
g61
(dp1269
sg70
g1254
sg63
(lp1270
g56
(g57
g58
NtRp1271
(dp1272
g61
(dp1273
g69
I4
ssg70
g1267
sg63
(lp1274
S'GET'
p1275
asbasbasbag56
(g72
g58
NtRp1276
(dp1277
g61
(dp1278
sg70
g833
sg63
(lp1279
g56
(g77
g58
NtRp1280
(dp1281
g61
(dp1282
g81
g82
ssg70
g1276
sg63
(lp1283
S'script_name'
p1284
asbag56
(g77
g58
NtRp1285
(dp1286
g61
(dp1287
g88
g89
ssg70
g1276
sg63
(lp1288
S':'
asbag56
(g77
g58
NtRp1289
(dp1290
g61
(dp1291
sg70
g1276
sg63
(lp1292
g56
(g57
g58
NtRp1293
(dp1294
g61
(dp1295
g69
I4
ssg70
g1289
sg63
(lp1296
S''
asbasbasbag56
(g72
g58
NtRp1297
(dp1298
g61
(dp1299
sg70
g833
sg63
(lp1300
g56
(g77
g58
NtRp1301
(dp1302
g61
(dp1303
g81
g82
ssg70
g1297
sg63
(lp1304
S'server_name'
p1305
asbag56
(g77
g58
NtRp1306
(dp1307
g61
(dp1308
g88
g89
ssg70
g1297
sg63
(lp1309
S':'
asbag56
(g77
g58
NtRp1310
(dp1311
g61
(dp1312
sg70
g1297
sg63
(lp1313
g56
(g57
g58
NtRp1314
(dp1315
g61
(dp1316
g69
I4
ssg70
g1310
sg63
(lp1317
S'jose'
p1318
asbasbasbag56
(g72
g58
NtRp1319
(dp1320
g61
(dp1321
sg70
g833
sg63
(lp1322
g56
(g77
g58
NtRp1323
(dp1324
g61
(dp1325
g81
g82
ssg70
g1319
sg63
(lp1326
S'server_port'
p1327
asbag56
(g77
g58
NtRp1328
(dp1329
g61
(dp1330
g88
g89
ssg70
g1319
sg63
(lp1331
S':'
asbag56
(g77
g58
NtRp1332
(dp1333
g61
(dp1334
sg70
g1319
sg63
(lp1335
g56
(g57
g58
NtRp1336
(dp1337
g61
(dp1338
g69
I4
ssg70
g1332
sg63
(lp1339
S'8000'
p1340
asbasbasbag56
(g72
g58
NtRp1341
(dp1342
g61
(dp1343
sg70
g833
sg63
(lp1344
g56
(g77
g58
NtRp1345
(dp1346
g61
(dp1347
g81
g82
ssg70
g1341
sg63
(lp1348
S'server_protocol'
p1349
asbag56
(g77
g58
NtRp1350
(dp1351
g61
(dp1352
g88
g89
ssg70
g1341
sg63
(lp1353
S':'
asbag56
(g77
g58
NtRp1354
(dp1355
g61
(dp1356
sg70
g1341
sg63
(lp1357
g56
(g57
g58
NtRp1358
(dp1359
g61
(dp1360
g69
I4
ssg70
g1354
sg63
(lp1361
S'HTTP/1.1'
p1362
asbasbasbag56
(g72
g58
NtRp1363
(dp1364
g61
(dp1365
sg70
g833
sg63
(lp1366
g56
(g77
g58
NtRp1367
(dp1368
g61
(dp1369
g81
g82
ssg70
g1363
sg63
(lp1370
S'server_software'
p1371
asbag56
(g77
g58
NtRp1372
(dp1373
g61
(dp1374
g88
g89
ssg70
g1363
sg63
(lp1375
S':'
asbag56
(g77
g58
NtRp1376
(dp1377
g61
(dp1378
sg70
g1363
sg63
(lp1379
g56
(g57
g58
NtRp1380
(dp1381
g61
(dp1382
g69
I4
ssg70
g1376
sg63
(lp1383
S'Rocket 1.2.4'
p1384
asbasbasbag56
(g72
g58
NtRp1385
(dp1386
g61
(dp1387
sg70
g833
sg63
(lp1388
g56
(g77
g58
NtRp1389
(dp1390
g61
(dp1391
g81
g82
ssg70
g1385
sg63
(lp1392
S'web2py_crontype'
p1393
asbag56
(g77
g58
NtRp1394
(dp1395
g61
(dp1396
g88
g89
ssg70
g1385
sg63
(lp1397
S':'
asbag56
(g77
g58
NtRp1398
(dp1399
g61
(dp1400
sg70
g1385
sg63
(lp1401
g56
(g57
g58
NtRp1402
(dp1403
g61
(dp1404
g69
I4
ssg70
g1398
sg63
(lp1405
S'hard'
p1406
asbasbasbag56
(g72
g58
NtRp1407
(dp1408
g61
(dp1409
sg70
g833
sg63
(lp1410
g56
(g77
g58
NtRp1411
(dp1412
g61
(dp1413
g81
g82
ssg70
g1407
sg63
(lp1414
S'web2py_path'
p1415
asbag56
(g77
g58
NtRp1416
(dp1417
g61
(dp1418
g88
g89
ssg70
g1407
sg63
(lp1419
S':'
asbag56
(g77
g58
NtRp1420
(dp1421
g61
(dp1422
sg70
g1407
sg63
(lp1423
g56
(g57
g58
NtRp1424
(dp1425
g61
(dp1426
g69
I4
ssg70
g1420
sg63
(lp1427
g880
asbasbasbag56
(g72
g58
NtRp1428
(dp1429
g61
(dp1430
sg70
g833
sg63
(lp1431
g56
(g77
g58
NtRp1432
(dp1433
g61
(dp1434
g81
g82
ssg70
g1428
sg63
(lp1435
S'web2py_version'
p1436
asbag56
(g77
g58
NtRp1437
(dp1438
g61
(dp1439
g88
g89
ssg70
g1428
sg63
(lp1440
S':'
asbag56
(g77
g58
NtRp1441
(dp1442
g61
(dp1443
sg70
g1428
sg63
(lp1444
g56
(g57
g58
NtRp1445
(dp1446
g61
(dp1447
g69
I4
ssg70
g1441
sg63
(lp1448
g56
(g65
g58
NtRp1449
(dp1450
g61
(dp1451
g69
I3
ssg70
Nsg63
(lp1452
g56
(g72
g58
NtRp1453
(dp1454
g61
(dp1455
sg70
g1449
sg63
(lp1456
g56
(g77
g58
NtRp1457
(dp1458
g61
(dp1459
sg70
g1453
sg63
(lp1460
g56
(g57
g58
NtRp1461
(dp1462
g61
(dp1463
g69
I3
ssg70
g1457
sg63
(lp1464
S'1'
asbasbasbag56
(g72
g58
NtRp1465
(dp1466
g61
(dp1467
sg70
g1449
sg63
(lp1468
g56
(g77
g58
NtRp1469
(dp1470
g61
(dp1471
sg70
g1465
sg63
(lp1472
g56
(g57
g58
NtRp1473
(dp1474
g61
(dp1475
g69
I3
ssg70
g1469
sg63
(lp1476
S'99'
p1477
asbasbasbag56
(g72
g58
NtRp1478
(dp1479
g61
(dp1480
sg70
g1449
sg63
(lp1481
g56
(g77
g58
NtRp1482
(dp1483
g61
(dp1484
sg70
g1478
sg63
(lp1485
g56
(g57
g58
NtRp1486
(dp1487
g61
(dp1488
g69
I3
ssg70
g1482
sg63
(lp1489
S'2'
asbasbasbag56
(g72
g58
NtRp1490
(dp1491
g61
(dp1492
sg70
g1449
sg63
(lp1493
g56
(g77
g58
NtRp1494
(dp1495
g61
(dp1496
sg70
g1490
sg63
(lp1497
g56
(g57
g58
NtRp1498
(dp1499
g61
(dp1500
g69
I3
ssg70
g1494
sg63
(lp1501
S'datetime.datetime(2011, 9, 26, 6, 55, 33)'
p1502
asbasbasbag56
(g72
g58
NtRp1503
(dp1504
g61
(dp1505
sg70
g1449
sg63
(lp1506
g56
(g77
g58
NtRp1507
(dp1508
g61
(dp1509
sg70
g1503
sg63
(lp1510
g56
(g57
g58
NtRp1511
(dp1512
g61
(dp1513
g69
I3
ssg70
g1507
sg63
(lp1514
S'stable'
p1515
asbasbasbasbasbasbasbag56
(g72
g58
NtRp1516
(dp1517
g61
(dp1518
sg70
g833
sg63
(lp1519
g56
(g77
g58
NtRp1520
(dp1521
g61
(dp1522
g81
g82
ssg70
g1516
sg63
(lp1523
S'wsgi_errors'
p1524
asbag56
(g77
g58
NtRp1525
(dp1526
g61
(dp1527
g88
g89
ssg70
g1516
sg63
(lp1528
S':'
asbag56
(g77
g58
NtRp1529
(dp1530
g61
(dp1531
sg70
g1516
sg63
(lp1532
g56
(g57
g58
NtRp1533
(dp1534
g61
(dp1535
g69
I4
ssg70
g1529
sg63
(lp1536
S"<open file '<stderr>', mode 'w' at 0x7faf4eae9270>"
p1537
asbasbasbag56
(g72
g58
NtRp1538
(dp1539
g61
(dp1540
sg70
g833
sg63
(lp1541
g56
(g77
g58
NtRp1542
(dp1543
g61
(dp1544
g81
g82
ssg70
g1538
sg63
(lp1545
S'wsgi_file_wrapper'
p1546
asbag56
(g77
g58
NtRp1547
(dp1548
g61
(dp1549
g88
g89
ssg70
g1538
sg63
(lp1550
S':'
asbag56
(g77
g58
NtRp1551
(dp1552
g61
(dp1553
sg70
g1538
sg63
(lp1554
g56
(g57
g58
NtRp1555
(dp1556
g61
(dp1557
g69
I4
ssg70
g1551
sg63
(lp1558
S'<class wsgiref.util.FileWrapper at 0x294cd50>'
p1559
asbasbasbag56
(g72
g58
NtRp1560
(dp1561
g61
(dp1562
sg70
g833
sg63
(lp1563
g56
(g77
g58
NtRp1564
(dp1565
g61
(dp1566
g81
g82
ssg70
g1560
sg63
(lp1567
S'wsgi_input'
p1568
asbag56
(g77
g58
NtRp1569
(dp1570
g61
(dp1571
g88
g89
ssg70
g1560
sg63
(lp1572
S':'
asbag56
(g77
g58
NtRp1573
(dp1574
g61
(dp1575
sg70
g1560
sg63
(lp1576
g56
(g57
g58
NtRp1577
(dp1578
g61
(dp1579
g69
I4
ssg70
g1573
sg63
(lp1580
S'<socket._fileobject object at 0x2ee11d0>'
p1581
asbasbasbag56
(g72
g58
NtRp1582
(dp1583
g61
(dp1584
sg70
g833
sg63
(lp1585
g56
(g77
g58
NtRp1586
(dp1587
g61
(dp1588
g81
g82
ssg70
g1582
sg63
(lp1589
S'wsgi_multiprocess'
p1590
asbag56
(g77
g58
NtRp1591
(dp1592
g61
(dp1593
g88
g89
ssg70
g1582
sg63
(lp1594
S':'
asbag56
(g77
g58
NtRp1595
(dp1596
g61
(dp1597
sg70
g1582
sg63
(lp1598
g56
(g57
g58
NtRp1599
(dp1600
g61
(dp1601
g69
I4
ssg70
g1595
sg63
(lp1602
g99
asbasbasbag56
(g72
g58
NtRp1603
(dp1604
g61
(dp1605
sg70
g833
sg63
(lp1606
g56
(g77
g58
NtRp1607
(dp1608
g61
(dp1609
g81
g82
ssg70
g1603
sg63
(lp1610
S'wsgi_multithread'
p1611
asbag56
(g77
g58
NtRp1612
(dp1613
g61
(dp1614
g88
g89
ssg70
g1603
sg63
(lp1615
S':'
asbag56
(g77
g58
NtRp1616
(dp1617
g61
(dp1618
sg70
g1603
sg63
(lp1619
g56
(g57
g58
NtRp1620
(dp1621
g61
(dp1622
g69
I4
ssg70
g1616
sg63
(lp1623
S'True'
p1624
asbasbasbag56
(g72
g58
NtRp1625
(dp1626
g61
(dp1627
sg70
g833
sg63
(lp1628
g56
(g77
g58
NtRp1629
(dp1630
g61
(dp1631
g81
g82
ssg70
g1625
sg63
(lp1632
S'wsgi_run_once'
p1633
asbag56
(g77
g58
NtRp1634
(dp1635
g61
(dp1636
g88
g89
ssg70
g1625
sg63
(lp1637
S':'
asbag56
(g77
g58
NtRp1638
(dp1639
g61
(dp1640
sg70
g1625
sg63
(lp1641
g56
(g57
g58
NtRp1642
(dp1643
g61
(dp1644
g69
I4
ssg70
g1638
sg63
(lp1645
g99
asbasbasbag56
(g72
g58
NtRp1646
(dp1647
g61
(dp1648
sg70
g833
sg63
(lp1649
g56
(g77
g58
NtRp1650
(dp1651
g61
(dp1652
g81
g82
ssg70
g1646
sg63
(lp1653
S'wsgi_url_scheme'
p1654
asbag56
(g77
g58
NtRp1655
(dp1656
g61
(dp1657
g88
g89
ssg70
g1646
sg63
(lp1658
S':'
asbag56
(g77
g58
NtRp1659
(dp1660
g61
(dp1661
sg70
g1646
sg63
(lp1662
g56
(g57
g58
NtRp1663
(dp1664
g61
(dp1665
g69
I4
ssg70
g1659
sg63
(lp1666
S'http'
p1667
asbasbasbag56
(g72
g58
NtRp1668
(dp1669
g61
(dp1670
sg70
g833
sg63
(lp1671
g56
(g77
g58
NtRp1672
(dp1673
g61
(dp1674
g81
g82
ssg70
g1668
sg63
(lp1675
S'wsgi_version'
p1676
asbag56
(g77
g58
NtRp1677
(dp1678
g61
(dp1679
g88
g89
ssg70
g1668
sg63
(lp1680
S':'
asbag56
(g77
g58
NtRp1681
(dp1682
g61
(dp1683
sg70
g1668
sg63
(lp1684
g56
(g57
g58
NtRp1685
(dp1686
g61
(dp1687
g69
I4
ssg70
g1681
sg63
(lp1688
g56
(g65
g58
NtRp1689
(dp1690
g61
(dp1691
g69
I3
ssg70
Nsg63
(lp1692
g56
(g72
g58
NtRp1693
(dp1694
g61
(dp1695
sg70
g1689
sg63
(lp1696
g56
(g77
g58
NtRp1697
(dp1698
g61
(dp1699
sg70
g1693
sg63
(lp1700
g56
(g57
g58
NtRp1701
(dp1702
g61
(dp1703
g69
I3
ssg70
g1697
sg63
(lp1704
S'1'
asbasbasbag56
(g72
g58
NtRp1705
(dp1706
g61
(dp1707
sg70
g1689
sg63
(lp1708
g56
(g77
g58
NtRp1709
(dp1710
g61
(dp1711
sg70
g1705
sg63
(lp1712
g56
(g57
g58
NtRp1713
(dp1714
g61
(dp1715
g69
I3
ssg70
g1709
sg63
(lp1716
S'0'
asbasbasbasbasbasbasbasbasbasbasbag56
(g72
g58
NtRp1717
(dp1718
g61
(dp1719
sg70
g66
sg63
(lp1720
g56
(g77
g58
NtRp1721
(dp1722
g61
(dp1723
g81
g82
ssg70
g1717
sg63
(lp1724
S'extension'
p1725
asbag56
(g77
g58
NtRp1726
(dp1727
g61
(dp1728
g88
g89
ssg70
g1717
sg63
(lp1729
S':'
asbag56
(g77
g58
NtRp1730
(dp1731
g61
(dp1732
sg70
g1717
sg63
(lp1733
g56
(g57
g58
NtRp1734
(dp1735
g61
(dp1736
g69
I5
ssg70
g1730
sg63
(lp1737
S'html'
p1738
asbasbasbag56
(g72
g58
NtRp1739
(dp1740
g61
(dp1741
sg70
g66
sg63
(lp1742
g56
(g77
g58
NtRp1743
(dp1744
g61
(dp1745
g81
g82
ssg70
g1739
sg63
(lp1746
S'folder'
p1747
asbag56
(g77
g58
NtRp1748
(dp1749
g61
(dp1750
g88
g89
ssg70
g1739
sg63
(lp1751
S':'
asbag56
(g77
g58
NtRp1752
(dp1753
g61
(dp1754
sg70
g1739
sg63
(lp1755
g56
(g57
g58
NtRp1756
(dp1757
g61
(dp1758
g69
I5
ssg70
g1752
sg63
(lp1759
S'/home/jose/DESARROLLO/web2py199/applications/streamlog/'
p1760
asbasbasbag56
(g72
g58
NtRp1761
(dp1762
g61
(dp1763
sg70
g66
sg63
(lp1764
g56
(g77
g58
NtRp1765
(dp1766
g61
(dp1767
g81
g82
ssg70
g1761
sg63
(lp1768
S'function'
p1769
asbag56
(g77
g58
NtRp1770
(dp1771
g61
(dp1772
g88
g89
ssg70
g1761
sg63
(lp1773
S':'
asbag56
(g77
g58
NtRp1774
(dp1775
g61
(dp1776
sg70
g1761
sg63
(lp1777
g56
(g57
g58
NtRp1778
(dp1779
g61
(dp1780
g69
I5
ssg70
g1774
sg63
(lp1781
S'getConnectionData'
p1782
asbasbasbag56
(g72
g58
NtRp1783
(dp1784
g61
(dp1785
sg70
g66
sg63
(lp1786
g56
(g77
g58
NtRp1787
(dp1788
g61
(dp1789
g81
g82
ssg70
g1783
sg63
(lp1790
S'get_vars'
p1791
asbag56
(g77
g58
NtRp1792
(dp1793
g61
(dp1794
g88
g89
ssg70
g1783
sg63
(lp1795
S':'
asbag56
(g77
g58
NtRp1796
(dp1797
g61
(dp1798
sg70
g1783
sg63
(lp1799
g56
(g57
g58
NtRp1800
(dp1801
g61
(dp1802
g69
I5
ssg70
g1796
sg63
(lp1803
g56
(g65
g58
NtRp1804
(dp1805
g61
(dp1806
g69
I4
ssg70
Nsg63
(lp1807
sbasbasbasbag56
(g72
g58
NtRp1808
(dp1809
g61
(dp1810
sg70
g66
sg63
(lp1811
g56
(g77
g58
NtRp1812
(dp1813
g61
(dp1814
g81
g82
ssg70
g1808
sg63
(lp1815
S'global_settings'
p1816
asbag56
(g77
g58
NtRp1817
(dp1818
g61
(dp1819
g88
g89
ssg70
g1808
sg63
(lp1820
S':'
asbag56
(g77
g58
NtRp1821
(dp1822
g61
(dp1823
sg70
g1808
sg63
(lp1824
g56
(g57
g58
NtRp1825
(dp1826
g61
(dp1827
g69
I5
ssg70
g1821
sg63
(lp1828
g56
(g65
g58
NtRp1829
(dp1830
g61
(dp1831
g69
I4
ssg70
Nsg63
(lp1832
g56
(g72
g58
NtRp1833
(dp1834
g61
(dp1835
sg70
g1829
sg63
(lp1836
g56
(g77
g58
NtRp1837
(dp1838
g61
(dp1839
g81
g82
ssg70
g1833
sg63
(lp1840
g845
asbag56
(g77
g58
NtRp1841
(dp1842
g61
(dp1843
g88
g89
ssg70
g1833
sg63
(lp1844
S':'
asbag56
(g77
g58
NtRp1845
(dp1846
g61
(dp1847
sg70
g1833
sg63
(lp1848
g56
(g57
g58
NtRp1849
(dp1850
g61
(dp1851
g69
I4
ssg70
g1845
sg63
(lp1852
S"set(['/home/jose/DESARROLLO/web2py199/applications/streamlog/'])"
p1853
asbasbasbag56
(g72
g58
NtRp1854
(dp1855
g61
(dp1856
sg70
g1829
sg63
(lp1857
g56
(g77
g58
NtRp1858
(dp1859
g61
(dp1860
g81
g82
ssg70
g1854
sg63
(lp1861
g867
asbag56
(g77
g58
NtRp1862
(dp1863
g61
(dp1864
g88
g89
ssg70
g1854
sg63
(lp1865
S':'
asbag56
(g77
g58
NtRp1866
(dp1867
g61
(dp1868
sg70
g1854
sg63
(lp1869
g56
(g57
g58
NtRp1870
(dp1871
g61
(dp1872
g69
I4
ssg70
g1866
sg63
(lp1873
g880
asbasbasbag56
(g72
g58
NtRp1874
(dp1875
g61
(dp1876
sg70
g1829
sg63
(lp1877
g56
(g77
g58
NtRp1878
(dp1879
g61
(dp1880
g81
g82
ssg70
g1874
sg63
(lp1881
g889
asbag56
(g77
g58
NtRp1882
(dp1883
g61
(dp1884
g88
g89
ssg70
g1874
sg63
(lp1885
S':'
asbag56
(g77
g58
NtRp1886
(dp1887
g61
(dp1888
sg70
g1874
sg63
(lp1889
g56
(g57
g58
NtRp1890
(dp1891
g61
(dp1892
g69
I4
ssg70
g1886
sg63
(lp1893
g56
(g65
g58
NtRp1894
(dp1895
g61
(dp1896
g69
I3
ssg70
Nsg63
(lp1897
sbasbasbasbag56
(g72
g58
NtRp1898
(dp1899
g61
(dp1900
sg70
g1829
sg63
(lp1901
g56
(g77
g58
NtRp1902
(dp1903
g61
(dp1904
g81
g82
ssg70
g1898
sg63
(lp1905
g914
asbag56
(g77
g58
NtRp1906
(dp1907
g61
(dp1908
g88
g89
ssg70
g1898
sg63
(lp1909
S':'
asbag56
(g77
g58
NtRp1910
(dp1911
g61
(dp1912
sg70
g1898
sg63
(lp1913
g56
(g57
g58
NtRp1914
(dp1915
g61
(dp1916
g69
I4
ssg70
g1910
sg63
(lp1917
S"<Values at 0x2a2ff80: {'verbose': False, 'ip': '127.0.0.1', 'shutdown_timeout': 5, 'taskbar': False, 'nocron': False, 'pid_filename': 'httpserver.pid', 'maxthreads': None, 'softcron': False, 'server_name': 'jose', 'bpython': False, 'nogui': False, 'port': 8000, 'extcron': False, 'debuglevel': 30, 'test': None, 'folder': '/home/jose/DESARROLLO/web2py199', 'config': '', 'import_models': False, 'winservice': '', 'shell': None, 'run': '', 'log_filename': 'httpserver.log', 'args': [''], 'ssl_ca_certificate': None, 'scheduler': None, 'profiler_filename': None, 'ssl_private_key': '', 'password': 't', 'request_queue_size': 5, 'ssl_certificate': '', 'cronjob': False, 'plain': False, 'quiet': False, 'interfaces': None, 'minthreads': None, 'timeout': 10, 'numthreads': None, 'nobanner': False}>"
p1918
asbasbasbag56
(g72
g58
NtRp1919
(dp1920
g61
(dp1921
sg70
g1829
sg63
(lp1922
g56
(g77
g58
NtRp1923
(dp1924
g61
(dp1925
g81
g82
ssg70
g1919
sg63
(lp1926
g936
asbag56
(g77
g58
NtRp1927
(dp1928
g61
(dp1929
g88
g89
ssg70
g1919
sg63
(lp1930
S':'
asbag56
(g77
g58
NtRp1931
(dp1932
g61
(dp1933
sg70
g1919
sg63
(lp1934
g56
(g57
g58
NtRp1935
(dp1936
g61
(dp1937
g69
I4
ssg70
g1931
sg63
(lp1938
S'set([])'
p1939
asbasbasbag56
(g72
g58
NtRp1940
(dp1941
g61
(dp1942
sg70
g1829
sg63
(lp1943
g56
(g77
g58
NtRp1944
(dp1945
g61
(dp1946
g81
g82
ssg70
g1940
sg63
(lp1947
g958
asbag56
(g77
g58
NtRp1948
(dp1949
g61
(dp1950
g88
g89
ssg70
g1940
sg63
(lp1951
S':'
asbag56
(g77
g58
NtRp1952
(dp1953
g61
(dp1954
sg70
g1940
sg63
(lp1955
g56
(g57
g58
NtRp1956
(dp1957
g61
(dp1958
g69
I4
ssg70
g1952
sg63
(lp1959
g99
asbasbasbag56
(g72
g58
NtRp1960
(dp1961
g61
(dp1962
sg70
g1829
sg63
(lp1963
g56
(g77
g58
NtRp1964
(dp1965
g61
(dp1966
g81
g82
ssg70
g1960
sg63
(lp1967
g979
asbag56
(g77
g58
NtRp1968
(dp1969
g61
(dp1970
g88
g89
ssg70
g1960
sg63
(lp1971
S':'
asbag56
(g77
g58
NtRp1972
(dp1973
g61
(dp1974
sg70
g1960
sg63
(lp1975
g56
(g57
g58
NtRp1976
(dp1977
g61
(dp1978
g69
I4
ssg70
g1972
sg63
(lp1979
g992
asbasbasbag56
(g72
g58
NtRp1980
(dp1981
g61
(dp1982
sg70
g1829
sg63
(lp1983
g56
(g77
g58
NtRp1984
(dp1985
g61
(dp1986
g81
g82
ssg70
g1980
sg63
(lp1987
g1155
asbag56
(g77
g58
NtRp1988
(dp1989
g61
(dp1990
g88
g89
ssg70
g1980
sg63
(lp1991
S':'
asbag56
(g77
g58
NtRp1992
(dp1993
g61
(dp1994
sg70
g1980
sg63
(lp1995
g56
(g57
g58
NtRp1996
(dp1997
g61
(dp1998
g69
I4
ssg70
g1992
sg63
(lp1999
g99
asbasbasbag56
(g72
g58
NtRp2000
(dp2001
g61
(dp2002
sg70
g1829
sg63
(lp2003
g56
(g77
g58
NtRp2004
(dp2005
g61
(dp2006
g81
g82
ssg70
g2000
sg63
(lp2007
g1393
asbag56
(g77
g58
NtRp2008
(dp2009
g61
(dp2010
g88
g89
ssg70
g2000
sg63
(lp2011
S':'
asbag56
(g77
g58
NtRp2012
(dp2013
g61
(dp2014
sg70
g2000
sg63
(lp2015
g56
(g57
g58
NtRp2016
(dp2017
g61
(dp2018
g69
I4
ssg70
g2012
sg63
(lp2019
g1406
asbasbasbag56
(g72
g58
NtRp2020
(dp2021
g61
(dp2022
sg70
g1829
sg63
(lp2023
g56
(g77
g58
NtRp2024
(dp2025
g61
(dp2026
g81
g82
ssg70
g2020
sg63
(lp2027
g1436
asbag56
(g77
g58
NtRp2028
(dp2029
g61
(dp2030
g88
g89
ssg70
g2020
sg63
(lp2031
S':'
asbag56
(g77
g58
NtRp2032
(dp2033
g61
(dp2034
sg70
g2020
sg63
(lp2035
g56
(g57
g58
NtRp2036
(dp2037
g61
(dp2038
g69
I4
ssg70
g2032
sg63
(lp2039
g56
(g65
g58
NtRp2040
(dp2041
g61
(dp2042
g69
I3
ssg70
Nsg63
(lp2043
g56
(g72
g58
NtRp2044
(dp2045
g61
(dp2046
sg70
g2040
sg63
(lp2047
g56
(g77
g58
NtRp2048
(dp2049
g61
(dp2050
sg70
g2044
sg63
(lp2051
g56
(g57
g58
NtRp2052
(dp2053
g61
(dp2054
g69
I3
ssg70
g2048
sg63
(lp2055
S'1'
asbasbasbag56
(g72
g58
NtRp2056
(dp2057
g61
(dp2058
sg70
g2040
sg63
(lp2059
g56
(g77
g58
NtRp2060
(dp2061
g61
(dp2062
sg70
g2056
sg63
(lp2063
g56
(g57
g58
NtRp2064
(dp2065
g61
(dp2066
g69
I3
ssg70
g2060
sg63
(lp2067
S'99'
p2068
asbasbasbag56
(g72
g58
NtRp2069
(dp2070
g61
(dp2071
sg70
g2040
sg63
(lp2072
g56
(g77
g58
NtRp2073
(dp2074
g61
(dp2075
sg70
g2069
sg63
(lp2076
g56
(g57
g58
NtRp2077
(dp2078
g61
(dp2079
g69
I3
ssg70
g2073
sg63
(lp2080
S'2'
asbasbasbag56
(g72
g58
NtRp2081
(dp2082
g61
(dp2083
sg70
g2040
sg63
(lp2084
g56
(g77
g58
NtRp2085
(dp2086
g61
(dp2087
sg70
g2081
sg63
(lp2088
g56
(g57
g58
NtRp2089
(dp2090
g61
(dp2091
g69
I3
ssg70
g2085
sg63
(lp2092
S'datetime.datetime(2011, 9, 26, 6, 55, 33)'
p2093
asbasbasbag56
(g72
g58
NtRp2094
(dp2095
g61
(dp2096
sg70
g2040
sg63
(lp2097
g56
(g77
g58
NtRp2098
(dp2099
g61
(dp2100
sg70
g2094
sg63
(lp2101
g56
(g57
g58
NtRp2102
(dp2103
g61
(dp2104
g69
I3
ssg70
g2098
sg63
(lp2105
g1515
asbasbasbasbasbasbasbasbasbasbasbag56
(g72
g58
NtRp2106
(dp2107
g61
(dp2108
sg70
g66
sg63
(lp2109
g56
(g77
g58
NtRp2110
(dp2111
g61
(dp2112
g81
g82
ssg70
g2106
sg63
(lp2113
S'is_https'
p2114
asbag56
(g77
g58
NtRp2115
(dp2116
g61
(dp2117
g88
g89
ssg70
g2106
sg63
(lp2118
S':'
asbag56
(g77
g58
NtRp2119
(dp2120
g61
(dp2121
sg70
g2106
sg63
(lp2122
g56
(g57
g58
NtRp2123
(dp2124
g61
(dp2125
g69
I5
ssg70
g2119
sg63
(lp2126
g99
asbasbasbag56
(g72
g58
NtRp2127
(dp2128
g61
(dp2129
sg70
g66
sg63
(lp2130
g56
(g77
g58
NtRp2131
(dp2132
g61
(dp2133
g81
g82
ssg70
g2127
sg63
(lp2134
S'is_local'
p2135
asbag56
(g77
g58
NtRp2136
(dp2137
g61
(dp2138
g88
g89
ssg70
g2127
sg63
(lp2139
S':'
asbag56
(g77
g58
NtRp2140
(dp2141
g61
(dp2142
sg70
g2127
sg63
(lp2143
g56
(g57
g58
NtRp2144
(dp2145
g61
(dp2146
g69
I5
ssg70
g2140
sg63
(lp2147
g1624
asbasbasbag56
(g72
g58
NtRp2148
(dp2149
g61
(dp2150
sg70
g66
sg63
(lp2151
g56
(g77
g58
NtRp2152
(dp2153
g61
(dp2154
g81
g82
ssg70
g2148
sg63
(lp2155
S'is_restful'
p2156
asbag56
(g77
g58
NtRp2157
(dp2158
g61
(dp2159
g88
g89
ssg70
g2148
sg63
(lp2160
S':'
asbag56
(g77
g58
NtRp2161
(dp2162
g61
(dp2163
sg70
g2148
sg63
(lp2164
g56
(g57
g58
NtRp2165
(dp2166
g61
(dp2167
g69
I5
ssg70
g2161
sg63
(lp2168
g99
asbasbasbag56
(g72
g58
NtRp2169
(dp2170
g61
(dp2171
sg70
g66
sg63
(lp2172
g56
(g77
g58
NtRp2173
(dp2174
g61
(dp2175
g81
g82
ssg70
g2169
sg63
(lp2176
S'now'
p2177
asbag56
(g77
g58
NtRp2178
(dp2179
g61
(dp2180
g88
g89
ssg70
g2169
sg63
(lp2181
S':'
asbag56
(g77
g58
NtRp2182
(dp2183
g61
(dp2184
sg70
g2169
sg63
(lp2185
g56
(g57
g58
NtRp2186
(dp2187
g61
(dp2188
g69
I5
ssg70
g2182
sg63
(lp2189
S'datetime.datetime(2012, 5, 27, 8, 54, 21, 989274)'
p2190
asbasbasbag56
(g72
g58
NtRp2191
(dp2192
g61
(dp2193
sg70
g66
sg63
(lp2194
g56
(g77
g58
NtRp2195
(dp2196
g61
(dp2197
g81
g82
ssg70
g2191
sg63
(lp2198
S'post_vars'
p2199
asbag56
(g77
g58
NtRp2200
(dp2201
g61
(dp2202
g88
g89
ssg70
g2191
sg63
(lp2203
S':'
asbag56
(g77
g58
NtRp2204
(dp2205
g61
(dp2206
sg70
g2191
sg63
(lp2207
g56
(g57
g58
NtRp2208
(dp2209
g61
(dp2210
g69
I5
ssg70
g2204
sg63
(lp2211
g56
(g65
g58
NtRp2212
(dp2213
g61
(dp2214
g69
I4
ssg70
Nsg63
(lp2215
sbasbasbasbag56
(g72
g58
NtRp2216
(dp2217
g61
(dp2218
sg70
g66
sg63
(lp2219
g56
(g77
g58
NtRp2220
(dp2221
g61
(dp2222
g81
g82
ssg70
g2216
sg63
(lp2223
S'raw_args'
p2224
asbag56
(g77
g58
NtRp2225
(dp2226
g61
(dp2227
g88
g89
ssg70
g2216
sg63
(lp2228
S':'
asbag56
(g77
g58
NtRp2229
(dp2230
g61
(dp2231
sg70
g2216
sg63
(lp2232
g56
(g57
g58
NtRp2233
(dp2234
g61
(dp2235
g69
I5
ssg70
g2229
sg63
(lp2236
S'1'
asbasbasbag56
(g72
g58
NtRp2237
(dp2238
g61
(dp2239
sg70
g66
sg63
(lp2240
g56
(g77
g58
NtRp2241
(dp2242
g61
(dp2243
g81
g82
ssg70
g2237
sg63
(lp2244
S'url'
p2245
asbag56
(g77
g58
NtRp2246
(dp2247
g61
(dp2248
g88
g89
ssg70
g2237
sg63
(lp2249
S':'
asbag56
(g77
g58
NtRp2250
(dp2251
g61
(dp2252
sg70
g2237
sg63
(lp2253
g56
(g57
g58
NtRp2254
(dp2255
g61
(dp2256
g69
I5
ssg70
g2250
sg63
(lp2257
S'/streamlog/default/getConnectionData/1'
p2258
asbasbasbag56
(g72
g58
NtRp2259
(dp2260
g61
(dp2261
sg70
g66
sg63
(lp2262
g56
(g77
g58
NtRp2263
(dp2264
g61
(dp2265
g81
g82
ssg70
g2259
sg63
(lp2266
S'utcnow'
p2267
asbag56
(g77
g58
NtRp2268
(dp2269
g61
(dp2270
g88
g89
ssg70
g2259
sg63
(lp2271
S':'
asbag56
(g77
g58
NtRp2272
(dp2273
g61
(dp2274
sg70
g2259
sg63
(lp2275
g56
(g57
g58
NtRp2276
(dp2277
g61
(dp2278
g69
I5
ssg70
g2272
sg63
(lp2279
S'datetime.datetime(2012, 5, 27, 1, 54, 21, 989305)'
p2280
asbasbasbag56
(g72
g58
NtRp2281
(dp2282
g61
(dp2283
sg70
g66
sg63
(lp2284
g56
(g77
g58
NtRp2285
(dp2286
g61
(dp2287
g81
g82
ssg70
g2281
sg63
(lp2288
S'uuid'
p2289
asbag56
(g77
g58
NtRp2290
(dp2291
g61
(dp2292
g88
g89
ssg70
g2281
sg63
(lp2293
S':'
asbag56
(g77
g58
NtRp2294
(dp2295
g61
(dp2296
sg70
g2281
sg63
(lp2297
g56
(g57
g58
NtRp2298
(dp2299
g61
(dp2300
g69
I5
ssg70
g2294
sg63
(lp2301
S'streamlog/127.0.0.1.2012-05-27.08-54-21.d5ff02fb-c432-4a28-b4ff-fc88a7fde4a5'
p2302
asbasbasbag56
(g72
g58
NtRp2303
(dp2304
g61
(dp2305
sg70
g66
sg63
(lp2306
g56
(g77
g58
NtRp2307
(dp2308
g61
(dp2309
g81
g82
ssg70
g2303
sg63
(lp2310
S'vars'
p2311
asbag56
(g77
g58
NtRp2312
(dp2313
g61
(dp2314
g88
g89
ssg70
g2303
sg63
(lp2315
S':'
asbag56
(g77
g58
NtRp2316
(dp2317
g61
(dp2318
sg70
g2303
sg63
(lp2319
g56
(g57
g58
NtRp2320
(dp2321
g61
(dp2322
g69
I5
ssg70
g2316
sg63
(lp2323
g56
(g65
g58
NtRp2324
(dp2325
g61
(dp2326
g69
I4
ssg70
Nsg63
(lp2327
sbasbasbasbag56
(g72
g58
NtRp2328
(dp2329
g61
(dp2330
sg70
g66
sg63
(lp2331
g56
(g77
g58
NtRp2332
(dp2333
g61
(dp2334
g81
g82
ssg70
g2328
sg63
(lp2335
S'wsgi'
p2336
asbag56
(g77
g58
NtRp2337
(dp2338
g61
(dp2339
g88
g89
ssg70
g2328
sg63
(lp2340
S':'
asbag56
(g77
g58
NtRp2341
(dp2342
g61
(dp2343
sg70
g2328
sg63
(lp2344
g56
(g57
g58
NtRp2345
(dp2346
g61
(dp2347
g69
I5
ssg70
g2341
sg63
(lp2348
g56
(g65
g58
NtRp2349
(dp2350
g61
(dp2351
g69
I4
ssg70
Nsg63
(lp2352
g56
(g72
g58
NtRp2353
(dp2354
g61
(dp2355
sg70
g2349
sg63
(lp2356
g56
(g77
g58
NtRp2357
(dp2358
g61
(dp2359
g81
g82
ssg70
g2353
sg63
(lp2360
S'environ'
p2361
asbag56
(g77
g58
NtRp2362
(dp2363
g61
(dp2364
g88
g89
ssg70
g2353
sg63
(lp2365
S':'
asbag56
(g77
g58
NtRp2366
(dp2367
g61
(dp2368
sg70
g2353
sg63
(lp2369
g56
(g57
g58
NtRp2370
(dp2371
g61
(dp2372
g69
I4
ssg70
g2366
sg63
(lp2373
g56
(g65
g58
NtRp2374
(dp2375
g61
(dp2376
g69
I3
ssg70
Nsg63
(lp2377
g56
(g72
g58
NtRp2378
(dp2379
g61
(dp2380
sg70
g2374
sg63
(lp2381
g56
(g77
g58
NtRp2382
(dp2383
g61
(dp2384
g81
g82
ssg70
g2378
sg63
(lp2385
S'HTTP_ACCEPT'
p2386
asbag56
(g77
g58
NtRp2387
(dp2388
g61
(dp2389
g88
g89
ssg70
g2378
sg63
(lp2390
S':'
asbag56
(g77
g58
NtRp2391
(dp2392
g61
(dp2393
sg70
g2378
sg63
(lp2394
g56
(g57
g58
NtRp2395
(dp2396
g61
(dp2397
g69
I3
ssg70
g2391
sg63
(lp2398
g1014
asbasbasbag56
(g72
g58
NtRp2399
(dp2400
g61
(dp2401
sg70
g2374
sg63
(lp2402
g56
(g77
g58
NtRp2403
(dp2404
g61
(dp2405
g81
g82
ssg70
g2399
sg63
(lp2406
S'HTTP_ACCEPT_ENCODING'
p2407
asbag56
(g77
g58
NtRp2408
(dp2409
g61
(dp2410
g88
g89
ssg70
g2399
sg63
(lp2411
S':'
asbag56
(g77
g58
NtRp2412
(dp2413
g61
(dp2414
sg70
g2399
sg63
(lp2415
g56
(g57
g58
NtRp2416
(dp2417
g61
(dp2418
g69
I3
ssg70
g2412
sg63
(lp2419
g1036
asbasbasbag56
(g72
g58
NtRp2420
(dp2421
g61
(dp2422
sg70
g2374
sg63
(lp2423
g56
(g77
g58
NtRp2424
(dp2425
g61
(dp2426
g81
g82
ssg70
g2420
sg63
(lp2427
S'HTTP_ACCEPT_LANGUAGE'
p2428
asbag56
(g77
g58
NtRp2429
(dp2430
g61
(dp2431
g88
g89
ssg70
g2420
sg63
(lp2432
S':'
asbag56
(g77
g58
NtRp2433
(dp2434
g61
(dp2435
sg70
g2420
sg63
(lp2436
g56
(g57
g58
NtRp2437
(dp2438
g61
(dp2439
g69
I3
ssg70
g2433
sg63
(lp2440
g1058
asbasbasbag56
(g72
g58
NtRp2441
(dp2442
g61
(dp2443
sg70
g2374
sg63
(lp2444
g56
(g77
g58
NtRp2445
(dp2446
g61
(dp2447
g81
g82
ssg70
g2441
sg63
(lp2448
S'HTTP_CONNECTION'
p2449
asbag56
(g77
g58
NtRp2450
(dp2451
g61
(dp2452
g88
g89
ssg70
g2441
sg63
(lp2453
S':'
asbag56
(g77
g58
NtRp2454
(dp2455
g61
(dp2456
sg70
g2441
sg63
(lp2457
g56
(g57
g58
NtRp2458
(dp2459
g61
(dp2460
g69
I3
ssg70
g2454
sg63
(lp2461
g1080
asbasbasbag56
(g72
g58
NtRp2462
(dp2463
g61
(dp2464
sg70
g2374
sg63
(lp2465
g56
(g77
g58
NtRp2466
(dp2467
g61
(dp2468
g81
g82
ssg70
g2462
sg63
(lp2469
S'HTTP_COOKIE'
p2470
asbag56
(g77
g58
NtRp2471
(dp2472
g61
(dp2473
g88
g89
ssg70
g2462
sg63
(lp2474
S':'
asbag56
(g77
g58
NtRp2475
(dp2476
g61
(dp2477
sg70
g2462
sg63
(lp2478
g56
(g57
g58
NtRp2479
(dp2480
g61
(dp2481
g69
I3
ssg70
g2475
sg63
(lp2482
g1102
asbasbasbag56
(g72
g58
NtRp2483
(dp2484
g61
(dp2485
sg70
g2374
sg63
(lp2486
g56
(g77
g58
NtRp2487
(dp2488
g61
(dp2489
g81
g82
ssg70
g2483
sg63
(lp2490
S'HTTP_HOST'
p2491
asbag56
(g77
g58
NtRp2492
(dp2493
g61
(dp2494
g88
g89
ssg70
g2483
sg63
(lp2495
S':'
asbag56
(g77
g58
NtRp2496
(dp2497
g61
(dp2498
sg70
g2483
sg63
(lp2499
g56
(g57
g58
NtRp2500
(dp2501
g61
(dp2502
g69
I3
ssg70
g2496
sg63
(lp2503
g1124
asbasbasbag56
(g72
g58
NtRp2504
(dp2505
g61
(dp2506
sg70
g2374
sg63
(lp2507
g56
(g77
g58
NtRp2508
(dp2509
g61
(dp2510
g81
g82
ssg70
g2504
sg63
(lp2511
S'HTTP_USER_AGENT'
p2512
asbag56
(g77
g58
NtRp2513
(dp2514
g61
(dp2515
g88
g89
ssg70
g2504
sg63
(lp2516
S':'
asbag56
(g77
g58
NtRp2517
(dp2518
g61
(dp2519
sg70
g2504
sg63
(lp2520
g56
(g57
g58
NtRp2521
(dp2522
g61
(dp2523
g69
I3
ssg70
g2517
sg63
(lp2524
g1146
asbasbasbag56
(g72
g58
NtRp2525
(dp2526
g61
(dp2527
sg70
g2374
sg63
(lp2528
g56
(g77
g58
NtRp2529
(dp2530
g61
(dp2531
g81
g82
ssg70
g2525
sg63
(lp2532
S'PATH_INFO'
p2533
asbag56
(g77
g58
NtRp2534
(dp2535
g61
(dp2536
g88
g89
ssg70
g2525
sg63
(lp2537
S':'
asbag56
(g77
g58
NtRp2538
(dp2539
g61
(dp2540
sg70
g2525
sg63
(lp2541
g56
(g57
g58
NtRp2542
(dp2543
g61
(dp2544
g69
I3
ssg70
g2538
sg63
(lp2545
g1189
asbasbasbag56
(g72
g58
NtRp2546
(dp2547
g61
(dp2548
sg70
g2374
sg63
(lp2549
g56
(g77
g58
NtRp2550
(dp2551
g61
(dp2552
g81
g82
ssg70
g2546
sg63
(lp2553
S'QUERY_STRING'
p2554
asbag56
(g77
g58
NtRp2555
(dp2556
g61
(dp2557
g88
g89
ssg70
g2546
sg63
(lp2558
S':'
asbag56
(g77
g58
NtRp2559
(dp2560
g61
(dp2561
sg70
g2546
sg63
(lp2562
g56
(g57
g58
NtRp2563
(dp2564
g61
(dp2565
g69
I3
ssg70
g2559
sg63
(lp2566
S''
asbasbasbag56
(g72
g58
NtRp2567
(dp2568
g61
(dp2569
sg70
g2374
sg63
(lp2570
g56
(g77
g58
NtRp2571
(dp2572
g61
(dp2573
g81
g82
ssg70
g2567
sg63
(lp2574
S'REMOTE_ADDR'
p2575
asbag56
(g77
g58
NtRp2576
(dp2577
g61
(dp2578
g88
g89
ssg70
g2567
sg63
(lp2579
S':'
asbag56
(g77
g58
NtRp2580
(dp2581
g61
(dp2582
sg70
g2567
sg63
(lp2583
g56
(g57
g58
NtRp2584
(dp2585
g61
(dp2586
g69
I3
ssg70
g2580
sg63
(lp2587
g201
asbasbasbag56
(g72
g58
NtRp2588
(dp2589
g61
(dp2590
sg70
g2374
sg63
(lp2591
g56
(g77
g58
NtRp2592
(dp2593
g61
(dp2594
g81
g82
ssg70
g2588
sg63
(lp2595
S'REMOTE_PORT'
p2596
asbag56
(g77
g58
NtRp2597
(dp2598
g61
(dp2599
g88
g89
ssg70
g2588
sg63
(lp2600
S':'
asbag56
(g77
g58
NtRp2601
(dp2602
g61
(dp2603
sg70
g2588
sg63
(lp2604
g56
(g57
g58
NtRp2605
(dp2606
g61
(dp2607
g69
I3
ssg70
g2601
sg63
(lp2608
g1253
asbasbasbag56
(g72
g58
NtRp2609
(dp2610
g61
(dp2611
sg70
g2374
sg63
(lp2612
g56
(g77
g58
NtRp2613
(dp2614
g61
(dp2615
g81
g82
ssg70
g2609
sg63
(lp2616
S'REQUEST_METHOD'
p2617
asbag56
(g77
g58
NtRp2618
(dp2619
g61
(dp2620
g88
g89
ssg70
g2609
sg63
(lp2621
S':'
asbag56
(g77
g58
NtRp2622
(dp2623
g61
(dp2624
sg70
g2609
sg63
(lp2625
g56
(g57
g58
NtRp2626
(dp2627
g61
(dp2628
g69
I3
ssg70
g2622
sg63
(lp2629
g1275
asbasbasbag56
(g72
g58
NtRp2630
(dp2631
g61
(dp2632
sg70
g2374
sg63
(lp2633
g56
(g77
g58
NtRp2634
(dp2635
g61
(dp2636
g81
g82
ssg70
g2630
sg63
(lp2637
S'SCRIPT_NAME'
p2638
asbag56
(g77
g58
NtRp2639
(dp2640
g61
(dp2641
g88
g89
ssg70
g2630
sg63
(lp2642
S':'
asbag56
(g77
g58
NtRp2643
(dp2644
g61
(dp2645
sg70
g2630
sg63
(lp2646
g56
(g57
g58
NtRp2647
(dp2648
g61
(dp2649
g69
I3
ssg70
g2643
sg63
(lp2650
S''
asbasbasbag56
(g72
g58
NtRp2651
(dp2652
g61
(dp2653
sg70
g2374
sg63
(lp2654
g56
(g77
g58
NtRp2655
(dp2656
g61
(dp2657
g81
g82
ssg70
g2651
sg63
(lp2658
S'SERVER_NAME'
p2659
asbag56
(g77
g58
NtRp2660
(dp2661
g61
(dp2662
g88
g89
ssg70
g2651
sg63
(lp2663
S':'
asbag56
(g77
g58
NtRp2664
(dp2665
g61
(dp2666
sg70
g2651
sg63
(lp2667
g56
(g57
g58
NtRp2668
(dp2669
g61
(dp2670
g69
I3
ssg70
g2664
sg63
(lp2671
g1318
asbasbasbag56
(g72
g58
NtRp2672
(dp2673
g61
(dp2674
sg70
g2374
sg63
(lp2675
g56
(g77
g58
NtRp2676
(dp2677
g61
(dp2678
g81
g82
ssg70
g2672
sg63
(lp2679
S'SERVER_PORT'
p2680
asbag56
(g77
g58
NtRp2681
(dp2682
g61
(dp2683
g88
g89
ssg70
g2672
sg63
(lp2684
S':'
asbag56
(g77
g58
NtRp2685
(dp2686
g61
(dp2687
sg70
g2672
sg63
(lp2688
g56
(g57
g58
NtRp2689
(dp2690
g61
(dp2691
g69
I3
ssg70
g2685
sg63
(lp2692
g1340
asbasbasbag56
(g72
g58
NtRp2693
(dp2694
g61
(dp2695
sg70
g2374
sg63
(lp2696
g56
(g77
g58
NtRp2697
(dp2698
g61
(dp2699
g81
g82
ssg70
g2693
sg63
(lp2700
S'SERVER_PROTOCOL'
p2701
asbag56
(g77
g58
NtRp2702
(dp2703
g61
(dp2704
g88
g89
ssg70
g2693
sg63
(lp2705
S':'
asbag56
(g77
g58
NtRp2706
(dp2707
g61
(dp2708
sg70
g2693
sg63
(lp2709
g56
(g57
g58
NtRp2710
(dp2711
g61
(dp2712
g69
I3
ssg70
g2706
sg63
(lp2713
g1362
asbasbasbag56
(g72
g58
NtRp2714
(dp2715
g61
(dp2716
sg70
g2374
sg63
(lp2717
g56
(g77
g58
NtRp2718
(dp2719
g61
(dp2720
g81
g82
ssg70
g2714
sg63
(lp2721
S'SERVER_SOFTWARE'
p2722
asbag56
(g77
g58
NtRp2723
(dp2724
g61
(dp2725
g88
g89
ssg70
g2714
sg63
(lp2726
S':'
asbag56
(g77
g58
NtRp2727
(dp2728
g61
(dp2729
sg70
g2714
sg63
(lp2730
g56
(g57
g58
NtRp2731
(dp2732
g61
(dp2733
g69
I3
ssg70
g2727
sg63
(lp2734
g1384
asbasbasbag56
(g72
g58
NtRp2735
(dp2736
g61
(dp2737
sg70
g2374
sg63
(lp2738
g56
(g77
g58
NtRp2739
(dp2740
g61
(dp2741
g81
g82
ssg70
g2735
sg63
(lp2742
S'wsgi.errors'
p2743
asbag56
(g77
g58
NtRp2744
(dp2745
g61
(dp2746
g88
g89
ssg70
g2735
sg63
(lp2747
S':'
asbag56
(g77
g58
NtRp2748
(dp2749
g61
(dp2750
sg70
g2735
sg63
(lp2751
g56
(g57
g58
NtRp2752
(dp2753
g61
(dp2754
g69
I3
ssg70
g2748
sg63
(lp2755
S"<open file '<stderr>', mode 'w' at 0x7faf4eae9270>"
p2756
asbasbasbag56
(g72
g58
NtRp2757
(dp2758
g61
(dp2759
sg70
g2374
sg63
(lp2760
g56
(g77
g58
NtRp2761
(dp2762
g61
(dp2763
g81
g82
ssg70
g2757
sg63
(lp2764
S'wsgi.file_wrapper'
p2765
asbag56
(g77
g58
NtRp2766
(dp2767
g61
(dp2768
g88
g89
ssg70
g2757
sg63
(lp2769
S':'
asbag56
(g77
g58
NtRp2770
(dp2771
g61
(dp2772
sg70
g2757
sg63
(lp2773
g56
(g57
g58
NtRp2774
(dp2775
g61
(dp2776
g69
I3
ssg70
g2770
sg63
(lp2777
S'<class wsgiref.util.FileWrapper at 0x294cd50>'
p2778
asbasbasbag56
(g72
g58
NtRp2779
(dp2780
g61
(dp2781
sg70
g2374
sg63
(lp2782
g56
(g77
g58
NtRp2783
(dp2784
g61
(dp2785
g81
g82
ssg70
g2779
sg63
(lp2786
S'wsgi.input'
p2787
asbag56
(g77
g58
NtRp2788
(dp2789
g61
(dp2790
g88
g89
ssg70
g2779
sg63
(lp2791
S':'
asbag56
(g77
g58
NtRp2792
(dp2793
g61
(dp2794
sg70
g2779
sg63
(lp2795
g56
(g57
g58
NtRp2796
(dp2797
g61
(dp2798
g69
I3
ssg70
g2792
sg63
(lp2799
S'<cStringIO.StringO object at 0x2d68960>'
p2800
asbasbasbag56
(g72
g58
NtRp2801
(dp2802
g61
(dp2803
sg70
g2374
sg63
(lp2804
g56
(g77
g58
NtRp2805
(dp2806
g61
(dp2807
g81
g82
ssg70
g2801
sg63
(lp2808
S'wsgi.multiprocess'
p2809
asbag56
(g77
g58
NtRp2810
(dp2811
g61
(dp2812
g88
g89
ssg70
g2801
sg63
(lp2813
S':'
asbag56
(g77
g58
NtRp2814
(dp2815
g61
(dp2816
sg70
g2801
sg63
(lp2817
g56
(g57
g58
NtRp2818
(dp2819
g61
(dp2820
g69
I3
ssg70
g2814
sg63
(lp2821
g99
asbasbasbag56
(g72
g58
NtRp2822
(dp2823
g61
(dp2824
sg70
g2374
sg63
(lp2825
g56
(g77
g58
NtRp2826
(dp2827
g61
(dp2828
g81
g82
ssg70
g2822
sg63
(lp2829
S'wsgi.multithread'
p2830
asbag56
(g77
g58
NtRp2831
(dp2832
g61
(dp2833
g88
g89
ssg70
g2822
sg63
(lp2834
S':'
asbag56
(g77
g58
NtRp2835
(dp2836
g61
(dp2837
sg70
g2822
sg63
(lp2838
g56
(g57
g58
NtRp2839
(dp2840
g61
(dp2841
g69
I3
ssg70
g2835
sg63
(lp2842
g1624
asbasbasbag56
(g72
g58
NtRp2843
(dp2844
g61
(dp2845
sg70
g2374
sg63
(lp2846
g56
(g77
g58
NtRp2847
(dp2848
g61
(dp2849
g81
g82
ssg70
g2843
sg63
(lp2850
S'wsgi.run_once'
p2851
asbag56
(g77
g58
NtRp2852
(dp2853
g61
(dp2854
g88
g89
ssg70
g2843
sg63
(lp2855
S':'
asbag56
(g77
g58
NtRp2856
(dp2857
g61
(dp2858
sg70
g2843
sg63
(lp2859
g56
(g57
g58
NtRp2860
(dp2861
g61
(dp2862
g69
I3
ssg70
g2856
sg63
(lp2863
g99
asbasbasbag56
(g72
g58
NtRp2864
(dp2865
g61
(dp2866
sg70
g2374
sg63
(lp2867
g56
(g77
g58
NtRp2868
(dp2869
g61
(dp2870
g81
g82
ssg70
g2864
sg63
(lp2871
S'wsgi.url_scheme'
p2872
asbag56
(g77
g58
NtRp2873
(dp2874
g61
(dp2875
g88
g89
ssg70
g2864
sg63
(lp2876
S':'
asbag56
(g77
g58
NtRp2877
(dp2878
g61
(dp2879
sg70
g2864
sg63
(lp2880
g56
(g57
g58
NtRp2881
(dp2882
g61
(dp2883
g69
I3
ssg70
g2877
sg63
(lp2884
g1667
asbasbasbag56
(g72
g58
NtRp2885
(dp2886
g61
(dp2887
sg70
g2374
sg63
(lp2888
g56
(g77
g58
NtRp2889
(dp2890
g61
(dp2891
g81
g82
ssg70
g2885
sg63
(lp2892
S'wsgi.version'
p2893
asbag56
(g77
g58
NtRp2894
(dp2895
g61
(dp2896
g88
g89
ssg70
g2885
sg63
(lp2897
S':'
asbag56
(g77
g58
NtRp2898
(dp2899
g61
(dp2900
sg70
g2885
sg63
(lp2901
g56
(g57
g58
NtRp2902
(dp2903
g61
(dp2904
g69
I3
ssg70
g2898
sg63
(lp2905
S'1'
asbasbasbasbasbasbasbasbasbasbasbasbasbsS'frames'
p2906
(lp2907
(dp2908
S'file'
p2909
S'/home/jose/DESARROLLO/web2py199/gluon/restricted.py'
p2910
sS'dump'
p2911
(dp2912
S'environment'
p2913
S"{'A': <class 'gluon.html.A'>, 'Auth': <class 'gluon.tools.Auth'>, 'B': <class 'gluon.html.B'>, 'BEAUTIFY': <class 'gluon.html.BEAUTIFY'>, 'BODY': <class 'gluon.html.BODY'>, 'BR': <class 'gluon.html.BR'>, 'BUTTON': <class 'gluon.html.BUTTON'>, 'CAT': <class 'gluon.html.CAT'>, 'CENTER': <class 'gluon.html.CENTER'>, 'CLEANUP': <class 'gluon.validators.CLEANUP'>, ...}"
p2914
sS'ccode'
p2915
S'<code object <module> at 0x2ee19b0, file "/home/...tions/streamlog/controllers/default.py", line 14>'
p2916
ssS'lnum'
p2917
I194
sS'lines'
p2918
(dp2919
I192
S'        else:'
p2920
sI193
S'            ccode = compile2(code,layer)'
p2921
sI194
S'        exec ccode in environment'
p2922
sI195
S'    except HTTP:'
p2923
sI196
S'        raise'
p2924
sI197
S'    except Exception, error:'
p2925
sI198
S'        # XXX Show exception in Wing IDE if running in debugger'
p2926
sI189
S'    try:'
p2927
sI190
S'        if type(code) == types.CodeType:'
p2928
sI191
S'            ccode = code'
p2929
ssS'call'
p2930
S"(code='# -*- coding: utf-8 -*-\\n# this file is released ...sponse._vars=response._caller(getConnectionData)\\n', environment={'A': <class 'gluon.html.A'>, 'Auth': <class 'gluon.tools.Auth'>, 'B': <class 'gluon.html.B'>, 'BEAUTIFY': <class 'gluon.html.BEAUTIFY'>, 'BODY': <class 'gluon.html.BODY'>, 'BR': <class 'gluon.html.BR'>, 'BUTTON': <class 'gluon.html.BUTTON'>, 'CAT': <class 'gluon.html.CAT'>, 'CENTER': <class 'gluon.html.CENTER'>, 'CLEANUP': <class 'gluon.validators.CLEANUP'>, ...}, layer='/home/jose/DESARROLLO/web2py199/applications/streamlog/controllers/default.py')"
p2931
sS'func'
p2932
S'restricted'
p2933
sa(dp2934
g2909
S'/home/jose/DESARROLLO/web2py199/applications/streamlog/controllers/default.py'
p2935
sg2911
(dp2936
sg2917
I183
sg2918
(dp2937
I172
S'    http://..../[app]/default/data/update/[table]/[id]'
p2938
sI173
S'    http://..../[app]/default/data/delete/[table]/[id]'
p2939
sI174
S'    http://..../[app]/default/data/select/[table]'
p2940
sI175
S'    http://..../[app]/default/data/search/[table]'
p2941
sI176
S'    but URLs bust be signed, i.e. linked with'
p2942
sI177
S"      A('table',_href=URL('data/tables',user_signature=True))"
p2943
sI178
S'    or with the signed load operator'
p2944
sI179
S"      LOAD('default','data.load',args='tables',ajax=True,user_signature=True)"
p2945
sI180
S'    """'
p2946
sI181
S'    return dict(form=crud())'
p2947
ssg2930
S'()'
p2948
sg2932
S'<module>'
p2949
sa(dp2950
g2909
S'/home/jose/DESARROLLO/web2py199/gluon/globals.py'
p2951
sg2911
(dp2952
S'self'
p2953
S'undefined'
p2954
sS'f'
S'<function getConnectionData>'
p2955
ssg2917
I149
sg2918
(dp2956
I144
S'        self.meta = Storage()      # used by web2py_ajax.html'
p2957
sI145
S'        self.menu = []             # used by the default view layout'
p2958
sI146
S'        self.files = []            # used by web2py_ajax.html'
p2959
sI147
S'        self.generic_patterns = [] # patterns to allow generic views'
p2960
sI148
S'        self._vars = None'
p2961
sI149
S'        self._caller = lambda f: f()'
p2962
sI150
S'        self._view_environment = None'
p2963
sI151
S'        self._custom_commit = None'
p2964
sI152
S'        self._custom_rollback = None'
p2965
sI153
S''
ssg2930
S'(f=<function getConnectionData>)'
p2966
sg2932
S'<lambda>'
p2967
sa(dp2968
g2909
S'/home/jose/DESARROLLO/web2py199/applications/streamlog/controllers/default.py'
p2969
sg2911
(dp2970
S'regex_doce'
p2971
g2954
ssg2917
I45
sg2918
(dp2972
I40
S'        name_log=row.t_log.name'
p2973
sI41
S''
sI42
S''
sI43
S'    regex=db((db.t_log.id==id_log)&(db.t_log.type_log==db.t_type_log.id)).select(db.t_type_log.regex_code)'
p2974
sI44
S''
sI45
S'    regex_doce'
p2975
sI46
S'    for row in regex:'
p2976
sI47
S'        regex_code=row.t_type_log.regex_code'
p2977
sI48
S''
sI49
S"    return response.json([{'name_log': name_log,'IP': ip,'port': port,'regex': regex_code}])"
p2978
ssg2930
S'()'
p2979
sg2932
S'getConnectionData'
p2980
sasS'pyver'
p2981
S'Python 2.7.2+: /usr/bin/python'
p2982
sS'session'
p2983
g56
(g57
g58
NtRp2984
(dp2985
g61
(dp2986
sg63
(lp2987
g56
(g65
g58
NtRp2988
(dp2989
g61
(dp2990
g69
I5
ssg70
Nsg63
(lp2991
g56
(g72
g58
NtRp2992
(dp2993
g61
(dp2994
sg70
g2988
sg63
(lp2995
g56
(g77
g58
NtRp2996
(dp2997
g61
(dp2998
g81
g82
ssg70
g2992
sg63
(lp2999
S'last_query'
p3000
asbag56
(g77
g58
NtRp3001
(dp3002
g61
(dp3003
g88
g89
ssg70
g2992
sg63
(lp3004
S':'
asbag56
(g77
g58
NtRp3005
(dp3006
g61
(dp3007
sg70
g2992
sg63
(lp3008
g56
(g57
g58
NtRp3009
(dp3010
g61
(dp3011
g69
I5
ssg70
g3005
sg63
(lp3012
S'db((db.t_log.id==1)&(db.t_log.type_log==db.t_type_log.id)).select(db.t_type_log.html_table)'
p3013
asbasbasbasbasbsS'etype'
p3014
S"<type 'exceptions.NameError'>"
p3015
sS'date'
p3016
S'Sun May 27 08:54:22 2012'
p3017
sS'response'
p3018
g56
(g57
g58
NtRp3019
(dp3020
g61
(dp3021
sg63
(lp3022
g56
(g65
g58
NtRp3023
(dp3024
g61
(dp3025
g69
I5
ssg70
Nsg63
(lp3026
g56
(g72
g58
NtRp3027
(dp3028
g61
(dp3029
sg70
g3023
sg63
(lp3030
g56
(g77
g58
NtRp3031
(dp3032
g61
(dp3033
g81
g82
ssg70
g3027
sg63
(lp3034
g166
asbag56
(g77
g58
NtRp3035
(dp3036
g61
(dp3037
g88
g89
ssg70
g3027
sg63
(lp3038
S':'
asbag56
(g77
g58
NtRp3039
(dp3040
g61
(dp3041
sg70
g3027
sg63
(lp3042
g56
(g57
g58
NtRp3043
(dp3044
g61
(dp3045
g69
I5
ssg70
g3039
sg63
(lp3046
S'<cStringIO.StringO object at 0x2d686f8>'
p3047
asbasbasbag56
(g72
g58
NtRp3048
(dp3049
g61
(dp3050
sg70
g3023
sg63
(lp3051
g56
(g77
g58
NtRp3052
(dp3053
g61
(dp3054
g81
g82
ssg70
g3048
sg63
(lp3055
g232
asbag56
(g77
g58
NtRp3056
(dp3057
g61
(dp3058
g88
g89
ssg70
g3048
sg63
(lp3059
S':'
asbag56
(g77
g58
NtRp3060
(dp3061
g61
(dp3062
sg70
g3048
sg63
(lp3063
g56
(g57
g58
NtRp3064
(dp3065
g61
(dp3066
g69
I5
ssg70
g3060
sg63
(lp3067
g56
(g65
g58
NtRp3068
(dp3069
g61
(dp3070
g69
I4
ssg70
Nsg63
(lp3071
g56
(g72
g58
NtRp3072
(dp3073
g61
(dp3074
sg70
g3068
sg63
(lp3075
g56
(g77
g58
NtRp3076
(dp3077
g61
(dp3078
g81
g82
ssg70
g3072
sg63
(lp3079
S'session_id_streamlog'
p3080
asbag56
(g77
g58
NtRp3081
(dp3082
g61
(dp3083
g88
g89
ssg70
g3072
sg63
(lp3084
S':'
asbag56
(g77
g58
NtRp3085
(dp3086
g61
(dp3087
sg70
g3072
sg63
(lp3088
g56
(g57
g58
NtRp3089
(dp3090
g61
(dp3091
g69
I4
ssg70
g3085
sg63
(lp3092
g56
(g65
g58
NtRp3093
(dp3094
g61
(dp3095
g69
I3
ssg70
Nsg63
(lp3096
g56
(g72
g58
NtRp3097
(dp3098
g61
(dp3099
sg70
g3093
sg63
(lp3100
g56
(g77
g58
NtRp3101
(dp3102
g61
(dp3103
g81
g82
ssg70
g3097
sg63
(lp3104
g282
asbag56
(g77
g58
NtRp3105
(dp3106
g61
(dp3107
g88
g89
ssg70
g3097
sg63
(lp3108
S':'
asbag56
(g77
g58
NtRp3109
(dp3110
g61
(dp3111
sg70
g3097
sg63
(lp3112
g56
(g57
g58
NtRp3113
(dp3114
g61
(dp3115
g69
I3
ssg70
g3109
sg63
(lp3116
S''
asbasbasbag56
(g72
g58
NtRp3117
(dp3118
g61
(dp3119
sg70
g3093
sg63
(lp3120
g56
(g77
g58
NtRp3121
(dp3122
g61
(dp3123
g81
g82
ssg70
g3117
sg63
(lp3124
g303
asbag56
(g77
g58
NtRp3125
(dp3126
g61
(dp3127
g88
g89
ssg70
g3117
sg63
(lp3128
S':'
asbag56
(g77
g58
NtRp3129
(dp3130
g61
(dp3131
sg70
g3117
sg63
(lp3132
g56
(g57
g58
NtRp3133
(dp3134
g61
(dp3135
g69
I3
ssg70
g3129
sg63
(lp3136
S''
asbasbasbag56
(g72
g58
NtRp3137
(dp3138
g61
(dp3139
sg70
g3093
sg63
(lp3140
g56
(g77
g58
NtRp3141
(dp3142
g61
(dp3143
g81
g82
ssg70
g3137
sg63
(lp3144
g324
asbag56
(g77
g58
NtRp3145
(dp3146
g61
(dp3147
g88
g89
ssg70
g3137
sg63
(lp3148
S':'
asbag56
(g77
g58
NtRp3149
(dp3150
g61
(dp3151
sg70
g3137
sg63
(lp3152
g56
(g57
g58
NtRp3153
(dp3154
g61
(dp3155
g69
I3
ssg70
g3149
sg63
(lp3156
S''
asbasbasbag56
(g72
g58
NtRp3157
(dp3158
g61
(dp3159
sg70
g3093
sg63
(lp3160
g56
(g77
g58
NtRp3161
(dp3162
g61
(dp3163
g81
g82
ssg70
g3157
sg63
(lp3164
g345
asbag56
(g77
g58
NtRp3165
(dp3166
g61
(dp3167
g88
g89
ssg70
g3157
sg63
(lp3168
S':'
asbag56
(g77
g58
NtRp3169
(dp3170
g61
(dp3171
sg70
g3157
sg63
(lp3172
g56
(g57
g58
NtRp3173
(dp3174
g61
(dp3175
g69
I3
ssg70
g3169
sg63
(lp3176
S''
asbasbasbag56
(g72
g58
NtRp3177
(dp3178
g61
(dp3179
sg70
g3093
sg63
(lp3180
g56
(g77
g58
NtRp3181
(dp3182
g61
(dp3183
g81
g82
ssg70
g3177
sg63
(lp3184
g366
asbag56
(g77
g58
NtRp3185
(dp3186
g61
(dp3187
g88
g89
ssg70
g3177
sg63
(lp3188
S':'
asbag56
(g77
g58
NtRp3189
(dp3190
g61
(dp3191
sg70
g3177
sg63
(lp3192
g56
(g57
g58
NtRp3193
(dp3194
g61
(dp3195
g69
I3
ssg70
g3189
sg63
(lp3196
S''
asbasbasbag56
(g72
g58
NtRp3197
(dp3198
g61
(dp3199
sg70
g3093
sg63
(lp3200
g56
(g77
g58
NtRp3201
(dp3202
g61
(dp3203
g81
g82
ssg70
g3197
sg63
(lp3204
g387
asbag56
(g77
g58
NtRp3205
(dp3206
g61
(dp3207
g88
g89
ssg70
g3197
sg63
(lp3208
S':'
asbag56
(g77
g58
NtRp3209
(dp3210
g61
(dp3211
sg70
g3197
sg63
(lp3212
g56
(g57
g58
NtRp3213
(dp3214
g61
(dp3215
g69
I3
ssg70
g3209
sg63
(lp3216
S'/'
asbasbasbag56
(g72
g58
NtRp3217
(dp3218
g61
(dp3219
sg70
g3093
sg63
(lp3220
g56
(g77
g58
NtRp3221
(dp3222
g61
(dp3223
g81
g82
ssg70
g3217
sg63
(lp3224
g408
asbag56
(g77
g58
NtRp3225
(dp3226
g61
(dp3227
g88
g89
ssg70
g3217
sg63
(lp3228
S':'
asbag56
(g77
g58
NtRp3229
(dp3230
g61
(dp3231
sg70
g3217
sg63
(lp3232
g56
(g57
g58
NtRp3233
(dp3234
g61
(dp3235
g69
I3
ssg70
g3229
sg63
(lp3236
S''
asbasbasbag56
(g72
g58
NtRp3237
(dp3238
g61
(dp3239
sg70
g3093
sg63
(lp3240
g56
(g77
g58
NtRp3241
(dp3242
g61
(dp3243
g81
g82
ssg70
g3237
sg63
(lp3244
g429
asbag56
(g77
g58
NtRp3245
(dp3246
g61
(dp3247
g88
g89
ssg70
g3237
sg63
(lp3248
S':'
asbag56
(g77
g58
NtRp3249
(dp3250
g61
(dp3251
sg70
g3237
sg63
(lp3252
g56
(g57
g58
NtRp3253
(dp3254
g61
(dp3255
g69
I3
ssg70
g3249
sg63
(lp3256
S''
asbasbasbasbasbasbasbasbasbasbasbag56
(g72
g58
NtRp3257
(dp3258
g61
(dp3259
sg70
g3023
sg63
(lp3260
g56
(g77
g58
NtRp3261
(dp3262
g61
(dp3263
g81
g82
ssg70
g3257
sg63
(lp3264
S'files'
p3265
asbag56
(g77
g58
NtRp3266
(dp3267
g61
(dp3268
g88
g89
ssg70
g3257
sg63
(lp3269
S':'
asbag56
(g77
g58
NtRp3270
(dp3271
g61
(dp3272
sg70
g3257
sg63
(lp3273
g56
(g57
g58
NtRp3274
(dp3275
g61
(dp3276
g69
I5
ssg70
g3270
sg63
(lp3277
g56
(g65
g58
NtRp3278
(dp3279
g61
(dp3280
g69
I4
ssg70
Nsg63
(lp3281
sbasbasbasbag56
(g72
g58
NtRp3282
(dp3283
g61
(dp3284
sg70
g3023
sg63
(lp3285
g56
(g77
g58
NtRp3286
(dp3287
g61
(dp3288
g81
g82
ssg70
g3282
sg63
(lp3289
S'flash'
p3290
asbag56
(g77
g58
NtRp3291
(dp3292
g61
(dp3293
g88
g89
ssg70
g3282
sg63
(lp3294
S':'
asbag56
(g77
g58
NtRp3295
(dp3296
g61
(dp3297
sg70
g3282
sg63
(lp3298
g56
(g57
g58
NtRp3299
(dp3300
g61
(dp3301
g69
I5
ssg70
g3295
sg63
(lp3302
S''
asbasbasbag56
(g72
g58
NtRp3303
(dp3304
g61
(dp3305
sg70
g3023
sg63
(lp3306
g56
(g77
g58
NtRp3307
(dp3308
g61
(dp3309
g81
g82
ssg70
g3303
sg63
(lp3310
S'generic_patterns'
p3311
asbag56
(g77
g58
NtRp3312
(dp3313
g61
(dp3314
g88
g89
ssg70
g3303
sg63
(lp3315
S':'
asbag56
(g77
g58
NtRp3316
(dp3317
g61
(dp3318
sg70
g3303
sg63
(lp3319
g56
(g57
g58
NtRp3320
(dp3321
g61
(dp3322
g69
I5
ssg70
g3316
sg63
(lp3323
g56
(g65
g58
NtRp3324
(dp3325
g61
(dp3326
g69
I4
ssg70
Nsg63
(lp3327
g56
(g72
g58
NtRp3328
(dp3329
g61
(dp3330
sg70
g3324
sg63
(lp3331
g56
(g77
g58
NtRp3332
(dp3333
g61
(dp3334
sg70
g3328
sg63
(lp3335
g56
(g57
g58
NtRp3336
(dp3337
g61
(dp3338
g69
I4
ssg70
g3332
sg63
(lp3339
S'*'
asbasbasbasbasbasbasbag56
(g72
g58
NtRp3340
(dp3341
g61
(dp3342
sg70
g3023
sg63
(lp3343
g56
(g77
g58
NtRp3344
(dp3345
g61
(dp3346
g81
g82
ssg70
g3340
sg63
(lp3347
S'headers'
p3348
asbag56
(g77
g58
NtRp3349
(dp3350
g61
(dp3351
g88
g89
ssg70
g3340
sg63
(lp3352
S':'
asbag56
(g77
g58
NtRp3353
(dp3354
g61
(dp3355
sg70
g3340
sg63
(lp3356
g56
(g57
g58
NtRp3357
(dp3358
g61
(dp3359
g69
I5
ssg70
g3353
sg63
(lp3360
g56
(g65
g58
NtRp3361
(dp3362
g61
(dp3363
g69
I4
ssg70
Nsg63
(lp3364
g56
(g72
g58
NtRp3365
(dp3366
g61
(dp3367
sg70
g3361
sg63
(lp3368
g56
(g77
g58
NtRp3369
(dp3370
g61
(dp3371
g81
g82
ssg70
g3365
sg63
(lp3372
S'Cache-Control'
p3373
asbag56
(g77
g58
NtRp3374
(dp3375
g61
(dp3376
g88
g89
ssg70
g3365
sg63
(lp3377
S':'
asbag56
(g77
g58
NtRp3378
(dp3379
g61
(dp3380
sg70
g3365
sg63
(lp3381
g56
(g57
g58
NtRp3382
(dp3383
g61
(dp3384
g69
I4
ssg70
g3378
sg63
(lp3385
S'no-store, no-cache, must-revalidate, post-check=0, pre-check=0'
p3386
asbasbasbag56
(g72
g58
NtRp3387
(dp3388
g61
(dp3389
sg70
g3361
sg63
(lp3390
g56
(g77
g58
NtRp3391
(dp3392
g61
(dp3393
g81
g82
ssg70
g3387
sg63
(lp3394
S'Content-Type'
p3395
asbag56
(g77
g58
NtRp3396
(dp3397
g61
(dp3398
g88
g89
ssg70
g3387
sg63
(lp3399
S':'
asbag56
(g77
g58
NtRp3400
(dp3401
g61
(dp3402
sg70
g3387
sg63
(lp3403
g56
(g57
g58
NtRp3404
(dp3405
g61
(dp3406
g69
I4
ssg70
g3400
sg63
(lp3407
S'text/html; charset=utf-8'
p3408
asbasbasbag56
(g72
g58
NtRp3409
(dp3410
g61
(dp3411
sg70
g3361
sg63
(lp3412
g56
(g77
g58
NtRp3413
(dp3414
g61
(dp3415
g81
g82
ssg70
g3409
sg63
(lp3416
S'Expires'
p3417
asbag56
(g77
g58
NtRp3418
(dp3419
g61
(dp3420
g88
g89
ssg70
g3409
sg63
(lp3421
S':'
asbag56
(g77
g58
NtRp3422
(dp3423
g61
(dp3424
sg70
g3409
sg63
(lp3425
g56
(g57
g58
NtRp3426
(dp3427
g61
(dp3428
g69
I4
ssg70
g3422
sg63
(lp3429
S'Sun, 27 May 2012 01:54:21 GMT'
p3430
asbasbasbag56
(g72
g58
NtRp3431
(dp3432
g61
(dp3433
sg70
g3361
sg63
(lp3434
g56
(g77
g58
NtRp3435
(dp3436
g61
(dp3437
g81
g82
ssg70
g3431
sg63
(lp3438
S'Pragma'
p3439
asbag56
(g77
g58
NtRp3440
(dp3441
g61
(dp3442
g88
g89
ssg70
g3431
sg63
(lp3443
S':'
asbag56
(g77
g58
NtRp3444
(dp3445
g61
(dp3446
sg70
g3431
sg63
(lp3447
g56
(g57
g58
NtRp3448
(dp3449
g61
(dp3450
g69
I4
ssg70
g3444
sg63
(lp3451
S'no-cache'
p3452
asbasbasbag56
(g72
g58
NtRp3453
(dp3454
g61
(dp3455
sg70
g3361
sg63
(lp3456
g56
(g77
g58
NtRp3457
(dp3458
g61
(dp3459
g81
g82
ssg70
g3453
sg63
(lp3460
S'X-Powered-By'
p3461
asbag56
(g77
g58
NtRp3462
(dp3463
g61
(dp3464
g88
g89
ssg70
g3453
sg63
(lp3465
S':'
asbag56
(g77
g58
NtRp3466
(dp3467
g61
(dp3468
sg70
g3453
sg63
(lp3469
g56
(g57
g58
NtRp3470
(dp3471
g61
(dp3472
g69
I4
ssg70
g3466
sg63
(lp3473
S'web2py'
p3474
asbasbasbasbasbasbasbag56
(g72
g58
NtRp3475
(dp3476
g61
(dp3477
sg70
g3023
sg63
(lp3478
g56
(g77
g58
NtRp3479
(dp3480
g61
(dp3481
g81
g82
ssg70
g3475
sg63
(lp3482
S'menu'
p3483
asbag56
(g77
g58
NtRp3484
(dp3485
g61
(dp3486
g88
g89
ssg70
g3475
sg63
(lp3487
S':'
asbag56
(g77
g58
NtRp3488
(dp3489
g61
(dp3490
sg70
g3475
sg63
(lp3491
g56
(g57
g58
NtRp3492
(dp3493
g61
(dp3494
g69
I5
ssg70
g3488
sg63
(lp3495
g56
(g65
g58
NtRp3496
(dp3497
g61
(dp3498
g69
I4
ssg70
Nsg63
(lp3499
g56
(g72
g58
NtRp3500
(dp3501
g61
(dp3502
sg70
g3496
sg63
(lp3503
g56
(g77
g58
NtRp3504
(dp3505
g61
(dp3506
sg70
g3500
sg63
(lp3507
g56
(g57
g58
NtRp3508
(dp3509
g61
(dp3510
g69
I4
ssg70
g3504
sg63
(lp3511
g56
(g65
g58
NtRp3512
(dp3513
g61
(dp3514
g69
I3
ssg70
Nsg63
(lp3515
g56
(g72
g58
NtRp3516
(dp3517
g61
(dp3518
sg70
g3512
sg63
(lp3519
g56
(g77
g58
NtRp3520
(dp3521
g61
(dp3522
sg70
g3516
sg63
(lp3523
g56
(g57
g58
NtRp3524
(dp3525
g61
(dp3526
g69
I3
ssg70
g3520
sg63
(lp3527
cgluon.languages
lazyT_unpickle
p3528
(S's\n\x00\x00\x00Clear Page'
tRp3529
asbasbasbag56
(g72
g58
NtRp3530
(dp3531
g61
(dp3532
sg70
g3512
sg63
(lp3533
g56
(g77
g58
NtRp3534
(dp3535
g61
(dp3536
sg70
g3530
sg63
(lp3537
g56
(g57
g58
NtRp3538
(dp3539
g61
(dp3540
g69
I3
ssg70
g3534
sg63
(lp3541
g99
asbasbasbag56
(g72
g58
NtRp3542
(dp3543
g61
(dp3544
sg70
g3512
sg63
(lp3545
g56
(g77
g58
NtRp3546
(dp3547
g61
(dp3548
sg70
g3542
sg63
(lp3549
g56
(g57
g58
NtRp3550
(dp3551
g61
(dp3552
g69
I3
ssg70
g3546
sg63
(lp3553
S'/streamlog/default/index'
p3554
asbasbasbag56
(g72
g58
NtRp3555
(dp3556
g61
(dp3557
sg70
g3512
sg63
(lp3558
g56
(g77
g58
NtRp3559
(dp3560
g61
(dp3561
sg70
g3555
sg63
(lp3562
g56
(g57
g58
NtRp3563
(dp3564
g61
(dp3565
g69
I3
ssg70
g3559
sg63
(lp3566
g56
(g65
g58
NtRp3567
(dp3568
g61
(dp3569
g69
I2
ssg70
Nsg63
(lp3570
sbasbasbasbasbasbasbasbag56
(g72
g58
NtRp3571
(dp3572
g61
(dp3573
sg70
g3496
sg63
(lp3574
g56
(g77
g58
NtRp3575
(dp3576
g61
(dp3577
sg70
g3571
sg63
(lp3578
g56
(g57
g58
NtRp3579
(dp3580
g61
(dp3581
g69
I4
ssg70
g3575
sg63
(lp3582
g56
(g65
g58
NtRp3583
(dp3584
g61
(dp3585
g69
I3
ssg70
Nsg63
(lp3586
g56
(g72
g58
NtRp3587
(dp3588
g61
(dp3589
sg70
g3583
sg63
(lp3590
g56
(g77
g58
NtRp3591
(dp3592
g61
(dp3593
sg70
g3587
sg63
(lp3594
g56
(g57
g58
NtRp3595
(dp3596
g61
(dp3597
g69
I3
ssg70
g3591
sg63
(lp3598
g3528
(S't\x06\x00\x00\x00Manage'
tRp3599
asbasbasbag56
(g72
g58
NtRp3600
(dp3601
g61
(dp3602
sg70
g3583
sg63
(lp3603
g56
(g77
g58
NtRp3604
(dp3605
g61
(dp3606
sg70
g3600
sg63
(lp3607
g56
(g57
g58
NtRp3608
(dp3609
g61
(dp3610
g69
I3
ssg70
g3604
sg63
(lp3611
g99
asbasbasbag56
(g72
g58
NtRp3612
(dp3613
g61
(dp3614
sg70
g3583
sg63
(lp3615
g56
(g77
g58
NtRp3616
(dp3617
g61
(dp3618
sg70
g3612
sg63
(lp3619
g56
(g57
g58
NtRp3620
(dp3621
g61
(dp3622
g69
I3
ssg70
g3616
sg63
(lp3623
S'None'
p3624
asbasbasbag56
(g72
g58
NtRp3625
(dp3626
g61
(dp3627
sg70
g3583
sg63
(lp3628
g56
(g77
g58
NtRp3629
(dp3630
g61
(dp3631
sg70
g3625
sg63
(lp3632
g56
(g57
g58
NtRp3633
(dp3634
g61
(dp3635
g69
I3
ssg70
g3629
sg63
(lp3636
g56
(g65
g58
NtRp3637
(dp3638
g61
(dp3639
g69
I2
ssg70
Nsg63
(lp3640
g56
(g72
g58
NtRp3641
(dp3642
g61
(dp3643
sg70
g3637
sg63
(lp3644
g56
(g77
g58
NtRp3645
(dp3646
g61
(dp3647
sg70
g3641
sg63
(lp3648
g56
(g57
g58
NtRp3649
(dp3650
g61
(dp3651
g69
I2
ssg70
g3645
sg63
(lp3652
g56
(g65
g58
NtRp3653
(dp3654
g61
(dp3655
g69
I1
ssg70
Nsg63
(lp3656
g56
(g72
g58
NtRp3657
(dp3658
g61
(dp3659
sg70
g3653
sg63
(lp3660
g56
(g77
g58
NtRp3661
(dp3662
g61
(dp3663
sg70
g3657
sg63
(lp3664
g56
(g57
g58
NtRp3665
(dp3666
g61
(dp3667
g69
I1
ssg70
g3661
sg63
(lp3668
g3528
(S't\x04\x00\x00\x00Logs'
tRp3669
asbasbasbag56
(g72
g58
NtRp3670
(dp3671
g61
(dp3672
sg70
g3653
sg63
(lp3673
g56
(g77
g58
NtRp3674
(dp3675
g61
(dp3676
sg70
g3670
sg63
(lp3677
g56
(g57
g58
NtRp3678
(dp3679
g61
(dp3680
g69
I1
ssg70
g3674
sg63
(lp3681
I00
asbasbasbag56
(g72
g58
NtRp3682
(dp3683
g61
(dp3684
sg70
g3653
sg63
(lp3685
g56
(g77
g58
NtRp3686
(dp3687
g61
(dp3688
sg70
g3682
sg63
(lp3689
g56
(g57
g58
NtRp3690
(dp3691
g61
(dp3692
g69
I1
ssg70
g3686
sg63
(lp3693
S'/streamlog/default/log_manage'
p3694
asbasbasbag56
(g72
g58
NtRp3695
(dp3696
g61
(dp3697
sg70
g3653
sg63
(lp3698
g56
(g77
g58
NtRp3699
(dp3700
g61
(dp3701
sg70
g3695
sg63
(lp3702
g56
(g57
g58
NtRp3703
(dp3704
g61
(dp3705
g69
I1
ssg70
g3699
sg63
(lp3706
(lp3707
asbasbasbasbasbasbasbag56
(g72
g58
NtRp3708
(dp3709
g61
(dp3710
sg70
g3637
sg63
(lp3711
g56
(g77
g58
NtRp3712
(dp3713
g61
(dp3714
sg70
g3708
sg63
(lp3715
g56
(g57
g58
NtRp3716
(dp3717
g61
(dp3718
g69
I2
ssg70
g3712
sg63
(lp3719
g56
(g65
g58
NtRp3720
(dp3721
g61
(dp3722
g69
I1
ssg70
Nsg63
(lp3723
g56
(g72
g58
NtRp3724
(dp3725
g61
(dp3726
sg70
g3720
sg63
(lp3727
g56
(g77
g58
NtRp3728
(dp3729
g61
(dp3730
sg70
g3724
sg63
(lp3731
g56
(g57
g58
NtRp3732
(dp3733
g61
(dp3734
g69
I1
ssg70
g3728
sg63
(lp3735
g3528
(S't\x07\x00\x00\x00Servers'
tRp3736
asbasbasbag56
(g72
g58
NtRp3737
(dp3738
g61
(dp3739
sg70
g3720
sg63
(lp3740
g56
(g77
g58
NtRp3741
(dp3742
g61
(dp3743
sg70
g3737
sg63
(lp3744
g56
(g57
g58
NtRp3745
(dp3746
g61
(dp3747
g69
I1
ssg70
g3741
sg63
(lp3748
I00
asbasbasbag56
(g72
g58
NtRp3749
(dp3750
g61
(dp3751
sg70
g3720
sg63
(lp3752
g56
(g77
g58
NtRp3753
(dp3754
g61
(dp3755
sg70
g3749
sg63
(lp3756
g56
(g57
g58
NtRp3757
(dp3758
g61
(dp3759
g69
I1
ssg70
g3753
sg63
(lp3760
S'/streamlog/default/server_manage'
p3761
asbasbasbag56
(g72
g58
NtRp3762
(dp3763
g61
(dp3764
sg70
g3720
sg63
(lp3765
g56
(g77
g58
NtRp3766
(dp3767
g61
(dp3768
sg70
g3762
sg63
(lp3769
g56
(g57
g58
NtRp3770
(dp3771
g61
(dp3772
g69
I1
ssg70
g3766
sg63
(lp3773
(lp3774
asbasbasbasbasbasbasbag56
(g72
g58
NtRp3775
(dp3776
g61
(dp3777
sg70
g3637
sg63
(lp3778
g56
(g77
g58
NtRp3779
(dp3780
g61
(dp3781
sg70
g3775
sg63
(lp3782
g56
(g57
g58
NtRp3783
(dp3784
g61
(dp3785
g69
I2
ssg70
g3779
sg63
(lp3786
g56
(g65
g58
NtRp3787
(dp3788
g61
(dp3789
g69
I1
ssg70
Nsg63
(lp3790
g56
(g72
g58
NtRp3791
(dp3792
g61
(dp3793
sg70
g3787
sg63
(lp3794
g56
(g77
g58
NtRp3795
(dp3796
g61
(dp3797
sg70
g3791
sg63
(lp3798
g56
(g57
g58
NtRp3799
(dp3800
g61
(dp3801
g69
I1
ssg70
g3795
sg63
(lp3802
g3528
(S't\x08\x00\x00\x00Projects'
tRp3803
asbasbasbag56
(g72
g58
NtRp3804
(dp3805
g61
(dp3806
sg70
g3787
sg63
(lp3807
g56
(g77
g58
NtRp3808
(dp3809
g61
(dp3810
sg70
g3804
sg63
(lp3811
g56
(g57
g58
NtRp3812
(dp3813
g61
(dp3814
g69
I1
ssg70
g3808
sg63
(lp3815
I00
asbasbasbag56
(g72
g58
NtRp3816
(dp3817
g61
(dp3818
sg70
g3787
sg63
(lp3819
g56
(g77
g58
NtRp3820
(dp3821
g61
(dp3822
sg70
g3816
sg63
(lp3823
g56
(g57
g58
NtRp3824
(dp3825
g61
(dp3826
g69
I1
ssg70
g3820
sg63
(lp3827
S'/streamlog/default/project_manage'
p3828
asbasbasbag56
(g72
g58
NtRp3829
(dp3830
g61
(dp3831
sg70
g3787
sg63
(lp3832
g56
(g77
g58
NtRp3833
(dp3834
g61
(dp3835
sg70
g3829
sg63
(lp3836
g56
(g57
g58
NtRp3837
(dp3838
g61
(dp3839
g69
I1
ssg70
g3833
sg63
(lp3840
(lp3841
asbasbasbasbasbasbasbag56
(g72
g58
NtRp3842
(dp3843
g61
(dp3844
sg70
g3637
sg63
(lp3845
g56
(g77
g58
NtRp3846
(dp3847
g61
(dp3848
sg70
g3842
sg63
(lp3849
g56
(g57
g58
NtRp3850
(dp3851
g61
(dp3852
g69
I2
ssg70
g3846
sg63
(lp3853
g56
(g65
g58
NtRp3854
(dp3855
g61
(dp3856
g69
I1
ssg70
Nsg63
(lp3857
g56
(g72
g58
NtRp3858
(dp3859
g61
(dp3860
sg70
g3854
sg63
(lp3861
g56
(g77
g58
NtRp3862
(dp3863
g61
(dp3864
sg70
g3858
sg63
(lp3865
g56
(g57
g58
NtRp3866
(dp3867
g61
(dp3868
g69
I1
ssg70
g3862
sg63
(lp3869
g3528
(S's\t\x00\x00\x00Type Logs'
tRp3870
asbasbasbag56
(g72
g58
NtRp3871
(dp3872
g61
(dp3873
sg70
g3854
sg63
(lp3874
g56
(g77
g58
NtRp3875
(dp3876
g61
(dp3877
sg70
g3871
sg63
(lp3878
g56
(g57
g58
NtRp3879
(dp3880
g61
(dp3881
g69
I1
ssg70
g3875
sg63
(lp3882
I00
asbasbasbag56
(g72
g58
NtRp3883
(dp3884
g61
(dp3885
sg70
g3854
sg63
(lp3886
g56
(g77
g58
NtRp3887
(dp3888
g61
(dp3889
sg70
g3883
sg63
(lp3890
g56
(g57
g58
NtRp3891
(dp3892
g61
(dp3893
g69
I1
ssg70
g3887
sg63
(lp3894
S'/streamlog/default/type_log_manage'
p3895
asbasbasbag56
(g72
g58
NtRp3896
(dp3897
g61
(dp3898
sg70
g3854
sg63
(lp3899
g56
(g77
g58
NtRp3900
(dp3901
g61
(dp3902
sg70
g3896
sg63
(lp3903
g56
(g57
g58
NtRp3904
(dp3905
g61
(dp3906
g69
I1
ssg70
g3900
sg63
(lp3907
(lp3908
asbasbasbasbasbasbasbasbasbasbasbasbasbasbasbasbasbasbasbag56
(g72
g58
NtRp3909
(dp3910
g61
(dp3911
sg70
g3023
sg63
(lp3912
g56
(g77
g58
NtRp3913
(dp3914
g61
(dp3915
g81
g82
ssg70
g3909
sg63
(lp3916
S'meta'
p3917
asbag56
(g77
g58
NtRp3918
(dp3919
g61
(dp3920
g88
g89
ssg70
g3909
sg63
(lp3921
S':'
asbag56
(g77
g58
NtRp3922
(dp3923
g61
(dp3924
sg70
g3909
sg63
(lp3925
g56
(g57
g58
NtRp3926
(dp3927
g61
(dp3928
g69
I5
ssg70
g3922
sg63
(lp3929
g56
(g65
g58
NtRp3930
(dp3931
g61
(dp3932
g69
I4
ssg70
Nsg63
(lp3933
g56
(g72
g58
NtRp3934
(dp3935
g61
(dp3936
sg70
g3930
sg63
(lp3937
g56
(g77
g58
NtRp3938
(dp3939
g61
(dp3940
g81
g82
ssg70
g3934
sg63
(lp3941
S'author'
p3942
asbag56
(g77
g58
NtRp3943
(dp3944
g61
(dp3945
g88
g89
ssg70
g3934
sg63
(lp3946
S':'
asbag56
(g77
g58
NtRp3947
(dp3948
g61
(dp3949
sg70
g3934
sg63
(lp3950
g56
(g57
g58
NtRp3951
(dp3952
g61
(dp3953
g69
I4
ssg70
g3947
sg63
(lp3954
S'Jose de Soto <josedesoto@gmail.com>'
p3955
asbasbasbag56
(g72
g58
NtRp3956
(dp3957
g61
(dp3958
sg70
g3930
sg63
(lp3959
g56
(g77
g58
NtRp3960
(dp3961
g61
(dp3962
g81
g82
ssg70
g3956
sg63
(lp3963
S'copyright'
p3964
asbag56
(g77
g58
NtRp3965
(dp3966
g61
(dp3967
g88
g89
ssg70
g3956
sg63
(lp3968
S':'
asbag56
(g77
g58
NtRp3969
(dp3970
g61
(dp3971
sg70
g3956
sg63
(lp3972
g56
(g57
g58
NtRp3973
(dp3974
g61
(dp3975
g69
I4
ssg70
g3969
sg63
(lp3976
S'Copyright 2011'
p3977
asbasbasbag56
(g72
g58
NtRp3978
(dp3979
g61
(dp3980
sg70
g3930
sg63
(lp3981
g56
(g77
g58
NtRp3982
(dp3983
g61
(dp3984
g81
g82
ssg70
g3978
sg63
(lp3985
S'description'
p3986
asbag56
(g77
g58
NtRp3987
(dp3988
g61
(dp3989
g88
g89
ssg70
g3978
sg63
(lp3990
S':'
asbag56
(g77
g58
NtRp3991
(dp3992
g61
(dp3993
sg70
g3978
sg63
(lp3994
g56
(g57
g58
NtRp3995
(dp3996
g61
(dp3997
g69
I4
ssg70
g3991
sg63
(lp3998
S'a cool new app'
p3999
asbasbasbag56
(g72
g58
NtRp4000
(dp4001
g61
(dp4002
sg70
g3930
sg63
(lp4003
g56
(g77
g58
NtRp4004
(dp4005
g61
(dp4006
g81
g82
ssg70
g4000
sg63
(lp4007
S'generator'
p4008
asbag56
(g77
g58
NtRp4009
(dp4010
g61
(dp4011
g88
g89
ssg70
g4000
sg63
(lp4012
S':'
asbag56
(g77
g58
NtRp4013
(dp4014
g61
(dp4015
sg70
g4000
sg63
(lp4016
g56
(g57
g58
NtRp4017
(dp4018
g61
(dp4019
g69
I4
ssg70
g4013
sg63
(lp4020
S'Web2py Web Framework'
p4021
asbasbasbag56
(g72
g58
NtRp4022
(dp4023
g61
(dp4024
sg70
g3930
sg63
(lp4025
g56
(g77
g58
NtRp4026
(dp4027
g61
(dp4028
g81
g82
ssg70
g4022
sg63
(lp4029
S'keywords'
p4030
asbag56
(g77
g58
NtRp4031
(dp4032
g61
(dp4033
g88
g89
ssg70
g4022
sg63
(lp4034
S':'
asbag56
(g77
g58
NtRp4035
(dp4036
g61
(dp4037
sg70
g4022
sg63
(lp4038
g56
(g57
g58
NtRp4039
(dp4040
g61
(dp4041
g69
I4
ssg70
g4035
sg63
(lp4042
S'web2py, python, framework'
p4043
asbasbasbasbasbasbasbag56
(g72
g58
NtRp4044
(dp4045
g61
(dp4046
sg70
g3023
sg63
(lp4047
g56
(g77
g58
NtRp4048
(dp4049
g61
(dp4050
g81
g82
ssg70
g4044
sg63
(lp4051
S'postprocessing'
p4052
asbag56
(g77
g58
NtRp4053
(dp4054
g61
(dp4055
g88
g89
ssg70
g4044
sg63
(lp4056
S':'
asbag56
(g77
g58
NtRp4057
(dp4058
g61
(dp4059
sg70
g4044
sg63
(lp4060
g56
(g57
g58
NtRp4061
(dp4062
g61
(dp4063
g69
I5
ssg70
g4057
sg63
(lp4064
g56
(g65
g58
NtRp4065
(dp4066
g61
(dp4067
g69
I4
ssg70
Nsg63
(lp4068
sbasbasbasbag56
(g72
g58
NtRp4069
(dp4070
g61
(dp4071
sg70
g3023
sg63
(lp4072
g56
(g77
g58
NtRp4073
(dp4074
g61
(dp4075
g81
g82
ssg70
g4069
sg63
(lp4076
S'session_file'
p4077
asbag56
(g77
g58
NtRp4078
(dp4079
g61
(dp4080
g88
g89
ssg70
g4069
sg63
(lp4081
S':'
asbag56
(g77
g58
NtRp4082
(dp4083
g61
(dp4084
sg70
g4069
sg63
(lp4085
g56
(g57
g58
NtRp4086
(dp4087
g61
(dp4088
g69
I5
ssg70
g4082
sg63
(lp4089
S"<open file '/home/jose/DESARROLLO/web2py199/applications/streamlog/sessions/127.0.0.1-610b0c7d-3f6f-4500-a76a-b095fb30f7fd', mode 'rb+' at 0x2ce5540>"
p4090
asbasbasbag56
(g72
g58
NtRp4091
(dp4092
g61
(dp4093
sg70
g3023
sg63
(lp4094
g56
(g77
g58
NtRp4095
(dp4096
g61
(dp4097
g81
g82
ssg70
g4091
sg63
(lp4098
S'session_filename'
p4099
asbag56
(g77
g58
NtRp4100
(dp4101
g61
(dp4102
g88
g89
ssg70
g4091
sg63
(lp4103
S':'
asbag56
(g77
g58
NtRp4104
(dp4105
g61
(dp4106
sg70
g4091
sg63
(lp4107
g56
(g57
g58
NtRp4108
(dp4109
g61
(dp4110
g69
I5
ssg70
g4104
sg63
(lp4111
S'/home/jose/DESARROLLO/web2py199/applications/streamlog/sessions/127.0.0.1-610b0c7d-3f6f-4500-a76a-b095fb30f7fd'
p4112
asbasbasbag56
(g72
g58
NtRp4113
(dp4114
g61
(dp4115
sg70
g3023
sg63
(lp4116
g56
(g77
g58
NtRp4117
(dp4118
g61
(dp4119
g81
g82
ssg70
g4113
sg63
(lp4120
S'session_id'
p4121
asbag56
(g77
g58
NtRp4122
(dp4123
g61
(dp4124
g88
g89
ssg70
g4113
sg63
(lp4125
S':'
asbag56
(g77
g58
NtRp4126
(dp4127
g61
(dp4128
sg70
g4113
sg63
(lp4129
g56
(g57
g58
NtRp4130
(dp4131
g61
(dp4132
g69
I5
ssg70
g4126
sg63
(lp4133
S'127.0.0.1-610b0c7d-3f6f-4500-a76a-b095fb30f7fd'
p4134
asbasbasbag56
(g72
g58
NtRp4135
(dp4136
g61
(dp4137
sg70
g3023
sg63
(lp4138
g56
(g77
g58
NtRp4139
(dp4140
g61
(dp4141
g81
g82
ssg70
g4135
sg63
(lp4142
S'session_id_name'
p4143
asbag56
(g77
g58
NtRp4144
(dp4145
g61
(dp4146
g88
g89
ssg70
g4135
sg63
(lp4147
S':'
asbag56
(g77
g58
NtRp4148
(dp4149
g61
(dp4150
sg70
g4135
sg63
(lp4151
g56
(g57
g58
NtRp4152
(dp4153
g61
(dp4154
g69
I5
ssg70
g4148
sg63
(lp4155
g3080
asbasbasbag56
(g72
g58
NtRp4156
(dp4157
g61
(dp4158
sg70
g3023
sg63
(lp4159
g56
(g77
g58
NtRp4160
(dp4161
g61
(dp4162
g81
g82
ssg70
g4156
sg63
(lp4163
S'session_locked'
p4164
asbag56
(g77
g58
NtRp4165
(dp4166
g61
(dp4167
g88
g89
ssg70
g4156
sg63
(lp4168
S':'
asbag56
(g77
g58
NtRp4169
(dp4170
g61
(dp4171
sg70
g4156
sg63
(lp4172
g56
(g57
g58
NtRp4173
(dp4174
g61
(dp4175
g69
I5
ssg70
g4169
sg63
(lp4176
g1624
asbasbasbag56
(g72
g58
NtRp4177
(dp4178
g61
(dp4179
sg70
g3023
sg63
(lp4180
g56
(g77
g58
NtRp4181
(dp4182
g61
(dp4183
g81
g82
ssg70
g4177
sg63
(lp4184
S'session_new'
p4185
asbag56
(g77
g58
NtRp4186
(dp4187
g61
(dp4188
g88
g89
ssg70
g4177
sg63
(lp4189
S':'
asbag56
(g77
g58
NtRp4190
(dp4191
g61
(dp4192
sg70
g4177
sg63
(lp4193
g56
(g57
g58
NtRp4194
(dp4195
g61
(dp4196
g69
I5
ssg70
g4190
sg63
(lp4197
g99
asbasbasbag56
(g72
g58
NtRp4198
(dp4199
g61
(dp4200
sg70
g3023
sg63
(lp4201
g56
(g77
g58
NtRp4202
(dp4203
g61
(dp4204
g81
g82
ssg70
g4198
sg63
(lp4205
S'status'
p4206
asbag56
(g77
g58
NtRp4207
(dp4208
g61
(dp4209
g88
g89
ssg70
g4198
sg63
(lp4210
S':'
asbag56
(g77
g58
NtRp4211
(dp4212
g61
(dp4213
sg70
g4198
sg63
(lp4214
g56
(g57
g58
NtRp4215
(dp4216
g61
(dp4217
g69
I5
ssg70
g4211
sg63
(lp4218
S'200'
p4219
asbasbasbag56
(g72
g58
NtRp4220
(dp4221
g61
(dp4222
sg70
g3023
sg63
(lp4223
g56
(g77
g58
NtRp4224
(dp4225
g61
(dp4226
g81
g82
ssg70
g4220
sg63
(lp4227
S'subtitle'
p4228
asbag56
(g77
g58
NtRp4229
(dp4230
g61
(dp4231
g88
g89
ssg70
g4220
sg63
(lp4232
S':'
asbag56
(g77
g58
NtRp4233
(dp4234
g61
(dp4235
sg70
g4220
sg63
(lp4236
g56
(g57
g58
NtRp4237
(dp4238
g61
(dp4239
g69
I5
ssg70
g4233
sg63
(lp4240
g3528
(S's\x12\x00\x00\x00Stream Log Client!'
tRp4241
asbasbasbag56
(g72
g58
NtRp4242
(dp4243
g61
(dp4244
sg70
g3023
sg63
(lp4245
g56
(g77
g58
NtRp4246
(dp4247
g61
(dp4248
g81
g82
ssg70
g4242
sg63
(lp4249
S'title'
p4250
asbag56
(g77
g58
NtRp4251
(dp4252
g61
(dp4253
g88
g89
ssg70
g4242
sg63
(lp4254
S':'
asbag56
(g77
g58
NtRp4255
(dp4256
g61
(dp4257
sg70
g4242
sg63
(lp4258
g56
(g57
g58
NtRp4259
(dp4260
g61
(dp4261
g69
I5
ssg70
g4255
sg63
(lp4262
g121
asbasbasbag56
(g72
g58
NtRp4263
(dp4264
g61
(dp4265
sg70
g3023
sg63
(lp4266
g56
(g77
g58
NtRp4267
(dp4268
g61
(dp4269
g81
g82
ssg70
g4263
sg63
(lp4270
g2289
asbag56
(g77
g58
NtRp4271
(dp4272
g61
(dp4273
g88
g89
ssg70
g4263
sg63
(lp4274
S':'
asbag56
(g77
g58
NtRp4275
(dp4276
g61
(dp4277
sg70
g4263
sg63
(lp4278
g56
(g57
g58
NtRp4279
(dp4280
g61
(dp4281
g69
I5
ssg70
g4275
sg63
(lp4282
g2302
asbasbasbag56
(g72
g58
NtRp4283
(dp4284
g61
(dp4285
sg70
g3023
sg63
(lp4286
g56
(g77
g58
NtRp4287
(dp4288
g61
(dp4289
g81
g82
ssg70
g4283
sg63
(lp4290
S'view'
p4291
asbag56
(g77
g58
NtRp4292
(dp4293
g61
(dp4294
g88
g89
ssg70
g4283
sg63
(lp4295
S':'
asbag56
(g77
g58
NtRp4296
(dp4297
g61
(dp4298
sg70
g4283
sg63
(lp4299
g56
(g57
g58
NtRp4300
(dp4301
g61
(dp4302
g69
I5
ssg70
g4296
sg63
(lp4303
S'default/getConnectionData.html'
p4304
asbasbasbasbasbsS'locals'
p4305
(dp4306
S'regex'
p4307
S'<gluon.dal.Rows object>'
p4308
sS'ip'
p4309
S"'134.324.23.3'"
p4310
sS'data_connection'
p4311
S'<gluon.dal.Rows object>'
p4312
sS'id_log'
p4313
S"'1'"
p4314
sS'name_log'
p4315
S"'xhtml'"
p4316
sS'port'
p4317
S"'8888'"
p4318
sS'row'
p4319
S"<Row {'t_log': <Row {'name': 'xhtml'}>, 't_server': <Row {'IP': '134.324.23.3', 'port': '8888'}>}>"
p4320
sssS'traceback'
p4321
S'Traceback (most recent call last):\n  File "/home/jose/DESARROLLO/web2py199/gluon/restricted.py", line 194, in restricted\n    exec ccode in environment\n  File "/home/jose/DESARROLLO/web2py199/applications/streamlog/controllers/default.py", line 183, in <module>\n  File "/home/jose/DESARROLLO/web2py199/gluon/globals.py", line 149, in <lambda>\n    self._caller = lambda f: f()\n  File "/home/jose/DESARROLLO/web2py199/applications/streamlog/controllers/default.py", line 45, in getConnectionData\n    regex_doce\nNameError: global name \'regex_doce\' is not defined\n'
p4322
s.