(dp1
S'output'
p2
S''
sS'layer'
p3
S'/home/jose/DESARROLLO/web2py199/applications/streamlog/controllers/default.py'
p4
sS'code'
p5
S'# -*- coding: utf-8 -*-\n# this file is released under public domain and you can use without limitations\n\n#########################################################################\n## This is a samples controller\n## - index is the default action of any application\n## - user is required for authentication and authorization\n## - download is for downloading files uploaded in the db (does streaming)\n## - call exposes all registered services (none by default)\n#########################################################################\n\n\n\ndef index():\n    """\n    example action using the internationalization operator T and flash\n    rendered by views/default/index.html or views/generic.html\n    """\n    db.t_log.id.readable=False\n    db.t_log.server.readable=False\n    \n    db.t_log.type_log.readable=False\n    links = [lambda row:  INPUT(_type=\'button\',_value=\'Load Table\', _onclick=\'loadTable(\'+str(row.id)+\')\')]\n    links += [lambda row:  INPUT(_type=\'button\',_value=\'START STREAM\', _onclick=\'createStream(\'+str(row.id)+\')\')]\n    form=SQLFORM.grid(db.t_log, selectable=False, csv=False,create=False, deletable=False, editable=False, links=links, user_signature=False)\n    return dict(message=T(\'Hello World2\'), form=form)\n\n\ndef getConnectionData():\n    \n    id_log=request.args[0]\n    ip=\'\'\n    port=\'\'\n    name_log=\'\'\n    \n    data_connection=db((db.t_log.id==id_log)&(db.t_log.server==db.t_server.id)).select(db.t_log.name,db.t_server.IP,db.t_server.port)\n  \n    for row in data_connection:\n        ip=row.t_server.IP\n        port=row.t_server.port\n        name_log=row.t_log.name\n        \n    \n    regex=db((db.t_log.id==id_log)&(db.t_log.type_log==db.t_type_log.id)).select()\n    \n    regex_code=\'\'\n    for row in regex:\n        regex_code=row.t_type_log.regex_code\n    \n    return response.json([{\'name_log\': name_log,\'IP\': ip,\'port\': port,\'regex\': regex_code}])\n\ndef choose_log():\n    """\n    example action using the internationalization operator T and flash\n    rendered by views/default/index.html or views/generic.html\n    """\n    \n    \n    return dict(message="log")\n\n\ndef getTypeTable():\n    """\n    example action using the internationalization operator T and flash\n    rendered by views/default/index.html or views/generic.html\n    """\n    table=\'\'\n    id_log=request.args[0]\n    type_table=db((db.t_log.id==id_log)&(db.t_log.type_log==db.t_type_log.id)).select(db.t_type_log.html_table)\n    for row in type_table:\n        table=row.html_table\n        \n    \'\'\'\n    table=\'<table cellpadding="0" cellspacing="0" border="0" class="display" id="tablelog"> \\\n    <thead> \\\n        <tr> \\\n            <th>IP</th> \\\n            <th>hyphen</th> \\\n            <th>userid</th> \\\n            <th>Time Request</th> \\\n        <th>Request Time</th> \\\n        <th>Status Code</th> \\\n        <th>Size Object</th> \\\n        </tr>\\\n    </thead> \\\n    <tfoot> \\\n        <tr> \\\n            <th>IP</th> \\\n            <th>hyphen</th> \\\n            <th>userid</th>\\\n            <th>Time Request</th> \\\n        <th>Request Time</th> \\\n        <th>Status Code</th> \\\n        <th>Size Object</th> \\\n        </tr>  \\\n    </tfoot>  \\\n        <tbody> \\\n        </tbody> \\\n    </table>\'\n    \'\'\'\n    \n    return table\n\n\ndef user():\n    """\n    exposes:\n    http://..../[app]/default/user/login\n    http://..../[app]/default/user/logout\n    http://..../[app]/default/user/register\n    http://..../[app]/default/user/profile\n    http://..../[app]/default/user/retrieve_password\n    http://..../[app]/default/user/change_password\n    use @auth.requires_login()\n        @auth.requires_membership(\'group name\')\n        @auth.requires_permission(\'read\',\'table name\',record_id)\n    to decorate functions that need access control\n    """\n    return dict(form=auth())\n\ndef error():\n    return dict()\n\n\ndef project_manage():\n    \n    form = SQLFORM.smartgrid(db.t_project)\n    return locals()\n\n\n\ndef server_manage():\n\n    form=SQLFORM.grid(db.t_server)\n    return locals()\n\ndef log_manage():\n \n    #form = SQLFORM.smartgrid(db.t_log,constraints=dict(t_log=query), selectable=True,searchable=False, csv=False,showbuttontext=True,onupdate=auth.archive)\n    #form = SQLFORM.smartgrid(db.t_log)\n    form=SQLFORM.grid(db.t_log)\n    return locals()\n\ndef type_log_manage():\n\n    form=SQLFORM.grid(db.t_type_log)\n    return locals()\n\ndef download():\n    """\n    allows downloading of uploaded files\n    http://..../[app]/default/download/[filename]\n    """\n    return response.download(request,db)\n\n\ndef call():\n    """\n    exposes services. for example:\n    http://..../[app]/default/call/jsonrpc\n    decorate with @services.jsonrpc the functions to expose\n    supports xml, json, xmlrpc, jsonrpc, amfrpc, rss, csv\n    """\n    return service()\n\n\n@auth.requires_signature()\ndef data():\n    """\n    http://..../[app]/default/data/tables\n    http://..../[app]/default/data/create/[table]\n    http://..../[app]/default/data/read/[table]/[id]\n    http://..../[app]/default/data/update/[table]/[id]\n    http://..../[app]/default/data/delete/[table]/[id]\n    http://..../[app]/default/data/select/[table]\n    http://..../[app]/default/data/search/[table]\n    but URLs bust be signed, i.e. linked with\n      A(\'table\',_href=URL(\'data/tables\',user_signature=True))\n    or with the signed load operator\n      LOAD(\'default\',\'data.load\',args=\'tables\',ajax=True,user_signature=True)\n    """\n    return dict(form=crud())\n\nresponse._vars=response._caller(getTypeTable)\n'
p6
sS'snapshot'
p7
(dp8
S'exception'
p9
(dp10
S'__hash__'
p11
S"<method-wrapper '__hash__' of exceptions.ValueError object>"
p12
sS'__setattr__'
p13
S"<method-wrapper '__setattr__' of exceptions.ValueError object>"
p14
sS'__reduce_ex__'
p15
S'<built-in method __reduce_ex__ of exceptions.ValueError object>'
p16
sS'__getslice__'
p17
S"<method-wrapper '__getslice__' of exceptions.ValueError object>"
p18
sS'__getitem__'
p19
S"<method-wrapper '__getitem__' of exceptions.ValueError object>"
p20
sS'__setstate__'
p21
S'<built-in method __setstate__ of exceptions.ValueError object>'
p22
sS'args'
p23
S'("invalid literal for int() with base 10: \'undefined\'",)'
p24
sS'__reduce__'
p25
S'<built-in method __reduce__ of exceptions.ValueError object>'
p26
sS'__str__'
p27
S"<method-wrapper '__str__' of exceptions.ValueError object>"
p28
sS'__format__'
p29
S'<built-in method __format__ of exceptions.ValueError object>'
p30
sS'__getattribute__'
p31
S"<method-wrapper '__getattribute__' of exceptions.ValueError object>"
p32
sS'__class__'
p33
S"<type 'exceptions.ValueError'>"
p34
sS'__unicode__'
p35
S'<built-in method __unicode__ of exceptions.ValueError object>'
p36
sS'__delattr__'
p37
S"<method-wrapper '__delattr__' of exceptions.ValueError object>"
p38
sS'__subclasshook__'
p39
S'<built-in method __subclasshook__ of type object>'
p40
sS'__repr__'
p41
S"<method-wrapper '__repr__' of exceptions.ValueError object>"
p42
sS'__dict__'
p43
S'{}'
p44
sS'__sizeof__'
p45
S'<built-in method __sizeof__ of exceptions.ValueError object>'
p46
sS'__doc__'
p47
S"'Inappropriate argument value (of correct type).'"
p48
sS'__init__'
p49
S"<method-wrapper '__init__' of exceptions.ValueError object>"
p50
sS'__new__'
p51
S'<built-in method __new__ of type object>'
p52
ssS'evalue'
p53
S"invalid literal for int() with base 10: 'undefined'"
p54
sS'request'
p55
ccopy_reg
_reconstructor
p56
(cgluon.html
BEAUTIFY
p57
c__builtin__
object
p58
NtRp59
(dp60
S'attributes'
p61
(dp62
sS'components'
p63
(lp64
g56
(cgluon.html
TABLE
p65
g58
NtRp66
(dp67
g61
(dp68
S'level'
p69
I5
ssS'parent'
p70
Nsg63
(lp71
g56
(cgluon.html
TR
p72
g58
NtRp73
(dp74
g61
(dp75
sg70
g66
sg63
(lp76
g56
(cgluon.html
TD
p77
g58
NtRp78
(dp79
g61
(dp80
S'_style'
p81
S'font-weight:bold;'
p82
ssg70
g73
sg63
(lp83
S'ajax'
p84
asbag56
(g77
g58
NtRp85
(dp86
g61
(dp87
S'_valign'
p88
S'top'
p89
ssg70
g73
sg63
(lp90
S':'
asbag56
(g77
g58
NtRp91
(dp92
g61
(dp93
sg70
g73
sg63
(lp94
g56
(g57
g58
NtRp95
(dp96
g61
(dp97
g69
I5
ssg70
g91
sg63
(lp98
S'True'
p99
asbasbasbag56
(g72
g58
NtRp100
(dp101
g61
(dp102
sg70
g66
sg63
(lp103
g56
(g77
g58
NtRp104
(dp105
g61
(dp106
g81
g82
ssg70
g100
sg63
(lp107
S'application'
p108
asbag56
(g77
g58
NtRp109
(dp110
g61
(dp111
g88
g89
ssg70
g100
sg63
(lp112
S':'
asbag56
(g77
g58
NtRp113
(dp114
g61
(dp115
sg70
g100
sg63
(lp116
g56
(g57
g58
NtRp117
(dp118
g61
(dp119
g69
I5
ssg70
g113
sg63
(lp120
S'streamlog'
p121
asbasbasbag56
(g72
g58
NtRp122
(dp123
g61
(dp124
sg70
g66
sg63
(lp125
g56
(g77
g58
NtRp126
(dp127
g61
(dp128
g81
g82
ssg70
g122
sg63
(lp129
g23
asbag56
(g77
g58
NtRp130
(dp131
g61
(dp132
g88
g89
ssg70
g122
sg63
(lp133
S':'
asbag56
(g77
g58
NtRp134
(dp135
g61
(dp136
sg70
g122
sg63
(lp137
g56
(g57
g58
NtRp138
(dp139
g61
(dp140
g69
I5
ssg70
g134
sg63
(lp141
g56
(g65
g58
NtRp142
(dp143
g61
(dp144
g69
I4
ssg70
Nsg63
(lp145
g56
(g72
g58
NtRp146
(dp147
g61
(dp148
sg70
g142
sg63
(lp149
g56
(g77
g58
NtRp150
(dp151
g61
(dp152
sg70
g146
sg63
(lp153
g56
(g57
g58
NtRp154
(dp155
g61
(dp156
g69
I4
ssg70
g150
sg63
(lp157
S'undefined'
p158
asbasbasbasbasbasbasbag56
(g72
g58
NtRp159
(dp160
g61
(dp161
sg70
g66
sg63
(lp162
g56
(g77
g58
NtRp163
(dp164
g61
(dp165
g81
g82
ssg70
g159
sg63
(lp166
S'body'
p167
asbag56
(g77
g58
NtRp168
(dp169
g61
(dp170
g88
g89
ssg70
g159
sg63
(lp171
S':'
asbag56
(g77
g58
NtRp172
(dp173
g61
(dp174
sg70
g159
sg63
(lp175
g56
(g57
g58
NtRp176
(dp177
g61
(dp178
g69
I5
ssg70
g172
sg63
(lp179
S"<open file '<fdopen>', mode 'w+b' at 0x48d1c00>"
p180
asbasbasbag56
(g72
g58
NtRp181
(dp182
g61
(dp183
sg70
g66
sg63
(lp184
g56
(g77
g58
NtRp185
(dp186
g61
(dp187
g81
g82
ssg70
g181
sg63
(lp188
S'client'
p189
asbag56
(g77
g58
NtRp190
(dp191
g61
(dp192
g88
g89
ssg70
g181
sg63
(lp193
S':'
asbag56
(g77
g58
NtRp194
(dp195
g61
(dp196
sg70
g181
sg63
(lp197
g56
(g57
g58
NtRp198
(dp199
g61
(dp200
g69
I5
ssg70
g194
sg63
(lp201
S'127.0.0.1'
p202
asbasbasbag56
(g72
g58
NtRp203
(dp204
g61
(dp205
sg70
g66
sg63
(lp206
g56
(g77
g58
NtRp207
(dp208
g61
(dp209
g81
g82
ssg70
g203
sg63
(lp210
S'controller'
p211
asbag56
(g77
g58
NtRp212
(dp213
g61
(dp214
g88
g89
ssg70
g203
sg63
(lp215
S':'
asbag56
(g77
g58
NtRp216
(dp217
g61
(dp218
sg70
g203
sg63
(lp219
g56
(g57
g58
NtRp220
(dp221
g61
(dp222
g69
I5
ssg70
g216
sg63
(lp223
S'default'
p224
asbasbasbag56
(g72
g58
NtRp225
(dp226
g61
(dp227
sg70
g66
sg63
(lp228
g56
(g77
g58
NtRp229
(dp230
g61
(dp231
g81
g82
ssg70
g225
sg63
(lp232
S'cookies'
p233
asbag56
(g77
g58
NtRp234
(dp235
g61
(dp236
g88
g89
ssg70
g225
sg63
(lp237
S':'
asbag56
(g77
g58
NtRp238
(dp239
g61
(dp240
sg70
g225
sg63
(lp241
g56
(g57
g58
NtRp242
(dp243
g61
(dp244
g69
I5
ssg70
g238
sg63
(lp245
g56
(g65
g58
NtRp246
(dp247
g61
(dp248
g69
I4
ssg70
Nsg63
(lp249
g56
(g72
g58
NtRp250
(dp251
g61
(dp252
sg70
g246
sg63
(lp253
g56
(g77
g58
NtRp254
(dp255
g61
(dp256
g81
g82
ssg70
g250
sg63
(lp257
S'session_id_admin'
p258
asbag56
(g77
g58
NtRp259
(dp260
g61
(dp261
g88
g89
ssg70
g250
sg63
(lp262
S':'
asbag56
(g77
g58
NtRp263
(dp264
g61
(dp265
sg70
g250
sg63
(lp266
g56
(g57
g58
NtRp267
(dp268
g61
(dp269
g69
I4
ssg70
g263
sg63
(lp270
g56
(g65
g58
NtRp271
(dp272
g61
(dp273
g69
I3
ssg70
Nsg63
(lp274
g56
(g72
g58
NtRp275
(dp276
g61
(dp277
sg70
g271
sg63
(lp278
g56
(g77
g58
NtRp279
(dp280
g61
(dp281
g81
g82
ssg70
g275
sg63
(lp282
S'comment'
p283
asbag56
(g77
g58
NtRp284
(dp285
g61
(dp286
g88
g89
ssg70
g275
sg63
(lp287
S':'
asbag56
(g77
g58
NtRp288
(dp289
g61
(dp290
sg70
g275
sg63
(lp291
g56
(g57
g58
NtRp292
(dp293
g61
(dp294
g69
I3
ssg70
g288
sg63
(lp295
S''
asbasbasbag56
(g72
g58
NtRp296
(dp297
g61
(dp298
sg70
g271
sg63
(lp299
g56
(g77
g58
NtRp300
(dp301
g61
(dp302
g81
g82
ssg70
g296
sg63
(lp303
S'domain'
p304
asbag56
(g77
g58
NtRp305
(dp306
g61
(dp307
g88
g89
ssg70
g296
sg63
(lp308
S':'
asbag56
(g77
g58
NtRp309
(dp310
g61
(dp311
sg70
g296
sg63
(lp312
g56
(g57
g58
NtRp313
(dp314
g61
(dp315
g69
I3
ssg70
g309
sg63
(lp316
S''
asbasbasbag56
(g72
g58
NtRp317
(dp318
g61
(dp319
sg70
g271
sg63
(lp320
g56
(g77
g58
NtRp321
(dp322
g61
(dp323
g81
g82
ssg70
g317
sg63
(lp324
S'expires'
p325
asbag56
(g77
g58
NtRp326
(dp327
g61
(dp328
g88
g89
ssg70
g317
sg63
(lp329
S':'
asbag56
(g77
g58
NtRp330
(dp331
g61
(dp332
sg70
g317
sg63
(lp333
g56
(g57
g58
NtRp334
(dp335
g61
(dp336
g69
I3
ssg70
g330
sg63
(lp337
S''
asbasbasbag56
(g72
g58
NtRp338
(dp339
g61
(dp340
sg70
g271
sg63
(lp341
g56
(g77
g58
NtRp342
(dp343
g61
(dp344
g81
g82
ssg70
g338
sg63
(lp345
S'httponly'
p346
asbag56
(g77
g58
NtRp347
(dp348
g61
(dp349
g88
g89
ssg70
g338
sg63
(lp350
S':'
asbag56
(g77
g58
NtRp351
(dp352
g61
(dp353
sg70
g338
sg63
(lp354
g56
(g57
g58
NtRp355
(dp356
g61
(dp357
g69
I3
ssg70
g351
sg63
(lp358
S''
asbasbasbag56
(g72
g58
NtRp359
(dp360
g61
(dp361
sg70
g271
sg63
(lp362
g56
(g77
g58
NtRp363
(dp364
g61
(dp365
g81
g82
ssg70
g359
sg63
(lp366
S'max-age'
p367
asbag56
(g77
g58
NtRp368
(dp369
g61
(dp370
g88
g89
ssg70
g359
sg63
(lp371
S':'
asbag56
(g77
g58
NtRp372
(dp373
g61
(dp374
sg70
g359
sg63
(lp375
g56
(g57
g58
NtRp376
(dp377
g61
(dp378
g69
I3
ssg70
g372
sg63
(lp379
S''
asbasbasbag56
(g72
g58
NtRp380
(dp381
g61
(dp382
sg70
g271
sg63
(lp383
g56
(g77
g58
NtRp384
(dp385
g61
(dp386
g81
g82
ssg70
g380
sg63
(lp387
S'path'
p388
asbag56
(g77
g58
NtRp389
(dp390
g61
(dp391
g88
g89
ssg70
g380
sg63
(lp392
S':'
asbag56
(g77
g58
NtRp393
(dp394
g61
(dp395
sg70
g380
sg63
(lp396
g56
(g57
g58
NtRp397
(dp398
g61
(dp399
g69
I3
ssg70
g393
sg63
(lp400
S''
asbasbasbag56
(g72
g58
NtRp401
(dp402
g61
(dp403
sg70
g271
sg63
(lp404
g56
(g77
g58
NtRp405
(dp406
g61
(dp407
g81
g82
ssg70
g401
sg63
(lp408
S'secure'
p409
asbag56
(g77
g58
NtRp410
(dp411
g61
(dp412
g88
g89
ssg70
g401
sg63
(lp413
S':'
asbag56
(g77
g58
NtRp414
(dp415
g61
(dp416
sg70
g401
sg63
(lp417
g56
(g57
g58
NtRp418
(dp419
g61
(dp420
g69
I3
ssg70
g414
sg63
(lp421
S''
asbasbasbag56
(g72
g58
NtRp422
(dp423
g61
(dp424
sg70
g271
sg63
(lp425
g56
(g77
g58
NtRp426
(dp427
g61
(dp428
g81
g82
ssg70
g422
sg63
(lp429
S'version'
p430
asbag56
(g77
g58
NtRp431
(dp432
g61
(dp433
g88
g89
ssg70
g422
sg63
(lp434
S':'
asbag56
(g77
g58
NtRp435
(dp436
g61
(dp437
sg70
g422
sg63
(lp438
g56
(g57
g58
NtRp439
(dp440
g61
(dp441
g69
I3
ssg70
g435
sg63
(lp442
S''
asbasbasbasbasbasbasbag56
(g72
g58
NtRp443
(dp444
g61
(dp445
sg70
g246
sg63
(lp446
g56
(g77
g58
NtRp447
(dp448
g61
(dp449
g81
g82
ssg70
g443
sg63
(lp450
S'session_id_streamlog'
p451
asbag56
(g77
g58
NtRp452
(dp453
g61
(dp454
g88
g89
ssg70
g443
sg63
(lp455
S':'
asbag56
(g77
g58
NtRp456
(dp457
g61
(dp458
sg70
g443
sg63
(lp459
g56
(g57
g58
NtRp460
(dp461
g61
(dp462
g69
I4
ssg70
g456
sg63
(lp463
g56
(g65
g58
NtRp464
(dp465
g61
(dp466
g69
I3
ssg70
Nsg63
(lp467
g56
(g72
g58
NtRp468
(dp469
g61
(dp470
sg70
g464
sg63
(lp471
g56
(g77
g58
NtRp472
(dp473
g61
(dp474
g81
g82
ssg70
g468
sg63
(lp475
g283
asbag56
(g77
g58
NtRp476
(dp477
g61
(dp478
g88
g89
ssg70
g468
sg63
(lp479
S':'
asbag56
(g77
g58
NtRp480
(dp481
g61
(dp482
sg70
g468
sg63
(lp483
g56
(g57
g58
NtRp484
(dp485
g61
(dp486
g69
I3
ssg70
g480
sg63
(lp487
S''
asbasbasbag56
(g72
g58
NtRp488
(dp489
g61
(dp490
sg70
g464
sg63
(lp491
g56
(g77
g58
NtRp492
(dp493
g61
(dp494
g81
g82
ssg70
g488
sg63
(lp495
g304
asbag56
(g77
g58
NtRp496
(dp497
g61
(dp498
g88
g89
ssg70
g488
sg63
(lp499
S':'
asbag56
(g77
g58
NtRp500
(dp501
g61
(dp502
sg70
g488
sg63
(lp503
g56
(g57
g58
NtRp504
(dp505
g61
(dp506
g69
I3
ssg70
g500
sg63
(lp507
S''
asbasbasbag56
(g72
g58
NtRp508
(dp509
g61
(dp510
sg70
g464
sg63
(lp511
g56
(g77
g58
NtRp512
(dp513
g61
(dp514
g81
g82
ssg70
g508
sg63
(lp515
g325
asbag56
(g77
g58
NtRp516
(dp517
g61
(dp518
g88
g89
ssg70
g508
sg63
(lp519
S':'
asbag56
(g77
g58
NtRp520
(dp521
g61
(dp522
sg70
g508
sg63
(lp523
g56
(g57
g58
NtRp524
(dp525
g61
(dp526
g69
I3
ssg70
g520
sg63
(lp527
S''
asbasbasbag56
(g72
g58
NtRp528
(dp529
g61
(dp530
sg70
g464
sg63
(lp531
g56
(g77
g58
NtRp532
(dp533
g61
(dp534
g81
g82
ssg70
g528
sg63
(lp535
g346
asbag56
(g77
g58
NtRp536
(dp537
g61
(dp538
g88
g89
ssg70
g528
sg63
(lp539
S':'
asbag56
(g77
g58
NtRp540
(dp541
g61
(dp542
sg70
g528
sg63
(lp543
g56
(g57
g58
NtRp544
(dp545
g61
(dp546
g69
I3
ssg70
g540
sg63
(lp547
S''
asbasbasbag56
(g72
g58
NtRp548
(dp549
g61
(dp550
sg70
g464
sg63
(lp551
g56
(g77
g58
NtRp552
(dp553
g61
(dp554
g81
g82
ssg70
g548
sg63
(lp555
g367
asbag56
(g77
g58
NtRp556
(dp557
g61
(dp558
g88
g89
ssg70
g548
sg63
(lp559
S':'
asbag56
(g77
g58
NtRp560
(dp561
g61
(dp562
sg70
g548
sg63
(lp563
g56
(g57
g58
NtRp564
(dp565
g61
(dp566
g69
I3
ssg70
g560
sg63
(lp567
S''
asbasbasbag56
(g72
g58
NtRp568
(dp569
g61
(dp570
sg70
g464
sg63
(lp571
g56
(g77
g58
NtRp572
(dp573
g61
(dp574
g81
g82
ssg70
g568
sg63
(lp575
g388
asbag56
(g77
g58
NtRp576
(dp577
g61
(dp578
g88
g89
ssg70
g568
sg63
(lp579
S':'
asbag56
(g77
g58
NtRp580
(dp581
g61
(dp582
sg70
g568
sg63
(lp583
g56
(g57
g58
NtRp584
(dp585
g61
(dp586
g69
I3
ssg70
g580
sg63
(lp587
S''
asbasbasbag56
(g72
g58
NtRp588
(dp589
g61
(dp590
sg70
g464
sg63
(lp591
g56
(g77
g58
NtRp592
(dp593
g61
(dp594
g81
g82
ssg70
g588
sg63
(lp595
g409
asbag56
(g77
g58
NtRp596
(dp597
g61
(dp598
g88
g89
ssg70
g588
sg63
(lp599
S':'
asbag56
(g77
g58
NtRp600
(dp601
g61
(dp602
sg70
g588
sg63
(lp603
g56
(g57
g58
NtRp604
(dp605
g61
(dp606
g69
I3
ssg70
g600
sg63
(lp607
S''
asbasbasbag56
(g72
g58
NtRp608
(dp609
g61
(dp610
sg70
g464
sg63
(lp611
g56
(g77
g58
NtRp612
(dp613
g61
(dp614
g81
g82
ssg70
g608
sg63
(lp615
g430
asbag56
(g77
g58
NtRp616
(dp617
g61
(dp618
g88
g89
ssg70
g608
sg63
(lp619
S':'
asbag56
(g77
g58
NtRp620
(dp621
g61
(dp622
sg70
g608
sg63
(lp623
g56
(g57
g58
NtRp624
(dp625
g61
(dp626
g69
I3
ssg70
g620
sg63
(lp627
S''
asbasbasbasbasbasbasbag56
(g72
g58
NtRp628
(dp629
g61
(dp630
sg70
g246
sg63
(lp631
g56
(g77
g58
NtRp632
(dp633
g61
(dp634
g81
g82
ssg70
g628
sg63
(lp635
S'session_id_test3'
p636
asbag56
(g77
g58
NtRp637
(dp638
g61
(dp639
g88
g89
ssg70
g628
sg63
(lp640
S':'
asbag56
(g77
g58
NtRp641
(dp642
g61
(dp643
sg70
g628
sg63
(lp644
g56
(g57
g58
NtRp645
(dp646
g61
(dp647
g69
I4
ssg70
g641
sg63
(lp648
g56
(g65
g58
NtRp649
(dp650
g61
(dp651
g69
I3
ssg70
Nsg63
(lp652
g56
(g72
g58
NtRp653
(dp654
g61
(dp655
sg70
g649
sg63
(lp656
g56
(g77
g58
NtRp657
(dp658
g61
(dp659
g81
g82
ssg70
g653
sg63
(lp660
g283
asbag56
(g77
g58
NtRp661
(dp662
g61
(dp663
g88
g89
ssg70
g653
sg63
(lp664
S':'
asbag56
(g77
g58
NtRp665
(dp666
g61
(dp667
sg70
g653
sg63
(lp668
g56
(g57
g58
NtRp669
(dp670
g61
(dp671
g69
I3
ssg70
g665
sg63
(lp672
S''
asbasbasbag56
(g72
g58
NtRp673
(dp674
g61
(dp675
sg70
g649
sg63
(lp676
g56
(g77
g58
NtRp677
(dp678
g61
(dp679
g81
g82
ssg70
g673
sg63
(lp680
g304
asbag56
(g77
g58
NtRp681
(dp682
g61
(dp683
g88
g89
ssg70
g673
sg63
(lp684
S':'
asbag56
(g77
g58
NtRp685
(dp686
g61
(dp687
sg70
g673
sg63
(lp688
g56
(g57
g58
NtRp689
(dp690
g61
(dp691
g69
I3
ssg70
g685
sg63
(lp692
S''
asbasbasbag56
(g72
g58
NtRp693
(dp694
g61
(dp695
sg70
g649
sg63
(lp696
g56
(g77
g58
NtRp697
(dp698
g61
(dp699
g81
g82
ssg70
g693
sg63
(lp700
g325
asbag56
(g77
g58
NtRp701
(dp702
g61
(dp703
g88
g89
ssg70
g693
sg63
(lp704
S':'
asbag56
(g77
g58
NtRp705
(dp706
g61
(dp707
sg70
g693
sg63
(lp708
g56
(g57
g58
NtRp709
(dp710
g61
(dp711
g69
I3
ssg70
g705
sg63
(lp712
S''
asbasbasbag56
(g72
g58
NtRp713
(dp714
g61
(dp715
sg70
g649
sg63
(lp716
g56
(g77
g58
NtRp717
(dp718
g61
(dp719
g81
g82
ssg70
g713
sg63
(lp720
g346
asbag56
(g77
g58
NtRp721
(dp722
g61
(dp723
g88
g89
ssg70
g713
sg63
(lp724
S':'
asbag56
(g77
g58
NtRp725
(dp726
g61
(dp727
sg70
g713
sg63
(lp728
g56
(g57
g58
NtRp729
(dp730
g61
(dp731
g69
I3
ssg70
g725
sg63
(lp732
S''
asbasbasbag56
(g72
g58
NtRp733
(dp734
g61
(dp735
sg70
g649
sg63
(lp736
g56
(g77
g58
NtRp737
(dp738
g61
(dp739
g81
g82
ssg70
g733
sg63
(lp740
g367
asbag56
(g77
g58
NtRp741
(dp742
g61
(dp743
g88
g89
ssg70
g733
sg63
(lp744
S':'
asbag56
(g77
g58
NtRp745
(dp746
g61
(dp747
sg70
g733
sg63
(lp748
g56
(g57
g58
NtRp749
(dp750
g61
(dp751
g69
I3
ssg70
g745
sg63
(lp752
S''
asbasbasbag56
(g72
g58
NtRp753
(dp754
g61
(dp755
sg70
g649
sg63
(lp756
g56
(g77
g58
NtRp757
(dp758
g61
(dp759
g81
g82
ssg70
g753
sg63
(lp760
g388
asbag56
(g77
g58
NtRp761
(dp762
g61
(dp763
g88
g89
ssg70
g753
sg63
(lp764
S':'
asbag56
(g77
g58
NtRp765
(dp766
g61
(dp767
sg70
g753
sg63
(lp768
g56
(g57
g58
NtRp769
(dp770
g61
(dp771
g69
I3
ssg70
g765
sg63
(lp772
S''
asbasbasbag56
(g72
g58
NtRp773
(dp774
g61
(dp775
sg70
g649
sg63
(lp776
g56
(g77
g58
NtRp777
(dp778
g61
(dp779
g81
g82
ssg70
g773
sg63
(lp780
g409
asbag56
(g77
g58
NtRp781
(dp782
g61
(dp783
g88
g89
ssg70
g773
sg63
(lp784
S':'
asbag56
(g77
g58
NtRp785
(dp786
g61
(dp787
sg70
g773
sg63
(lp788
g56
(g57
g58
NtRp789
(dp790
g61
(dp791
g69
I3
ssg70
g785
sg63
(lp792
S''
asbasbasbag56
(g72
g58
NtRp793
(dp794
g61
(dp795
sg70
g649
sg63
(lp796
g56
(g77
g58
NtRp797
(dp798
g61
(dp799
g81
g82
ssg70
g793
sg63
(lp800
g430
asbag56
(g77
g58
NtRp801
(dp802
g61
(dp803
g88
g89
ssg70
g793
sg63
(lp804
S':'
asbag56
(g77
g58
NtRp805
(dp806
g61
(dp807
sg70
g793
sg63
(lp808
g56
(g57
g58
NtRp809
(dp810
g61
(dp811
g69
I3
ssg70
g805
sg63
(lp812
S''
asbasbasbasbasbasbasbasbasbasbasbag56
(g72
g58
NtRp813
(dp814
g61
(dp815
sg70
g66
sg63
(lp816
g56
(g77
g58
NtRp817
(dp818
g61
(dp819
g81
g82
ssg70
g813
sg63
(lp820
S'env'
p821
asbag56
(g77
g58
NtRp822
(dp823
g61
(dp824
g88
g89
ssg70
g813
sg63
(lp825
S':'
asbag56
(g77
g58
NtRp826
(dp827
g61
(dp828
sg70
g813
sg63
(lp829
g56
(g57
g58
NtRp830
(dp831
g61
(dp832
g69
I5
ssg70
g826
sg63
(lp833
g56
(g65
g58
NtRp834
(dp835
g61
(dp836
g69
I4
ssg70
Nsg63
(lp837
g56
(g72
g58
NtRp838
(dp839
g61
(dp840
sg70
g834
sg63
(lp841
g56
(g77
g58
NtRp842
(dp843
g61
(dp844
g81
g82
ssg70
g838
sg63
(lp845
S'app_folders'
p846
asbag56
(g77
g58
NtRp847
(dp848
g61
(dp849
g88
g89
ssg70
g838
sg63
(lp850
S':'
asbag56
(g77
g58
NtRp851
(dp852
g61
(dp853
sg70
g838
sg63
(lp854
g56
(g57
g58
NtRp855
(dp856
g61
(dp857
g69
I4
ssg70
g851
sg63
(lp858
S"set(['/home/jose/DESARROLLO/web2py199/applications/streamlog/', '/home/jose/DESARROLLO/web2py199/applications/admin/'])"
p859
asbasbasbag56
(g72
g58
NtRp860
(dp861
g61
(dp862
sg70
g834
sg63
(lp863
g56
(g77
g58
NtRp864
(dp865
g61
(dp866
g81
g82
ssg70
g860
sg63
(lp867
S'applications_parent'
p868
asbag56
(g77
g58
NtRp869
(dp870
g61
(dp871
g88
g89
ssg70
g860
sg63
(lp872
S':'
asbag56
(g77
g58
NtRp873
(dp874
g61
(dp875
sg70
g860
sg63
(lp876
g56
(g57
g58
NtRp877
(dp878
g61
(dp879
g69
I4
ssg70
g873
sg63
(lp880
S'/home/jose/DESARROLLO/web2py199'
p881
asbasbasbag56
(g72
g58
NtRp882
(dp883
g61
(dp884
sg70
g834
sg63
(lp885
g56
(g77
g58
NtRp886
(dp887
g61
(dp888
g81
g82
ssg70
g882
sg63
(lp889
S'cmd_args'
p890
asbag56
(g77
g58
NtRp891
(dp892
g61
(dp893
g88
g89
ssg70
g882
sg63
(lp894
S':'
asbag56
(g77
g58
NtRp895
(dp896
g61
(dp897
sg70
g882
sg63
(lp898
g56
(g57
g58
NtRp899
(dp900
g61
(dp901
g69
I4
ssg70
g895
sg63
(lp902
g56
(g65
g58
NtRp903
(dp904
g61
(dp905
g69
I3
ssg70
Nsg63
(lp906
sbasbasbasbag56
(g72
g58
NtRp907
(dp908
g61
(dp909
sg70
g834
sg63
(lp910
g56
(g77
g58
NtRp911
(dp912
g61
(dp913
g81
g82
ssg70
g907
sg63
(lp914
S'cmd_options'
p915
asbag56
(g77
g58
NtRp916
(dp917
g61
(dp918
g88
g89
ssg70
g907
sg63
(lp919
S':'
asbag56
(g77
g58
NtRp920
(dp921
g61
(dp922
sg70
g907
sg63
(lp923
g56
(g57
g58
NtRp924
(dp925
g61
(dp926
g69
I4
ssg70
g920
sg63
(lp927
S"<Values at 0x2a2ff80: {'verbose': False, 'ip': '127.0.0.1', 'shutdown_timeout': 5, 'taskbar': False, 'nocron': False, 'pid_filename': 'httpserver.pid', 'maxthreads': None, 'softcron': False, 'server_name': 'jose', 'bpython': False, 'nogui': False, 'port': 8000, 'extcron': False, 'debuglevel': 30, 'test': None, 'folder': '/home/jose/DESARROLLO/web2py199', 'config': '', 'import_models': False, 'winservice': '', 'shell': None, 'run': '', 'log_filename': 'httpserver.log', 'args': [''], 'ssl_ca_certificate': None, 'scheduler': None, 'profiler_filename': None, 'ssl_private_key': '', 'password': 't', 'request_queue_size': 5, 'ssl_certificate': '', 'cronjob': False, 'plain': False, 'quiet': False, 'interfaces': None, 'minthreads': None, 'timeout': 10, 'numthreads': None, 'nobanner': False}>"
p928
asbasbasbag56
(g72
g58
NtRp929
(dp930
g61
(dp931
sg70
g834
sg63
(lp932
g56
(g77
g58
NtRp933
(dp934
g61
(dp935
g81
g82
ssg70
g929
sg63
(lp936
S'content_length'
p937
asbag56
(g77
g58
NtRp938
(dp939
g61
(dp940
g88
g89
ssg70
g929
sg63
(lp941
S':'
asbag56
(g77
g58
NtRp942
(dp943
g61
(dp944
sg70
g929
sg63
(lp945
g56
(g57
g58
NtRp946
(dp947
g61
(dp948
g69
I4
ssg70
g942
sg63
(lp949
S'0'
asbasbasbag56
(g72
g58
NtRp950
(dp951
g61
(dp952
sg70
g834
sg63
(lp953
g56
(g77
g58
NtRp954
(dp955
g61
(dp956
g81
g82
ssg70
g950
sg63
(lp957
S'db_sessions'
p958
asbag56
(g77
g58
NtRp959
(dp960
g61
(dp961
g88
g89
ssg70
g950
sg63
(lp962
S':'
asbag56
(g77
g58
NtRp963
(dp964
g61
(dp965
sg70
g950
sg63
(lp966
g56
(g57
g58
NtRp967
(dp968
g61
(dp969
g69
I4
ssg70
g963
sg63
(lp970
S'set([])'
p971
asbasbasbag56
(g72
g58
NtRp972
(dp973
g61
(dp974
sg70
g834
sg63
(lp975
g56
(g77
g58
NtRp976
(dp977
g61
(dp978
g81
g82
ssg70
g972
sg63
(lp979
S'debugging'
p980
asbag56
(g77
g58
NtRp981
(dp982
g61
(dp983
g88
g89
ssg70
g972
sg63
(lp984
S':'
asbag56
(g77
g58
NtRp985
(dp986
g61
(dp987
sg70
g972
sg63
(lp988
g56
(g57
g58
NtRp989
(dp990
g61
(dp991
g69
I4
ssg70
g985
sg63
(lp992
S'False'
p993
asbasbasbag56
(g72
g58
NtRp994
(dp995
g61
(dp996
sg70
g834
sg63
(lp997
g56
(g77
g58
NtRp998
(dp999
g61
(dp1000
g81
g82
ssg70
g994
sg63
(lp1001
S'gluon_parent'
p1002
asbag56
(g77
g58
NtRp1003
(dp1004
g61
(dp1005
g88
g89
ssg70
g994
sg63
(lp1006
S':'
asbag56
(g77
g58
NtRp1007
(dp1008
g61
(dp1009
sg70
g994
sg63
(lp1010
g56
(g57
g58
NtRp1011
(dp1012
g61
(dp1013
g69
I4
ssg70
g1007
sg63
(lp1014
S'/home/jose/DESARROLLO/web2py199'
p1015
asbasbasbag56
(g72
g58
NtRp1016
(dp1017
g61
(dp1018
sg70
g834
sg63
(lp1019
g56
(g77
g58
NtRp1020
(dp1021
g61
(dp1022
g81
g82
ssg70
g1016
sg63
(lp1023
S'http_accept'
p1024
asbag56
(g77
g58
NtRp1025
(dp1026
g61
(dp1027
g88
g89
ssg70
g1016
sg63
(lp1028
S':'
asbag56
(g77
g58
NtRp1029
(dp1030
g61
(dp1031
sg70
g1016
sg63
(lp1032
g56
(g57
g58
NtRp1033
(dp1034
g61
(dp1035
g69
I4
ssg70
g1029
sg63
(lp1036
S'*/*'
p1037
asbasbasbag56
(g72
g58
NtRp1038
(dp1039
g61
(dp1040
sg70
g834
sg63
(lp1041
g56
(g77
g58
NtRp1042
(dp1043
g61
(dp1044
g81
g82
ssg70
g1038
sg63
(lp1045
S'http_accept_encoding'
p1046
asbag56
(g77
g58
NtRp1047
(dp1048
g61
(dp1049
g88
g89
ssg70
g1038
sg63
(lp1050
S':'
asbag56
(g77
g58
NtRp1051
(dp1052
g61
(dp1053
sg70
g1038
sg63
(lp1054
g56
(g57
g58
NtRp1055
(dp1056
g61
(dp1057
g69
I4
ssg70
g1051
sg63
(lp1058
S'gzip, deflate'
p1059
asbasbasbag56
(g72
g58
NtRp1060
(dp1061
g61
(dp1062
sg70
g834
sg63
(lp1063
g56
(g77
g58
NtRp1064
(dp1065
g61
(dp1066
g81
g82
ssg70
g1060
sg63
(lp1067
S'http_accept_language'
p1068
asbag56
(g77
g58
NtRp1069
(dp1070
g61
(dp1071
g88
g89
ssg70
g1060
sg63
(lp1072
S':'
asbag56
(g77
g58
NtRp1073
(dp1074
g61
(dp1075
sg70
g1060
sg63
(lp1076
g56
(g57
g58
NtRp1077
(dp1078
g61
(dp1079
g69
I4
ssg70
g1073
sg63
(lp1080
S'en-us,en;q=0.5'
p1081
asbasbasbag56
(g72
g58
NtRp1082
(dp1083
g61
(dp1084
sg70
g834
sg63
(lp1085
g56
(g77
g58
NtRp1086
(dp1087
g61
(dp1088
g81
g82
ssg70
g1082
sg63
(lp1089
S'http_cache_control'
p1090
asbag56
(g77
g58
NtRp1091
(dp1092
g61
(dp1093
g88
g89
ssg70
g1082
sg63
(lp1094
S':'
asbag56
(g77
g58
NtRp1095
(dp1096
g61
(dp1097
sg70
g1082
sg63
(lp1098
g56
(g57
g58
NtRp1099
(dp1100
g61
(dp1101
g69
I4
ssg70
g1095
sg63
(lp1102
S'no-cache'
p1103
asbasbasbag56
(g72
g58
NtRp1104
(dp1105
g61
(dp1106
sg70
g834
sg63
(lp1107
g56
(g77
g58
NtRp1108
(dp1109
g61
(dp1110
g81
g82
ssg70
g1104
sg63
(lp1111
S'http_connection'
p1112
asbag56
(g77
g58
NtRp1113
(dp1114
g61
(dp1115
g88
g89
ssg70
g1104
sg63
(lp1116
S':'
asbag56
(g77
g58
NtRp1117
(dp1118
g61
(dp1119
sg70
g1104
sg63
(lp1120
g56
(g57
g58
NtRp1121
(dp1122
g61
(dp1123
g69
I4
ssg70
g1117
sg63
(lp1124
S'keep-alive'
p1125
asbasbasbag56
(g72
g58
NtRp1126
(dp1127
g61
(dp1128
sg70
g834
sg63
(lp1129
g56
(g77
g58
NtRp1130
(dp1131
g61
(dp1132
g81
g82
ssg70
g1126
sg63
(lp1133
S'http_content_length'
p1134
asbag56
(g77
g58
NtRp1135
(dp1136
g61
(dp1137
g88
g89
ssg70
g1126
sg63
(lp1138
S':'
asbag56
(g77
g58
NtRp1139
(dp1140
g61
(dp1141
sg70
g1126
sg63
(lp1142
g56
(g57
g58
NtRp1143
(dp1144
g61
(dp1145
g69
I4
ssg70
g1139
sg63
(lp1146
S'0'
asbasbasbag56
(g72
g58
NtRp1147
(dp1148
g61
(dp1149
sg70
g834
sg63
(lp1150
g56
(g77
g58
NtRp1151
(dp1152
g61
(dp1153
g81
g82
ssg70
g1147
sg63
(lp1154
S'http_cookie'
p1155
asbag56
(g77
g58
NtRp1156
(dp1157
g61
(dp1158
g88
g89
ssg70
g1147
sg63
(lp1159
S':'
asbag56
(g77
g58
NtRp1160
(dp1161
g61
(dp1162
sg70
g1147
sg63
(lp1163
g56
(g57
g58
NtRp1164
(dp1165
g61
(dp1166
g69
I4
ssg70
g1160
sg63
(lp1167
S'session_id_test3=127.0.0.1-380e7b29-b635-4690-b9ca-812870d6a061; session_id_admin=127.0.0.1-f2b0859f-b683-4978-94fb-1ac4166eb36b; session_id_streamlog=127.0.0.1-610b0c7d-3f6f-4500-a76a-b095fb30f7fd'
p1168
asbasbasbag56
(g72
g58
NtRp1169
(dp1170
g61
(dp1171
sg70
g834
sg63
(lp1172
g56
(g77
g58
NtRp1173
(dp1174
g61
(dp1175
g81
g82
ssg70
g1169
sg63
(lp1176
S'http_host'
p1177
asbag56
(g77
g58
NtRp1178
(dp1179
g61
(dp1180
g88
g89
ssg70
g1169
sg63
(lp1181
S':'
asbag56
(g77
g58
NtRp1182
(dp1183
g61
(dp1184
sg70
g1169
sg63
(lp1185
g56
(g57
g58
NtRp1186
(dp1187
g61
(dp1188
g69
I4
ssg70
g1182
sg63
(lp1189
S'localhost:8000'
p1190
asbasbasbag56
(g72
g58
NtRp1191
(dp1192
g61
(dp1193
sg70
g834
sg63
(lp1194
g56
(g77
g58
NtRp1195
(dp1196
g61
(dp1197
g81
g82
ssg70
g1191
sg63
(lp1198
S'http_pragma'
p1199
asbag56
(g77
g58
NtRp1200
(dp1201
g61
(dp1202
g88
g89
ssg70
g1191
sg63
(lp1203
S':'
asbag56
(g77
g58
NtRp1204
(dp1205
g61
(dp1206
sg70
g1191
sg63
(lp1207
g56
(g57
g58
NtRp1208
(dp1209
g61
(dp1210
g69
I4
ssg70
g1204
sg63
(lp1211
S'no-cache'
p1212
asbasbasbag56
(g72
g58
NtRp1213
(dp1214
g61
(dp1215
sg70
g834
sg63
(lp1216
g56
(g77
g58
NtRp1217
(dp1218
g61
(dp1219
g81
g82
ssg70
g1213
sg63
(lp1220
S'http_referer'
p1221
asbag56
(g77
g58
NtRp1222
(dp1223
g61
(dp1224
g88
g89
ssg70
g1213
sg63
(lp1225
S':'
asbag56
(g77
g58
NtRp1226
(dp1227
g61
(dp1228
sg70
g1213
sg63
(lp1229
g56
(g57
g58
NtRp1230
(dp1231
g61
(dp1232
g69
I4
ssg70
g1226
sg63
(lp1233
S'http://localhost:8000/streamlog/default/index'
p1234
asbasbasbag56
(g72
g58
NtRp1235
(dp1236
g61
(dp1237
sg70
g834
sg63
(lp1238
g56
(g77
g58
NtRp1239
(dp1240
g61
(dp1241
g81
g82
ssg70
g1235
sg63
(lp1242
S'http_user_agent'
p1243
asbag56
(g77
g58
NtRp1244
(dp1245
g61
(dp1246
g88
g89
ssg70
g1235
sg63
(lp1247
S':'
asbag56
(g77
g58
NtRp1248
(dp1249
g61
(dp1250
sg70
g1235
sg63
(lp1251
g56
(g57
g58
NtRp1252
(dp1253
g61
(dp1254
g69
I4
ssg70
g1248
sg63
(lp1255
S'Mozilla/5.0 (X11; Ubuntu; Linux x86_64; rv:12.0) Gecko/20100101 Firefox/12.0'
p1256
asbasbasbag56
(g72
g58
NtRp1257
(dp1258
g61
(dp1259
sg70
g834
sg63
(lp1260
g56
(g77
g58
NtRp1261
(dp1262
g61
(dp1263
g81
g82
ssg70
g1257
sg63
(lp1264
S'http_x_requested_with'
p1265
asbag56
(g77
g58
NtRp1266
(dp1267
g61
(dp1268
g88
g89
ssg70
g1257
sg63
(lp1269
S':'
asbag56
(g77
g58
NtRp1270
(dp1271
g61
(dp1272
sg70
g1257
sg63
(lp1273
g56
(g57
g58
NtRp1274
(dp1275
g61
(dp1276
g69
I4
ssg70
g1270
sg63
(lp1277
S'XMLHttpRequest'
p1278
asbasbasbag56
(g72
g58
NtRp1279
(dp1280
g61
(dp1281
sg70
g834
sg63
(lp1282
g56
(g77
g58
NtRp1283
(dp1284
g61
(dp1285
g81
g82
ssg70
g1279
sg63
(lp1286
S'is_jython'
p1287
asbag56
(g77
g58
NtRp1288
(dp1289
g61
(dp1290
g88
g89
ssg70
g1279
sg63
(lp1291
S':'
asbag56
(g77
g58
NtRp1292
(dp1293
g61
(dp1294
sg70
g1279
sg63
(lp1295
g56
(g57
g58
NtRp1296
(dp1297
g61
(dp1298
g69
I4
ssg70
g1292
sg63
(lp1299
g993
asbasbasbag56
(g72
g58
NtRp1300
(dp1301
g61
(dp1302
sg70
g834
sg63
(lp1303
g56
(g77
g58
NtRp1304
(dp1305
g61
(dp1306
g81
g82
ssg70
g1300
sg63
(lp1307
S'path_info'
p1308
asbag56
(g77
g58
NtRp1309
(dp1310
g61
(dp1311
g88
g89
ssg70
g1300
sg63
(lp1312
S':'
asbag56
(g77
g58
NtRp1313
(dp1314
g61
(dp1315
sg70
g1300
sg63
(lp1316
g56
(g57
g58
NtRp1317
(dp1318
g61
(dp1319
g69
I4
ssg70
g1313
sg63
(lp1320
S'/streamlog/default/getTypeTable/undefined'
p1321
asbasbasbag56
(g72
g58
NtRp1322
(dp1323
g61
(dp1324
sg70
g834
sg63
(lp1325
g56
(g77
g58
NtRp1326
(dp1327
g61
(dp1328
g81
g82
ssg70
g1322
sg63
(lp1329
S'query_string'
p1330
asbag56
(g77
g58
NtRp1331
(dp1332
g61
(dp1333
g88
g89
ssg70
g1322
sg63
(lp1334
S':'
asbag56
(g77
g58
NtRp1335
(dp1336
g61
(dp1337
sg70
g1322
sg63
(lp1338
g56
(g57
g58
NtRp1339
(dp1340
g61
(dp1341
g69
I4
ssg70
g1335
sg63
(lp1342
S''
asbasbasbag56
(g72
g58
NtRp1343
(dp1344
g61
(dp1345
sg70
g834
sg63
(lp1346
g56
(g77
g58
NtRp1347
(dp1348
g61
(dp1349
g81
g82
ssg70
g1343
sg63
(lp1350
S'remote_addr'
p1351
asbag56
(g77
g58
NtRp1352
(dp1353
g61
(dp1354
g88
g89
ssg70
g1343
sg63
(lp1355
S':'
asbag56
(g77
g58
NtRp1356
(dp1357
g61
(dp1358
sg70
g1343
sg63
(lp1359
g56
(g57
g58
NtRp1360
(dp1361
g61
(dp1362
g69
I4
ssg70
g1356
sg63
(lp1363
g202
asbasbasbag56
(g72
g58
NtRp1364
(dp1365
g61
(dp1366
sg70
g834
sg63
(lp1367
g56
(g77
g58
NtRp1368
(dp1369
g61
(dp1370
g81
g82
ssg70
g1364
sg63
(lp1371
S'remote_port'
p1372
asbag56
(g77
g58
NtRp1373
(dp1374
g61
(dp1375
g88
g89
ssg70
g1364
sg63
(lp1376
S':'
asbag56
(g77
g58
NtRp1377
(dp1378
g61
(dp1379
sg70
g1364
sg63
(lp1380
g56
(g57
g58
NtRp1381
(dp1382
g61
(dp1383
g69
I4
ssg70
g1377
sg63
(lp1384
S'39427'
p1385
asbasbasbag56
(g72
g58
NtRp1386
(dp1387
g61
(dp1388
sg70
g834
sg63
(lp1389
g56
(g77
g58
NtRp1390
(dp1391
g61
(dp1392
g81
g82
ssg70
g1386
sg63
(lp1393
S'request_method'
p1394
asbag56
(g77
g58
NtRp1395
(dp1396
g61
(dp1397
g88
g89
ssg70
g1386
sg63
(lp1398
S':'
asbag56
(g77
g58
NtRp1399
(dp1400
g61
(dp1401
sg70
g1386
sg63
(lp1402
g56
(g57
g58
NtRp1403
(dp1404
g61
(dp1405
g69
I4
ssg70
g1399
sg63
(lp1406
S'POST'
p1407
asbasbasbag56
(g72
g58
NtRp1408
(dp1409
g61
(dp1410
sg70
g834
sg63
(lp1411
g56
(g77
g58
NtRp1412
(dp1413
g61
(dp1414
g81
g82
ssg70
g1408
sg63
(lp1415
S'script_name'
p1416
asbag56
(g77
g58
NtRp1417
(dp1418
g61
(dp1419
g88
g89
ssg70
g1408
sg63
(lp1420
S':'
asbag56
(g77
g58
NtRp1421
(dp1422
g61
(dp1423
sg70
g1408
sg63
(lp1424
g56
(g57
g58
NtRp1425
(dp1426
g61
(dp1427
g69
I4
ssg70
g1421
sg63
(lp1428
S''
asbasbasbag56
(g72
g58
NtRp1429
(dp1430
g61
(dp1431
sg70
g834
sg63
(lp1432
g56
(g77
g58
NtRp1433
(dp1434
g61
(dp1435
g81
g82
ssg70
g1429
sg63
(lp1436
S'server_name'
p1437
asbag56
(g77
g58
NtRp1438
(dp1439
g61
(dp1440
g88
g89
ssg70
g1429
sg63
(lp1441
S':'
asbag56
(g77
g58
NtRp1442
(dp1443
g61
(dp1444
sg70
g1429
sg63
(lp1445
g56
(g57
g58
NtRp1446
(dp1447
g61
(dp1448
g69
I4
ssg70
g1442
sg63
(lp1449
S'jose'
p1450
asbasbasbag56
(g72
g58
NtRp1451
(dp1452
g61
(dp1453
sg70
g834
sg63
(lp1454
g56
(g77
g58
NtRp1455
(dp1456
g61
(dp1457
g81
g82
ssg70
g1451
sg63
(lp1458
S'server_port'
p1459
asbag56
(g77
g58
NtRp1460
(dp1461
g61
(dp1462
g88
g89
ssg70
g1451
sg63
(lp1463
S':'
asbag56
(g77
g58
NtRp1464
(dp1465
g61
(dp1466
sg70
g1451
sg63
(lp1467
g56
(g57
g58
NtRp1468
(dp1469
g61
(dp1470
g69
I4
ssg70
g1464
sg63
(lp1471
S'8000'
p1472
asbasbasbag56
(g72
g58
NtRp1473
(dp1474
g61
(dp1475
sg70
g834
sg63
(lp1476
g56
(g77
g58
NtRp1477
(dp1478
g61
(dp1479
g81
g82
ssg70
g1473
sg63
(lp1480
S'server_protocol'
p1481
asbag56
(g77
g58
NtRp1482
(dp1483
g61
(dp1484
g88
g89
ssg70
g1473
sg63
(lp1485
S':'
asbag56
(g77
g58
NtRp1486
(dp1487
g61
(dp1488
sg70
g1473
sg63
(lp1489
g56
(g57
g58
NtRp1490
(dp1491
g61
(dp1492
g69
I4
ssg70
g1486
sg63
(lp1493
S'HTTP/1.1'
p1494
asbasbasbag56
(g72
g58
NtRp1495
(dp1496
g61
(dp1497
sg70
g834
sg63
(lp1498
g56
(g77
g58
NtRp1499
(dp1500
g61
(dp1501
g81
g82
ssg70
g1495
sg63
(lp1502
S'server_software'
p1503
asbag56
(g77
g58
NtRp1504
(dp1505
g61
(dp1506
g88
g89
ssg70
g1495
sg63
(lp1507
S':'
asbag56
(g77
g58
NtRp1508
(dp1509
g61
(dp1510
sg70
g1495
sg63
(lp1511
g56
(g57
g58
NtRp1512
(dp1513
g61
(dp1514
g69
I4
ssg70
g1508
sg63
(lp1515
S'Rocket 1.2.4'
p1516
asbasbasbag56
(g72
g58
NtRp1517
(dp1518
g61
(dp1519
sg70
g834
sg63
(lp1520
g56
(g77
g58
NtRp1521
(dp1522
g61
(dp1523
g81
g82
ssg70
g1517
sg63
(lp1524
S'web2py_crontype'
p1525
asbag56
(g77
g58
NtRp1526
(dp1527
g61
(dp1528
g88
g89
ssg70
g1517
sg63
(lp1529
S':'
asbag56
(g77
g58
NtRp1530
(dp1531
g61
(dp1532
sg70
g1517
sg63
(lp1533
g56
(g57
g58
NtRp1534
(dp1535
g61
(dp1536
g69
I4
ssg70
g1530
sg63
(lp1537
S'hard'
p1538
asbasbasbag56
(g72
g58
NtRp1539
(dp1540
g61
(dp1541
sg70
g834
sg63
(lp1542
g56
(g77
g58
NtRp1543
(dp1544
g61
(dp1545
g81
g82
ssg70
g1539
sg63
(lp1546
S'web2py_path'
p1547
asbag56
(g77
g58
NtRp1548
(dp1549
g61
(dp1550
g88
g89
ssg70
g1539
sg63
(lp1551
S':'
asbag56
(g77
g58
NtRp1552
(dp1553
g61
(dp1554
sg70
g1539
sg63
(lp1555
g56
(g57
g58
NtRp1556
(dp1557
g61
(dp1558
g69
I4
ssg70
g1552
sg63
(lp1559
g881
asbasbasbag56
(g72
g58
NtRp1560
(dp1561
g61
(dp1562
sg70
g834
sg63
(lp1563
g56
(g77
g58
NtRp1564
(dp1565
g61
(dp1566
g81
g82
ssg70
g1560
sg63
(lp1567
S'web2py_version'
p1568
asbag56
(g77
g58
NtRp1569
(dp1570
g61
(dp1571
g88
g89
ssg70
g1560
sg63
(lp1572
S':'
asbag56
(g77
g58
NtRp1573
(dp1574
g61
(dp1575
sg70
g1560
sg63
(lp1576
g56
(g57
g58
NtRp1577
(dp1578
g61
(dp1579
g69
I4
ssg70
g1573
sg63
(lp1580
g56
(g65
g58
NtRp1581
(dp1582
g61
(dp1583
g69
I3
ssg70
Nsg63
(lp1584
g56
(g72
g58
NtRp1585
(dp1586
g61
(dp1587
sg70
g1581
sg63
(lp1588
g56
(g77
g58
NtRp1589
(dp1590
g61
(dp1591
sg70
g1585
sg63
(lp1592
g56
(g57
g58
NtRp1593
(dp1594
g61
(dp1595
g69
I3
ssg70
g1589
sg63
(lp1596
S'1'
asbasbasbag56
(g72
g58
NtRp1597
(dp1598
g61
(dp1599
sg70
g1581
sg63
(lp1600
g56
(g77
g58
NtRp1601
(dp1602
g61
(dp1603
sg70
g1597
sg63
(lp1604
g56
(g57
g58
NtRp1605
(dp1606
g61
(dp1607
g69
I3
ssg70
g1601
sg63
(lp1608
S'99'
p1609
asbasbasbag56
(g72
g58
NtRp1610
(dp1611
g61
(dp1612
sg70
g1581
sg63
(lp1613
g56
(g77
g58
NtRp1614
(dp1615
g61
(dp1616
sg70
g1610
sg63
(lp1617
g56
(g57
g58
NtRp1618
(dp1619
g61
(dp1620
g69
I3
ssg70
g1614
sg63
(lp1621
S'2'
asbasbasbag56
(g72
g58
NtRp1622
(dp1623
g61
(dp1624
sg70
g1581
sg63
(lp1625
g56
(g77
g58
NtRp1626
(dp1627
g61
(dp1628
sg70
g1622
sg63
(lp1629
g56
(g57
g58
NtRp1630
(dp1631
g61
(dp1632
g69
I3
ssg70
g1626
sg63
(lp1633
S'datetime.datetime(2011, 9, 26, 6, 55, 33)'
p1634
asbasbasbag56
(g72
g58
NtRp1635
(dp1636
g61
(dp1637
sg70
g1581
sg63
(lp1638
g56
(g77
g58
NtRp1639
(dp1640
g61
(dp1641
sg70
g1635
sg63
(lp1642
g56
(g57
g58
NtRp1643
(dp1644
g61
(dp1645
g69
I3
ssg70
g1639
sg63
(lp1646
S'stable'
p1647
asbasbasbasbasbasbasbag56
(g72
g58
NtRp1648
(dp1649
g61
(dp1650
sg70
g834
sg63
(lp1651
g56
(g77
g58
NtRp1652
(dp1653
g61
(dp1654
g81
g82
ssg70
g1648
sg63
(lp1655
S'wsgi_errors'
p1656
asbag56
(g77
g58
NtRp1657
(dp1658
g61
(dp1659
g88
g89
ssg70
g1648
sg63
(lp1660
S':'
asbag56
(g77
g58
NtRp1661
(dp1662
g61
(dp1663
sg70
g1648
sg63
(lp1664
g56
(g57
g58
NtRp1665
(dp1666
g61
(dp1667
g69
I4
ssg70
g1661
sg63
(lp1668
S"<open file '<stderr>', mode 'w' at 0x7faf4eae9270>"
p1669
asbasbasbag56
(g72
g58
NtRp1670
(dp1671
g61
(dp1672
sg70
g834
sg63
(lp1673
g56
(g77
g58
NtRp1674
(dp1675
g61
(dp1676
g81
g82
ssg70
g1670
sg63
(lp1677
S'wsgi_file_wrapper'
p1678
asbag56
(g77
g58
NtRp1679
(dp1680
g61
(dp1681
g88
g89
ssg70
g1670
sg63
(lp1682
S':'
asbag56
(g77
g58
NtRp1683
(dp1684
g61
(dp1685
sg70
g1670
sg63
(lp1686
g56
(g57
g58
NtRp1687
(dp1688
g61
(dp1689
g69
I4
ssg70
g1683
sg63
(lp1690
S'<class wsgiref.util.FileWrapper at 0x294cd50>'
p1691
asbasbasbag56
(g72
g58
NtRp1692
(dp1693
g61
(dp1694
sg70
g834
sg63
(lp1695
g56
(g77
g58
NtRp1696
(dp1697
g61
(dp1698
g81
g82
ssg70
g1692
sg63
(lp1699
S'wsgi_input'
p1700
asbag56
(g77
g58
NtRp1701
(dp1702
g61
(dp1703
g88
g89
ssg70
g1692
sg63
(lp1704
S':'
asbag56
(g77
g58
NtRp1705
(dp1706
g61
(dp1707
sg70
g1692
sg63
(lp1708
g56
(g57
g58
NtRp1709
(dp1710
g61
(dp1711
g69
I4
ssg70
g1705
sg63
(lp1712
S'<socket._fileobject object at 0x48c4e50>'
p1713
asbasbasbag56
(g72
g58
NtRp1714
(dp1715
g61
(dp1716
sg70
g834
sg63
(lp1717
g56
(g77
g58
NtRp1718
(dp1719
g61
(dp1720
g81
g82
ssg70
g1714
sg63
(lp1721
S'wsgi_multiprocess'
p1722
asbag56
(g77
g58
NtRp1723
(dp1724
g61
(dp1725
g88
g89
ssg70
g1714
sg63
(lp1726
S':'
asbag56
(g77
g58
NtRp1727
(dp1728
g61
(dp1729
sg70
g1714
sg63
(lp1730
g56
(g57
g58
NtRp1731
(dp1732
g61
(dp1733
g69
I4
ssg70
g1727
sg63
(lp1734
g993
asbasbasbag56
(g72
g58
NtRp1735
(dp1736
g61
(dp1737
sg70
g834
sg63
(lp1738
g56
(g77
g58
NtRp1739
(dp1740
g61
(dp1741
g81
g82
ssg70
g1735
sg63
(lp1742
S'wsgi_multithread'
p1743
asbag56
(g77
g58
NtRp1744
(dp1745
g61
(dp1746
g88
g89
ssg70
g1735
sg63
(lp1747
S':'
asbag56
(g77
g58
NtRp1748
(dp1749
g61
(dp1750
sg70
g1735
sg63
(lp1751
g56
(g57
g58
NtRp1752
(dp1753
g61
(dp1754
g69
I4
ssg70
g1748
sg63
(lp1755
g99
asbasbasbag56
(g72
g58
NtRp1756
(dp1757
g61
(dp1758
sg70
g834
sg63
(lp1759
g56
(g77
g58
NtRp1760
(dp1761
g61
(dp1762
g81
g82
ssg70
g1756
sg63
(lp1763
S'wsgi_run_once'
p1764
asbag56
(g77
g58
NtRp1765
(dp1766
g61
(dp1767
g88
g89
ssg70
g1756
sg63
(lp1768
S':'
asbag56
(g77
g58
NtRp1769
(dp1770
g61
(dp1771
sg70
g1756
sg63
(lp1772
g56
(g57
g58
NtRp1773
(dp1774
g61
(dp1775
g69
I4
ssg70
g1769
sg63
(lp1776
g993
asbasbasbag56
(g72
g58
NtRp1777
(dp1778
g61
(dp1779
sg70
g834
sg63
(lp1780
g56
(g77
g58
NtRp1781
(dp1782
g61
(dp1783
g81
g82
ssg70
g1777
sg63
(lp1784
S'wsgi_url_scheme'
p1785
asbag56
(g77
g58
NtRp1786
(dp1787
g61
(dp1788
g88
g89
ssg70
g1777
sg63
(lp1789
S':'
asbag56
(g77
g58
NtRp1790
(dp1791
g61
(dp1792
sg70
g1777
sg63
(lp1793
g56
(g57
g58
NtRp1794
(dp1795
g61
(dp1796
g69
I4
ssg70
g1790
sg63
(lp1797
S'http'
p1798
asbasbasbag56
(g72
g58
NtRp1799
(dp1800
g61
(dp1801
sg70
g834
sg63
(lp1802
g56
(g77
g58
NtRp1803
(dp1804
g61
(dp1805
g81
g82
ssg70
g1799
sg63
(lp1806
S'wsgi_version'
p1807
asbag56
(g77
g58
NtRp1808
(dp1809
g61
(dp1810
g88
g89
ssg70
g1799
sg63
(lp1811
S':'
asbag56
(g77
g58
NtRp1812
(dp1813
g61
(dp1814
sg70
g1799
sg63
(lp1815
g56
(g57
g58
NtRp1816
(dp1817
g61
(dp1818
g69
I4
ssg70
g1812
sg63
(lp1819
g56
(g65
g58
NtRp1820
(dp1821
g61
(dp1822
g69
I3
ssg70
Nsg63
(lp1823
g56
(g72
g58
NtRp1824
(dp1825
g61
(dp1826
sg70
g1820
sg63
(lp1827
g56
(g77
g58
NtRp1828
(dp1829
g61
(dp1830
sg70
g1824
sg63
(lp1831
g56
(g57
g58
NtRp1832
(dp1833
g61
(dp1834
g69
I3
ssg70
g1828
sg63
(lp1835
S'1'
asbasbasbag56
(g72
g58
NtRp1836
(dp1837
g61
(dp1838
sg70
g1820
sg63
(lp1839
g56
(g77
g58
NtRp1840
(dp1841
g61
(dp1842
sg70
g1836
sg63
(lp1843
g56
(g57
g58
NtRp1844
(dp1845
g61
(dp1846
g69
I3
ssg70
g1840
sg63
(lp1847
S'0'
asbasbasbasbasbasbasbasbasbasbasbag56
(g72
g58
NtRp1848
(dp1849
g61
(dp1850
sg70
g66
sg63
(lp1851
g56
(g77
g58
NtRp1852
(dp1853
g61
(dp1854
g81
g82
ssg70
g1848
sg63
(lp1855
S'extension'
p1856
asbag56
(g77
g58
NtRp1857
(dp1858
g61
(dp1859
g88
g89
ssg70
g1848
sg63
(lp1860
S':'
asbag56
(g77
g58
NtRp1861
(dp1862
g61
(dp1863
sg70
g1848
sg63
(lp1864
g56
(g57
g58
NtRp1865
(dp1866
g61
(dp1867
g69
I5
ssg70
g1861
sg63
(lp1868
S'html'
p1869
asbasbasbag56
(g72
g58
NtRp1870
(dp1871
g61
(dp1872
sg70
g66
sg63
(lp1873
g56
(g77
g58
NtRp1874
(dp1875
g61
(dp1876
g81
g82
ssg70
g1870
sg63
(lp1877
S'folder'
p1878
asbag56
(g77
g58
NtRp1879
(dp1880
g61
(dp1881
g88
g89
ssg70
g1870
sg63
(lp1882
S':'
asbag56
(g77
g58
NtRp1883
(dp1884
g61
(dp1885
sg70
g1870
sg63
(lp1886
g56
(g57
g58
NtRp1887
(dp1888
g61
(dp1889
g69
I5
ssg70
g1883
sg63
(lp1890
S'/home/jose/DESARROLLO/web2py199/applications/streamlog/'
p1891
asbasbasbag56
(g72
g58
NtRp1892
(dp1893
g61
(dp1894
sg70
g66
sg63
(lp1895
g56
(g77
g58
NtRp1896
(dp1897
g61
(dp1898
g81
g82
ssg70
g1892
sg63
(lp1899
S'function'
p1900
asbag56
(g77
g58
NtRp1901
(dp1902
g61
(dp1903
g88
g89
ssg70
g1892
sg63
(lp1904
S':'
asbag56
(g77
g58
NtRp1905
(dp1906
g61
(dp1907
sg70
g1892
sg63
(lp1908
g56
(g57
g58
NtRp1909
(dp1910
g61
(dp1911
g69
I5
ssg70
g1905
sg63
(lp1912
S'getTypeTable'
p1913
asbasbasbag56
(g72
g58
NtRp1914
(dp1915
g61
(dp1916
sg70
g66
sg63
(lp1917
g56
(g77
g58
NtRp1918
(dp1919
g61
(dp1920
g81
g82
ssg70
g1914
sg63
(lp1921
S'get_vars'
p1922
asbag56
(g77
g58
NtRp1923
(dp1924
g61
(dp1925
g88
g89
ssg70
g1914
sg63
(lp1926
S':'
asbag56
(g77
g58
NtRp1927
(dp1928
g61
(dp1929
sg70
g1914
sg63
(lp1930
g56
(g57
g58
NtRp1931
(dp1932
g61
(dp1933
g69
I5
ssg70
g1927
sg63
(lp1934
g56
(g65
g58
NtRp1935
(dp1936
g61
(dp1937
g69
I4
ssg70
Nsg63
(lp1938
sbasbasbasbag56
(g72
g58
NtRp1939
(dp1940
g61
(dp1941
sg70
g66
sg63
(lp1942
g56
(g77
g58
NtRp1943
(dp1944
g61
(dp1945
g81
g82
ssg70
g1939
sg63
(lp1946
S'global_settings'
p1947
asbag56
(g77
g58
NtRp1948
(dp1949
g61
(dp1950
g88
g89
ssg70
g1939
sg63
(lp1951
S':'
asbag56
(g77
g58
NtRp1952
(dp1953
g61
(dp1954
sg70
g1939
sg63
(lp1955
g56
(g57
g58
NtRp1956
(dp1957
g61
(dp1958
g69
I5
ssg70
g1952
sg63
(lp1959
g56
(g65
g58
NtRp1960
(dp1961
g61
(dp1962
g69
I4
ssg70
Nsg63
(lp1963
g56
(g72
g58
NtRp1964
(dp1965
g61
(dp1966
sg70
g1960
sg63
(lp1967
g56
(g77
g58
NtRp1968
(dp1969
g61
(dp1970
g81
g82
ssg70
g1964
sg63
(lp1971
g846
asbag56
(g77
g58
NtRp1972
(dp1973
g61
(dp1974
g88
g89
ssg70
g1964
sg63
(lp1975
S':'
asbag56
(g77
g58
NtRp1976
(dp1977
g61
(dp1978
sg70
g1964
sg63
(lp1979
g56
(g57
g58
NtRp1980
(dp1981
g61
(dp1982
g69
I4
ssg70
g1976
sg63
(lp1983
S"set(['/home/jose/DESARROLLO/web2py199/applications/streamlog/', '/home/jose/DESARROLLO/web2py199/applications/admin/'])"
p1984
asbasbasbag56
(g72
g58
NtRp1985
(dp1986
g61
(dp1987
sg70
g1960
sg63
(lp1988
g56
(g77
g58
NtRp1989
(dp1990
g61
(dp1991
g81
g82
ssg70
g1985
sg63
(lp1992
g868
asbag56
(g77
g58
NtRp1993
(dp1994
g61
(dp1995
g88
g89
ssg70
g1985
sg63
(lp1996
S':'
asbag56
(g77
g58
NtRp1997
(dp1998
g61
(dp1999
sg70
g1985
sg63
(lp2000
g56
(g57
g58
NtRp2001
(dp2002
g61
(dp2003
g69
I4
ssg70
g1997
sg63
(lp2004
g881
asbasbasbag56
(g72
g58
NtRp2005
(dp2006
g61
(dp2007
sg70
g1960
sg63
(lp2008
g56
(g77
g58
NtRp2009
(dp2010
g61
(dp2011
g81
g82
ssg70
g2005
sg63
(lp2012
g890
asbag56
(g77
g58
NtRp2013
(dp2014
g61
(dp2015
g88
g89
ssg70
g2005
sg63
(lp2016
S':'
asbag56
(g77
g58
NtRp2017
(dp2018
g61
(dp2019
sg70
g2005
sg63
(lp2020
g56
(g57
g58
NtRp2021
(dp2022
g61
(dp2023
g69
I4
ssg70
g2017
sg63
(lp2024
g56
(g65
g58
NtRp2025
(dp2026
g61
(dp2027
g69
I3
ssg70
Nsg63
(lp2028
sbasbasbasbag56
(g72
g58
NtRp2029
(dp2030
g61
(dp2031
sg70
g1960
sg63
(lp2032
g56
(g77
g58
NtRp2033
(dp2034
g61
(dp2035
g81
g82
ssg70
g2029
sg63
(lp2036
g915
asbag56
(g77
g58
NtRp2037
(dp2038
g61
(dp2039
g88
g89
ssg70
g2029
sg63
(lp2040
S':'
asbag56
(g77
g58
NtRp2041
(dp2042
g61
(dp2043
sg70
g2029
sg63
(lp2044
g56
(g57
g58
NtRp2045
(dp2046
g61
(dp2047
g69
I4
ssg70
g2041
sg63
(lp2048
S"<Values at 0x2a2ff80: {'verbose': False, 'ip': '127.0.0.1', 'shutdown_timeout': 5, 'taskbar': False, 'nocron': False, 'pid_filename': 'httpserver.pid', 'maxthreads': None, 'softcron': False, 'server_name': 'jose', 'bpython': False, 'nogui': False, 'port': 8000, 'extcron': False, 'debuglevel': 30, 'test': None, 'folder': '/home/jose/DESARROLLO/web2py199', 'config': '', 'import_models': False, 'winservice': '', 'shell': None, 'run': '', 'log_filename': 'httpserver.log', 'args': [''], 'ssl_ca_certificate': None, 'scheduler': None, 'profiler_filename': None, 'ssl_private_key': '', 'password': 't', 'request_queue_size': 5, 'ssl_certificate': '', 'cronjob': False, 'plain': False, 'quiet': False, 'interfaces': None, 'minthreads': None, 'timeout': 10, 'numthreads': None, 'nobanner': False}>"
p2049
asbasbasbag56
(g72
g58
NtRp2050
(dp2051
g61
(dp2052
sg70
g1960
sg63
(lp2053
g56
(g77
g58
NtRp2054
(dp2055
g61
(dp2056
g81
g82
ssg70
g2050
sg63
(lp2057
g958
asbag56
(g77
g58
NtRp2058
(dp2059
g61
(dp2060
g88
g89
ssg70
g2050
sg63
(lp2061
S':'
asbag56
(g77
g58
NtRp2062
(dp2063
g61
(dp2064
sg70
g2050
sg63
(lp2065
g56
(g57
g58
NtRp2066
(dp2067
g61
(dp2068
g69
I4
ssg70
g2062
sg63
(lp2069
S'set([])'
p2070
asbasbasbag56
(g72
g58
NtRp2071
(dp2072
g61
(dp2073
sg70
g1960
sg63
(lp2074
g56
(g77
g58
NtRp2075
(dp2076
g61
(dp2077
g81
g82
ssg70
g2071
sg63
(lp2078
g980
asbag56
(g77
g58
NtRp2079
(dp2080
g61
(dp2081
g88
g89
ssg70
g2071
sg63
(lp2082
S':'
asbag56
(g77
g58
NtRp2083
(dp2084
g61
(dp2085
sg70
g2071
sg63
(lp2086
g56
(g57
g58
NtRp2087
(dp2088
g61
(dp2089
g69
I4
ssg70
g2083
sg63
(lp2090
g993
asbasbasbag56
(g72
g58
NtRp2091
(dp2092
g61
(dp2093
sg70
g1960
sg63
(lp2094
g56
(g77
g58
NtRp2095
(dp2096
g61
(dp2097
g81
g82
ssg70
g2091
sg63
(lp2098
g1002
asbag56
(g77
g58
NtRp2099
(dp2100
g61
(dp2101
g88
g89
ssg70
g2091
sg63
(lp2102
S':'
asbag56
(g77
g58
NtRp2103
(dp2104
g61
(dp2105
sg70
g2091
sg63
(lp2106
g56
(g57
g58
NtRp2107
(dp2108
g61
(dp2109
g69
I4
ssg70
g2103
sg63
(lp2110
g1015
asbasbasbag56
(g72
g58
NtRp2111
(dp2112
g61
(dp2113
sg70
g1960
sg63
(lp2114
g56
(g77
g58
NtRp2115
(dp2116
g61
(dp2117
g81
g82
ssg70
g2111
sg63
(lp2118
g1287
asbag56
(g77
g58
NtRp2119
(dp2120
g61
(dp2121
g88
g89
ssg70
g2111
sg63
(lp2122
S':'
asbag56
(g77
g58
NtRp2123
(dp2124
g61
(dp2125
sg70
g2111
sg63
(lp2126
g56
(g57
g58
NtRp2127
(dp2128
g61
(dp2129
g69
I4
ssg70
g2123
sg63
(lp2130
g993
asbasbasbag56
(g72
g58
NtRp2131
(dp2132
g61
(dp2133
sg70
g1960
sg63
(lp2134
g56
(g77
g58
NtRp2135
(dp2136
g61
(dp2137
g81
g82
ssg70
g2131
sg63
(lp2138
g1525
asbag56
(g77
g58
NtRp2139
(dp2140
g61
(dp2141
g88
g89
ssg70
g2131
sg63
(lp2142
S':'
asbag56
(g77
g58
NtRp2143
(dp2144
g61
(dp2145
sg70
g2131
sg63
(lp2146
g56
(g57
g58
NtRp2147
(dp2148
g61
(dp2149
g69
I4
ssg70
g2143
sg63
(lp2150
g1538
asbasbasbag56
(g72
g58
NtRp2151
(dp2152
g61
(dp2153
sg70
g1960
sg63
(lp2154
g56
(g77
g58
NtRp2155
(dp2156
g61
(dp2157
g81
g82
ssg70
g2151
sg63
(lp2158
g1568
asbag56
(g77
g58
NtRp2159
(dp2160
g61
(dp2161
g88
g89
ssg70
g2151
sg63
(lp2162
S':'
asbag56
(g77
g58
NtRp2163
(dp2164
g61
(dp2165
sg70
g2151
sg63
(lp2166
g56
(g57
g58
NtRp2167
(dp2168
g61
(dp2169
g69
I4
ssg70
g2163
sg63
(lp2170
g56
(g65
g58
NtRp2171
(dp2172
g61
(dp2173
g69
I3
ssg70
Nsg63
(lp2174
g56
(g72
g58
NtRp2175
(dp2176
g61
(dp2177
sg70
g2171
sg63
(lp2178
g56
(g77
g58
NtRp2179
(dp2180
g61
(dp2181
sg70
g2175
sg63
(lp2182
g56
(g57
g58
NtRp2183
(dp2184
g61
(dp2185
g69
I3
ssg70
g2179
sg63
(lp2186
S'1'
asbasbasbag56
(g72
g58
NtRp2187
(dp2188
g61
(dp2189
sg70
g2171
sg63
(lp2190
g56
(g77
g58
NtRp2191
(dp2192
g61
(dp2193
sg70
g2187
sg63
(lp2194
g56
(g57
g58
NtRp2195
(dp2196
g61
(dp2197
g69
I3
ssg70
g2191
sg63
(lp2198
S'99'
p2199
asbasbasbag56
(g72
g58
NtRp2200
(dp2201
g61
(dp2202
sg70
g2171
sg63
(lp2203
g56
(g77
g58
NtRp2204
(dp2205
g61
(dp2206
sg70
g2200
sg63
(lp2207
g56
(g57
g58
NtRp2208
(dp2209
g61
(dp2210
g69
I3
ssg70
g2204
sg63
(lp2211
S'2'
asbasbasbag56
(g72
g58
NtRp2212
(dp2213
g61
(dp2214
sg70
g2171
sg63
(lp2215
g56
(g77
g58
NtRp2216
(dp2217
g61
(dp2218
sg70
g2212
sg63
(lp2219
g56
(g57
g58
NtRp2220
(dp2221
g61
(dp2222
g69
I3
ssg70
g2216
sg63
(lp2223
S'datetime.datetime(2011, 9, 26, 6, 55, 33)'
p2224
asbasbasbag56
(g72
g58
NtRp2225
(dp2226
g61
(dp2227
sg70
g2171
sg63
(lp2228
g56
(g77
g58
NtRp2229
(dp2230
g61
(dp2231
sg70
g2225
sg63
(lp2232
g56
(g57
g58
NtRp2233
(dp2234
g61
(dp2235
g69
I3
ssg70
g2229
sg63
(lp2236
g1647
asbasbasbasbasbasbasbasbasbasbasbag56
(g72
g58
NtRp2237
(dp2238
g61
(dp2239
sg70
g66
sg63
(lp2240
g56
(g77
g58
NtRp2241
(dp2242
g61
(dp2243
g81
g82
ssg70
g2237
sg63
(lp2244
S'is_https'
p2245
asbag56
(g77
g58
NtRp2246
(dp2247
g61
(dp2248
g88
g89
ssg70
g2237
sg63
(lp2249
S':'
asbag56
(g77
g58
NtRp2250
(dp2251
g61
(dp2252
sg70
g2237
sg63
(lp2253
g56
(g57
g58
NtRp2254
(dp2255
g61
(dp2256
g69
I5
ssg70
g2250
sg63
(lp2257
g993
asbasbasbag56
(g72
g58
NtRp2258
(dp2259
g61
(dp2260
sg70
g66
sg63
(lp2261
g56
(g77
g58
NtRp2262
(dp2263
g61
(dp2264
g81
g82
ssg70
g2258
sg63
(lp2265
S'is_local'
p2266
asbag56
(g77
g58
NtRp2267
(dp2268
g61
(dp2269
g88
g89
ssg70
g2258
sg63
(lp2270
S':'
asbag56
(g77
g58
NtRp2271
(dp2272
g61
(dp2273
sg70
g2258
sg63
(lp2274
g56
(g57
g58
NtRp2275
(dp2276
g61
(dp2277
g69
I5
ssg70
g2271
sg63
(lp2278
g99
asbasbasbag56
(g72
g58
NtRp2279
(dp2280
g61
(dp2281
sg70
g66
sg63
(lp2282
g56
(g77
g58
NtRp2283
(dp2284
g61
(dp2285
g81
g82
ssg70
g2279
sg63
(lp2286
S'is_restful'
p2287
asbag56
(g77
g58
NtRp2288
(dp2289
g61
(dp2290
g88
g89
ssg70
g2279
sg63
(lp2291
S':'
asbag56
(g77
g58
NtRp2292
(dp2293
g61
(dp2294
sg70
g2279
sg63
(lp2295
g56
(g57
g58
NtRp2296
(dp2297
g61
(dp2298
g69
I5
ssg70
g2292
sg63
(lp2299
g993
asbasbasbag56
(g72
g58
NtRp2300
(dp2301
g61
(dp2302
sg70
g66
sg63
(lp2303
g56
(g77
g58
NtRp2304
(dp2305
g61
(dp2306
g81
g82
ssg70
g2300
sg63
(lp2307
S'now'
p2308
asbag56
(g77
g58
NtRp2309
(dp2310
g61
(dp2311
g88
g89
ssg70
g2300
sg63
(lp2312
S':'
asbag56
(g77
g58
NtRp2313
(dp2314
g61
(dp2315
sg70
g2300
sg63
(lp2316
g56
(g57
g58
NtRp2317
(dp2318
g61
(dp2319
g69
I5
ssg70
g2313
sg63
(lp2320
S'datetime.datetime(2012, 5, 27, 9, 48, 42, 651156)'
p2321
asbasbasbag56
(g72
g58
NtRp2322
(dp2323
g61
(dp2324
sg70
g66
sg63
(lp2325
g56
(g77
g58
NtRp2326
(dp2327
g61
(dp2328
g81
g82
ssg70
g2322
sg63
(lp2329
S'post_vars'
p2330
asbag56
(g77
g58
NtRp2331
(dp2332
g61
(dp2333
g88
g89
ssg70
g2322
sg63
(lp2334
S':'
asbag56
(g77
g58
NtRp2335
(dp2336
g61
(dp2337
sg70
g2322
sg63
(lp2338
g56
(g57
g58
NtRp2339
(dp2340
g61
(dp2341
g69
I5
ssg70
g2335
sg63
(lp2342
g56
(g65
g58
NtRp2343
(dp2344
g61
(dp2345
g69
I4
ssg70
Nsg63
(lp2346
sbasbasbasbag56
(g72
g58
NtRp2347
(dp2348
g61
(dp2349
sg70
g66
sg63
(lp2350
g56
(g77
g58
NtRp2351
(dp2352
g61
(dp2353
g81
g82
ssg70
g2347
sg63
(lp2354
S'raw_args'
p2355
asbag56
(g77
g58
NtRp2356
(dp2357
g61
(dp2358
g88
g89
ssg70
g2347
sg63
(lp2359
S':'
asbag56
(g77
g58
NtRp2360
(dp2361
g61
(dp2362
sg70
g2347
sg63
(lp2363
g56
(g57
g58
NtRp2364
(dp2365
g61
(dp2366
g69
I5
ssg70
g2360
sg63
(lp2367
g158
asbasbasbag56
(g72
g58
NtRp2368
(dp2369
g61
(dp2370
sg70
g66
sg63
(lp2371
g56
(g77
g58
NtRp2372
(dp2373
g61
(dp2374
g81
g82
ssg70
g2368
sg63
(lp2375
S'url'
p2376
asbag56
(g77
g58
NtRp2377
(dp2378
g61
(dp2379
g88
g89
ssg70
g2368
sg63
(lp2380
S':'
asbag56
(g77
g58
NtRp2381
(dp2382
g61
(dp2383
sg70
g2368
sg63
(lp2384
g56
(g57
g58
NtRp2385
(dp2386
g61
(dp2387
g69
I5
ssg70
g2381
sg63
(lp2388
S'/streamlog/default/getTypeTable/undefined'
p2389
asbasbasbag56
(g72
g58
NtRp2390
(dp2391
g61
(dp2392
sg70
g66
sg63
(lp2393
g56
(g77
g58
NtRp2394
(dp2395
g61
(dp2396
g81
g82
ssg70
g2390
sg63
(lp2397
S'utcnow'
p2398
asbag56
(g77
g58
NtRp2399
(dp2400
g61
(dp2401
g88
g89
ssg70
g2390
sg63
(lp2402
S':'
asbag56
(g77
g58
NtRp2403
(dp2404
g61
(dp2405
sg70
g2390
sg63
(lp2406
g56
(g57
g58
NtRp2407
(dp2408
g61
(dp2409
g69
I5
ssg70
g2403
sg63
(lp2410
S'datetime.datetime(2012, 5, 27, 2, 48, 42, 651231)'
p2411
asbasbasbag56
(g72
g58
NtRp2412
(dp2413
g61
(dp2414
sg70
g66
sg63
(lp2415
g56
(g77
g58
NtRp2416
(dp2417
g61
(dp2418
g81
g82
ssg70
g2412
sg63
(lp2419
S'uuid'
p2420
asbag56
(g77
g58
NtRp2421
(dp2422
g61
(dp2423
g88
g89
ssg70
g2412
sg63
(lp2424
S':'
asbag56
(g77
g58
NtRp2425
(dp2426
g61
(dp2427
sg70
g2412
sg63
(lp2428
g56
(g57
g58
NtRp2429
(dp2430
g61
(dp2431
g69
I5
ssg70
g2425
sg63
(lp2432
S'streamlog/127.0.0.1.2012-05-27.09-48-42.973b7c07-b613-4f82-bc46-e08abc390088'
p2433
asbasbasbag56
(g72
g58
NtRp2434
(dp2435
g61
(dp2436
sg70
g66
sg63
(lp2437
g56
(g77
g58
NtRp2438
(dp2439
g61
(dp2440
g81
g82
ssg70
g2434
sg63
(lp2441
S'vars'
p2442
asbag56
(g77
g58
NtRp2443
(dp2444
g61
(dp2445
g88
g89
ssg70
g2434
sg63
(lp2446
S':'
asbag56
(g77
g58
NtRp2447
(dp2448
g61
(dp2449
sg70
g2434
sg63
(lp2450
g56
(g57
g58
NtRp2451
(dp2452
g61
(dp2453
g69
I5
ssg70
g2447
sg63
(lp2454
g56
(g65
g58
NtRp2455
(dp2456
g61
(dp2457
g69
I4
ssg70
Nsg63
(lp2458
sbasbasbasbag56
(g72
g58
NtRp2459
(dp2460
g61
(dp2461
sg70
g66
sg63
(lp2462
g56
(g77
g58
NtRp2463
(dp2464
g61
(dp2465
g81
g82
ssg70
g2459
sg63
(lp2466
S'wsgi'
p2467
asbag56
(g77
g58
NtRp2468
(dp2469
g61
(dp2470
g88
g89
ssg70
g2459
sg63
(lp2471
S':'
asbag56
(g77
g58
NtRp2472
(dp2473
g61
(dp2474
sg70
g2459
sg63
(lp2475
g56
(g57
g58
NtRp2476
(dp2477
g61
(dp2478
g69
I5
ssg70
g2472
sg63
(lp2479
g56
(g65
g58
NtRp2480
(dp2481
g61
(dp2482
g69
I4
ssg70
Nsg63
(lp2483
g56
(g72
g58
NtRp2484
(dp2485
g61
(dp2486
sg70
g2480
sg63
(lp2487
g56
(g77
g58
NtRp2488
(dp2489
g61
(dp2490
g81
g82
ssg70
g2484
sg63
(lp2491
S'environ'
p2492
asbag56
(g77
g58
NtRp2493
(dp2494
g61
(dp2495
g88
g89
ssg70
g2484
sg63
(lp2496
S':'
asbag56
(g77
g58
NtRp2497
(dp2498
g61
(dp2499
sg70
g2484
sg63
(lp2500
g56
(g57
g58
NtRp2501
(dp2502
g61
(dp2503
g69
I4
ssg70
g2497
sg63
(lp2504
g56
(g65
g58
NtRp2505
(dp2506
g61
(dp2507
g69
I3
ssg70
Nsg63
(lp2508
g56
(g72
g58
NtRp2509
(dp2510
g61
(dp2511
sg70
g2505
sg63
(lp2512
g56
(g77
g58
NtRp2513
(dp2514
g61
(dp2515
g81
g82
ssg70
g2509
sg63
(lp2516
S'CONTENT_LENGTH'
p2517
asbag56
(g77
g58
NtRp2518
(dp2519
g61
(dp2520
g88
g89
ssg70
g2509
sg63
(lp2521
S':'
asbag56
(g77
g58
NtRp2522
(dp2523
g61
(dp2524
sg70
g2509
sg63
(lp2525
g56
(g57
g58
NtRp2526
(dp2527
g61
(dp2528
g69
I3
ssg70
g2522
sg63
(lp2529
S'0'
asbasbasbag56
(g72
g58
NtRp2530
(dp2531
g61
(dp2532
sg70
g2505
sg63
(lp2533
g56
(g77
g58
NtRp2534
(dp2535
g61
(dp2536
g81
g82
ssg70
g2530
sg63
(lp2537
S'HTTP_ACCEPT'
p2538
asbag56
(g77
g58
NtRp2539
(dp2540
g61
(dp2541
g88
g89
ssg70
g2530
sg63
(lp2542
S':'
asbag56
(g77
g58
NtRp2543
(dp2544
g61
(dp2545
sg70
g2530
sg63
(lp2546
g56
(g57
g58
NtRp2547
(dp2548
g61
(dp2549
g69
I3
ssg70
g2543
sg63
(lp2550
g1037
asbasbasbag56
(g72
g58
NtRp2551
(dp2552
g61
(dp2553
sg70
g2505
sg63
(lp2554
g56
(g77
g58
NtRp2555
(dp2556
g61
(dp2557
g81
g82
ssg70
g2551
sg63
(lp2558
S'HTTP_ACCEPT_ENCODING'
p2559
asbag56
(g77
g58
NtRp2560
(dp2561
g61
(dp2562
g88
g89
ssg70
g2551
sg63
(lp2563
S':'
asbag56
(g77
g58
NtRp2564
(dp2565
g61
(dp2566
sg70
g2551
sg63
(lp2567
g56
(g57
g58
NtRp2568
(dp2569
g61
(dp2570
g69
I3
ssg70
g2564
sg63
(lp2571
g1059
asbasbasbag56
(g72
g58
NtRp2572
(dp2573
g61
(dp2574
sg70
g2505
sg63
(lp2575
g56
(g77
g58
NtRp2576
(dp2577
g61
(dp2578
g81
g82
ssg70
g2572
sg63
(lp2579
S'HTTP_ACCEPT_LANGUAGE'
p2580
asbag56
(g77
g58
NtRp2581
(dp2582
g61
(dp2583
g88
g89
ssg70
g2572
sg63
(lp2584
S':'
asbag56
(g77
g58
NtRp2585
(dp2586
g61
(dp2587
sg70
g2572
sg63
(lp2588
g56
(g57
g58
NtRp2589
(dp2590
g61
(dp2591
g69
I3
ssg70
g2585
sg63
(lp2592
g1081
asbasbasbag56
(g72
g58
NtRp2593
(dp2594
g61
(dp2595
sg70
g2505
sg63
(lp2596
g56
(g77
g58
NtRp2597
(dp2598
g61
(dp2599
g81
g82
ssg70
g2593
sg63
(lp2600
S'HTTP_CACHE_CONTROL'
p2601
asbag56
(g77
g58
NtRp2602
(dp2603
g61
(dp2604
g88
g89
ssg70
g2593
sg63
(lp2605
S':'
asbag56
(g77
g58
NtRp2606
(dp2607
g61
(dp2608
sg70
g2593
sg63
(lp2609
g56
(g57
g58
NtRp2610
(dp2611
g61
(dp2612
g69
I3
ssg70
g2606
sg63
(lp2613
g1103
asbasbasbag56
(g72
g58
NtRp2614
(dp2615
g61
(dp2616
sg70
g2505
sg63
(lp2617
g56
(g77
g58
NtRp2618
(dp2619
g61
(dp2620
g81
g82
ssg70
g2614
sg63
(lp2621
S'HTTP_CONNECTION'
p2622
asbag56
(g77
g58
NtRp2623
(dp2624
g61
(dp2625
g88
g89
ssg70
g2614
sg63
(lp2626
S':'
asbag56
(g77
g58
NtRp2627
(dp2628
g61
(dp2629
sg70
g2614
sg63
(lp2630
g56
(g57
g58
NtRp2631
(dp2632
g61
(dp2633
g69
I3
ssg70
g2627
sg63
(lp2634
g1125
asbasbasbag56
(g72
g58
NtRp2635
(dp2636
g61
(dp2637
sg70
g2505
sg63
(lp2638
g56
(g77
g58
NtRp2639
(dp2640
g61
(dp2641
g81
g82
ssg70
g2635
sg63
(lp2642
S'HTTP_CONTENT_LENGTH'
p2643
asbag56
(g77
g58
NtRp2644
(dp2645
g61
(dp2646
g88
g89
ssg70
g2635
sg63
(lp2647
S':'
asbag56
(g77
g58
NtRp2648
(dp2649
g61
(dp2650
sg70
g2635
sg63
(lp2651
g56
(g57
g58
NtRp2652
(dp2653
g61
(dp2654
g69
I3
ssg70
g2648
sg63
(lp2655
S'0'
asbasbasbag56
(g72
g58
NtRp2656
(dp2657
g61
(dp2658
sg70
g2505
sg63
(lp2659
g56
(g77
g58
NtRp2660
(dp2661
g61
(dp2662
g81
g82
ssg70
g2656
sg63
(lp2663
S'HTTP_COOKIE'
p2664
asbag56
(g77
g58
NtRp2665
(dp2666
g61
(dp2667
g88
g89
ssg70
g2656
sg63
(lp2668
S':'
asbag56
(g77
g58
NtRp2669
(dp2670
g61
(dp2671
sg70
g2656
sg63
(lp2672
g56
(g57
g58
NtRp2673
(dp2674
g61
(dp2675
g69
I3
ssg70
g2669
sg63
(lp2676
g1168
asbasbasbag56
(g72
g58
NtRp2677
(dp2678
g61
(dp2679
sg70
g2505
sg63
(lp2680
g56
(g77
g58
NtRp2681
(dp2682
g61
(dp2683
g81
g82
ssg70
g2677
sg63
(lp2684
S'HTTP_HOST'
p2685
asbag56
(g77
g58
NtRp2686
(dp2687
g61
(dp2688
g88
g89
ssg70
g2677
sg63
(lp2689
S':'
asbag56
(g77
g58
NtRp2690
(dp2691
g61
(dp2692
sg70
g2677
sg63
(lp2693
g56
(g57
g58
NtRp2694
(dp2695
g61
(dp2696
g69
I3
ssg70
g2690
sg63
(lp2697
g1190
asbasbasbag56
(g72
g58
NtRp2698
(dp2699
g61
(dp2700
sg70
g2505
sg63
(lp2701
g56
(g77
g58
NtRp2702
(dp2703
g61
(dp2704
g81
g82
ssg70
g2698
sg63
(lp2705
S'HTTP_PRAGMA'
p2706
asbag56
(g77
g58
NtRp2707
(dp2708
g61
(dp2709
g88
g89
ssg70
g2698
sg63
(lp2710
S':'
asbag56
(g77
g58
NtRp2711
(dp2712
g61
(dp2713
sg70
g2698
sg63
(lp2714
g56
(g57
g58
NtRp2715
(dp2716
g61
(dp2717
g69
I3
ssg70
g2711
sg63
(lp2718
g1212
asbasbasbag56
(g72
g58
NtRp2719
(dp2720
g61
(dp2721
sg70
g2505
sg63
(lp2722
g56
(g77
g58
NtRp2723
(dp2724
g61
(dp2725
g81
g82
ssg70
g2719
sg63
(lp2726
S'HTTP_REFERER'
p2727
asbag56
(g77
g58
NtRp2728
(dp2729
g61
(dp2730
g88
g89
ssg70
g2719
sg63
(lp2731
S':'
asbag56
(g77
g58
NtRp2732
(dp2733
g61
(dp2734
sg70
g2719
sg63
(lp2735
g56
(g57
g58
NtRp2736
(dp2737
g61
(dp2738
g69
I3
ssg70
g2732
sg63
(lp2739
g1234
asbasbasbag56
(g72
g58
NtRp2740
(dp2741
g61
(dp2742
sg70
g2505
sg63
(lp2743
g56
(g77
g58
NtRp2744
(dp2745
g61
(dp2746
g81
g82
ssg70
g2740
sg63
(lp2747
S'HTTP_USER_AGENT'
p2748
asbag56
(g77
g58
NtRp2749
(dp2750
g61
(dp2751
g88
g89
ssg70
g2740
sg63
(lp2752
S':'
asbag56
(g77
g58
NtRp2753
(dp2754
g61
(dp2755
sg70
g2740
sg63
(lp2756
g56
(g57
g58
NtRp2757
(dp2758
g61
(dp2759
g69
I3
ssg70
g2753
sg63
(lp2760
g1256
asbasbasbag56
(g72
g58
NtRp2761
(dp2762
g61
(dp2763
sg70
g2505
sg63
(lp2764
g56
(g77
g58
NtRp2765
(dp2766
g61
(dp2767
g81
g82
ssg70
g2761
sg63
(lp2768
S'HTTP_X_REQUESTED_WITH'
p2769
asbag56
(g77
g58
NtRp2770
(dp2771
g61
(dp2772
g88
g89
ssg70
g2761
sg63
(lp2773
S':'
asbag56
(g77
g58
NtRp2774
(dp2775
g61
(dp2776
sg70
g2761
sg63
(lp2777
g56
(g57
g58
NtRp2778
(dp2779
g61
(dp2780
g69
I3
ssg70
g2774
sg63
(lp2781
g1278
asbasbasbag56
(g72
g58
NtRp2782
(dp2783
g61
(dp2784
sg70
g2505
sg63
(lp2785
g56
(g77
g58
NtRp2786
(dp2787
g61
(dp2788
g81
g82
ssg70
g2782
sg63
(lp2789
S'PATH_INFO'
p2790
asbag56
(g77
g58
NtRp2791
(dp2792
g61
(dp2793
g88
g89
ssg70
g2782
sg63
(lp2794
S':'
asbag56
(g77
g58
NtRp2795
(dp2796
g61
(dp2797
sg70
g2782
sg63
(lp2798
g56
(g57
g58
NtRp2799
(dp2800
g61
(dp2801
g69
I3
ssg70
g2795
sg63
(lp2802
g1321
asbasbasbag56
(g72
g58
NtRp2803
(dp2804
g61
(dp2805
sg70
g2505
sg63
(lp2806
g56
(g77
g58
NtRp2807
(dp2808
g61
(dp2809
g81
g82
ssg70
g2803
sg63
(lp2810
S'QUERY_STRING'
p2811
asbag56
(g77
g58
NtRp2812
(dp2813
g61
(dp2814
g88
g89
ssg70
g2803
sg63
(lp2815
S':'
asbag56
(g77
g58
NtRp2816
(dp2817
g61
(dp2818
sg70
g2803
sg63
(lp2819
g56
(g57
g58
NtRp2820
(dp2821
g61
(dp2822
g69
I3
ssg70
g2816
sg63
(lp2823
S''
asbasbasbag56
(g72
g58
NtRp2824
(dp2825
g61
(dp2826
sg70
g2505
sg63
(lp2827
g56
(g77
g58
NtRp2828
(dp2829
g61
(dp2830
g81
g82
ssg70
g2824
sg63
(lp2831
S'REMOTE_ADDR'
p2832
asbag56
(g77
g58
NtRp2833
(dp2834
g61
(dp2835
g88
g89
ssg70
g2824
sg63
(lp2836
S':'
asbag56
(g77
g58
NtRp2837
(dp2838
g61
(dp2839
sg70
g2824
sg63
(lp2840
g56
(g57
g58
NtRp2841
(dp2842
g61
(dp2843
g69
I3
ssg70
g2837
sg63
(lp2844
g202
asbasbasbag56
(g72
g58
NtRp2845
(dp2846
g61
(dp2847
sg70
g2505
sg63
(lp2848
g56
(g77
g58
NtRp2849
(dp2850
g61
(dp2851
g81
g82
ssg70
g2845
sg63
(lp2852
S'REMOTE_PORT'
p2853
asbag56
(g77
g58
NtRp2854
(dp2855
g61
(dp2856
g88
g89
ssg70
g2845
sg63
(lp2857
S':'
asbag56
(g77
g58
NtRp2858
(dp2859
g61
(dp2860
sg70
g2845
sg63
(lp2861
g56
(g57
g58
NtRp2862
(dp2863
g61
(dp2864
g69
I3
ssg70
g2858
sg63
(lp2865
g1385
asbasbasbag56
(g72
g58
NtRp2866
(dp2867
g61
(dp2868
sg70
g2505
sg63
(lp2869
g56
(g77
g58
NtRp2870
(dp2871
g61
(dp2872
g81
g82
ssg70
g2866
sg63
(lp2873
S'REQUEST_METHOD'
p2874
asbag56
(g77
g58
NtRp2875
(dp2876
g61
(dp2877
g88
g89
ssg70
g2866
sg63
(lp2878
S':'
asbag56
(g77
g58
NtRp2879
(dp2880
g61
(dp2881
sg70
g2866
sg63
(lp2882
g56
(g57
g58
NtRp2883
(dp2884
g61
(dp2885
g69
I3
ssg70
g2879
sg63
(lp2886
g1407
asbasbasbag56
(g72
g58
NtRp2887
(dp2888
g61
(dp2889
sg70
g2505
sg63
(lp2890
g56
(g77
g58
NtRp2891
(dp2892
g61
(dp2893
g81
g82
ssg70
g2887
sg63
(lp2894
S'SCRIPT_NAME'
p2895
asbag56
(g77
g58
NtRp2896
(dp2897
g61
(dp2898
g88
g89
ssg70
g2887
sg63
(lp2899
S':'
asbag56
(g77
g58
NtRp2900
(dp2901
g61
(dp2902
sg70
g2887
sg63
(lp2903
g56
(g57
g58
NtRp2904
(dp2905
g61
(dp2906
g69
I3
ssg70
g2900
sg63
(lp2907
S''
asbasbasbag56
(g72
g58
NtRp2908
(dp2909
g61
(dp2910
sg70
g2505
sg63
(lp2911
g56
(g77
g58
NtRp2912
(dp2913
g61
(dp2914
g81
g82
ssg70
g2908
sg63
(lp2915
S'SERVER_NAME'
p2916
asbag56
(g77
g58
NtRp2917
(dp2918
g61
(dp2919
g88
g89
ssg70
g2908
sg63
(lp2920
S':'
asbag56
(g77
g58
NtRp2921
(dp2922
g61
(dp2923
sg70
g2908
sg63
(lp2924
g56
(g57
g58
NtRp2925
(dp2926
g61
(dp2927
g69
I3
ssg70
g2921
sg63
(lp2928
g1450
asbasbasbag56
(g72
g58
NtRp2929
(dp2930
g61
(dp2931
sg70
g2505
sg63
(lp2932
g56
(g77
g58
NtRp2933
(dp2934
g61
(dp2935
g81
g82
ssg70
g2929
sg63
(lp2936
S'SERVER_PORT'
p2937
asbag56
(g77
g58
NtRp2938
(dp2939
g61
(dp2940
g88
g89
ssg70
g2929
sg63
(lp2941
S':'
asbag56
(g77
g58
NtRp2942
(dp2943
g61
(dp2944
sg70
g2929
sg63
(lp2945
g56
(g57
g58
NtRp2946
(dp2947
g61
(dp2948
g69
I3
ssg70
g2942
sg63
(lp2949
g1472
asbasbasbag56
(g72
g58
NtRp2950
(dp2951
g61
(dp2952
sg70
g2505
sg63
(lp2953
g56
(g77
g58
NtRp2954
(dp2955
g61
(dp2956
g81
g82
ssg70
g2950
sg63
(lp2957
S'SERVER_PROTOCOL'
p2958
asbag56
(g77
g58
NtRp2959
(dp2960
g61
(dp2961
g88
g89
ssg70
g2950
sg63
(lp2962
S':'
asbag56
(g77
g58
NtRp2963
(dp2964
g61
(dp2965
sg70
g2950
sg63
(lp2966
g56
(g57
g58
NtRp2967
(dp2968
g61
(dp2969
g69
I3
ssg70
g2963
sg63
(lp2970
g1494
asbasbasbag56
(g72
g58
NtRp2971
(dp2972
g61
(dp2973
sg70
g2505
sg63
(lp2974
g56
(g77
g58
NtRp2975
(dp2976
g61
(dp2977
g81
g82
ssg70
g2971
sg63
(lp2978
S'SERVER_SOFTWARE'
p2979
asbag56
(g77
g58
NtRp2980
(dp2981
g61
(dp2982
g88
g89
ssg70
g2971
sg63
(lp2983
S':'
asbag56
(g77
g58
NtRp2984
(dp2985
g61
(dp2986
sg70
g2971
sg63
(lp2987
g56
(g57
g58
NtRp2988
(dp2989
g61
(dp2990
g69
I3
ssg70
g2984
sg63
(lp2991
g1516
asbasbasbag56
(g72
g58
NtRp2992
(dp2993
g61
(dp2994
sg70
g2505
sg63
(lp2995
g56
(g77
g58
NtRp2996
(dp2997
g61
(dp2998
g81
g82
ssg70
g2992
sg63
(lp2999
S'wsgi.errors'
p3000
asbag56
(g77
g58
NtRp3001
(dp3002
g61
(dp3003
g88
g89
ssg70
g2992
sg63
(lp3004
S':'
asbag56
(g77
g58
NtRp3005
(dp3006
g61
(dp3007
sg70
g2992
sg63
(lp3008
g56
(g57
g58
NtRp3009
(dp3010
g61
(dp3011
g69
I3
ssg70
g3005
sg63
(lp3012
S"<open file '<stderr>', mode 'w' at 0x7faf4eae9270>"
p3013
asbasbasbag56
(g72
g58
NtRp3014
(dp3015
g61
(dp3016
sg70
g2505
sg63
(lp3017
g56
(g77
g58
NtRp3018
(dp3019
g61
(dp3020
g81
g82
ssg70
g3014
sg63
(lp3021
S'wsgi.file_wrapper'
p3022
asbag56
(g77
g58
NtRp3023
(dp3024
g61
(dp3025
g88
g89
ssg70
g3014
sg63
(lp3026
S':'
asbag56
(g77
g58
NtRp3027
(dp3028
g61
(dp3029
sg70
g3014
sg63
(lp3030
g56
(g57
g58
NtRp3031
(dp3032
g61
(dp3033
g69
I3
ssg70
g3027
sg63
(lp3034
S'<class wsgiref.util.FileWrapper at 0x294cd50>'
p3035
asbasbasbag56
(g72
g58
NtRp3036
(dp3037
g61
(dp3038
sg70
g2505
sg63
(lp3039
g56
(g77
g58
NtRp3040
(dp3041
g61
(dp3042
g81
g82
ssg70
g3036
sg63
(lp3043
S'wsgi.input'
p3044
asbag56
(g77
g58
NtRp3045
(dp3046
g61
(dp3047
g88
g89
ssg70
g3036
sg63
(lp3048
S':'
asbag56
(g77
g58
NtRp3049
(dp3050
g61
(dp3051
sg70
g3036
sg63
(lp3052
g56
(g57
g58
NtRp3053
(dp3054
g61
(dp3055
g69
I3
ssg70
g3049
sg63
(lp3056
S"<open file '<fdopen>', mode 'w+b' at 0x48d1c00>"
p3057
asbasbasbag56
(g72
g58
NtRp3058
(dp3059
g61
(dp3060
sg70
g2505
sg63
(lp3061
g56
(g77
g58
NtRp3062
(dp3063
g61
(dp3064
g81
g82
ssg70
g3058
sg63
(lp3065
S'wsgi.multiprocess'
p3066
asbag56
(g77
g58
NtRp3067
(dp3068
g61
(dp3069
g88
g89
ssg70
g3058
sg63
(lp3070
S':'
asbag56
(g77
g58
NtRp3071
(dp3072
g61
(dp3073
sg70
g3058
sg63
(lp3074
g56
(g57
g58
NtRp3075
(dp3076
g61
(dp3077
g69
I3
ssg70
g3071
sg63
(lp3078
g993
asbasbasbag56
(g72
g58
NtRp3079
(dp3080
g61
(dp3081
sg70
g2505
sg63
(lp3082
g56
(g77
g58
NtRp3083
(dp3084
g61
(dp3085
g81
g82
ssg70
g3079
sg63
(lp3086
S'wsgi.multithread'
p3087
asbag56
(g77
g58
NtRp3088
(dp3089
g61
(dp3090
g88
g89
ssg70
g3079
sg63
(lp3091
S':'
asbag56
(g77
g58
NtRp3092
(dp3093
g61
(dp3094
sg70
g3079
sg63
(lp3095
g56
(g57
g58
NtRp3096
(dp3097
g61
(dp3098
g69
I3
ssg70
g3092
sg63
(lp3099
g99
asbasbasbag56
(g72
g58
NtRp3100
(dp3101
g61
(dp3102
sg70
g2505
sg63
(lp3103
g56
(g77
g58
NtRp3104
(dp3105
g61
(dp3106
g81
g82
ssg70
g3100
sg63
(lp3107
S'wsgi.run_once'
p3108
asbag56
(g77
g58
NtRp3109
(dp3110
g61
(dp3111
g88
g89
ssg70
g3100
sg63
(lp3112
S':'
asbag56
(g77
g58
NtRp3113
(dp3114
g61
(dp3115
sg70
g3100
sg63
(lp3116
g56
(g57
g58
NtRp3117
(dp3118
g61
(dp3119
g69
I3
ssg70
g3113
sg63
(lp3120
g993
asbasbasbag56
(g72
g58
NtRp3121
(dp3122
g61
(dp3123
sg70
g2505
sg63
(lp3124
g56
(g77
g58
NtRp3125
(dp3126
g61
(dp3127
g81
g82
ssg70
g3121
sg63
(lp3128
S'wsgi.url_scheme'
p3129
asbag56
(g77
g58
NtRp3130
(dp3131
g61
(dp3132
g88
g89
ssg70
g3121
sg63
(lp3133
S':'
asbag56
(g77
g58
NtRp3134
(dp3135
g61
(dp3136
sg70
g3121
sg63
(lp3137
g56
(g57
g58
NtRp3138
(dp3139
g61
(dp3140
g69
I3
ssg70
g3134
sg63
(lp3141
g1798
asbasbasbag56
(g72
g58
NtRp3142
(dp3143
g61
(dp3144
sg70
g2505
sg63
(lp3145
g56
(g77
g58
NtRp3146
(dp3147
g61
(dp3148
g81
g82
ssg70
g3142
sg63
(lp3149
S'wsgi.version'
p3150
asbag56
(g77
g58
NtRp3151
(dp3152
g61
(dp3153
g88
g89
ssg70
g3142
sg63
(lp3154
S':'
asbag56
(g77
g58
NtRp3155
(dp3156
g61
(dp3157
sg70
g3142
sg63
(lp3158
g56
(g57
g58
NtRp3159
(dp3160
g61
(dp3161
g69
I3
ssg70
g3155
sg63
(lp3162
S'1'
asbasbasbasbasbasbasbasbasbasbasbasbasbsS'frames'
p3163
(lp3164
(dp3165
S'file'
p3166
S'/home/jose/DESARROLLO/web2py199/gluon/restricted.py'
p3167
sS'dump'
p3168
(dp3169
S'environment'
p3170
S"{'A': <class 'gluon.html.A'>, 'Auth': <class 'gluon.tools.Auth'>, 'B': <class 'gluon.html.B'>, 'BEAUTIFY': <class 'gluon.html.BEAUTIFY'>, 'BODY': <class 'gluon.html.BODY'>, 'BR': <class 'gluon.html.BR'>, 'BUTTON': <class 'gluon.html.BUTTON'>, 'CAT': <class 'gluon.html.CAT'>, 'CENTER': <class 'gluon.html.CENTER'>, 'CLEANUP': <class 'gluon.validators.CLEANUP'>, ...}"
p3171
sS'ccode'
p3172
S'<code object <module> at 0x4e3b330, file "/home/...tions/streamlog/controllers/default.py", line 14>'
p3173
ssS'lnum'
p3174
I194
sS'lines'
p3175
(dp3176
I192
S'        else:'
p3177
sI193
S'            ccode = compile2(code,layer)'
p3178
sI194
S'        exec ccode in environment'
p3179
sI195
S'    except HTTP:'
p3180
sI196
S'        raise'
p3181
sI197
S'    except Exception, error:'
p3182
sI198
S'        # XXX Show exception in Wing IDE if running in debugger'
p3183
sI189
S'    try:'
p3184
sI190
S'        if type(code) == types.CodeType:'
p3185
sI191
S'            ccode = code'
p3186
ssS'call'
p3187
S"(code='# -*- coding: utf-8 -*-\\n# this file is released ...)\\n\\nresponse._vars=response._caller(getTypeTable)\\n', environment={'A': <class 'gluon.html.A'>, 'Auth': <class 'gluon.tools.Auth'>, 'B': <class 'gluon.html.B'>, 'BEAUTIFY': <class 'gluon.html.BEAUTIFY'>, 'BODY': <class 'gluon.html.BODY'>, 'BR': <class 'gluon.html.BR'>, 'BUTTON': <class 'gluon.html.BUTTON'>, 'CAT': <class 'gluon.html.CAT'>, 'CENTER': <class 'gluon.html.CENTER'>, 'CLEANUP': <class 'gluon.validators.CLEANUP'>, ...}, layer='/home/jose/DESARROLLO/web2py199/applications/streamlog/controllers/default.py')"
p3188
sS'func'
p3189
S'restricted'
p3190
sa(dp3191
g3166
S'/home/jose/DESARROLLO/web2py199/applications/streamlog/controllers/default.py'
p3192
sg3168
(dp3193
sg3174
I184
sg3175
(dp3194
I173
S'    http://..../[app]/default/data/update/[table]/[id]'
p3195
sI174
S'    http://..../[app]/default/data/delete/[table]/[id]'
p3196
sI175
S'    http://..../[app]/default/data/select/[table]'
p3197
sI176
S'    http://..../[app]/default/data/search/[table]'
p3198
sI177
S'    but URLs bust be signed, i.e. linked with'
p3199
sI178
S"      A('table',_href=URL('data/tables',user_signature=True))"
p3200
sI179
S'    or with the signed load operator'
p3201
sI180
S"      LOAD('default','data.load',args='tables',ajax=True,user_signature=True)"
p3202
sI181
S'    """'
p3203
sI182
S'    return dict(form=crud())'
p3204
ssg3187
S'()'
p3205
sg3189
S'<module>'
p3206
sa(dp3207
g3166
S'/home/jose/DESARROLLO/web2py199/gluon/globals.py'
p3208
sg3168
(dp3209
S'self'
p3210
S'undefined'
p3211
sS'f'
S'<function getTypeTable>'
p3212
ssg3174
I149
sg3175
(dp3213
I144
S'        self.meta = Storage()      # used by web2py_ajax.html'
p3214
sI145
S'        self.menu = []             # used by the default view layout'
p3215
sI146
S'        self.files = []            # used by web2py_ajax.html'
p3216
sI147
S'        self.generic_patterns = [] # patterns to allow generic views'
p3217
sI148
S'        self._vars = None'
p3218
sI149
S'        self._caller = lambda f: f()'
p3219
sI150
S'        self._view_environment = None'
p3220
sI151
S'        self._custom_commit = None'
p3221
sI152
S'        self._custom_rollback = None'
p3222
sI153
S''
ssg3187
S'(f=<function getTypeTable>)'
p3223
sg3189
S'<lambda>'
p3224
sa(dp3225
g3166
S'/home/jose/DESARROLLO/web2py199/applications/streamlog/controllers/default.py'
p3226
sg3168
(dp3227
S'db.t_type_log.html_table'
p3228
S'<gluon.dal.Field object>'
p3229
sS'db.t_type_log'
p3230
S"<Table {'datemodified': <gluon.dal.Field object ...ription': <gluon.dal.Field object at 0x4e39990>}>"
p3231
sS').select'
p3232
g3211
sS'id_log'
p3233
S"'undefined'"
p3234
sS'db.t_log'
p3235
S"<Table {'ALL': <gluon.dal.SQLALL object at 0x4e3...ription': <gluon.dal.Field object at 0x4e39f10>}>"
p3236
sS'global db'
p3237
S"<DAL {'auth_event': <Table {'origin': <gluon.dal..., 'id': <gluon.dal.Field object at 0x4e37310>}>}>"
p3238
sS'db.t_type_log.id'
p3239
S'<gluon.dal.Field object>'
p3240
sS'db.t_log.id'
p3241
S'<gluon.dal.Field object>'
p3242
sS'db.t_log.type_log'
p3243
S'<gluon.dal.Field object>'
p3244
sS'type_table'
p3245
g3211
ssg3174
I69
sg3175
(dp3246
I64
S'    example action using the internationalization operator T and flash'
p3247
sI65
S'    rendered by views/default/index.html or views/generic.html'
p3248
sI66
S'    """'
p3249
sI67
S"    table=''"
p3250
sI68
S'    id_log=request.args[0]'
p3251
sI69
S'    type_table=db((db.t_log.id==id_log)&(db.t_log.type_log==db.t_type_log.id)).select(db.t_type_log.html_table)'
p3252
sI70
S'    for row in type_table:'
p3253
sI71
S'        table=row.html_table'
p3254
sI72
S''
sI73
S"    '''"
p3255
ssg3187
S'()'
p3256
sg3189
S'getTypeTable'
p3257
sa(dp3258
g3166
S'/home/jose/DESARROLLO/web2py199/gluon/dal.py'
p3259
sg3168
(dp3260
S'self.query'
p3261
S'<gluon.dal.Query object>'
p3262
sS'fields'
p3263
S'(<gluon.dal.Field object>,)'
p3264
sS'self'
p3265
S'<gluon.dal.Set object>'
p3266
sS'self.db._adapter.select'
p3267
S'<bound method SQLiteAdapter.select of <gluon.dal.SQLiteAdapter object>>'
p3268
sS'self.db._adapter'
p3269
S'<gluon.dal.SQLiteAdapter object>'
p3270
sS'attributes'
p3271
g44
sS'self.db'
p3272
S"<DAL {'auth_event': <Table {'origin': <gluon.dal..., 'id': <gluon.dal.Field object at 0x4e37310>}>}>"
p3273
ssg3174
I5697
sg3175
(dp3274
I5696
S'    def select(self, *fields, **attributes):'
p3275
sI5697
S'        return self.db._adapter.select(self.query,fields,attributes)'
p3276
sI5698
S''
sI5699
S'    def delete(self):'
p3277
sI5700
S'        tablename=self.db._adapter.get_table(self.query)'
p3278
sI5701
S'        self.delete_uploaded_files()'
p3279
sI5692
S''
sI5693
S'    def count(self,distinct=None):'
p3280
sI5694
S'        return self.db._adapter.count(self.query,distinct)'
p3281
sI5695
S''
ssg3187
S'(self=<gluon.dal.Set object>, *fields=(<gluon.dal.Field object>,), **attributes={})'
p3282
sg3189
S'select'
p3283
sa(dp3284
g3166
S'/home/jose/DESARROLLO/web2py199/gluon/dal.py'
p3285
sg3168
(dp3286
S'self._select'
p3287
S'<bound method SQLiteAdapter._select of <gluon.dal.SQLiteAdapter object>>'
p3288
sS'fields'
p3289
S'(<gluon.dal.Field object>,)'
p3290
sS'self'
p3291
S'<gluon.dal.SQLiteAdapter object>'
p3292
sS'sql'
p3293
g3211
sS'query'
p3294
S'<gluon.dal.Query object>'
p3295
sS'attributes'
p3296
g44
ssg3174
I1225
sg3175
(dp3297
I1220
S'        Always returns a Rows object, even if it may be empty'
p3298
sI1221
S'        """'
p3299
sI1222
S'        def response(sql):'
p3300
sI1223
S'            self.execute(sql)'
p3301
sI1224
S'            return self.cursor.fetchall()'
p3302
sI1225
S'        sql = self._select(query,fields,attributes)'
p3303
sI1226
S"        if attributes.get('cache', None):"
p3304
sI1227
S"            (cache_model, time_expire) = attributes['cache']"
p3305
sI1228
S"            del attributes['cache']"
p3306
sI1229
S"            key = self.uri + '/' + sql"
p3307
ssg3187
S'(self=<gluon.dal.SQLiteAdapter object>, query=<gluon.dal.Query object>, fields=(<gluon.dal.Field object>,), attributes={})'
p3308
sg3189
g3283
sa(dp3309
g3166
S'/home/jose/DESARROLLO/web2py199/gluon/dal.py'
p3310
sg3168
(dp3311
S'query'
p3312
S'<gluon.dal.Query object>'
p3313
sS'self'
p3314
S'<gluon.dal.SQLiteAdapter object>'
p3315
sS'sql_w'
p3316
g3211
sS'self.expand'
p3317
S'<bound method SQLiteAdapter.expand of <gluon.dal.SQLiteAdapter object>>'
p3318
ssg3174
I1132
sg3175
(dp3319
I1127
S'        if len(tablenames) < 1:'
p3320
sI1128
S"            raise SyntaxError, 'Set: no tables selected'"
p3321
sI1129
S"        sql_f = ', '.join(map(self.expand,fields))"
p3322
sI1130
S"        self._colnames = [c.strip() for c in sql_f.split(', ')]"
p3323
sI1131
S'        if query:'
p3324
sI1132
S"            sql_w = ' WHERE ' + self.expand(query)"
p3325
sI1133
S'        else:'
p3326
sI1134
S"            sql_w = ''"
p3327
sI1135
S"        sql_o = ''"
p3328
sI1136
S"        sql_s = ''"
p3329
ssg3187
S'(self=<gluon.dal.SQLiteAdapter object>, query=<gluon.dal.Query object>, fields=[<gluon.dal.Field object>], attributes={})'
p3330
sg3189
S'_select'
p3331
sa(dp3332
g3166
S'/home/jose/DESARROLLO/web2py199/gluon/dal.py'
p3333
sg3168
(dp3334
S'expression.op'
p3335
S'<bound method SQLiteAdapter.AND of <gluon.dal.SQLiteAdapter object>>'
p3336
sS'expression'
p3337
S'<gluon.dal.Query object>'
p3338
sS'expression.first'
p3339
S'<gluon.dal.Query object>'
p3340
sS'expression.second'
p3341
S'<gluon.dal.Query object>'
p3342
ssg3174
I987
sg3175
(dp3343
I982
S'    def expand(self,expression,field_type=None):'
p3344
sI983
S'        if isinstance(expression,Field):'
p3345
sI984
S'            return str(expression)'
p3346
sI985
S'        elif isinstance(expression, (Expression, Query)):'
p3347
sI986
S'            if not expression.second is None:'
p3348
sI987
S'                return expression.op(expression.first, expression.second)'
p3349
sI988
S'            elif not expression.first is None:'
p3350
sI989
S'                return expression.op(expression.first)'
p3351
sI990
S'            elif not isinstance(expression.op,str):'
p3352
sI991
S'                return expression.op()'
p3353
ssg3187
S'(self=<gluon.dal.SQLiteAdapter object>, expression=<gluon.dal.Query object>, field_type=None)'
p3354
sg3189
S'expand'
p3355
sa(dp3356
g3166
S'/home/jose/DESARROLLO/web2py199/gluon/dal.py'
p3357
sg3168
(dp3358
S'self'
p3359
S'<gluon.dal.SQLiteAdapter object>'
p3360
sS'first'
p3361
S'<gluon.dal.Query object>'
p3362
sS'second'
p3363
S'<gluon.dal.Query object>'
p3364
sS'self.expand'
p3365
S'<bound method SQLiteAdapter.expand of <gluon.dal.SQLiteAdapter object>>'
p3366
ssg3174
I904
sg3175
(dp3367
I899
S''
sI900
S'    def NOT(self,first):'
p3368
sI901
S"        return '(NOT %s)' % self.expand(first)"
p3369
sI902
S''
sI903
S'    def AND(self,first,second):'
p3370
sI904
S"        return '(%s AND %s)' % (self.expand(first),self.expand(second))"
p3371
sI905
S''
sI906
S'    def OR(self,first,second):'
p3372
sI907
S"        return '(%s OR %s)' % (self.expand(first),self.expand(second))"
p3373
sI908
S''
ssg3187
S'(self=<gluon.dal.SQLiteAdapter object>, first=<gluon.dal.Query object>, second=<gluon.dal.Query object>)'
p3374
sg3189
S'AND'
p3375
sa(dp3376
g3166
S'/home/jose/DESARROLLO/web2py199/gluon/dal.py'
p3377
sg3168
(dp3378
S'expression.op'
p3379
S'<bound method SQLiteAdapter.EQ of <gluon.dal.SQLiteAdapter object>>'
p3380
sS'expression'
p3381
S'<gluon.dal.Query object>'
p3382
sS'expression.first'
p3383
S'<gluon.dal.Field object>'
p3384
sS'expression.second'
p3385
S"'undefined'"
p3386
ssg3174
I987
sg3175
(dp3387
I982
S'    def expand(self,expression,field_type=None):'
p3388
sI983
S'        if isinstance(expression,Field):'
p3389
sI984
S'            return str(expression)'
p3390
sI985
S'        elif isinstance(expression, (Expression, Query)):'
p3391
sI986
S'            if not expression.second is None:'
p3392
sI987
S'                return expression.op(expression.first, expression.second)'
p3393
sI988
S'            elif not expression.first is None:'
p3394
sI989
S'                return expression.op(expression.first)'
p3395
sI990
S'            elif not isinstance(expression.op,str):'
p3396
sI991
S'                return expression.op()'
p3397
ssg3187
S'(self=<gluon.dal.SQLiteAdapter object>, expression=<gluon.dal.Query object>, field_type=None)'
p3398
sg3189
g3355
sa(dp3399
g3166
S'/home/jose/DESARROLLO/web2py199/gluon/dal.py'
p3400
sg3168
(dp3401
S'first.type'
p3402
S"'id'"
p3403
sS'self'
p3404
S'<gluon.dal.SQLiteAdapter object>'
p3405
sS'first'
p3406
S'<gluon.dal.Field object>'
p3407
sS'second'
p3408
S"'undefined'"
p3409
sS'self.expand'
p3410
S'<bound method SQLiteAdapter.expand of <gluon.dal.SQLiteAdapter object>>'
p3411
ssg3174
I936
sg3175
(dp3412
I931
S"        return '(%s LIKE %s)' % (self.expand(first),self.expand(key,'string'))"
p3413
sI932
S''
sI933
S'    def EQ(self,first,second=None):'
p3414
sI934
S'        if second is None:'
p3415
sI935
S"            return '(%s IS NULL)' % self.expand(first)"
p3416
sI936
S"        return '(%s = %s)' % (self.expand(first),self.expand(second,first.type))"
p3417
sI937
S''
sI938
S'    def NE(self,first,second=None):'
p3418
sI939
S'        if second is None:'
p3419
sI940
S"            return '(%s IS NOT NULL)' % self.expand(first)"
p3420
ssg3187
S"(self=<gluon.dal.SQLiteAdapter object>, first=<gluon.dal.Field object>, second='undefined')"
p3421
sg3189
S'EQ'
p3422
sa(dp3423
g3166
S'/home/jose/DESARROLLO/web2py199/gluon/dal.py'
p3424
sg3168
(dp3425
S'field_type'
p3426
S"'id'"
p3427
sS'self'
p3428
S'<gluon.dal.SQLiteAdapter object>'
p3429
sS'expression'
p3430
S"'undefined'"
p3431
sS'self.represent'
p3432
S'<bound method SQLiteAdapter.represent of <gluon.dal.SQLiteAdapter object>>'
p3433
ssg3174
I995
sg3175
(dp3434
I992
S'            else:'
p3435
sI993
S"                return '(%s)' % expression.op"
p3436
sI994
S'        elif field_type:'
p3437
sI995
S'            return self.represent(expression,field_type)'
p3438
sI996
S'        elif isinstance(expression,(list,tuple)):'
p3439
sI997
S"            return ','.join([self.represent(item,field_type) for item in expression])"
p3440
sI998
S'        else:'
p3441
sI999
S'            return str(expression)'
p3442
sI990
S'            elif not isinstance(expression.op,str):'
p3443
sI991
S'                return expression.op()'
p3444
ssg3187
S"(self=<gluon.dal.SQLiteAdapter object>, expression='undefined', field_type='id')"
p3445
sg3189
g3355
sa(dp3446
g3166
S'/home/jose/DESARROLLO/web2py199/gluon/dal.py'
p3447
sg3168
(dp3448
S'builtinstr'
p3449
S"<type 'str'>"
p3450
sS'builtinint'
p3451
S"<type 'int'>"
p3452
sS'obj'
p3453
S"'undefined'"
p3454
ssg3174
I1338
sg3175
(dp3455
I1333
S"            if obj and not str(obj)[:1].upper() in ['F', '0']:"
p3456
sI1334
S'                return "\'T\'"'
p3457
sI1335
S'            else:'
p3458
sI1336
S'                return "\'F\'"'
p3459
sI1337
S"        if fieldtype == 'id' or fieldtype == 'integer':"
p3460
sI1338
S'            return str(int(obj))'
p3461
sI1339
S"        if fieldtype.startswith('decimal'):"
p3462
sI1340
S'            return str(obj)'
p3463
sI1341
S"        elif fieldtype.startswith('reference'): # reference"
p3464
sI1342
S"            if fieldtype.find('.')>0:"
p3465
ssg3187
S"(self=<gluon.dal.SQLiteAdapter object>, obj='undefined', fieldtype='id')"
p3466
sg3189
S'represent'
p3467
sasS'pyver'
p3468
S'Python 2.7.2+: /usr/bin/python'
p3469
sS'session'
p3470
g56
(g57
g58
NtRp3471
(dp3472
g61
(dp3473
sg63
(lp3474
g56
(g65
g58
NtRp3475
(dp3476
g61
(dp3477
g69
I5
ssg70
Nsg63
(lp3478
g56
(g72
g58
NtRp3479
(dp3480
g61
(dp3481
sg70
g3475
sg63
(lp3482
g56
(g77
g58
NtRp3483
(dp3484
g61
(dp3485
g81
g82
ssg70
g3479
sg63
(lp3486
S'auth'
p3487
asbag56
(g77
g58
NtRp3488
(dp3489
g61
(dp3490
g88
g89
ssg70
g3479
sg63
(lp3491
S':'
asbag56
(g77
g58
NtRp3492
(dp3493
g61
(dp3494
sg70
g3479
sg63
(lp3495
g56
(g57
g58
NtRp3496
(dp3497
g61
(dp3498
g69
I5
ssg70
g3492
sg63
(lp3499
g56
(g65
g58
NtRp3500
(dp3501
g61
(dp3502
g69
I4
ssg70
Nsg63
(lp3503
g56
(g72
g58
NtRp3504
(dp3505
g61
(dp3506
sg70
g3500
sg63
(lp3507
g56
(g77
g58
NtRp3508
(dp3509
g61
(dp3510
g81
g82
ssg70
g3504
sg63
(lp3511
S'expiration'
p3512
asbag56
(g77
g58
NtRp3513
(dp3514
g61
(dp3515
g88
g89
ssg70
g3504
sg63
(lp3516
S':'
asbag56
(g77
g58
NtRp3517
(dp3518
g61
(dp3519
sg70
g3504
sg63
(lp3520
g56
(g57
g58
NtRp3521
(dp3522
g61
(dp3523
g69
I4
ssg70
g3517
sg63
(lp3524
S'2592000'
p3525
asbasbasbag56
(g72
g58
NtRp3526
(dp3527
g61
(dp3528
sg70
g3500
sg63
(lp3529
g56
(g77
g58
NtRp3530
(dp3531
g61
(dp3532
g81
g82
ssg70
g3526
sg63
(lp3533
S'hmac_key'
p3534
asbag56
(g77
g58
NtRp3535
(dp3536
g61
(dp3537
g88
g89
ssg70
g3526
sg63
(lp3538
S':'
asbag56
(g77
g58
NtRp3539
(dp3540
g61
(dp3541
sg70
g3526
sg63
(lp3542
g56
(g57
g58
NtRp3543
(dp3544
g61
(dp3545
g69
I4
ssg70
g3539
sg63
(lp3546
S'8454e122-c616-40c1-9040-a7973410e7b5'
p3547
asbasbasbag56
(g72
g58
NtRp3548
(dp3549
g61
(dp3550
sg70
g3500
sg63
(lp3551
g56
(g77
g58
NtRp3552
(dp3553
g61
(dp3554
g81
g82
ssg70
g3548
sg63
(lp3555
S'last_visit'
p3556
asbag56
(g77
g58
NtRp3557
(dp3558
g61
(dp3559
g88
g89
ssg70
g3548
sg63
(lp3560
S':'
asbag56
(g77
g58
NtRp3561
(dp3562
g61
(dp3563
sg70
g3548
sg63
(lp3564
g56
(g57
g58
NtRp3565
(dp3566
g61
(dp3567
g69
I4
ssg70
g3561
sg63
(lp3568
S'datetime.datetime(2012, 5, 27, 8, 55, 33, 377220)'
p3569
asbasbasbag56
(g72
g58
NtRp3570
(dp3571
g61
(dp3572
sg70
g3500
sg63
(lp3573
g56
(g77
g58
NtRp3574
(dp3575
g61
(dp3576
g81
g82
ssg70
g3570
sg63
(lp3577
S'remember'
p3578
asbag56
(g77
g58
NtRp3579
(dp3580
g61
(dp3581
g88
g89
ssg70
g3570
sg63
(lp3582
S':'
asbag56
(g77
g58
NtRp3583
(dp3584
g61
(dp3585
sg70
g3570
sg63
(lp3586
g56
(g57
g58
NtRp3587
(dp3588
g61
(dp3589
g69
I4
ssg70
g3583
sg63
(lp3590
g993
asbasbasbag56
(g72
g58
NtRp3591
(dp3592
g61
(dp3593
sg70
g3500
sg63
(lp3594
g56
(g77
g58
NtRp3595
(dp3596
g61
(dp3597
g81
g82
ssg70
g3591
sg63
(lp3598
S'user'
p3599
asbag56
(g77
g58
NtRp3600
(dp3601
g61
(dp3602
g88
g89
ssg70
g3591
sg63
(lp3603
S':'
asbag56
(g77
g58
NtRp3604
(dp3605
g61
(dp3606
sg70
g3591
sg63
(lp3607
g56
(g57
g58
NtRp3608
(dp3609
g61
(dp3610
g69
I4
ssg70
g3604
sg63
(lp3611
g56
(g65
g58
NtRp3612
(dp3613
g61
(dp3614
g69
I3
ssg70
Nsg63
(lp3615
g56
(g72
g58
NtRp3616
(dp3617
g61
(dp3618
sg70
g3612
sg63
(lp3619
g56
(g77
g58
NtRp3620
(dp3621
g61
(dp3622
g81
g82
ssg70
g3616
sg63
(lp3623
S'email'
p3624
asbag56
(g77
g58
NtRp3625
(dp3626
g61
(dp3627
g88
g89
ssg70
g3616
sg63
(lp3628
S':'
asbag56
(g77
g58
NtRp3629
(dp3630
g61
(dp3631
sg70
g3616
sg63
(lp3632
g56
(g57
g58
NtRp3633
(dp3634
g61
(dp3635
g69
I3
ssg70
g3629
sg63
(lp3636
S'josedesoto@gmail.com'
p3637
asbasbasbag56
(g72
g58
NtRp3638
(dp3639
g61
(dp3640
sg70
g3612
sg63
(lp3641
g56
(g77
g58
NtRp3642
(dp3643
g61
(dp3644
g81
g82
ssg70
g3638
sg63
(lp3645
S'first_name'
p3646
asbag56
(g77
g58
NtRp3647
(dp3648
g61
(dp3649
g88
g89
ssg70
g3638
sg63
(lp3650
S':'
asbag56
(g77
g58
NtRp3651
(dp3652
g61
(dp3653
sg70
g3638
sg63
(lp3654
g56
(g57
g58
NtRp3655
(dp3656
g61
(dp3657
g69
I3
ssg70
g3651
sg63
(lp3658
S'jose'
p3659
asbasbasbag56
(g72
g58
NtRp3660
(dp3661
g61
(dp3662
sg70
g3612
sg63
(lp3663
g56
(g77
g58
NtRp3664
(dp3665
g61
(dp3666
g81
g82
ssg70
g3660
sg63
(lp3667
S'id'
p3668
asbag56
(g77
g58
NtRp3669
(dp3670
g61
(dp3671
g88
g89
ssg70
g3660
sg63
(lp3672
S':'
asbag56
(g77
g58
NtRp3673
(dp3674
g61
(dp3675
sg70
g3660
sg63
(lp3676
g56
(g57
g58
NtRp3677
(dp3678
g61
(dp3679
g69
I3
ssg70
g3673
sg63
(lp3680
S'1'
asbasbasbag56
(g72
g58
NtRp3681
(dp3682
g61
(dp3683
sg70
g3612
sg63
(lp3684
g56
(g77
g58
NtRp3685
(dp3686
g61
(dp3687
g81
g82
ssg70
g3681
sg63
(lp3688
S'last_name'
p3689
asbag56
(g77
g58
NtRp3690
(dp3691
g61
(dp3692
g88
g89
ssg70
g3681
sg63
(lp3693
S':'
asbag56
(g77
g58
NtRp3694
(dp3695
g61
(dp3696
sg70
g3681
sg63
(lp3697
g56
(g57
g58
NtRp3698
(dp3699
g61
(dp3700
g69
I3
ssg70
g3694
sg63
(lp3701
S'jose'
p3702
asbasbasbag56
(g72
g58
NtRp3703
(dp3704
g61
(dp3705
sg70
g3612
sg63
(lp3706
g56
(g77
g58
NtRp3707
(dp3708
g61
(dp3709
g81
g82
ssg70
g3703
sg63
(lp3710
S'password'
p3711
asbag56
(g77
g58
NtRp3712
(dp3713
g61
(dp3714
g88
g89
ssg70
g3703
sg63
(lp3715
S':'
asbag56
(g77
g58
NtRp3716
(dp3717
g61
(dp3718
sg70
g3703
sg63
(lp3719
g56
(g57
g58
NtRp3720
(dp3721
g61
(dp3722
g69
I3
ssg70
g3716
sg63
(lp3723
S'2b32eaa2baa0c63b755a4cde1e4dda83'
p3724
asbasbasbag56
(g72
g58
NtRp3725
(dp3726
g61
(dp3727
sg70
g3612
sg63
(lp3728
g56
(g77
g58
NtRp3729
(dp3730
g61
(dp3731
g81
g82
ssg70
g3725
sg63
(lp3732
S'registration_key'
p3733
asbag56
(g77
g58
NtRp3734
(dp3735
g61
(dp3736
g88
g89
ssg70
g3725
sg63
(lp3737
S':'
asbag56
(g77
g58
NtRp3738
(dp3739
g61
(dp3740
sg70
g3725
sg63
(lp3741
g56
(g57
g58
NtRp3742
(dp3743
g61
(dp3744
g69
I3
ssg70
g3738
sg63
(lp3745
S''
asbasbasbag56
(g72
g58
NtRp3746
(dp3747
g61
(dp3748
sg70
g3612
sg63
(lp3749
g56
(g77
g58
NtRp3750
(dp3751
g61
(dp3752
g81
g82
ssg70
g3746
sg63
(lp3753
S'reset_password_key'
p3754
asbag56
(g77
g58
NtRp3755
(dp3756
g61
(dp3757
g88
g89
ssg70
g3746
sg63
(lp3758
S':'
asbag56
(g77
g58
NtRp3759
(dp3760
g61
(dp3761
sg70
g3746
sg63
(lp3762
g56
(g57
g58
NtRp3763
(dp3764
g61
(dp3765
g69
I3
ssg70
g3759
sg63
(lp3766
S''
asbasbasbasbasbasbasbasbasbasbasbag56
(g72
g58
NtRp3767
(dp3768
g61
(dp3769
sg70
g3475
sg63
(lp3770
g56
(g77
g58
NtRp3771
(dp3772
g61
(dp3773
g81
g82
ssg70
g3767
sg63
(lp3774
S'last_query'
p3775
asbag56
(g77
g58
NtRp3776
(dp3777
g61
(dp3778
g88
g89
ssg70
g3767
sg63
(lp3779
S':'
asbag56
(g77
g58
NtRp3780
(dp3781
g61
(dp3782
sg70
g3767
sg63
(lp3783
g56
(g57
g58
NtRp3784
(dp3785
g61
(dp3786
g69
I5
ssg70
g3780
sg63
(lp3787
S'db((db.t_log.id==1)&(db.t_log.type_log==db.t_type_log.id)).select(db.t_type_log.html_table)'
p3788
asbasbasbasbasbsS'etype'
p3789
S"<type 'exceptions.ValueError'>"
p3790
sS'date'
p3791
S'Sun May 27 09:48:42 2012'
p3792
sS'response'
p3793
g56
(g57
g58
NtRp3794
(dp3795
g61
(dp3796
sg63
(lp3797
g56
(g65
g58
NtRp3798
(dp3799
g61
(dp3800
g69
I5
ssg70
Nsg63
(lp3801
g56
(g72
g58
NtRp3802
(dp3803
g61
(dp3804
sg70
g3798
sg63
(lp3805
g56
(g77
g58
NtRp3806
(dp3807
g61
(dp3808
g81
g82
ssg70
g3802
sg63
(lp3809
g167
asbag56
(g77
g58
NtRp3810
(dp3811
g61
(dp3812
g88
g89
ssg70
g3802
sg63
(lp3813
S':'
asbag56
(g77
g58
NtRp3814
(dp3815
g61
(dp3816
sg70
g3802
sg63
(lp3817
g56
(g57
g58
NtRp3818
(dp3819
g61
(dp3820
g69
I5
ssg70
g3814
sg63
(lp3821
S'<cStringIO.StringO object at 0x4e596c0>'
p3822
asbasbasbag56
(g72
g58
NtRp3823
(dp3824
g61
(dp3825
sg70
g3798
sg63
(lp3826
g56
(g77
g58
NtRp3827
(dp3828
g61
(dp3829
g81
g82
ssg70
g3823
sg63
(lp3830
g233
asbag56
(g77
g58
NtRp3831
(dp3832
g61
(dp3833
g88
g89
ssg70
g3823
sg63
(lp3834
S':'
asbag56
(g77
g58
NtRp3835
(dp3836
g61
(dp3837
sg70
g3823
sg63
(lp3838
g56
(g57
g58
NtRp3839
(dp3840
g61
(dp3841
g69
I5
ssg70
g3835
sg63
(lp3842
g56
(g65
g58
NtRp3843
(dp3844
g61
(dp3845
g69
I4
ssg70
Nsg63
(lp3846
g56
(g72
g58
NtRp3847
(dp3848
g61
(dp3849
sg70
g3843
sg63
(lp3850
g56
(g77
g58
NtRp3851
(dp3852
g61
(dp3853
g81
g82
ssg70
g3847
sg63
(lp3854
S'session_id_streamlog'
p3855
asbag56
(g77
g58
NtRp3856
(dp3857
g61
(dp3858
g88
g89
ssg70
g3847
sg63
(lp3859
S':'
asbag56
(g77
g58
NtRp3860
(dp3861
g61
(dp3862
sg70
g3847
sg63
(lp3863
g56
(g57
g58
NtRp3864
(dp3865
g61
(dp3866
g69
I4
ssg70
g3860
sg63
(lp3867
g56
(g65
g58
NtRp3868
(dp3869
g61
(dp3870
g69
I3
ssg70
Nsg63
(lp3871
g56
(g72
g58
NtRp3872
(dp3873
g61
(dp3874
sg70
g3868
sg63
(lp3875
g56
(g77
g58
NtRp3876
(dp3877
g61
(dp3878
g81
g82
ssg70
g3872
sg63
(lp3879
g283
asbag56
(g77
g58
NtRp3880
(dp3881
g61
(dp3882
g88
g89
ssg70
g3872
sg63
(lp3883
S':'
asbag56
(g77
g58
NtRp3884
(dp3885
g61
(dp3886
sg70
g3872
sg63
(lp3887
g56
(g57
g58
NtRp3888
(dp3889
g61
(dp3890
g69
I3
ssg70
g3884
sg63
(lp3891
S''
asbasbasbag56
(g72
g58
NtRp3892
(dp3893
g61
(dp3894
sg70
g3868
sg63
(lp3895
g56
(g77
g58
NtRp3896
(dp3897
g61
(dp3898
g81
g82
ssg70
g3892
sg63
(lp3899
g304
asbag56
(g77
g58
NtRp3900
(dp3901
g61
(dp3902
g88
g89
ssg70
g3892
sg63
(lp3903
S':'
asbag56
(g77
g58
NtRp3904
(dp3905
g61
(dp3906
sg70
g3892
sg63
(lp3907
g56
(g57
g58
NtRp3908
(dp3909
g61
(dp3910
g69
I3
ssg70
g3904
sg63
(lp3911
S''
asbasbasbag56
(g72
g58
NtRp3912
(dp3913
g61
(dp3914
sg70
g3868
sg63
(lp3915
g56
(g77
g58
NtRp3916
(dp3917
g61
(dp3918
g81
g82
ssg70
g3912
sg63
(lp3919
g325
asbag56
(g77
g58
NtRp3920
(dp3921
g61
(dp3922
g88
g89
ssg70
g3912
sg63
(lp3923
S':'
asbag56
(g77
g58
NtRp3924
(dp3925
g61
(dp3926
sg70
g3912
sg63
(lp3927
g56
(g57
g58
NtRp3928
(dp3929
g61
(dp3930
g69
I3
ssg70
g3924
sg63
(lp3931
S''
asbasbasbag56
(g72
g58
NtRp3932
(dp3933
g61
(dp3934
sg70
g3868
sg63
(lp3935
g56
(g77
g58
NtRp3936
(dp3937
g61
(dp3938
g81
g82
ssg70
g3932
sg63
(lp3939
g346
asbag56
(g77
g58
NtRp3940
(dp3941
g61
(dp3942
g88
g89
ssg70
g3932
sg63
(lp3943
S':'
asbag56
(g77
g58
NtRp3944
(dp3945
g61
(dp3946
sg70
g3932
sg63
(lp3947
g56
(g57
g58
NtRp3948
(dp3949
g61
(dp3950
g69
I3
ssg70
g3944
sg63
(lp3951
S''
asbasbasbag56
(g72
g58
NtRp3952
(dp3953
g61
(dp3954
sg70
g3868
sg63
(lp3955
g56
(g77
g58
NtRp3956
(dp3957
g61
(dp3958
g81
g82
ssg70
g3952
sg63
(lp3959
g367
asbag56
(g77
g58
NtRp3960
(dp3961
g61
(dp3962
g88
g89
ssg70
g3952
sg63
(lp3963
S':'
asbag56
(g77
g58
NtRp3964
(dp3965
g61
(dp3966
sg70
g3952
sg63
(lp3967
g56
(g57
g58
NtRp3968
(dp3969
g61
(dp3970
g69
I3
ssg70
g3964
sg63
(lp3971
S''
asbasbasbag56
(g72
g58
NtRp3972
(dp3973
g61
(dp3974
sg70
g3868
sg63
(lp3975
g56
(g77
g58
NtRp3976
(dp3977
g61
(dp3978
g81
g82
ssg70
g3972
sg63
(lp3979
g388
asbag56
(g77
g58
NtRp3980
(dp3981
g61
(dp3982
g88
g89
ssg70
g3972
sg63
(lp3983
S':'
asbag56
(g77
g58
NtRp3984
(dp3985
g61
(dp3986
sg70
g3972
sg63
(lp3987
g56
(g57
g58
NtRp3988
(dp3989
g61
(dp3990
g69
I3
ssg70
g3984
sg63
(lp3991
S'/'
asbasbasbag56
(g72
g58
NtRp3992
(dp3993
g61
(dp3994
sg70
g3868
sg63
(lp3995
g56
(g77
g58
NtRp3996
(dp3997
g61
(dp3998
g81
g82
ssg70
g3992
sg63
(lp3999
g409
asbag56
(g77
g58
NtRp4000
(dp4001
g61
(dp4002
g88
g89
ssg70
g3992
sg63
(lp4003
S':'
asbag56
(g77
g58
NtRp4004
(dp4005
g61
(dp4006
sg70
g3992
sg63
(lp4007
g56
(g57
g58
NtRp4008
(dp4009
g61
(dp4010
g69
I3
ssg70
g4004
sg63
(lp4011
S''
asbasbasbag56
(g72
g58
NtRp4012
(dp4013
g61
(dp4014
sg70
g3868
sg63
(lp4015
g56
(g77
g58
NtRp4016
(dp4017
g61
(dp4018
g81
g82
ssg70
g4012
sg63
(lp4019
g430
asbag56
(g77
g58
NtRp4020
(dp4021
g61
(dp4022
g88
g89
ssg70
g4012
sg63
(lp4023
S':'
asbag56
(g77
g58
NtRp4024
(dp4025
g61
(dp4026
sg70
g4012
sg63
(lp4027
g56
(g57
g58
NtRp4028
(dp4029
g61
(dp4030
g69
I3
ssg70
g4024
sg63
(lp4031
S''
asbasbasbasbasbasbasbasbasbasbasbag56
(g72
g58
NtRp4032
(dp4033
g61
(dp4034
sg70
g3798
sg63
(lp4035
g56
(g77
g58
NtRp4036
(dp4037
g61
(dp4038
g81
g82
ssg70
g4032
sg63
(lp4039
S'files'
p4040
asbag56
(g77
g58
NtRp4041
(dp4042
g61
(dp4043
g88
g89
ssg70
g4032
sg63
(lp4044
S':'
asbag56
(g77
g58
NtRp4045
(dp4046
g61
(dp4047
sg70
g4032
sg63
(lp4048
g56
(g57
g58
NtRp4049
(dp4050
g61
(dp4051
g69
I5
ssg70
g4045
sg63
(lp4052
g56
(g65
g58
NtRp4053
(dp4054
g61
(dp4055
g69
I4
ssg70
Nsg63
(lp4056
sbasbasbasbag56
(g72
g58
NtRp4057
(dp4058
g61
(dp4059
sg70
g3798
sg63
(lp4060
g56
(g77
g58
NtRp4061
(dp4062
g61
(dp4063
g81
g82
ssg70
g4057
sg63
(lp4064
S'flash'
p4065
asbag56
(g77
g58
NtRp4066
(dp4067
g61
(dp4068
g88
g89
ssg70
g4057
sg63
(lp4069
S':'
asbag56
(g77
g58
NtRp4070
(dp4071
g61
(dp4072
sg70
g4057
sg63
(lp4073
g56
(g57
g58
NtRp4074
(dp4075
g61
(dp4076
g69
I5
ssg70
g4070
sg63
(lp4077
S''
asbasbasbag56
(g72
g58
NtRp4078
(dp4079
g61
(dp4080
sg70
g3798
sg63
(lp4081
g56
(g77
g58
NtRp4082
(dp4083
g61
(dp4084
g81
g82
ssg70
g4078
sg63
(lp4085
S'generic_patterns'
p4086
asbag56
(g77
g58
NtRp4087
(dp4088
g61
(dp4089
g88
g89
ssg70
g4078
sg63
(lp4090
S':'
asbag56
(g77
g58
NtRp4091
(dp4092
g61
(dp4093
sg70
g4078
sg63
(lp4094
g56
(g57
g58
NtRp4095
(dp4096
g61
(dp4097
g69
I5
ssg70
g4091
sg63
(lp4098
g56
(g65
g58
NtRp4099
(dp4100
g61
(dp4101
g69
I4
ssg70
Nsg63
(lp4102
g56
(g72
g58
NtRp4103
(dp4104
g61
(dp4105
sg70
g4099
sg63
(lp4106
g56
(g77
g58
NtRp4107
(dp4108
g61
(dp4109
sg70
g4103
sg63
(lp4110
g56
(g57
g58
NtRp4111
(dp4112
g61
(dp4113
g69
I4
ssg70
g4107
sg63
(lp4114
S'*'
asbasbasbasbasbasbasbag56
(g72
g58
NtRp4115
(dp4116
g61
(dp4117
sg70
g3798
sg63
(lp4118
g56
(g77
g58
NtRp4119
(dp4120
g61
(dp4121
g81
g82
ssg70
g4115
sg63
(lp4122
S'headers'
p4123
asbag56
(g77
g58
NtRp4124
(dp4125
g61
(dp4126
g88
g89
ssg70
g4115
sg63
(lp4127
S':'
asbag56
(g77
g58
NtRp4128
(dp4129
g61
(dp4130
sg70
g4115
sg63
(lp4131
g56
(g57
g58
NtRp4132
(dp4133
g61
(dp4134
g69
I5
ssg70
g4128
sg63
(lp4135
g56
(g65
g58
NtRp4136
(dp4137
g61
(dp4138
g69
I4
ssg70
Nsg63
(lp4139
g56
(g72
g58
NtRp4140
(dp4141
g61
(dp4142
sg70
g4136
sg63
(lp4143
g56
(g77
g58
NtRp4144
(dp4145
g61
(dp4146
g81
g82
ssg70
g4140
sg63
(lp4147
S'Cache-Control'
p4148
asbag56
(g77
g58
NtRp4149
(dp4150
g61
(dp4151
g88
g89
ssg70
g4140
sg63
(lp4152
S':'
asbag56
(g77
g58
NtRp4153
(dp4154
g61
(dp4155
sg70
g4140
sg63
(lp4156
g56
(g57
g58
NtRp4157
(dp4158
g61
(dp4159
g69
I4
ssg70
g4153
sg63
(lp4160
S'no-store, no-cache, must-revalidate, post-check=0, pre-check=0'
p4161
asbasbasbag56
(g72
g58
NtRp4162
(dp4163
g61
(dp4164
sg70
g4136
sg63
(lp4165
g56
(g77
g58
NtRp4166
(dp4167
g61
(dp4168
g81
g82
ssg70
g4162
sg63
(lp4169
S'Content-Type'
p4170
asbag56
(g77
g58
NtRp4171
(dp4172
g61
(dp4173
g88
g89
ssg70
g4162
sg63
(lp4174
S':'
asbag56
(g77
g58
NtRp4175
(dp4176
g61
(dp4177
sg70
g4162
sg63
(lp4178
g56
(g57
g58
NtRp4179
(dp4180
g61
(dp4181
g69
I4
ssg70
g4175
sg63
(lp4182
S'text/html; charset=utf-8'
p4183
asbasbasbag56
(g72
g58
NtRp4184
(dp4185
g61
(dp4186
sg70
g4136
sg63
(lp4187
g56
(g77
g58
NtRp4188
(dp4189
g61
(dp4190
g81
g82
ssg70
g4184
sg63
(lp4191
S'Expires'
p4192
asbag56
(g77
g58
NtRp4193
(dp4194
g61
(dp4195
g88
g89
ssg70
g4184
sg63
(lp4196
S':'
asbag56
(g77
g58
NtRp4197
(dp4198
g61
(dp4199
sg70
g4184
sg63
(lp4200
g56
(g57
g58
NtRp4201
(dp4202
g61
(dp4203
g69
I4
ssg70
g4197
sg63
(lp4204
S'Sun, 27 May 2012 02:48:42 GMT'
p4205
asbasbasbag56
(g72
g58
NtRp4206
(dp4207
g61
(dp4208
sg70
g4136
sg63
(lp4209
g56
(g77
g58
NtRp4210
(dp4211
g61
(dp4212
g81
g82
ssg70
g4206
sg63
(lp4213
S'Pragma'
p4214
asbag56
(g77
g58
NtRp4215
(dp4216
g61
(dp4217
g88
g89
ssg70
g4206
sg63
(lp4218
S':'
asbag56
(g77
g58
NtRp4219
(dp4220
g61
(dp4221
sg70
g4206
sg63
(lp4222
g56
(g57
g58
NtRp4223
(dp4224
g61
(dp4225
g69
I4
ssg70
g4219
sg63
(lp4226
S'no-cache'
p4227
asbasbasbag56
(g72
g58
NtRp4228
(dp4229
g61
(dp4230
sg70
g4136
sg63
(lp4231
g56
(g77
g58
NtRp4232
(dp4233
g61
(dp4234
g81
g82
ssg70
g4228
sg63
(lp4235
S'X-Powered-By'
p4236
asbag56
(g77
g58
NtRp4237
(dp4238
g61
(dp4239
g88
g89
ssg70
g4228
sg63
(lp4240
S':'
asbag56
(g77
g58
NtRp4241
(dp4242
g61
(dp4243
sg70
g4228
sg63
(lp4244
g56
(g57
g58
NtRp4245
(dp4246
g61
(dp4247
g69
I4
ssg70
g4241
sg63
(lp4248
S'web2py'
p4249
asbasbasbasbasbasbasbag56
(g72
g58
NtRp4250
(dp4251
g61
(dp4252
sg70
g3798
sg63
(lp4253
g56
(g77
g58
NtRp4254
(dp4255
g61
(dp4256
g81
g82
ssg70
g4250
sg63
(lp4257
S'menu'
p4258
asbag56
(g77
g58
NtRp4259
(dp4260
g61
(dp4261
g88
g89
ssg70
g4250
sg63
(lp4262
S':'
asbag56
(g77
g58
NtRp4263
(dp4264
g61
(dp4265
sg70
g4250
sg63
(lp4266
g56
(g57
g58
NtRp4267
(dp4268
g61
(dp4269
g69
I5
ssg70
g4263
sg63
(lp4270
g56
(g65
g58
NtRp4271
(dp4272
g61
(dp4273
g69
I4
ssg70
Nsg63
(lp4274
g56
(g72
g58
NtRp4275
(dp4276
g61
(dp4277
sg70
g4271
sg63
(lp4278
g56
(g77
g58
NtRp4279
(dp4280
g61
(dp4281
sg70
g4275
sg63
(lp4282
g56
(g57
g58
NtRp4283
(dp4284
g61
(dp4285
g69
I4
ssg70
g4279
sg63
(lp4286
g56
(g65
g58
NtRp4287
(dp4288
g61
(dp4289
g69
I3
ssg70
Nsg63
(lp4290
g56
(g72
g58
NtRp4291
(dp4292
g61
(dp4293
sg70
g4287
sg63
(lp4294
g56
(g77
g58
NtRp4295
(dp4296
g61
(dp4297
sg70
g4291
sg63
(lp4298
g56
(g57
g58
NtRp4299
(dp4300
g61
(dp4301
g69
I3
ssg70
g4295
sg63
(lp4302
cgluon.languages
lazyT_unpickle
p4303
(S's\n\x00\x00\x00Clear Page'
tRp4304
asbasbasbag56
(g72
g58
NtRp4305
(dp4306
g61
(dp4307
sg70
g4287
sg63
(lp4308
g56
(g77
g58
NtRp4309
(dp4310
g61
(dp4311
sg70
g4305
sg63
(lp4312
g56
(g57
g58
NtRp4313
(dp4314
g61
(dp4315
g69
I3
ssg70
g4309
sg63
(lp4316
g993
asbasbasbag56
(g72
g58
NtRp4317
(dp4318
g61
(dp4319
sg70
g4287
sg63
(lp4320
g56
(g77
g58
NtRp4321
(dp4322
g61
(dp4323
sg70
g4317
sg63
(lp4324
g56
(g57
g58
NtRp4325
(dp4326
g61
(dp4327
g69
I3
ssg70
g4321
sg63
(lp4328
S'/streamlog/default/index'
p4329
asbasbasbag56
(g72
g58
NtRp4330
(dp4331
g61
(dp4332
sg70
g4287
sg63
(lp4333
g56
(g77
g58
NtRp4334
(dp4335
g61
(dp4336
sg70
g4330
sg63
(lp4337
g56
(g57
g58
NtRp4338
(dp4339
g61
(dp4340
g69
I3
ssg70
g4334
sg63
(lp4341
g56
(g65
g58
NtRp4342
(dp4343
g61
(dp4344
g69
I2
ssg70
Nsg63
(lp4345
sbasbasbasbasbasbasbasbag56
(g72
g58
NtRp4346
(dp4347
g61
(dp4348
sg70
g4271
sg63
(lp4349
g56
(g77
g58
NtRp4350
(dp4351
g61
(dp4352
sg70
g4346
sg63
(lp4353
g56
(g57
g58
NtRp4354
(dp4355
g61
(dp4356
g69
I4
ssg70
g4350
sg63
(lp4357
g56
(g65
g58
NtRp4358
(dp4359
g61
(dp4360
g69
I3
ssg70
Nsg63
(lp4361
g56
(g72
g58
NtRp4362
(dp4363
g61
(dp4364
sg70
g4358
sg63
(lp4365
g56
(g77
g58
NtRp4366
(dp4367
g61
(dp4368
sg70
g4362
sg63
(lp4369
g56
(g57
g58
NtRp4370
(dp4371
g61
(dp4372
g69
I3
ssg70
g4366
sg63
(lp4373
g4303
(S't\x06\x00\x00\x00Manage'
tRp4374
asbasbasbag56
(g72
g58
NtRp4375
(dp4376
g61
(dp4377
sg70
g4358
sg63
(lp4378
g56
(g77
g58
NtRp4379
(dp4380
g61
(dp4381
sg70
g4375
sg63
(lp4382
g56
(g57
g58
NtRp4383
(dp4384
g61
(dp4385
g69
I3
ssg70
g4379
sg63
(lp4386
g993
asbasbasbag56
(g72
g58
NtRp4387
(dp4388
g61
(dp4389
sg70
g4358
sg63
(lp4390
g56
(g77
g58
NtRp4391
(dp4392
g61
(dp4393
sg70
g4387
sg63
(lp4394
g56
(g57
g58
NtRp4395
(dp4396
g61
(dp4397
g69
I3
ssg70
g4391
sg63
(lp4398
S'None'
p4399
asbasbasbag56
(g72
g58
NtRp4400
(dp4401
g61
(dp4402
sg70
g4358
sg63
(lp4403
g56
(g77
g58
NtRp4404
(dp4405
g61
(dp4406
sg70
g4400
sg63
(lp4407
g56
(g57
g58
NtRp4408
(dp4409
g61
(dp4410
g69
I3
ssg70
g4404
sg63
(lp4411
g56
(g65
g58
NtRp4412
(dp4413
g61
(dp4414
g69
I2
ssg70
Nsg63
(lp4415
g56
(g72
g58
NtRp4416
(dp4417
g61
(dp4418
sg70
g4412
sg63
(lp4419
g56
(g77
g58
NtRp4420
(dp4421
g61
(dp4422
sg70
g4416
sg63
(lp4423
g56
(g57
g58
NtRp4424
(dp4425
g61
(dp4426
g69
I2
ssg70
g4420
sg63
(lp4427
g56
(g65
g58
NtRp4428
(dp4429
g61
(dp4430
g69
I1
ssg70
Nsg63
(lp4431
g56
(g72
g58
NtRp4432
(dp4433
g61
(dp4434
sg70
g4428
sg63
(lp4435
g56
(g77
g58
NtRp4436
(dp4437
g61
(dp4438
sg70
g4432
sg63
(lp4439
g56
(g57
g58
NtRp4440
(dp4441
g61
(dp4442
g69
I1
ssg70
g4436
sg63
(lp4443
g4303
(S't\x04\x00\x00\x00Logs'
tRp4444
asbasbasbag56
(g72
g58
NtRp4445
(dp4446
g61
(dp4447
sg70
g4428
sg63
(lp4448
g56
(g77
g58
NtRp4449
(dp4450
g61
(dp4451
sg70
g4445
sg63
(lp4452
g56
(g57
g58
NtRp4453
(dp4454
g61
(dp4455
g69
I1
ssg70
g4449
sg63
(lp4456
I00
asbasbasbag56
(g72
g58
NtRp4457
(dp4458
g61
(dp4459
sg70
g4428
sg63
(lp4460
g56
(g77
g58
NtRp4461
(dp4462
g61
(dp4463
sg70
g4457
sg63
(lp4464
g56
(g57
g58
NtRp4465
(dp4466
g61
(dp4467
g69
I1
ssg70
g4461
sg63
(lp4468
S'/streamlog/default/log_manage'
p4469
asbasbasbag56
(g72
g58
NtRp4470
(dp4471
g61
(dp4472
sg70
g4428
sg63
(lp4473
g56
(g77
g58
NtRp4474
(dp4475
g61
(dp4476
sg70
g4470
sg63
(lp4477
g56
(g57
g58
NtRp4478
(dp4479
g61
(dp4480
g69
I1
ssg70
g4474
sg63
(lp4481
(lp4482
asbasbasbasbasbasbasbag56
(g72
g58
NtRp4483
(dp4484
g61
(dp4485
sg70
g4412
sg63
(lp4486
g56
(g77
g58
NtRp4487
(dp4488
g61
(dp4489
sg70
g4483
sg63
(lp4490
g56
(g57
g58
NtRp4491
(dp4492
g61
(dp4493
g69
I2
ssg70
g4487
sg63
(lp4494
g56
(g65
g58
NtRp4495
(dp4496
g61
(dp4497
g69
I1
ssg70
Nsg63
(lp4498
g56
(g72
g58
NtRp4499
(dp4500
g61
(dp4501
sg70
g4495
sg63
(lp4502
g56
(g77
g58
NtRp4503
(dp4504
g61
(dp4505
sg70
g4499
sg63
(lp4506
g56
(g57
g58
NtRp4507
(dp4508
g61
(dp4509
g69
I1
ssg70
g4503
sg63
(lp4510
g4303
(S't\x07\x00\x00\x00Servers'
tRp4511
asbasbasbag56
(g72
g58
NtRp4512
(dp4513
g61
(dp4514
sg70
g4495
sg63
(lp4515
g56
(g77
g58
NtRp4516
(dp4517
g61
(dp4518
sg70
g4512
sg63
(lp4519
g56
(g57
g58
NtRp4520
(dp4521
g61
(dp4522
g69
I1
ssg70
g4516
sg63
(lp4523
I00
asbasbasbag56
(g72
g58
NtRp4524
(dp4525
g61
(dp4526
sg70
g4495
sg63
(lp4527
g56
(g77
g58
NtRp4528
(dp4529
g61
(dp4530
sg70
g4524
sg63
(lp4531
g56
(g57
g58
NtRp4532
(dp4533
g61
(dp4534
g69
I1
ssg70
g4528
sg63
(lp4535
S'/streamlog/default/server_manage'
p4536
asbasbasbag56
(g72
g58
NtRp4537
(dp4538
g61
(dp4539
sg70
g4495
sg63
(lp4540
g56
(g77
g58
NtRp4541
(dp4542
g61
(dp4543
sg70
g4537
sg63
(lp4544
g56
(g57
g58
NtRp4545
(dp4546
g61
(dp4547
g69
I1
ssg70
g4541
sg63
(lp4548
(lp4549
asbasbasbasbasbasbasbag56
(g72
g58
NtRp4550
(dp4551
g61
(dp4552
sg70
g4412
sg63
(lp4553
g56
(g77
g58
NtRp4554
(dp4555
g61
(dp4556
sg70
g4550
sg63
(lp4557
g56
(g57
g58
NtRp4558
(dp4559
g61
(dp4560
g69
I2
ssg70
g4554
sg63
(lp4561
g56
(g65
g58
NtRp4562
(dp4563
g61
(dp4564
g69
I1
ssg70
Nsg63
(lp4565
g56
(g72
g58
NtRp4566
(dp4567
g61
(dp4568
sg70
g4562
sg63
(lp4569
g56
(g77
g58
NtRp4570
(dp4571
g61
(dp4572
sg70
g4566
sg63
(lp4573
g56
(g57
g58
NtRp4574
(dp4575
g61
(dp4576
g69
I1
ssg70
g4570
sg63
(lp4577
g4303
(S't\x08\x00\x00\x00Projects'
tRp4578
asbasbasbag56
(g72
g58
NtRp4579
(dp4580
g61
(dp4581
sg70
g4562
sg63
(lp4582
g56
(g77
g58
NtRp4583
(dp4584
g61
(dp4585
sg70
g4579
sg63
(lp4586
g56
(g57
g58
NtRp4587
(dp4588
g61
(dp4589
g69
I1
ssg70
g4583
sg63
(lp4590
I00
asbasbasbag56
(g72
g58
NtRp4591
(dp4592
g61
(dp4593
sg70
g4562
sg63
(lp4594
g56
(g77
g58
NtRp4595
(dp4596
g61
(dp4597
sg70
g4591
sg63
(lp4598
g56
(g57
g58
NtRp4599
(dp4600
g61
(dp4601
g69
I1
ssg70
g4595
sg63
(lp4602
S'/streamlog/default/project_manage'
p4603
asbasbasbag56
(g72
g58
NtRp4604
(dp4605
g61
(dp4606
sg70
g4562
sg63
(lp4607
g56
(g77
g58
NtRp4608
(dp4609
g61
(dp4610
sg70
g4604
sg63
(lp4611
g56
(g57
g58
NtRp4612
(dp4613
g61
(dp4614
g69
I1
ssg70
g4608
sg63
(lp4615
(lp4616
asbasbasbasbasbasbasbag56
(g72
g58
NtRp4617
(dp4618
g61
(dp4619
sg70
g4412
sg63
(lp4620
g56
(g77
g58
NtRp4621
(dp4622
g61
(dp4623
sg70
g4617
sg63
(lp4624
g56
(g57
g58
NtRp4625
(dp4626
g61
(dp4627
g69
I2
ssg70
g4621
sg63
(lp4628
g56
(g65
g58
NtRp4629
(dp4630
g61
(dp4631
g69
I1
ssg70
Nsg63
(lp4632
g56
(g72
g58
NtRp4633
(dp4634
g61
(dp4635
sg70
g4629
sg63
(lp4636
g56
(g77
g58
NtRp4637
(dp4638
g61
(dp4639
sg70
g4633
sg63
(lp4640
g56
(g57
g58
NtRp4641
(dp4642
g61
(dp4643
g69
I1
ssg70
g4637
sg63
(lp4644
g4303
(S's\t\x00\x00\x00Type Logs'
tRp4645
asbasbasbag56
(g72
g58
NtRp4646
(dp4647
g61
(dp4648
sg70
g4629
sg63
(lp4649
g56
(g77
g58
NtRp4650
(dp4651
g61
(dp4652
sg70
g4646
sg63
(lp4653
g56
(g57
g58
NtRp4654
(dp4655
g61
(dp4656
g69
I1
ssg70
g4650
sg63
(lp4657
I00
asbasbasbag56
(g72
g58
NtRp4658
(dp4659
g61
(dp4660
sg70
g4629
sg63
(lp4661
g56
(g77
g58
NtRp4662
(dp4663
g61
(dp4664
sg70
g4658
sg63
(lp4665
g56
(g57
g58
NtRp4666
(dp4667
g61
(dp4668
g69
I1
ssg70
g4662
sg63
(lp4669
S'/streamlog/default/type_log_manage'
p4670
asbasbasbag56
(g72
g58
NtRp4671
(dp4672
g61
(dp4673
sg70
g4629
sg63
(lp4674
g56
(g77
g58
NtRp4675
(dp4676
g61
(dp4677
sg70
g4671
sg63
(lp4678
g56
(g57
g58
NtRp4679
(dp4680
g61
(dp4681
g69
I1
ssg70
g4675
sg63
(lp4682
(lp4683
asbasbasbasbasbasbasbasbasbasbasbasbasbasbasbasbasbasbasbag56
(g72
g58
NtRp4684
(dp4685
g61
(dp4686
sg70
g3798
sg63
(lp4687
g56
(g77
g58
NtRp4688
(dp4689
g61
(dp4690
g81
g82
ssg70
g4684
sg63
(lp4691
S'meta'
p4692
asbag56
(g77
g58
NtRp4693
(dp4694
g61
(dp4695
g88
g89
ssg70
g4684
sg63
(lp4696
S':'
asbag56
(g77
g58
NtRp4697
(dp4698
g61
(dp4699
sg70
g4684
sg63
(lp4700
g56
(g57
g58
NtRp4701
(dp4702
g61
(dp4703
g69
I5
ssg70
g4697
sg63
(lp4704
g56
(g65
g58
NtRp4705
(dp4706
g61
(dp4707
g69
I4
ssg70
Nsg63
(lp4708
g56
(g72
g58
NtRp4709
(dp4710
g61
(dp4711
sg70
g4705
sg63
(lp4712
g56
(g77
g58
NtRp4713
(dp4714
g61
(dp4715
g81
g82
ssg70
g4709
sg63
(lp4716
S'author'
p4717
asbag56
(g77
g58
NtRp4718
(dp4719
g61
(dp4720
g88
g89
ssg70
g4709
sg63
(lp4721
S':'
asbag56
(g77
g58
NtRp4722
(dp4723
g61
(dp4724
sg70
g4709
sg63
(lp4725
g56
(g57
g58
NtRp4726
(dp4727
g61
(dp4728
g69
I4
ssg70
g4722
sg63
(lp4729
S'Jose de Soto <josedesoto@gmail.com>'
p4730
asbasbasbag56
(g72
g58
NtRp4731
(dp4732
g61
(dp4733
sg70
g4705
sg63
(lp4734
g56
(g77
g58
NtRp4735
(dp4736
g61
(dp4737
g81
g82
ssg70
g4731
sg63
(lp4738
S'copyright'
p4739
asbag56
(g77
g58
NtRp4740
(dp4741
g61
(dp4742
g88
g89
ssg70
g4731
sg63
(lp4743
S':'
asbag56
(g77
g58
NtRp4744
(dp4745
g61
(dp4746
sg70
g4731
sg63
(lp4747
g56
(g57
g58
NtRp4748
(dp4749
g61
(dp4750
g69
I4
ssg70
g4744
sg63
(lp4751
S'Copyright 2011'
p4752
asbasbasbag56
(g72
g58
NtRp4753
(dp4754
g61
(dp4755
sg70
g4705
sg63
(lp4756
g56
(g77
g58
NtRp4757
(dp4758
g61
(dp4759
g81
g82
ssg70
g4753
sg63
(lp4760
S'description'
p4761
asbag56
(g77
g58
NtRp4762
(dp4763
g61
(dp4764
g88
g89
ssg70
g4753
sg63
(lp4765
S':'
asbag56
(g77
g58
NtRp4766
(dp4767
g61
(dp4768
sg70
g4753
sg63
(lp4769
g56
(g57
g58
NtRp4770
(dp4771
g61
(dp4772
g69
I4
ssg70
g4766
sg63
(lp4773
S'a cool new app'
p4774
asbasbasbag56
(g72
g58
NtRp4775
(dp4776
g61
(dp4777
sg70
g4705
sg63
(lp4778
g56
(g77
g58
NtRp4779
(dp4780
g61
(dp4781
g81
g82
ssg70
g4775
sg63
(lp4782
S'generator'
p4783
asbag56
(g77
g58
NtRp4784
(dp4785
g61
(dp4786
g88
g89
ssg70
g4775
sg63
(lp4787
S':'
asbag56
(g77
g58
NtRp4788
(dp4789
g61
(dp4790
sg70
g4775
sg63
(lp4791
g56
(g57
g58
NtRp4792
(dp4793
g61
(dp4794
g69
I4
ssg70
g4788
sg63
(lp4795
S'Web2py Web Framework'
p4796
asbasbasbag56
(g72
g58
NtRp4797
(dp4798
g61
(dp4799
sg70
g4705
sg63
(lp4800
g56
(g77
g58
NtRp4801
(dp4802
g61
(dp4803
g81
g82
ssg70
g4797
sg63
(lp4804
S'keywords'
p4805
asbag56
(g77
g58
NtRp4806
(dp4807
g61
(dp4808
g88
g89
ssg70
g4797
sg63
(lp4809
S':'
asbag56
(g77
g58
NtRp4810
(dp4811
g61
(dp4812
sg70
g4797
sg63
(lp4813
g56
(g57
g58
NtRp4814
(dp4815
g61
(dp4816
g69
I4
ssg70
g4810
sg63
(lp4817
S'web2py, python, framework'
p4818
asbasbasbasbasbasbasbag56
(g72
g58
NtRp4819
(dp4820
g61
(dp4821
sg70
g3798
sg63
(lp4822
g56
(g77
g58
NtRp4823
(dp4824
g61
(dp4825
g81
g82
ssg70
g4819
sg63
(lp4826
S'postprocessing'
p4827
asbag56
(g77
g58
NtRp4828
(dp4829
g61
(dp4830
g88
g89
ssg70
g4819
sg63
(lp4831
S':'
asbag56
(g77
g58
NtRp4832
(dp4833
g61
(dp4834
sg70
g4819
sg63
(lp4835
g56
(g57
g58
NtRp4836
(dp4837
g61
(dp4838
g69
I5
ssg70
g4832
sg63
(lp4839
g56
(g65
g58
NtRp4840
(dp4841
g61
(dp4842
g69
I4
ssg70
Nsg63
(lp4843
sbasbasbasbag56
(g72
g58
NtRp4844
(dp4845
g61
(dp4846
sg70
g3798
sg63
(lp4847
g56
(g77
g58
NtRp4848
(dp4849
g61
(dp4850
g81
g82
ssg70
g4844
sg63
(lp4851
S'session_file'
p4852
asbag56
(g77
g58
NtRp4853
(dp4854
g61
(dp4855
g88
g89
ssg70
g4844
sg63
(lp4856
S':'
asbag56
(g77
g58
NtRp4857
(dp4858
g61
(dp4859
sg70
g4844
sg63
(lp4860
g56
(g57
g58
NtRp4861
(dp4862
g61
(dp4863
g69
I5
ssg70
g4857
sg63
(lp4864
S"<open file '/home/jose/DESARROLLO/web2py199/applications/streamlog/sessions/127.0.0.1-610b0c7d-3f6f-4500-a76a-b095fb30f7fd', mode 'rb+' at 0x4e2e030>"
p4865
asbasbasbag56
(g72
g58
NtRp4866
(dp4867
g61
(dp4868
sg70
g3798
sg63
(lp4869
g56
(g77
g58
NtRp4870
(dp4871
g61
(dp4872
g81
g82
ssg70
g4866
sg63
(lp4873
S'session_filename'
p4874
asbag56
(g77
g58
NtRp4875
(dp4876
g61
(dp4877
g88
g89
ssg70
g4866
sg63
(lp4878
S':'
asbag56
(g77
g58
NtRp4879
(dp4880
g61
(dp4881
sg70
g4866
sg63
(lp4882
g56
(g57
g58
NtRp4883
(dp4884
g61
(dp4885
g69
I5
ssg70
g4879
sg63
(lp4886
S'/home/jose/DESARROLLO/web2py199/applications/streamlog/sessions/127.0.0.1-610b0c7d-3f6f-4500-a76a-b095fb30f7fd'
p4887
asbasbasbag56
(g72
g58
NtRp4888
(dp4889
g61
(dp4890
sg70
g3798
sg63
(lp4891
g56
(g77
g58
NtRp4892
(dp4893
g61
(dp4894
g81
g82
ssg70
g4888
sg63
(lp4895
S'session_id'
p4896
asbag56
(g77
g58
NtRp4897
(dp4898
g61
(dp4899
g88
g89
ssg70
g4888
sg63
(lp4900
S':'
asbag56
(g77
g58
NtRp4901
(dp4902
g61
(dp4903
sg70
g4888
sg63
(lp4904
g56
(g57
g58
NtRp4905
(dp4906
g61
(dp4907
g69
I5
ssg70
g4901
sg63
(lp4908
S'127.0.0.1-610b0c7d-3f6f-4500-a76a-b095fb30f7fd'
p4909
asbasbasbag56
(g72
g58
NtRp4910
(dp4911
g61
(dp4912
sg70
g3798
sg63
(lp4913
g56
(g77
g58
NtRp4914
(dp4915
g61
(dp4916
g81
g82
ssg70
g4910
sg63
(lp4917
S'session_id_name'
p4918
asbag56
(g77
g58
NtRp4919
(dp4920
g61
(dp4921
g88
g89
ssg70
g4910
sg63
(lp4922
S':'
asbag56
(g77
g58
NtRp4923
(dp4924
g61
(dp4925
sg70
g4910
sg63
(lp4926
g56
(g57
g58
NtRp4927
(dp4928
g61
(dp4929
g69
I5
ssg70
g4923
sg63
(lp4930
g3855
asbasbasbag56
(g72
g58
NtRp4931
(dp4932
g61
(dp4933
sg70
g3798
sg63
(lp4934
g56
(g77
g58
NtRp4935
(dp4936
g61
(dp4937
g81
g82
ssg70
g4931
sg63
(lp4938
S'session_locked'
p4939
asbag56
(g77
g58
NtRp4940
(dp4941
g61
(dp4942
g88
g89
ssg70
g4931
sg63
(lp4943
S':'
asbag56
(g77
g58
NtRp4944
(dp4945
g61
(dp4946
sg70
g4931
sg63
(lp4947
g56
(g57
g58
NtRp4948
(dp4949
g61
(dp4950
g69
I5
ssg70
g4944
sg63
(lp4951
g99
asbasbasbag56
(g72
g58
NtRp4952
(dp4953
g61
(dp4954
sg70
g3798
sg63
(lp4955
g56
(g77
g58
NtRp4956
(dp4957
g61
(dp4958
g81
g82
ssg70
g4952
sg63
(lp4959
S'session_new'
p4960
asbag56
(g77
g58
NtRp4961
(dp4962
g61
(dp4963
g88
g89
ssg70
g4952
sg63
(lp4964
S':'
asbag56
(g77
g58
NtRp4965
(dp4966
g61
(dp4967
sg70
g4952
sg63
(lp4968
g56
(g57
g58
NtRp4969
(dp4970
g61
(dp4971
g69
I5
ssg70
g4965
sg63
(lp4972
g993
asbasbasbag56
(g72
g58
NtRp4973
(dp4974
g61
(dp4975
sg70
g3798
sg63
(lp4976
g56
(g77
g58
NtRp4977
(dp4978
g61
(dp4979
g81
g82
ssg70
g4973
sg63
(lp4980
S'status'
p4981
asbag56
(g77
g58
NtRp4982
(dp4983
g61
(dp4984
g88
g89
ssg70
g4973
sg63
(lp4985
S':'
asbag56
(g77
g58
NtRp4986
(dp4987
g61
(dp4988
sg70
g4973
sg63
(lp4989
g56
(g57
g58
NtRp4990
(dp4991
g61
(dp4992
g69
I5
ssg70
g4986
sg63
(lp4993
S'200'
p4994
asbasbasbag56
(g72
g58
NtRp4995
(dp4996
g61
(dp4997
sg70
g3798
sg63
(lp4998
g56
(g77
g58
NtRp4999
(dp5000
g61
(dp5001
g81
g82
ssg70
g4995
sg63
(lp5002
S'subtitle'
p5003
asbag56
(g77
g58
NtRp5004
(dp5005
g61
(dp5006
g88
g89
ssg70
g4995
sg63
(lp5007
S':'
asbag56
(g77
g58
NtRp5008
(dp5009
g61
(dp5010
sg70
g4995
sg63
(lp5011
g56
(g57
g58
NtRp5012
(dp5013
g61
(dp5014
g69
I5
ssg70
g5008
sg63
(lp5015
g4303
(S's\x12\x00\x00\x00Stream Log Client!'
tRp5016
asbasbasbag56
(g72
g58
NtRp5017
(dp5018
g61
(dp5019
sg70
g3798
sg63
(lp5020
g56
(g77
g58
NtRp5021
(dp5022
g61
(dp5023
g81
g82
ssg70
g5017
sg63
(lp5024
S'title'
p5025
asbag56
(g77
g58
NtRp5026
(dp5027
g61
(dp5028
g88
g89
ssg70
g5017
sg63
(lp5029
S':'
asbag56
(g77
g58
NtRp5030
(dp5031
g61
(dp5032
sg70
g5017
sg63
(lp5033
g56
(g57
g58
NtRp5034
(dp5035
g61
(dp5036
g69
I5
ssg70
g5030
sg63
(lp5037
g121
asbasbasbag56
(g72
g58
NtRp5038
(dp5039
g61
(dp5040
sg70
g3798
sg63
(lp5041
g56
(g77
g58
NtRp5042
(dp5043
g61
(dp5044
g81
g82
ssg70
g5038
sg63
(lp5045
g2420
asbag56
(g77
g58
NtRp5046
(dp5047
g61
(dp5048
g88
g89
ssg70
g5038
sg63
(lp5049
S':'
asbag56
(g77
g58
NtRp5050
(dp5051
g61
(dp5052
sg70
g5038
sg63
(lp5053
g56
(g57
g58
NtRp5054
(dp5055
g61
(dp5056
g69
I5
ssg70
g5050
sg63
(lp5057
g2433
asbasbasbag56
(g72
g58
NtRp5058
(dp5059
g61
(dp5060
sg70
g3798
sg63
(lp5061
g56
(g77
g58
NtRp5062
(dp5063
g61
(dp5064
g81
g82
ssg70
g5058
sg63
(lp5065
S'view'
p5066
asbag56
(g77
g58
NtRp5067
(dp5068
g61
(dp5069
g88
g89
ssg70
g5058
sg63
(lp5070
S':'
asbag56
(g77
g58
NtRp5071
(dp5072
g61
(dp5073
sg70
g5058
sg63
(lp5074
g56
(g57
g58
NtRp5075
(dp5076
g61
(dp5077
g69
I5
ssg70
g5071
sg63
(lp5078
S'default/getTypeTable.html'
p5079
asbasbasbasbasbsS'locals'
p5080
(dp5081
S'self'
p5082
S'<gluon.dal.SQLiteAdapter object>'
p5083
sS'r'
S'None'
p5084
sS'obj'
p5085
S"'undefined'"
p5086
sS'fieldtype'
p5087
S"'id'"
p5088
sssS'traceback'
p5089
S'Traceback (most recent call last):\n  File "/home/jose/DESARROLLO/web2py199/gluon/restricted.py", line 194, in restricted\n    exec ccode in environment\n  File "/home/jose/DESARROLLO/web2py199/applications/streamlog/controllers/default.py", line 184, in <module>\n  File "/home/jose/DESARROLLO/web2py199/gluon/globals.py", line 149, in <lambda>\n    self._caller = lambda f: f()\n  File "/home/jose/DESARROLLO/web2py199/applications/streamlog/controllers/default.py", line 69, in getTypeTable\n    type_table=db((db.t_log.id==id_log)&(db.t_log.type_log==db.t_type_log.id)).select(db.t_type_log.html_table)\n  File "/home/jose/DESARROLLO/web2py199/gluon/dal.py", line 5697, in select\n    return self.db._adapter.select(self.query,fields,attributes)\n  File "/home/jose/DESARROLLO/web2py199/gluon/dal.py", line 1225, in select\n    sql = self._select(query,fields,attributes)\n  File "/home/jose/DESARROLLO/web2py199/gluon/dal.py", line 1132, in _select\n    sql_w = \' WHERE \' + self.expand(query)\n  File "/home/jose/DESARROLLO/web2py199/gluon/dal.py", line 987, in expand\n    return expression.op(expression.first, expression.second)\n  File "/home/jose/DESARROLLO/web2py199/gluon/dal.py", line 904, in AND\n    return \'(%s AND %s)\' % (self.expand(first),self.expand(second))\n  File "/home/jose/DESARROLLO/web2py199/gluon/dal.py", line 987, in expand\n    return expression.op(expression.first, expression.second)\n  File "/home/jose/DESARROLLO/web2py199/gluon/dal.py", line 936, in EQ\n    return \'(%s = %s)\' % (self.expand(first),self.expand(second,first.type))\n  File "/home/jose/DESARROLLO/web2py199/gluon/dal.py", line 995, in expand\n    return self.represent(expression,field_type)\n  File "/home/jose/DESARROLLO/web2py199/gluon/dal.py", line 1338, in represent\n    return str(int(obj))\nValueError: invalid literal for int() with base 10: \'undefined\'\n'
p5090
s.