(dp1
S'output'
p2
S''
sS'layer'
p3
S'/home/jose/DESARROLLO/web2py199/applications/streamlog/controllers/default.py'
p4
sS'code'
p5
S'# -*- coding: utf-8 -*-\n# this file is released under public domain and you can use without limitations\n\n#########################################################################\n## This is a samples controller\n## - index is the default action of any application\n## - user is required for authentication and authorization\n## - download is for downloading files uploaded in the db (does streaming)\n## - call exposes all registered services (none by default)\n#########################################################################\n\n\n\ndef index():\n    """\n    example action using the internationalization operator T and flash\n    rendered by views/default/index.html or views/generic.html\n    """\n    links = [lambda row:  INPUT(_type=\'button\',_value=\'START STREAM\', _onclick=\'createStream(\'+str(row.id)+\')\')]\n    form=SQLFORM.grid(db.t_log, selectable=False, csv=False,create=False, deletable=False, editable=False, links=links, user_signature=False)\n    return dict(message=T(\'Hello World2\'), form=form)\n\n@service.json\ndef getConnectionData():\n    \n    id_log=request.args[0]\n    ip=\'\'\n    port=\'\'\n    name_log=\'\'\n    \n    data_connection=(db.t_log.id==id_log)&(db.t_log.server==db.t_server.id)\n  \n    for row in data_connection:\n        ip=row.IP\n        port=row.port\n        name_log=row.name\n        \n    print ip\n    print port\n    print name_log\n    \n    return response.json({"connection": [{\'name_log\': \'xhtml\',\'IP\': \'127.0.0.1\',\'port\': \'8888\'}]})\n\ndef choose_log():\n    """\n    example action using the internationalization operator T and flash\n    rendered by views/default/index.html or views/generic.html\n    """\n    \n    \n    return dict(message="log")\n\n\ndef getTypeTable():\n    """\n    example action using the internationalization operator T and flash\n    rendered by views/default/index.html or views/generic.html\n    """\n    table=\'\'\n    id_log=request.args[0]\n    type_table=db((db.t_log.id==id_log)&(db.t_log.type_log==db.t_type_log.id)).select(db.t_type_log.html_table)\n    for row in type_table:\n        table=row.html_table\n        \n    \'\'\'\n    table=\'<table cellpadding="0" cellspacing="0" border="0" class="display" id="tablelog"> \\\n    <thead> \\\n        <tr> \\\n            <th>IP</th> \\\n            <th>hyphen</th> \\\n            <th>userid</th> \\\n            <th>Time Request</th> \\\n        <th>Request Time</th> \\\n        <th>Status Code</th> \\\n        <th>Size Object</th> \\\n        </tr>\\\n    </thead> \\\n    <tfoot> \\\n        <tr> \\\n            <th>IP</th> \\\n            <th>hyphen</th> \\\n            <th>userid</th>\\\n            <th>Time Request</th> \\\n        <th>Request Time</th> \\\n        <th>Status Code</th> \\\n        <th>Size Object</th> \\\n        </tr>  \\\n    </tfoot>  \\\n        <tbody> \\\n        </tbody> \\\n    </table>\'\n    \'\'\'\n    \n    return table\n\n\ndef user():\n    """\n    exposes:\n    http://..../[app]/default/user/login\n    http://..../[app]/default/user/logout\n    http://..../[app]/default/user/register\n    http://..../[app]/default/user/profile\n    http://..../[app]/default/user/retrieve_password\n    http://..../[app]/default/user/change_password\n    use @auth.requires_login()\n        @auth.requires_membership(\'group name\')\n        @auth.requires_permission(\'read\',\'table name\',record_id)\n    to decorate functions that need access control\n    """\n    return dict(form=auth())\n\ndef error():\n    return dict()\n\n\ndef project_manage():\n    \n    form = SQLFORM.smartgrid(db.t_project)\n    return locals()\n\n\n\ndef server_manage():\n\n    form=SQLFORM.grid(db.t_server)\n    return locals()\n\ndef log_manage():\n \n    #form = SQLFORM.smartgrid(db.t_log,constraints=dict(t_log=query), selectable=True,searchable=False, csv=False,showbuttontext=True,onupdate=auth.archive)\n    #form = SQLFORM.smartgrid(db.t_log)\n    form=SQLFORM.grid(db.t_log)\n    return locals()\n\ndef type_log_manage():\n\n    form=SQLFORM.grid(db.t_type_log)\n    return locals()\n\ndef download():\n    """\n    allows downloading of uploaded files\n    http://..../[app]/default/download/[filename]\n    """\n    return response.download(request,db)\n\n\ndef call():\n    """\n    exposes services. for example:\n    http://..../[app]/default/call/jsonrpc\n    decorate with @services.jsonrpc the functions to expose\n    supports xml, json, xmlrpc, jsonrpc, amfrpc, rss, csv\n    """\n    return service()\n\n\n@auth.requires_signature()\ndef data():\n    """\n    http://..../[app]/default/data/tables\n    http://..../[app]/default/data/create/[table]\n    http://..../[app]/default/data/read/[table]/[id]\n    http://..../[app]/default/data/update/[table]/[id]\n    http://..../[app]/default/data/delete/[table]/[id]\n    http://..../[app]/default/data/select/[table]\n    http://..../[app]/default/data/search/[table]\n    but URLs bust be signed, i.e. linked with\n      A(\'table\',_href=URL(\'data/tables\',user_signature=True))\n    or with the signed load operator\n      LOAD(\'default\',\'data.load\',args=\'tables\',ajax=True,user_signature=True)\n    """\n    return dict(form=crud())\n\nresponse._vars=response._caller(call)\n'
p6
sS'snapshot'
p7
(dp8
S'exception'
p9
(dp10
S'__hash__'
p11
S"<method-wrapper '__hash__' of exceptions.TypeError object>"
p12
sS'__setattr__'
p13
S"<method-wrapper '__setattr__' of exceptions.TypeError object>"
p14
sS'__reduce_ex__'
p15
S'<built-in method __reduce_ex__ of exceptions.TypeError object>'
p16
sS'__getslice__'
p17
S"<method-wrapper '__getslice__' of exceptions.TypeError object>"
p18
sS'__getitem__'
p19
S"<method-wrapper '__getitem__' of exceptions.TypeError object>"
p20
sS'__setstate__'
p21
S'<built-in method __setstate__ of exceptions.TypeError object>'
p22
sS'args'
p23
S'("\'Query\' object is not iterable",)'
p24
sS'__reduce__'
p25
S'<built-in method __reduce__ of exceptions.TypeError object>'
p26
sS'__str__'
p27
S"<method-wrapper '__str__' of exceptions.TypeError object>"
p28
sS'__format__'
p29
S'<built-in method __format__ of exceptions.TypeError object>'
p30
sS'__getattribute__'
p31
S"<method-wrapper '__getattribute__' of exceptions.TypeError object>"
p32
sS'__class__'
p33
S"<type 'exceptions.TypeError'>"
p34
sS'__unicode__'
p35
S'<built-in method __unicode__ of exceptions.TypeError object>'
p36
sS'__delattr__'
p37
S"<method-wrapper '__delattr__' of exceptions.TypeError object>"
p38
sS'__subclasshook__'
p39
S'<built-in method __subclasshook__ of type object>'
p40
sS'__repr__'
p41
S"<method-wrapper '__repr__' of exceptions.TypeError object>"
p42
sS'__dict__'
p43
S'{}'
p44
sS'__sizeof__'
p45
S'<built-in method __sizeof__ of exceptions.TypeError object>'
p46
sS'__doc__'
p47
S"'Inappropriate argument type.'"
p48
sS'__init__'
p49
S"<method-wrapper '__init__' of exceptions.TypeError object>"
p50
sS'__new__'
p51
S'<built-in method __new__ of type object>'
p52
ssS'evalue'
p53
S"'Query' object is not iterable"
p54
sS'request'
p55
ccopy_reg
_reconstructor
p56
(cgluon.html
BEAUTIFY
p57
c__builtin__
object
p58
NtRp59
(dp60
S'attributes'
p61
(dp62
sS'components'
p63
(lp64
g56
(cgluon.html
TABLE
p65
g58
NtRp66
(dp67
g61
(dp68
S'level'
p69
I5
ssS'parent'
p70
Nsg63
(lp71
g56
(cgluon.html
TR
p72
g58
NtRp73
(dp74
g61
(dp75
sg70
g66
sg63
(lp76
g56
(cgluon.html
TD
p77
g58
NtRp78
(dp79
g61
(dp80
S'_style'
p81
S'font-weight:bold;'
p82
ssg70
g73
sg63
(lp83
S'ajax'
p84
asbag56
(g77
g58
NtRp85
(dp86
g61
(dp87
S'_valign'
p88
S'top'
p89
ssg70
g73
sg63
(lp90
S':'
asbag56
(g77
g58
NtRp91
(dp92
g61
(dp93
sg70
g73
sg63
(lp94
g56
(g57
g58
NtRp95
(dp96
g61
(dp97
g69
I5
ssg70
g91
sg63
(lp98
S'False'
p99
asbasbasbag56
(g72
g58
NtRp100
(dp101
g61
(dp102
sg70
g66
sg63
(lp103
g56
(g77
g58
NtRp104
(dp105
g61
(dp106
g81
g82
ssg70
g100
sg63
(lp107
S'application'
p108
asbag56
(g77
g58
NtRp109
(dp110
g61
(dp111
g88
g89
ssg70
g100
sg63
(lp112
S':'
asbag56
(g77
g58
NtRp113
(dp114
g61
(dp115
sg70
g100
sg63
(lp116
g56
(g57
g58
NtRp117
(dp118
g61
(dp119
g69
I5
ssg70
g113
sg63
(lp120
S'streamlog'
p121
asbasbasbag56
(g72
g58
NtRp122
(dp123
g61
(dp124
sg70
g66
sg63
(lp125
g56
(g77
g58
NtRp126
(dp127
g61
(dp128
g81
g82
ssg70
g122
sg63
(lp129
g23
asbag56
(g77
g58
NtRp130
(dp131
g61
(dp132
g88
g89
ssg70
g122
sg63
(lp133
S':'
asbag56
(g77
g58
NtRp134
(dp135
g61
(dp136
sg70
g122
sg63
(lp137
g56
(g57
g58
NtRp138
(dp139
g61
(dp140
g69
I5
ssg70
g134
sg63
(lp141
g56
(g65
g58
NtRp142
(dp143
g61
(dp144
g69
I4
ssg70
Nsg63
(lp145
g56
(g72
g58
NtRp146
(dp147
g61
(dp148
sg70
g142
sg63
(lp149
g56
(g77
g58
NtRp150
(dp151
g61
(dp152
sg70
g146
sg63
(lp153
g56
(g57
g58
NtRp154
(dp155
g61
(dp156
g69
I4
ssg70
g150
sg63
(lp157
S'json'
p158
asbasbasbag56
(g72
g58
NtRp159
(dp160
g61
(dp161
sg70
g142
sg63
(lp162
g56
(g77
g58
NtRp163
(dp164
g61
(dp165
sg70
g159
sg63
(lp166
g56
(g57
g58
NtRp167
(dp168
g61
(dp169
g69
I4
ssg70
g163
sg63
(lp170
S'getConnectionData'
p171
asbasbasbag56
(g72
g58
NtRp172
(dp173
g61
(dp174
sg70
g142
sg63
(lp175
g56
(g77
g58
NtRp176
(dp177
g61
(dp178
sg70
g172
sg63
(lp179
g56
(g57
g58
NtRp180
(dp181
g61
(dp182
g69
I4
ssg70
g176
sg63
(lp183
S'2'
asbasbasbasbasbasbasbag56
(g72
g58
NtRp184
(dp185
g61
(dp186
sg70
g66
sg63
(lp187
g56
(g77
g58
NtRp188
(dp189
g61
(dp190
g81
g82
ssg70
g184
sg63
(lp191
S'body'
p192
asbag56
(g77
g58
NtRp193
(dp194
g61
(dp195
g88
g89
ssg70
g184
sg63
(lp196
S':'
asbag56
(g77
g58
NtRp197
(dp198
g61
(dp199
sg70
g184
sg63
(lp200
g56
(g57
g58
NtRp201
(dp202
g61
(dp203
g69
I5
ssg70
g197
sg63
(lp204
S'<cStringIO.StringO object at 0x39ccd88>'
p205
asbasbasbag56
(g72
g58
NtRp206
(dp207
g61
(dp208
sg70
g66
sg63
(lp209
g56
(g77
g58
NtRp210
(dp211
g61
(dp212
g81
g82
ssg70
g206
sg63
(lp213
S'client'
p214
asbag56
(g77
g58
NtRp215
(dp216
g61
(dp217
g88
g89
ssg70
g206
sg63
(lp218
S':'
asbag56
(g77
g58
NtRp219
(dp220
g61
(dp221
sg70
g206
sg63
(lp222
g56
(g57
g58
NtRp223
(dp224
g61
(dp225
g69
I5
ssg70
g219
sg63
(lp226
S'127.0.0.1'
p227
asbasbasbag56
(g72
g58
NtRp228
(dp229
g61
(dp230
sg70
g66
sg63
(lp231
g56
(g77
g58
NtRp232
(dp233
g61
(dp234
g81
g82
ssg70
g228
sg63
(lp235
S'controller'
p236
asbag56
(g77
g58
NtRp237
(dp238
g61
(dp239
g88
g89
ssg70
g228
sg63
(lp240
S':'
asbag56
(g77
g58
NtRp241
(dp242
g61
(dp243
sg70
g228
sg63
(lp244
g56
(g57
g58
NtRp245
(dp246
g61
(dp247
g69
I5
ssg70
g241
sg63
(lp248
S'default'
p249
asbasbasbag56
(g72
g58
NtRp250
(dp251
g61
(dp252
sg70
g66
sg63
(lp253
g56
(g77
g58
NtRp254
(dp255
g61
(dp256
g81
g82
ssg70
g250
sg63
(lp257
S'cookies'
p258
asbag56
(g77
g58
NtRp259
(dp260
g61
(dp261
g88
g89
ssg70
g250
sg63
(lp262
S':'
asbag56
(g77
g58
NtRp263
(dp264
g61
(dp265
sg70
g250
sg63
(lp266
g56
(g57
g58
NtRp267
(dp268
g61
(dp269
g69
I5
ssg70
g263
sg63
(lp270
g56
(g65
g58
NtRp271
(dp272
g61
(dp273
g69
I4
ssg70
Nsg63
(lp274
g56
(g72
g58
NtRp275
(dp276
g61
(dp277
sg70
g271
sg63
(lp278
g56
(g77
g58
NtRp279
(dp280
g61
(dp281
g81
g82
ssg70
g275
sg63
(lp282
S'session_id_admin'
p283
asbag56
(g77
g58
NtRp284
(dp285
g61
(dp286
g88
g89
ssg70
g275
sg63
(lp287
S':'
asbag56
(g77
g58
NtRp288
(dp289
g61
(dp290
sg70
g275
sg63
(lp291
g56
(g57
g58
NtRp292
(dp293
g61
(dp294
g69
I4
ssg70
g288
sg63
(lp295
g56
(g65
g58
NtRp296
(dp297
g61
(dp298
g69
I3
ssg70
Nsg63
(lp299
g56
(g72
g58
NtRp300
(dp301
g61
(dp302
sg70
g296
sg63
(lp303
g56
(g77
g58
NtRp304
(dp305
g61
(dp306
g81
g82
ssg70
g300
sg63
(lp307
S'comment'
p308
asbag56
(g77
g58
NtRp309
(dp310
g61
(dp311
g88
g89
ssg70
g300
sg63
(lp312
S':'
asbag56
(g77
g58
NtRp313
(dp314
g61
(dp315
sg70
g300
sg63
(lp316
g56
(g57
g58
NtRp317
(dp318
g61
(dp319
g69
I3
ssg70
g313
sg63
(lp320
S''
asbasbasbag56
(g72
g58
NtRp321
(dp322
g61
(dp323
sg70
g296
sg63
(lp324
g56
(g77
g58
NtRp325
(dp326
g61
(dp327
g81
g82
ssg70
g321
sg63
(lp328
S'domain'
p329
asbag56
(g77
g58
NtRp330
(dp331
g61
(dp332
g88
g89
ssg70
g321
sg63
(lp333
S':'
asbag56
(g77
g58
NtRp334
(dp335
g61
(dp336
sg70
g321
sg63
(lp337
g56
(g57
g58
NtRp338
(dp339
g61
(dp340
g69
I3
ssg70
g334
sg63
(lp341
S''
asbasbasbag56
(g72
g58
NtRp342
(dp343
g61
(dp344
sg70
g296
sg63
(lp345
g56
(g77
g58
NtRp346
(dp347
g61
(dp348
g81
g82
ssg70
g342
sg63
(lp349
S'expires'
p350
asbag56
(g77
g58
NtRp351
(dp352
g61
(dp353
g88
g89
ssg70
g342
sg63
(lp354
S':'
asbag56
(g77
g58
NtRp355
(dp356
g61
(dp357
sg70
g342
sg63
(lp358
g56
(g57
g58
NtRp359
(dp360
g61
(dp361
g69
I3
ssg70
g355
sg63
(lp362
S''
asbasbasbag56
(g72
g58
NtRp363
(dp364
g61
(dp365
sg70
g296
sg63
(lp366
g56
(g77
g58
NtRp367
(dp368
g61
(dp369
g81
g82
ssg70
g363
sg63
(lp370
S'httponly'
p371
asbag56
(g77
g58
NtRp372
(dp373
g61
(dp374
g88
g89
ssg70
g363
sg63
(lp375
S':'
asbag56
(g77
g58
NtRp376
(dp377
g61
(dp378
sg70
g363
sg63
(lp379
g56
(g57
g58
NtRp380
(dp381
g61
(dp382
g69
I3
ssg70
g376
sg63
(lp383
S''
asbasbasbag56
(g72
g58
NtRp384
(dp385
g61
(dp386
sg70
g296
sg63
(lp387
g56
(g77
g58
NtRp388
(dp389
g61
(dp390
g81
g82
ssg70
g384
sg63
(lp391
S'max-age'
p392
asbag56
(g77
g58
NtRp393
(dp394
g61
(dp395
g88
g89
ssg70
g384
sg63
(lp396
S':'
asbag56
(g77
g58
NtRp397
(dp398
g61
(dp399
sg70
g384
sg63
(lp400
g56
(g57
g58
NtRp401
(dp402
g61
(dp403
g69
I3
ssg70
g397
sg63
(lp404
S''
asbasbasbag56
(g72
g58
NtRp405
(dp406
g61
(dp407
sg70
g296
sg63
(lp408
g56
(g77
g58
NtRp409
(dp410
g61
(dp411
g81
g82
ssg70
g405
sg63
(lp412
S'path'
p413
asbag56
(g77
g58
NtRp414
(dp415
g61
(dp416
g88
g89
ssg70
g405
sg63
(lp417
S':'
asbag56
(g77
g58
NtRp418
(dp419
g61
(dp420
sg70
g405
sg63
(lp421
g56
(g57
g58
NtRp422
(dp423
g61
(dp424
g69
I3
ssg70
g418
sg63
(lp425
S''
asbasbasbag56
(g72
g58
NtRp426
(dp427
g61
(dp428
sg70
g296
sg63
(lp429
g56
(g77
g58
NtRp430
(dp431
g61
(dp432
g81
g82
ssg70
g426
sg63
(lp433
S'secure'
p434
asbag56
(g77
g58
NtRp435
(dp436
g61
(dp437
g88
g89
ssg70
g426
sg63
(lp438
S':'
asbag56
(g77
g58
NtRp439
(dp440
g61
(dp441
sg70
g426
sg63
(lp442
g56
(g57
g58
NtRp443
(dp444
g61
(dp445
g69
I3
ssg70
g439
sg63
(lp446
S''
asbasbasbag56
(g72
g58
NtRp447
(dp448
g61
(dp449
sg70
g296
sg63
(lp450
g56
(g77
g58
NtRp451
(dp452
g61
(dp453
g81
g82
ssg70
g447
sg63
(lp454
S'version'
p455
asbag56
(g77
g58
NtRp456
(dp457
g61
(dp458
g88
g89
ssg70
g447
sg63
(lp459
S':'
asbag56
(g77
g58
NtRp460
(dp461
g61
(dp462
sg70
g447
sg63
(lp463
g56
(g57
g58
NtRp464
(dp465
g61
(dp466
g69
I3
ssg70
g460
sg63
(lp467
S''
asbasbasbasbasbasbasbag56
(g72
g58
NtRp468
(dp469
g61
(dp470
sg70
g271
sg63
(lp471
g56
(g77
g58
NtRp472
(dp473
g61
(dp474
g81
g82
ssg70
g468
sg63
(lp475
S'session_id_streamlog'
p476
asbag56
(g77
g58
NtRp477
(dp478
g61
(dp479
g88
g89
ssg70
g468
sg63
(lp480
S':'
asbag56
(g77
g58
NtRp481
(dp482
g61
(dp483
sg70
g468
sg63
(lp484
g56
(g57
g58
NtRp485
(dp486
g61
(dp487
g69
I4
ssg70
g481
sg63
(lp488
g56
(g65
g58
NtRp489
(dp490
g61
(dp491
g69
I3
ssg70
Nsg63
(lp492
g56
(g72
g58
NtRp493
(dp494
g61
(dp495
sg70
g489
sg63
(lp496
g56
(g77
g58
NtRp497
(dp498
g61
(dp499
g81
g82
ssg70
g493
sg63
(lp500
g308
asbag56
(g77
g58
NtRp501
(dp502
g61
(dp503
g88
g89
ssg70
g493
sg63
(lp504
S':'
asbag56
(g77
g58
NtRp505
(dp506
g61
(dp507
sg70
g493
sg63
(lp508
g56
(g57
g58
NtRp509
(dp510
g61
(dp511
g69
I3
ssg70
g505
sg63
(lp512
S''
asbasbasbag56
(g72
g58
NtRp513
(dp514
g61
(dp515
sg70
g489
sg63
(lp516
g56
(g77
g58
NtRp517
(dp518
g61
(dp519
g81
g82
ssg70
g513
sg63
(lp520
g329
asbag56
(g77
g58
NtRp521
(dp522
g61
(dp523
g88
g89
ssg70
g513
sg63
(lp524
S':'
asbag56
(g77
g58
NtRp525
(dp526
g61
(dp527
sg70
g513
sg63
(lp528
g56
(g57
g58
NtRp529
(dp530
g61
(dp531
g69
I3
ssg70
g525
sg63
(lp532
S''
asbasbasbag56
(g72
g58
NtRp533
(dp534
g61
(dp535
sg70
g489
sg63
(lp536
g56
(g77
g58
NtRp537
(dp538
g61
(dp539
g81
g82
ssg70
g533
sg63
(lp540
g350
asbag56
(g77
g58
NtRp541
(dp542
g61
(dp543
g88
g89
ssg70
g533
sg63
(lp544
S':'
asbag56
(g77
g58
NtRp545
(dp546
g61
(dp547
sg70
g533
sg63
(lp548
g56
(g57
g58
NtRp549
(dp550
g61
(dp551
g69
I3
ssg70
g545
sg63
(lp552
S''
asbasbasbag56
(g72
g58
NtRp553
(dp554
g61
(dp555
sg70
g489
sg63
(lp556
g56
(g77
g58
NtRp557
(dp558
g61
(dp559
g81
g82
ssg70
g553
sg63
(lp560
g371
asbag56
(g77
g58
NtRp561
(dp562
g61
(dp563
g88
g89
ssg70
g553
sg63
(lp564
S':'
asbag56
(g77
g58
NtRp565
(dp566
g61
(dp567
sg70
g553
sg63
(lp568
g56
(g57
g58
NtRp569
(dp570
g61
(dp571
g69
I3
ssg70
g565
sg63
(lp572
S''
asbasbasbag56
(g72
g58
NtRp573
(dp574
g61
(dp575
sg70
g489
sg63
(lp576
g56
(g77
g58
NtRp577
(dp578
g61
(dp579
g81
g82
ssg70
g573
sg63
(lp580
g392
asbag56
(g77
g58
NtRp581
(dp582
g61
(dp583
g88
g89
ssg70
g573
sg63
(lp584
S':'
asbag56
(g77
g58
NtRp585
(dp586
g61
(dp587
sg70
g573
sg63
(lp588
g56
(g57
g58
NtRp589
(dp590
g61
(dp591
g69
I3
ssg70
g585
sg63
(lp592
S''
asbasbasbag56
(g72
g58
NtRp593
(dp594
g61
(dp595
sg70
g489
sg63
(lp596
g56
(g77
g58
NtRp597
(dp598
g61
(dp599
g81
g82
ssg70
g593
sg63
(lp600
g413
asbag56
(g77
g58
NtRp601
(dp602
g61
(dp603
g88
g89
ssg70
g593
sg63
(lp604
S':'
asbag56
(g77
g58
NtRp605
(dp606
g61
(dp607
sg70
g593
sg63
(lp608
g56
(g57
g58
NtRp609
(dp610
g61
(dp611
g69
I3
ssg70
g605
sg63
(lp612
S''
asbasbasbag56
(g72
g58
NtRp613
(dp614
g61
(dp615
sg70
g489
sg63
(lp616
g56
(g77
g58
NtRp617
(dp618
g61
(dp619
g81
g82
ssg70
g613
sg63
(lp620
g434
asbag56
(g77
g58
NtRp621
(dp622
g61
(dp623
g88
g89
ssg70
g613
sg63
(lp624
S':'
asbag56
(g77
g58
NtRp625
(dp626
g61
(dp627
sg70
g613
sg63
(lp628
g56
(g57
g58
NtRp629
(dp630
g61
(dp631
g69
I3
ssg70
g625
sg63
(lp632
S''
asbasbasbag56
(g72
g58
NtRp633
(dp634
g61
(dp635
sg70
g489
sg63
(lp636
g56
(g77
g58
NtRp637
(dp638
g61
(dp639
g81
g82
ssg70
g633
sg63
(lp640
g455
asbag56
(g77
g58
NtRp641
(dp642
g61
(dp643
g88
g89
ssg70
g633
sg63
(lp644
S':'
asbag56
(g77
g58
NtRp645
(dp646
g61
(dp647
sg70
g633
sg63
(lp648
g56
(g57
g58
NtRp649
(dp650
g61
(dp651
g69
I3
ssg70
g645
sg63
(lp652
S''
asbasbasbasbasbasbasbag56
(g72
g58
NtRp653
(dp654
g61
(dp655
sg70
g271
sg63
(lp656
g56
(g77
g58
NtRp657
(dp658
g61
(dp659
g81
g82
ssg70
g653
sg63
(lp660
S'session_id_test3'
p661
asbag56
(g77
g58
NtRp662
(dp663
g61
(dp664
g88
g89
ssg70
g653
sg63
(lp665
S':'
asbag56
(g77
g58
NtRp666
(dp667
g61
(dp668
sg70
g653
sg63
(lp669
g56
(g57
g58
NtRp670
(dp671
g61
(dp672
g69
I4
ssg70
g666
sg63
(lp673
g56
(g65
g58
NtRp674
(dp675
g61
(dp676
g69
I3
ssg70
Nsg63
(lp677
g56
(g72
g58
NtRp678
(dp679
g61
(dp680
sg70
g674
sg63
(lp681
g56
(g77
g58
NtRp682
(dp683
g61
(dp684
g81
g82
ssg70
g678
sg63
(lp685
g308
asbag56
(g77
g58
NtRp686
(dp687
g61
(dp688
g88
g89
ssg70
g678
sg63
(lp689
S':'
asbag56
(g77
g58
NtRp690
(dp691
g61
(dp692
sg70
g678
sg63
(lp693
g56
(g57
g58
NtRp694
(dp695
g61
(dp696
g69
I3
ssg70
g690
sg63
(lp697
S''
asbasbasbag56
(g72
g58
NtRp698
(dp699
g61
(dp700
sg70
g674
sg63
(lp701
g56
(g77
g58
NtRp702
(dp703
g61
(dp704
g81
g82
ssg70
g698
sg63
(lp705
g329
asbag56
(g77
g58
NtRp706
(dp707
g61
(dp708
g88
g89
ssg70
g698
sg63
(lp709
S':'
asbag56
(g77
g58
NtRp710
(dp711
g61
(dp712
sg70
g698
sg63
(lp713
g56
(g57
g58
NtRp714
(dp715
g61
(dp716
g69
I3
ssg70
g710
sg63
(lp717
S''
asbasbasbag56
(g72
g58
NtRp718
(dp719
g61
(dp720
sg70
g674
sg63
(lp721
g56
(g77
g58
NtRp722
(dp723
g61
(dp724
g81
g82
ssg70
g718
sg63
(lp725
g350
asbag56
(g77
g58
NtRp726
(dp727
g61
(dp728
g88
g89
ssg70
g718
sg63
(lp729
S':'
asbag56
(g77
g58
NtRp730
(dp731
g61
(dp732
sg70
g718
sg63
(lp733
g56
(g57
g58
NtRp734
(dp735
g61
(dp736
g69
I3
ssg70
g730
sg63
(lp737
S''
asbasbasbag56
(g72
g58
NtRp738
(dp739
g61
(dp740
sg70
g674
sg63
(lp741
g56
(g77
g58
NtRp742
(dp743
g61
(dp744
g81
g82
ssg70
g738
sg63
(lp745
g371
asbag56
(g77
g58
NtRp746
(dp747
g61
(dp748
g88
g89
ssg70
g738
sg63
(lp749
S':'
asbag56
(g77
g58
NtRp750
(dp751
g61
(dp752
sg70
g738
sg63
(lp753
g56
(g57
g58
NtRp754
(dp755
g61
(dp756
g69
I3
ssg70
g750
sg63
(lp757
S''
asbasbasbag56
(g72
g58
NtRp758
(dp759
g61
(dp760
sg70
g674
sg63
(lp761
g56
(g77
g58
NtRp762
(dp763
g61
(dp764
g81
g82
ssg70
g758
sg63
(lp765
g392
asbag56
(g77
g58
NtRp766
(dp767
g61
(dp768
g88
g89
ssg70
g758
sg63
(lp769
S':'
asbag56
(g77
g58
NtRp770
(dp771
g61
(dp772
sg70
g758
sg63
(lp773
g56
(g57
g58
NtRp774
(dp775
g61
(dp776
g69
I3
ssg70
g770
sg63
(lp777
S''
asbasbasbag56
(g72
g58
NtRp778
(dp779
g61
(dp780
sg70
g674
sg63
(lp781
g56
(g77
g58
NtRp782
(dp783
g61
(dp784
g81
g82
ssg70
g778
sg63
(lp785
g413
asbag56
(g77
g58
NtRp786
(dp787
g61
(dp788
g88
g89
ssg70
g778
sg63
(lp789
S':'
asbag56
(g77
g58
NtRp790
(dp791
g61
(dp792
sg70
g778
sg63
(lp793
g56
(g57
g58
NtRp794
(dp795
g61
(dp796
g69
I3
ssg70
g790
sg63
(lp797
S''
asbasbasbag56
(g72
g58
NtRp798
(dp799
g61
(dp800
sg70
g674
sg63
(lp801
g56
(g77
g58
NtRp802
(dp803
g61
(dp804
g81
g82
ssg70
g798
sg63
(lp805
g434
asbag56
(g77
g58
NtRp806
(dp807
g61
(dp808
g88
g89
ssg70
g798
sg63
(lp809
S':'
asbag56
(g77
g58
NtRp810
(dp811
g61
(dp812
sg70
g798
sg63
(lp813
g56
(g57
g58
NtRp814
(dp815
g61
(dp816
g69
I3
ssg70
g810
sg63
(lp817
S''
asbasbasbag56
(g72
g58
NtRp818
(dp819
g61
(dp820
sg70
g674
sg63
(lp821
g56
(g77
g58
NtRp822
(dp823
g61
(dp824
g81
g82
ssg70
g818
sg63
(lp825
g455
asbag56
(g77
g58
NtRp826
(dp827
g61
(dp828
g88
g89
ssg70
g818
sg63
(lp829
S':'
asbag56
(g77
g58
NtRp830
(dp831
g61
(dp832
sg70
g818
sg63
(lp833
g56
(g57
g58
NtRp834
(dp835
g61
(dp836
g69
I3
ssg70
g830
sg63
(lp837
S''
asbasbasbasbasbasbasbasbasbasbasbag56
(g72
g58
NtRp838
(dp839
g61
(dp840
sg70
g66
sg63
(lp841
g56
(g77
g58
NtRp842
(dp843
g61
(dp844
g81
g82
ssg70
g838
sg63
(lp845
S'env'
p846
asbag56
(g77
g58
NtRp847
(dp848
g61
(dp849
g88
g89
ssg70
g838
sg63
(lp850
S':'
asbag56
(g77
g58
NtRp851
(dp852
g61
(dp853
sg70
g838
sg63
(lp854
g56
(g57
g58
NtRp855
(dp856
g61
(dp857
g69
I5
ssg70
g851
sg63
(lp858
g56
(g65
g58
NtRp859
(dp860
g61
(dp861
g69
I4
ssg70
Nsg63
(lp862
g56
(g72
g58
NtRp863
(dp864
g61
(dp865
sg70
g859
sg63
(lp866
g56
(g77
g58
NtRp867
(dp868
g61
(dp869
g81
g82
ssg70
g863
sg63
(lp870
S'app_folders'
p871
asbag56
(g77
g58
NtRp872
(dp873
g61
(dp874
g88
g89
ssg70
g863
sg63
(lp875
S':'
asbag56
(g77
g58
NtRp876
(dp877
g61
(dp878
sg70
g863
sg63
(lp879
g56
(g57
g58
NtRp880
(dp881
g61
(dp882
g69
I4
ssg70
g876
sg63
(lp883
S"set(['/home/jose/DESARROLLO/web2py199/applications/streamlog/', '/home/jose/DESARROLLO/web2py199/applications/admin/'])"
p884
asbasbasbag56
(g72
g58
NtRp885
(dp886
g61
(dp887
sg70
g859
sg63
(lp888
g56
(g77
g58
NtRp889
(dp890
g61
(dp891
g81
g82
ssg70
g885
sg63
(lp892
S'applications_parent'
p893
asbag56
(g77
g58
NtRp894
(dp895
g61
(dp896
g88
g89
ssg70
g885
sg63
(lp897
S':'
asbag56
(g77
g58
NtRp898
(dp899
g61
(dp900
sg70
g885
sg63
(lp901
g56
(g57
g58
NtRp902
(dp903
g61
(dp904
g69
I4
ssg70
g898
sg63
(lp905
S'/home/jose/DESARROLLO/web2py199'
p906
asbasbasbag56
(g72
g58
NtRp907
(dp908
g61
(dp909
sg70
g859
sg63
(lp910
g56
(g77
g58
NtRp911
(dp912
g61
(dp913
g81
g82
ssg70
g907
sg63
(lp914
S'cmd_args'
p915
asbag56
(g77
g58
NtRp916
(dp917
g61
(dp918
g88
g89
ssg70
g907
sg63
(lp919
S':'
asbag56
(g77
g58
NtRp920
(dp921
g61
(dp922
sg70
g907
sg63
(lp923
g56
(g57
g58
NtRp924
(dp925
g61
(dp926
g69
I4
ssg70
g920
sg63
(lp927
g56
(g65
g58
NtRp928
(dp929
g61
(dp930
g69
I3
ssg70
Nsg63
(lp931
sbasbasbasbag56
(g72
g58
NtRp932
(dp933
g61
(dp934
sg70
g859
sg63
(lp935
g56
(g77
g58
NtRp936
(dp937
g61
(dp938
g81
g82
ssg70
g932
sg63
(lp939
S'cmd_options'
p940
asbag56
(g77
g58
NtRp941
(dp942
g61
(dp943
g88
g89
ssg70
g932
sg63
(lp944
S':'
asbag56
(g77
g58
NtRp945
(dp946
g61
(dp947
sg70
g932
sg63
(lp948
g56
(g57
g58
NtRp949
(dp950
g61
(dp951
g69
I4
ssg70
g945
sg63
(lp952
S"<Values at 0x1c79f80: {'verbose': False, 'ip': '127.0.0.1', 'shutdown_timeout': 5, 'taskbar': False, 'nocron': False, 'pid_filename': 'httpserver.pid', 'maxthreads': None, 'softcron': False, 'server_name': 'jose', 'bpython': False, 'nogui': False, 'port': 8000, 'extcron': False, 'debuglevel': 30, 'test': None, 'folder': '/home/jose/DESARROLLO/web2py199', 'config': '', 'import_models': False, 'winservice': '', 'shell': None, 'run': '', 'log_filename': 'httpserver.log', 'args': [''], 'ssl_ca_certificate': None, 'scheduler': None, 'profiler_filename': None, 'ssl_private_key': '', 'password': 't', 'request_queue_size': 5, 'ssl_certificate': '', 'cronjob': False, 'plain': False, 'quiet': False, 'interfaces': None, 'minthreads': None, 'timeout': 10, 'numthreads': None, 'nobanner': False}>"
p953
asbasbasbag56
(g72
g58
NtRp954
(dp955
g61
(dp956
sg70
g859
sg63
(lp957
g56
(g77
g58
NtRp958
(dp959
g61
(dp960
g81
g82
ssg70
g954
sg63
(lp961
S'db_sessions'
p962
asbag56
(g77
g58
NtRp963
(dp964
g61
(dp965
g88
g89
ssg70
g954
sg63
(lp966
S':'
asbag56
(g77
g58
NtRp967
(dp968
g61
(dp969
sg70
g954
sg63
(lp970
g56
(g57
g58
NtRp971
(dp972
g61
(dp973
g69
I4
ssg70
g967
sg63
(lp974
S'set([])'
p975
asbasbasbag56
(g72
g58
NtRp976
(dp977
g61
(dp978
sg70
g859
sg63
(lp979
g56
(g77
g58
NtRp980
(dp981
g61
(dp982
g81
g82
ssg70
g976
sg63
(lp983
S'debugging'
p984
asbag56
(g77
g58
NtRp985
(dp986
g61
(dp987
g88
g89
ssg70
g976
sg63
(lp988
S':'
asbag56
(g77
g58
NtRp989
(dp990
g61
(dp991
sg70
g976
sg63
(lp992
g56
(g57
g58
NtRp993
(dp994
g61
(dp995
g69
I4
ssg70
g989
sg63
(lp996
g99
asbasbasbag56
(g72
g58
NtRp997
(dp998
g61
(dp999
sg70
g859
sg63
(lp1000
g56
(g77
g58
NtRp1001
(dp1002
g61
(dp1003
g81
g82
ssg70
g997
sg63
(lp1004
S'gluon_parent'
p1005
asbag56
(g77
g58
NtRp1006
(dp1007
g61
(dp1008
g88
g89
ssg70
g997
sg63
(lp1009
S':'
asbag56
(g77
g58
NtRp1010
(dp1011
g61
(dp1012
sg70
g997
sg63
(lp1013
g56
(g57
g58
NtRp1014
(dp1015
g61
(dp1016
g69
I4
ssg70
g1010
sg63
(lp1017
S'/home/jose/DESARROLLO/web2py199'
p1018
asbasbasbag56
(g72
g58
NtRp1019
(dp1020
g61
(dp1021
sg70
g859
sg63
(lp1022
g56
(g77
g58
NtRp1023
(dp1024
g61
(dp1025
g81
g82
ssg70
g1019
sg63
(lp1026
S'http_accept'
p1027
asbag56
(g77
g58
NtRp1028
(dp1029
g61
(dp1030
g88
g89
ssg70
g1019
sg63
(lp1031
S':'
asbag56
(g77
g58
NtRp1032
(dp1033
g61
(dp1034
sg70
g1019
sg63
(lp1035
g56
(g57
g58
NtRp1036
(dp1037
g61
(dp1038
g69
I4
ssg70
g1032
sg63
(lp1039
S'text/html,application/xhtml+xml,application/xml;q=0.9,*/*;q=0.8'
p1040
asbasbasbag56
(g72
g58
NtRp1041
(dp1042
g61
(dp1043
sg70
g859
sg63
(lp1044
g56
(g77
g58
NtRp1045
(dp1046
g61
(dp1047
g81
g82
ssg70
g1041
sg63
(lp1048
S'http_accept_encoding'
p1049
asbag56
(g77
g58
NtRp1050
(dp1051
g61
(dp1052
g88
g89
ssg70
g1041
sg63
(lp1053
S':'
asbag56
(g77
g58
NtRp1054
(dp1055
g61
(dp1056
sg70
g1041
sg63
(lp1057
g56
(g57
g58
NtRp1058
(dp1059
g61
(dp1060
g69
I4
ssg70
g1054
sg63
(lp1061
S'gzip, deflate'
p1062
asbasbasbag56
(g72
g58
NtRp1063
(dp1064
g61
(dp1065
sg70
g859
sg63
(lp1066
g56
(g77
g58
NtRp1067
(dp1068
g61
(dp1069
g81
g82
ssg70
g1063
sg63
(lp1070
S'http_accept_language'
p1071
asbag56
(g77
g58
NtRp1072
(dp1073
g61
(dp1074
g88
g89
ssg70
g1063
sg63
(lp1075
S':'
asbag56
(g77
g58
NtRp1076
(dp1077
g61
(dp1078
sg70
g1063
sg63
(lp1079
g56
(g57
g58
NtRp1080
(dp1081
g61
(dp1082
g69
I4
ssg70
g1076
sg63
(lp1083
S'en-us,en;q=0.5'
p1084
asbasbasbag56
(g72
g58
NtRp1085
(dp1086
g61
(dp1087
sg70
g859
sg63
(lp1088
g56
(g77
g58
NtRp1089
(dp1090
g61
(dp1091
g81
g82
ssg70
g1085
sg63
(lp1092
S'http_cache_control'
p1093
asbag56
(g77
g58
NtRp1094
(dp1095
g61
(dp1096
g88
g89
ssg70
g1085
sg63
(lp1097
S':'
asbag56
(g77
g58
NtRp1098
(dp1099
g61
(dp1100
sg70
g1085
sg63
(lp1101
g56
(g57
g58
NtRp1102
(dp1103
g61
(dp1104
g69
I4
ssg70
g1098
sg63
(lp1105
S'max-age=0'
p1106
asbasbasbag56
(g72
g58
NtRp1107
(dp1108
g61
(dp1109
sg70
g859
sg63
(lp1110
g56
(g77
g58
NtRp1111
(dp1112
g61
(dp1113
g81
g82
ssg70
g1107
sg63
(lp1114
S'http_connection'
p1115
asbag56
(g77
g58
NtRp1116
(dp1117
g61
(dp1118
g88
g89
ssg70
g1107
sg63
(lp1119
S':'
asbag56
(g77
g58
NtRp1120
(dp1121
g61
(dp1122
sg70
g1107
sg63
(lp1123
g56
(g57
g58
NtRp1124
(dp1125
g61
(dp1126
g69
I4
ssg70
g1120
sg63
(lp1127
S'keep-alive'
p1128
asbasbasbag56
(g72
g58
NtRp1129
(dp1130
g61
(dp1131
sg70
g859
sg63
(lp1132
g56
(g77
g58
NtRp1133
(dp1134
g61
(dp1135
g81
g82
ssg70
g1129
sg63
(lp1136
S'http_cookie'
p1137
asbag56
(g77
g58
NtRp1138
(dp1139
g61
(dp1140
g88
g89
ssg70
g1129
sg63
(lp1141
S':'
asbag56
(g77
g58
NtRp1142
(dp1143
g61
(dp1144
sg70
g1129
sg63
(lp1145
g56
(g57
g58
NtRp1146
(dp1147
g61
(dp1148
g69
I4
ssg70
g1142
sg63
(lp1149
S'session_id_streamlog=127.0.0.1-610b0c7d-3f6f-4500-a76a-b095fb30f7fd; session_id_admin=127.0.0.1-8f69464e-4a83-4875-ad25-00cf5c7e8e11; session_id_test3=127.0.0.1-380e7b29-b635-4690-b9ca-812870d6a061'
p1150
asbasbasbag56
(g72
g58
NtRp1151
(dp1152
g61
(dp1153
sg70
g859
sg63
(lp1154
g56
(g77
g58
NtRp1155
(dp1156
g61
(dp1157
g81
g82
ssg70
g1151
sg63
(lp1158
S'http_host'
p1159
asbag56
(g77
g58
NtRp1160
(dp1161
g61
(dp1162
g88
g89
ssg70
g1151
sg63
(lp1163
S':'
asbag56
(g77
g58
NtRp1164
(dp1165
g61
(dp1166
sg70
g1151
sg63
(lp1167
g56
(g57
g58
NtRp1168
(dp1169
g61
(dp1170
g69
I4
ssg70
g1164
sg63
(lp1171
S'localhost:8000'
p1172
asbasbasbag56
(g72
g58
NtRp1173
(dp1174
g61
(dp1175
sg70
g859
sg63
(lp1176
g56
(g77
g58
NtRp1177
(dp1178
g61
(dp1179
g81
g82
ssg70
g1173
sg63
(lp1180
S'http_user_agent'
p1181
asbag56
(g77
g58
NtRp1182
(dp1183
g61
(dp1184
g88
g89
ssg70
g1173
sg63
(lp1185
S':'
asbag56
(g77
g58
NtRp1186
(dp1187
g61
(dp1188
sg70
g1173
sg63
(lp1189
g56
(g57
g58
NtRp1190
(dp1191
g61
(dp1192
g69
I4
ssg70
g1186
sg63
(lp1193
S'Mozilla/5.0 (X11; Ubuntu; Linux x86_64; rv:12.0) Gecko/20100101 Firefox/12.0'
p1194
asbasbasbag56
(g72
g58
NtRp1195
(dp1196
g61
(dp1197
sg70
g859
sg63
(lp1198
g56
(g77
g58
NtRp1199
(dp1200
g61
(dp1201
g81
g82
ssg70
g1195
sg63
(lp1202
S'is_jython'
p1203
asbag56
(g77
g58
NtRp1204
(dp1205
g61
(dp1206
g88
g89
ssg70
g1195
sg63
(lp1207
S':'
asbag56
(g77
g58
NtRp1208
(dp1209
g61
(dp1210
sg70
g1195
sg63
(lp1211
g56
(g57
g58
NtRp1212
(dp1213
g61
(dp1214
g69
I4
ssg70
g1208
sg63
(lp1215
g99
asbasbasbag56
(g72
g58
NtRp1216
(dp1217
g61
(dp1218
sg70
g859
sg63
(lp1219
g56
(g77
g58
NtRp1220
(dp1221
g61
(dp1222
g81
g82
ssg70
g1216
sg63
(lp1223
S'path_info'
p1224
asbag56
(g77
g58
NtRp1225
(dp1226
g61
(dp1227
g88
g89
ssg70
g1216
sg63
(lp1228
S':'
asbag56
(g77
g58
NtRp1229
(dp1230
g61
(dp1231
sg70
g1216
sg63
(lp1232
g56
(g57
g58
NtRp1233
(dp1234
g61
(dp1235
g69
I4
ssg70
g1229
sg63
(lp1236
S'/streamlog/default/call/json/getConnectionData/2'
p1237
asbasbasbag56
(g72
g58
NtRp1238
(dp1239
g61
(dp1240
sg70
g859
sg63
(lp1241
g56
(g77
g58
NtRp1242
(dp1243
g61
(dp1244
g81
g82
ssg70
g1238
sg63
(lp1245
S'query_string'
p1246
asbag56
(g77
g58
NtRp1247
(dp1248
g61
(dp1249
g88
g89
ssg70
g1238
sg63
(lp1250
S':'
asbag56
(g77
g58
NtRp1251
(dp1252
g61
(dp1253
sg70
g1238
sg63
(lp1254
g56
(g57
g58
NtRp1255
(dp1256
g61
(dp1257
g69
I4
ssg70
g1251
sg63
(lp1258
S''
asbasbasbag56
(g72
g58
NtRp1259
(dp1260
g61
(dp1261
sg70
g859
sg63
(lp1262
g56
(g77
g58
NtRp1263
(dp1264
g61
(dp1265
g81
g82
ssg70
g1259
sg63
(lp1266
S'remote_addr'
p1267
asbag56
(g77
g58
NtRp1268
(dp1269
g61
(dp1270
g88
g89
ssg70
g1259
sg63
(lp1271
S':'
asbag56
(g77
g58
NtRp1272
(dp1273
g61
(dp1274
sg70
g1259
sg63
(lp1275
g56
(g57
g58
NtRp1276
(dp1277
g61
(dp1278
g69
I4
ssg70
g1272
sg63
(lp1279
g227
asbasbasbag56
(g72
g58
NtRp1280
(dp1281
g61
(dp1282
sg70
g859
sg63
(lp1283
g56
(g77
g58
NtRp1284
(dp1285
g61
(dp1286
g81
g82
ssg70
g1280
sg63
(lp1287
S'remote_port'
p1288
asbag56
(g77
g58
NtRp1289
(dp1290
g61
(dp1291
g88
g89
ssg70
g1280
sg63
(lp1292
S':'
asbag56
(g77
g58
NtRp1293
(dp1294
g61
(dp1295
sg70
g1280
sg63
(lp1296
g56
(g57
g58
NtRp1297
(dp1298
g61
(dp1299
g69
I4
ssg70
g1293
sg63
(lp1300
S'36228'
p1301
asbasbasbag56
(g72
g58
NtRp1302
(dp1303
g61
(dp1304
sg70
g859
sg63
(lp1305
g56
(g77
g58
NtRp1306
(dp1307
g61
(dp1308
g81
g82
ssg70
g1302
sg63
(lp1309
S'request_method'
p1310
asbag56
(g77
g58
NtRp1311
(dp1312
g61
(dp1313
g88
g89
ssg70
g1302
sg63
(lp1314
S':'
asbag56
(g77
g58
NtRp1315
(dp1316
g61
(dp1317
sg70
g1302
sg63
(lp1318
g56
(g57
g58
NtRp1319
(dp1320
g61
(dp1321
g69
I4
ssg70
g1315
sg63
(lp1322
S'GET'
p1323
asbasbasbag56
(g72
g58
NtRp1324
(dp1325
g61
(dp1326
sg70
g859
sg63
(lp1327
g56
(g77
g58
NtRp1328
(dp1329
g61
(dp1330
g81
g82
ssg70
g1324
sg63
(lp1331
S'script_name'
p1332
asbag56
(g77
g58
NtRp1333
(dp1334
g61
(dp1335
g88
g89
ssg70
g1324
sg63
(lp1336
S':'
asbag56
(g77
g58
NtRp1337
(dp1338
g61
(dp1339
sg70
g1324
sg63
(lp1340
g56
(g57
g58
NtRp1341
(dp1342
g61
(dp1343
g69
I4
ssg70
g1337
sg63
(lp1344
S''
asbasbasbag56
(g72
g58
NtRp1345
(dp1346
g61
(dp1347
sg70
g859
sg63
(lp1348
g56
(g77
g58
NtRp1349
(dp1350
g61
(dp1351
g81
g82
ssg70
g1345
sg63
(lp1352
S'server_name'
p1353
asbag56
(g77
g58
NtRp1354
(dp1355
g61
(dp1356
g88
g89
ssg70
g1345
sg63
(lp1357
S':'
asbag56
(g77
g58
NtRp1358
(dp1359
g61
(dp1360
sg70
g1345
sg63
(lp1361
g56
(g57
g58
NtRp1362
(dp1363
g61
(dp1364
g69
I4
ssg70
g1358
sg63
(lp1365
S'jose'
p1366
asbasbasbag56
(g72
g58
NtRp1367
(dp1368
g61
(dp1369
sg70
g859
sg63
(lp1370
g56
(g77
g58
NtRp1371
(dp1372
g61
(dp1373
g81
g82
ssg70
g1367
sg63
(lp1374
S'server_port'
p1375
asbag56
(g77
g58
NtRp1376
(dp1377
g61
(dp1378
g88
g89
ssg70
g1367
sg63
(lp1379
S':'
asbag56
(g77
g58
NtRp1380
(dp1381
g61
(dp1382
sg70
g1367
sg63
(lp1383
g56
(g57
g58
NtRp1384
(dp1385
g61
(dp1386
g69
I4
ssg70
g1380
sg63
(lp1387
S'8000'
p1388
asbasbasbag56
(g72
g58
NtRp1389
(dp1390
g61
(dp1391
sg70
g859
sg63
(lp1392
g56
(g77
g58
NtRp1393
(dp1394
g61
(dp1395
g81
g82
ssg70
g1389
sg63
(lp1396
S'server_protocol'
p1397
asbag56
(g77
g58
NtRp1398
(dp1399
g61
(dp1400
g88
g89
ssg70
g1389
sg63
(lp1401
S':'
asbag56
(g77
g58
NtRp1402
(dp1403
g61
(dp1404
sg70
g1389
sg63
(lp1405
g56
(g57
g58
NtRp1406
(dp1407
g61
(dp1408
g69
I4
ssg70
g1402
sg63
(lp1409
S'HTTP/1.1'
p1410
asbasbasbag56
(g72
g58
NtRp1411
(dp1412
g61
(dp1413
sg70
g859
sg63
(lp1414
g56
(g77
g58
NtRp1415
(dp1416
g61
(dp1417
g81
g82
ssg70
g1411
sg63
(lp1418
S'server_software'
p1419
asbag56
(g77
g58
NtRp1420
(dp1421
g61
(dp1422
g88
g89
ssg70
g1411
sg63
(lp1423
S':'
asbag56
(g77
g58
NtRp1424
(dp1425
g61
(dp1426
sg70
g1411
sg63
(lp1427
g56
(g57
g58
NtRp1428
(dp1429
g61
(dp1430
g69
I4
ssg70
g1424
sg63
(lp1431
S'Rocket 1.2.4'
p1432
asbasbasbag56
(g72
g58
NtRp1433
(dp1434
g61
(dp1435
sg70
g859
sg63
(lp1436
g56
(g77
g58
NtRp1437
(dp1438
g61
(dp1439
g81
g82
ssg70
g1433
sg63
(lp1440
S'web2py_crontype'
p1441
asbag56
(g77
g58
NtRp1442
(dp1443
g61
(dp1444
g88
g89
ssg70
g1433
sg63
(lp1445
S':'
asbag56
(g77
g58
NtRp1446
(dp1447
g61
(dp1448
sg70
g1433
sg63
(lp1449
g56
(g57
g58
NtRp1450
(dp1451
g61
(dp1452
g69
I4
ssg70
g1446
sg63
(lp1453
S'hard'
p1454
asbasbasbag56
(g72
g58
NtRp1455
(dp1456
g61
(dp1457
sg70
g859
sg63
(lp1458
g56
(g77
g58
NtRp1459
(dp1460
g61
(dp1461
g81
g82
ssg70
g1455
sg63
(lp1462
S'web2py_path'
p1463
asbag56
(g77
g58
NtRp1464
(dp1465
g61
(dp1466
g88
g89
ssg70
g1455
sg63
(lp1467
S':'
asbag56
(g77
g58
NtRp1468
(dp1469
g61
(dp1470
sg70
g1455
sg63
(lp1471
g56
(g57
g58
NtRp1472
(dp1473
g61
(dp1474
g69
I4
ssg70
g1468
sg63
(lp1475
g906
asbasbasbag56
(g72
g58
NtRp1476
(dp1477
g61
(dp1478
sg70
g859
sg63
(lp1479
g56
(g77
g58
NtRp1480
(dp1481
g61
(dp1482
g81
g82
ssg70
g1476
sg63
(lp1483
S'web2py_version'
p1484
asbag56
(g77
g58
NtRp1485
(dp1486
g61
(dp1487
g88
g89
ssg70
g1476
sg63
(lp1488
S':'
asbag56
(g77
g58
NtRp1489
(dp1490
g61
(dp1491
sg70
g1476
sg63
(lp1492
g56
(g57
g58
NtRp1493
(dp1494
g61
(dp1495
g69
I4
ssg70
g1489
sg63
(lp1496
g56
(g65
g58
NtRp1497
(dp1498
g61
(dp1499
g69
I3
ssg70
Nsg63
(lp1500
g56
(g72
g58
NtRp1501
(dp1502
g61
(dp1503
sg70
g1497
sg63
(lp1504
g56
(g77
g58
NtRp1505
(dp1506
g61
(dp1507
sg70
g1501
sg63
(lp1508
g56
(g57
g58
NtRp1509
(dp1510
g61
(dp1511
g69
I3
ssg70
g1505
sg63
(lp1512
S'1'
asbasbasbag56
(g72
g58
NtRp1513
(dp1514
g61
(dp1515
sg70
g1497
sg63
(lp1516
g56
(g77
g58
NtRp1517
(dp1518
g61
(dp1519
sg70
g1513
sg63
(lp1520
g56
(g57
g58
NtRp1521
(dp1522
g61
(dp1523
g69
I3
ssg70
g1517
sg63
(lp1524
S'99'
p1525
asbasbasbag56
(g72
g58
NtRp1526
(dp1527
g61
(dp1528
sg70
g1497
sg63
(lp1529
g56
(g77
g58
NtRp1530
(dp1531
g61
(dp1532
sg70
g1526
sg63
(lp1533
g56
(g57
g58
NtRp1534
(dp1535
g61
(dp1536
g69
I3
ssg70
g1530
sg63
(lp1537
S'2'
asbasbasbag56
(g72
g58
NtRp1538
(dp1539
g61
(dp1540
sg70
g1497
sg63
(lp1541
g56
(g77
g58
NtRp1542
(dp1543
g61
(dp1544
sg70
g1538
sg63
(lp1545
g56
(g57
g58
NtRp1546
(dp1547
g61
(dp1548
g69
I3
ssg70
g1542
sg63
(lp1549
S'datetime.datetime(2011, 9, 26, 6, 55, 33)'
p1550
asbasbasbag56
(g72
g58
NtRp1551
(dp1552
g61
(dp1553
sg70
g1497
sg63
(lp1554
g56
(g77
g58
NtRp1555
(dp1556
g61
(dp1557
sg70
g1551
sg63
(lp1558
g56
(g57
g58
NtRp1559
(dp1560
g61
(dp1561
g69
I3
ssg70
g1555
sg63
(lp1562
S'stable'
p1563
asbasbasbasbasbasbasbag56
(g72
g58
NtRp1564
(dp1565
g61
(dp1566
sg70
g859
sg63
(lp1567
g56
(g77
g58
NtRp1568
(dp1569
g61
(dp1570
g81
g82
ssg70
g1564
sg63
(lp1571
S'wsgi_errors'
p1572
asbag56
(g77
g58
NtRp1573
(dp1574
g61
(dp1575
g88
g89
ssg70
g1564
sg63
(lp1576
S':'
asbag56
(g77
g58
NtRp1577
(dp1578
g61
(dp1579
sg70
g1564
sg63
(lp1580
g56
(g57
g58
NtRp1581
(dp1582
g61
(dp1583
g69
I4
ssg70
g1577
sg63
(lp1584
S"<open file '<stderr>', mode 'w' at 0x7f84db3ff270>"
p1585
asbasbasbag56
(g72
g58
NtRp1586
(dp1587
g61
(dp1588
sg70
g859
sg63
(lp1589
g56
(g77
g58
NtRp1590
(dp1591
g61
(dp1592
g81
g82
ssg70
g1586
sg63
(lp1593
S'wsgi_file_wrapper'
p1594
asbag56
(g77
g58
NtRp1595
(dp1596
g61
(dp1597
g88
g89
ssg70
g1586
sg63
(lp1598
S':'
asbag56
(g77
g58
NtRp1599
(dp1600
g61
(dp1601
sg70
g1586
sg63
(lp1602
g56
(g57
g58
NtRp1603
(dp1604
g61
(dp1605
g69
I4
ssg70
g1599
sg63
(lp1606
S'<class wsgiref.util.FileWrapper at 0x1b96d50>'
p1607
asbasbasbag56
(g72
g58
NtRp1608
(dp1609
g61
(dp1610
sg70
g859
sg63
(lp1611
g56
(g77
g58
NtRp1612
(dp1613
g61
(dp1614
g81
g82
ssg70
g1608
sg63
(lp1615
S'wsgi_input'
p1616
asbag56
(g77
g58
NtRp1617
(dp1618
g61
(dp1619
g88
g89
ssg70
g1608
sg63
(lp1620
S':'
asbag56
(g77
g58
NtRp1621
(dp1622
g61
(dp1623
sg70
g1608
sg63
(lp1624
g56
(g57
g58
NtRp1625
(dp1626
g61
(dp1627
g69
I4
ssg70
g1621
sg63
(lp1628
S'<socket._fileobject object at 0x3f14550>'
p1629
asbasbasbag56
(g72
g58
NtRp1630
(dp1631
g61
(dp1632
sg70
g859
sg63
(lp1633
g56
(g77
g58
NtRp1634
(dp1635
g61
(dp1636
g81
g82
ssg70
g1630
sg63
(lp1637
S'wsgi_multiprocess'
p1638
asbag56
(g77
g58
NtRp1639
(dp1640
g61
(dp1641
g88
g89
ssg70
g1630
sg63
(lp1642
S':'
asbag56
(g77
g58
NtRp1643
(dp1644
g61
(dp1645
sg70
g1630
sg63
(lp1646
g56
(g57
g58
NtRp1647
(dp1648
g61
(dp1649
g69
I4
ssg70
g1643
sg63
(lp1650
g99
asbasbasbag56
(g72
g58
NtRp1651
(dp1652
g61
(dp1653
sg70
g859
sg63
(lp1654
g56
(g77
g58
NtRp1655
(dp1656
g61
(dp1657
g81
g82
ssg70
g1651
sg63
(lp1658
S'wsgi_multithread'
p1659
asbag56
(g77
g58
NtRp1660
(dp1661
g61
(dp1662
g88
g89
ssg70
g1651
sg63
(lp1663
S':'
asbag56
(g77
g58
NtRp1664
(dp1665
g61
(dp1666
sg70
g1651
sg63
(lp1667
g56
(g57
g58
NtRp1668
(dp1669
g61
(dp1670
g69
I4
ssg70
g1664
sg63
(lp1671
S'True'
p1672
asbasbasbag56
(g72
g58
NtRp1673
(dp1674
g61
(dp1675
sg70
g859
sg63
(lp1676
g56
(g77
g58
NtRp1677
(dp1678
g61
(dp1679
g81
g82
ssg70
g1673
sg63
(lp1680
S'wsgi_run_once'
p1681
asbag56
(g77
g58
NtRp1682
(dp1683
g61
(dp1684
g88
g89
ssg70
g1673
sg63
(lp1685
S':'
asbag56
(g77
g58
NtRp1686
(dp1687
g61
(dp1688
sg70
g1673
sg63
(lp1689
g56
(g57
g58
NtRp1690
(dp1691
g61
(dp1692
g69
I4
ssg70
g1686
sg63
(lp1693
g99
asbasbasbag56
(g72
g58
NtRp1694
(dp1695
g61
(dp1696
sg70
g859
sg63
(lp1697
g56
(g77
g58
NtRp1698
(dp1699
g61
(dp1700
g81
g82
ssg70
g1694
sg63
(lp1701
S'wsgi_url_scheme'
p1702
asbag56
(g77
g58
NtRp1703
(dp1704
g61
(dp1705
g88
g89
ssg70
g1694
sg63
(lp1706
S':'
asbag56
(g77
g58
NtRp1707
(dp1708
g61
(dp1709
sg70
g1694
sg63
(lp1710
g56
(g57
g58
NtRp1711
(dp1712
g61
(dp1713
g69
I4
ssg70
g1707
sg63
(lp1714
S'http'
p1715
asbasbasbag56
(g72
g58
NtRp1716
(dp1717
g61
(dp1718
sg70
g859
sg63
(lp1719
g56
(g77
g58
NtRp1720
(dp1721
g61
(dp1722
g81
g82
ssg70
g1716
sg63
(lp1723
S'wsgi_version'
p1724
asbag56
(g77
g58
NtRp1725
(dp1726
g61
(dp1727
g88
g89
ssg70
g1716
sg63
(lp1728
S':'
asbag56
(g77
g58
NtRp1729
(dp1730
g61
(dp1731
sg70
g1716
sg63
(lp1732
g56
(g57
g58
NtRp1733
(dp1734
g61
(dp1735
g69
I4
ssg70
g1729
sg63
(lp1736
g56
(g65
g58
NtRp1737
(dp1738
g61
(dp1739
g69
I3
ssg70
Nsg63
(lp1740
g56
(g72
g58
NtRp1741
(dp1742
g61
(dp1743
sg70
g1737
sg63
(lp1744
g56
(g77
g58
NtRp1745
(dp1746
g61
(dp1747
sg70
g1741
sg63
(lp1748
g56
(g57
g58
NtRp1749
(dp1750
g61
(dp1751
g69
I3
ssg70
g1745
sg63
(lp1752
S'1'
asbasbasbag56
(g72
g58
NtRp1753
(dp1754
g61
(dp1755
sg70
g1737
sg63
(lp1756
g56
(g77
g58
NtRp1757
(dp1758
g61
(dp1759
sg70
g1753
sg63
(lp1760
g56
(g57
g58
NtRp1761
(dp1762
g61
(dp1763
g69
I3
ssg70
g1757
sg63
(lp1764
S'0'
asbasbasbasbasbasbasbasbasbasbasbag56
(g72
g58
NtRp1765
(dp1766
g61
(dp1767
sg70
g66
sg63
(lp1768
g56
(g77
g58
NtRp1769
(dp1770
g61
(dp1771
g81
g82
ssg70
g1765
sg63
(lp1772
S'extension'
p1773
asbag56
(g77
g58
NtRp1774
(dp1775
g61
(dp1776
g88
g89
ssg70
g1765
sg63
(lp1777
S':'
asbag56
(g77
g58
NtRp1778
(dp1779
g61
(dp1780
sg70
g1765
sg63
(lp1781
g56
(g57
g58
NtRp1782
(dp1783
g61
(dp1784
g69
I5
ssg70
g1778
sg63
(lp1785
S'html'
p1786
asbasbasbag56
(g72
g58
NtRp1787
(dp1788
g61
(dp1789
sg70
g66
sg63
(lp1790
g56
(g77
g58
NtRp1791
(dp1792
g61
(dp1793
g81
g82
ssg70
g1787
sg63
(lp1794
S'folder'
p1795
asbag56
(g77
g58
NtRp1796
(dp1797
g61
(dp1798
g88
g89
ssg70
g1787
sg63
(lp1799
S':'
asbag56
(g77
g58
NtRp1800
(dp1801
g61
(dp1802
sg70
g1787
sg63
(lp1803
g56
(g57
g58
NtRp1804
(dp1805
g61
(dp1806
g69
I5
ssg70
g1800
sg63
(lp1807
S'/home/jose/DESARROLLO/web2py199/applications/streamlog/'
p1808
asbasbasbag56
(g72
g58
NtRp1809
(dp1810
g61
(dp1811
sg70
g66
sg63
(lp1812
g56
(g77
g58
NtRp1813
(dp1814
g61
(dp1815
g81
g82
ssg70
g1809
sg63
(lp1816
S'function'
p1817
asbag56
(g77
g58
NtRp1818
(dp1819
g61
(dp1820
g88
g89
ssg70
g1809
sg63
(lp1821
S':'
asbag56
(g77
g58
NtRp1822
(dp1823
g61
(dp1824
sg70
g1809
sg63
(lp1825
g56
(g57
g58
NtRp1826
(dp1827
g61
(dp1828
g69
I5
ssg70
g1822
sg63
(lp1829
S'call'
p1830
asbasbasbag56
(g72
g58
NtRp1831
(dp1832
g61
(dp1833
sg70
g66
sg63
(lp1834
g56
(g77
g58
NtRp1835
(dp1836
g61
(dp1837
g81
g82
ssg70
g1831
sg63
(lp1838
S'get_vars'
p1839
asbag56
(g77
g58
NtRp1840
(dp1841
g61
(dp1842
g88
g89
ssg70
g1831
sg63
(lp1843
S':'
asbag56
(g77
g58
NtRp1844
(dp1845
g61
(dp1846
sg70
g1831
sg63
(lp1847
g56
(g57
g58
NtRp1848
(dp1849
g61
(dp1850
g69
I5
ssg70
g1844
sg63
(lp1851
g56
(g65
g58
NtRp1852
(dp1853
g61
(dp1854
g69
I4
ssg70
Nsg63
(lp1855
sbasbasbasbag56
(g72
g58
NtRp1856
(dp1857
g61
(dp1858
sg70
g66
sg63
(lp1859
g56
(g77
g58
NtRp1860
(dp1861
g61
(dp1862
g81
g82
ssg70
g1856
sg63
(lp1863
S'global_settings'
p1864
asbag56
(g77
g58
NtRp1865
(dp1866
g61
(dp1867
g88
g89
ssg70
g1856
sg63
(lp1868
S':'
asbag56
(g77
g58
NtRp1869
(dp1870
g61
(dp1871
sg70
g1856
sg63
(lp1872
g56
(g57
g58
NtRp1873
(dp1874
g61
(dp1875
g69
I5
ssg70
g1869
sg63
(lp1876
g56
(g65
g58
NtRp1877
(dp1878
g61
(dp1879
g69
I4
ssg70
Nsg63
(lp1880
g56
(g72
g58
NtRp1881
(dp1882
g61
(dp1883
sg70
g1877
sg63
(lp1884
g56
(g77
g58
NtRp1885
(dp1886
g61
(dp1887
g81
g82
ssg70
g1881
sg63
(lp1888
g871
asbag56
(g77
g58
NtRp1889
(dp1890
g61
(dp1891
g88
g89
ssg70
g1881
sg63
(lp1892
S':'
asbag56
(g77
g58
NtRp1893
(dp1894
g61
(dp1895
sg70
g1881
sg63
(lp1896
g56
(g57
g58
NtRp1897
(dp1898
g61
(dp1899
g69
I4
ssg70
g1893
sg63
(lp1900
S"set(['/home/jose/DESARROLLO/web2py199/applications/streamlog/', '/home/jose/DESARROLLO/web2py199/applications/admin/'])"
p1901
asbasbasbag56
(g72
g58
NtRp1902
(dp1903
g61
(dp1904
sg70
g1877
sg63
(lp1905
g56
(g77
g58
NtRp1906
(dp1907
g61
(dp1908
g81
g82
ssg70
g1902
sg63
(lp1909
g893
asbag56
(g77
g58
NtRp1910
(dp1911
g61
(dp1912
g88
g89
ssg70
g1902
sg63
(lp1913
S':'
asbag56
(g77
g58
NtRp1914
(dp1915
g61
(dp1916
sg70
g1902
sg63
(lp1917
g56
(g57
g58
NtRp1918
(dp1919
g61
(dp1920
g69
I4
ssg70
g1914
sg63
(lp1921
g906
asbasbasbag56
(g72
g58
NtRp1922
(dp1923
g61
(dp1924
sg70
g1877
sg63
(lp1925
g56
(g77
g58
NtRp1926
(dp1927
g61
(dp1928
g81
g82
ssg70
g1922
sg63
(lp1929
g915
asbag56
(g77
g58
NtRp1930
(dp1931
g61
(dp1932
g88
g89
ssg70
g1922
sg63
(lp1933
S':'
asbag56
(g77
g58
NtRp1934
(dp1935
g61
(dp1936
sg70
g1922
sg63
(lp1937
g56
(g57
g58
NtRp1938
(dp1939
g61
(dp1940
g69
I4
ssg70
g1934
sg63
(lp1941
g56
(g65
g58
NtRp1942
(dp1943
g61
(dp1944
g69
I3
ssg70
Nsg63
(lp1945
sbasbasbasbag56
(g72
g58
NtRp1946
(dp1947
g61
(dp1948
sg70
g1877
sg63
(lp1949
g56
(g77
g58
NtRp1950
(dp1951
g61
(dp1952
g81
g82
ssg70
g1946
sg63
(lp1953
g940
asbag56
(g77
g58
NtRp1954
(dp1955
g61
(dp1956
g88
g89
ssg70
g1946
sg63
(lp1957
S':'
asbag56
(g77
g58
NtRp1958
(dp1959
g61
(dp1960
sg70
g1946
sg63
(lp1961
g56
(g57
g58
NtRp1962
(dp1963
g61
(dp1964
g69
I4
ssg70
g1958
sg63
(lp1965
S"<Values at 0x1c79f80: {'verbose': False, 'ip': '127.0.0.1', 'shutdown_timeout': 5, 'taskbar': False, 'nocron': False, 'pid_filename': 'httpserver.pid', 'maxthreads': None, 'softcron': False, 'server_name': 'jose', 'bpython': False, 'nogui': False, 'port': 8000, 'extcron': False, 'debuglevel': 30, 'test': None, 'folder': '/home/jose/DESARROLLO/web2py199', 'config': '', 'import_models': False, 'winservice': '', 'shell': None, 'run': '', 'log_filename': 'httpserver.log', 'args': [''], 'ssl_ca_certificate': None, 'scheduler': None, 'profiler_filename': None, 'ssl_private_key': '', 'password': 't', 'request_queue_size': 5, 'ssl_certificate': '', 'cronjob': False, 'plain': False, 'quiet': False, 'interfaces': None, 'minthreads': None, 'timeout': 10, 'numthreads': None, 'nobanner': False}>"
p1966
asbasbasbag56
(g72
g58
NtRp1967
(dp1968
g61
(dp1969
sg70
g1877
sg63
(lp1970
g56
(g77
g58
NtRp1971
(dp1972
g61
(dp1973
g81
g82
ssg70
g1967
sg63
(lp1974
g962
asbag56
(g77
g58
NtRp1975
(dp1976
g61
(dp1977
g88
g89
ssg70
g1967
sg63
(lp1978
S':'
asbag56
(g77
g58
NtRp1979
(dp1980
g61
(dp1981
sg70
g1967
sg63
(lp1982
g56
(g57
g58
NtRp1983
(dp1984
g61
(dp1985
g69
I4
ssg70
g1979
sg63
(lp1986
S'set([])'
p1987
asbasbasbag56
(g72
g58
NtRp1988
(dp1989
g61
(dp1990
sg70
g1877
sg63
(lp1991
g56
(g77
g58
NtRp1992
(dp1993
g61
(dp1994
g81
g82
ssg70
g1988
sg63
(lp1995
g984
asbag56
(g77
g58
NtRp1996
(dp1997
g61
(dp1998
g88
g89
ssg70
g1988
sg63
(lp1999
S':'
asbag56
(g77
g58
NtRp2000
(dp2001
g61
(dp2002
sg70
g1988
sg63
(lp2003
g56
(g57
g58
NtRp2004
(dp2005
g61
(dp2006
g69
I4
ssg70
g2000
sg63
(lp2007
g99
asbasbasbag56
(g72
g58
NtRp2008
(dp2009
g61
(dp2010
sg70
g1877
sg63
(lp2011
g56
(g77
g58
NtRp2012
(dp2013
g61
(dp2014
g81
g82
ssg70
g2008
sg63
(lp2015
g1005
asbag56
(g77
g58
NtRp2016
(dp2017
g61
(dp2018
g88
g89
ssg70
g2008
sg63
(lp2019
S':'
asbag56
(g77
g58
NtRp2020
(dp2021
g61
(dp2022
sg70
g2008
sg63
(lp2023
g56
(g57
g58
NtRp2024
(dp2025
g61
(dp2026
g69
I4
ssg70
g2020
sg63
(lp2027
g1018
asbasbasbag56
(g72
g58
NtRp2028
(dp2029
g61
(dp2030
sg70
g1877
sg63
(lp2031
g56
(g77
g58
NtRp2032
(dp2033
g61
(dp2034
g81
g82
ssg70
g2028
sg63
(lp2035
g1203
asbag56
(g77
g58
NtRp2036
(dp2037
g61
(dp2038
g88
g89
ssg70
g2028
sg63
(lp2039
S':'
asbag56
(g77
g58
NtRp2040
(dp2041
g61
(dp2042
sg70
g2028
sg63
(lp2043
g56
(g57
g58
NtRp2044
(dp2045
g61
(dp2046
g69
I4
ssg70
g2040
sg63
(lp2047
g99
asbasbasbag56
(g72
g58
NtRp2048
(dp2049
g61
(dp2050
sg70
g1877
sg63
(lp2051
g56
(g77
g58
NtRp2052
(dp2053
g61
(dp2054
g81
g82
ssg70
g2048
sg63
(lp2055
g1441
asbag56
(g77
g58
NtRp2056
(dp2057
g61
(dp2058
g88
g89
ssg70
g2048
sg63
(lp2059
S':'
asbag56
(g77
g58
NtRp2060
(dp2061
g61
(dp2062
sg70
g2048
sg63
(lp2063
g56
(g57
g58
NtRp2064
(dp2065
g61
(dp2066
g69
I4
ssg70
g2060
sg63
(lp2067
g1454
asbasbasbag56
(g72
g58
NtRp2068
(dp2069
g61
(dp2070
sg70
g1877
sg63
(lp2071
g56
(g77
g58
NtRp2072
(dp2073
g61
(dp2074
g81
g82
ssg70
g2068
sg63
(lp2075
g1484
asbag56
(g77
g58
NtRp2076
(dp2077
g61
(dp2078
g88
g89
ssg70
g2068
sg63
(lp2079
S':'
asbag56
(g77
g58
NtRp2080
(dp2081
g61
(dp2082
sg70
g2068
sg63
(lp2083
g56
(g57
g58
NtRp2084
(dp2085
g61
(dp2086
g69
I4
ssg70
g2080
sg63
(lp2087
g56
(g65
g58
NtRp2088
(dp2089
g61
(dp2090
g69
I3
ssg70
Nsg63
(lp2091
g56
(g72
g58
NtRp2092
(dp2093
g61
(dp2094
sg70
g2088
sg63
(lp2095
g56
(g77
g58
NtRp2096
(dp2097
g61
(dp2098
sg70
g2092
sg63
(lp2099
g56
(g57
g58
NtRp2100
(dp2101
g61
(dp2102
g69
I3
ssg70
g2096
sg63
(lp2103
S'1'
asbasbasbag56
(g72
g58
NtRp2104
(dp2105
g61
(dp2106
sg70
g2088
sg63
(lp2107
g56
(g77
g58
NtRp2108
(dp2109
g61
(dp2110
sg70
g2104
sg63
(lp2111
g56
(g57
g58
NtRp2112
(dp2113
g61
(dp2114
g69
I3
ssg70
g2108
sg63
(lp2115
S'99'
p2116
asbasbasbag56
(g72
g58
NtRp2117
(dp2118
g61
(dp2119
sg70
g2088
sg63
(lp2120
g56
(g77
g58
NtRp2121
(dp2122
g61
(dp2123
sg70
g2117
sg63
(lp2124
g56
(g57
g58
NtRp2125
(dp2126
g61
(dp2127
g69
I3
ssg70
g2121
sg63
(lp2128
S'2'
asbasbasbag56
(g72
g58
NtRp2129
(dp2130
g61
(dp2131
sg70
g2088
sg63
(lp2132
g56
(g77
g58
NtRp2133
(dp2134
g61
(dp2135
sg70
g2129
sg63
(lp2136
g56
(g57
g58
NtRp2137
(dp2138
g61
(dp2139
g69
I3
ssg70
g2133
sg63
(lp2140
S'datetime.datetime(2011, 9, 26, 6, 55, 33)'
p2141
asbasbasbag56
(g72
g58
NtRp2142
(dp2143
g61
(dp2144
sg70
g2088
sg63
(lp2145
g56
(g77
g58
NtRp2146
(dp2147
g61
(dp2148
sg70
g2142
sg63
(lp2149
g56
(g57
g58
NtRp2150
(dp2151
g61
(dp2152
g69
I3
ssg70
g2146
sg63
(lp2153
g1563
asbasbasbasbasbasbasbasbasbasbasbag56
(g72
g58
NtRp2154
(dp2155
g61
(dp2156
sg70
g66
sg63
(lp2157
g56
(g77
g58
NtRp2158
(dp2159
g61
(dp2160
g81
g82
ssg70
g2154
sg63
(lp2161
S'is_https'
p2162
asbag56
(g77
g58
NtRp2163
(dp2164
g61
(dp2165
g88
g89
ssg70
g2154
sg63
(lp2166
S':'
asbag56
(g77
g58
NtRp2167
(dp2168
g61
(dp2169
sg70
g2154
sg63
(lp2170
g56
(g57
g58
NtRp2171
(dp2172
g61
(dp2173
g69
I5
ssg70
g2167
sg63
(lp2174
g99
asbasbasbag56
(g72
g58
NtRp2175
(dp2176
g61
(dp2177
sg70
g66
sg63
(lp2178
g56
(g77
g58
NtRp2179
(dp2180
g61
(dp2181
g81
g82
ssg70
g2175
sg63
(lp2182
S'is_local'
p2183
asbag56
(g77
g58
NtRp2184
(dp2185
g61
(dp2186
g88
g89
ssg70
g2175
sg63
(lp2187
S':'
asbag56
(g77
g58
NtRp2188
(dp2189
g61
(dp2190
sg70
g2175
sg63
(lp2191
g56
(g57
g58
NtRp2192
(dp2193
g61
(dp2194
g69
I5
ssg70
g2188
sg63
(lp2195
g1672
asbasbasbag56
(g72
g58
NtRp2196
(dp2197
g61
(dp2198
sg70
g66
sg63
(lp2199
g56
(g77
g58
NtRp2200
(dp2201
g61
(dp2202
g81
g82
ssg70
g2196
sg63
(lp2203
S'is_restful'
p2204
asbag56
(g77
g58
NtRp2205
(dp2206
g61
(dp2207
g88
g89
ssg70
g2196
sg63
(lp2208
S':'
asbag56
(g77
g58
NtRp2209
(dp2210
g61
(dp2211
sg70
g2196
sg63
(lp2212
g56
(g57
g58
NtRp2213
(dp2214
g61
(dp2215
g69
I5
ssg70
g2209
sg63
(lp2216
g99
asbasbasbag56
(g72
g58
NtRp2217
(dp2218
g61
(dp2219
sg70
g66
sg63
(lp2220
g56
(g77
g58
NtRp2221
(dp2222
g61
(dp2223
g81
g82
ssg70
g2217
sg63
(lp2224
S'now'
p2225
asbag56
(g77
g58
NtRp2226
(dp2227
g61
(dp2228
g88
g89
ssg70
g2217
sg63
(lp2229
S':'
asbag56
(g77
g58
NtRp2230
(dp2231
g61
(dp2232
sg70
g2217
sg63
(lp2233
g56
(g57
g58
NtRp2234
(dp2235
g61
(dp2236
g69
I5
ssg70
g2230
sg63
(lp2237
S'datetime.datetime(2012, 5, 26, 21, 32, 33, 628657)'
p2238
asbasbasbag56
(g72
g58
NtRp2239
(dp2240
g61
(dp2241
sg70
g66
sg63
(lp2242
g56
(g77
g58
NtRp2243
(dp2244
g61
(dp2245
g81
g82
ssg70
g2239
sg63
(lp2246
S'post_vars'
p2247
asbag56
(g77
g58
NtRp2248
(dp2249
g61
(dp2250
g88
g89
ssg70
g2239
sg63
(lp2251
S':'
asbag56
(g77
g58
NtRp2252
(dp2253
g61
(dp2254
sg70
g2239
sg63
(lp2255
g56
(g57
g58
NtRp2256
(dp2257
g61
(dp2258
g69
I5
ssg70
g2252
sg63
(lp2259
g56
(g65
g58
NtRp2260
(dp2261
g61
(dp2262
g69
I4
ssg70
Nsg63
(lp2263
sbasbasbasbag56
(g72
g58
NtRp2264
(dp2265
g61
(dp2266
sg70
g66
sg63
(lp2267
g56
(g77
g58
NtRp2268
(dp2269
g61
(dp2270
g81
g82
ssg70
g2264
sg63
(lp2271
S'raw_args'
p2272
asbag56
(g77
g58
NtRp2273
(dp2274
g61
(dp2275
g88
g89
ssg70
g2264
sg63
(lp2276
S':'
asbag56
(g77
g58
NtRp2277
(dp2278
g61
(dp2279
sg70
g2264
sg63
(lp2280
g56
(g57
g58
NtRp2281
(dp2282
g61
(dp2283
g69
I5
ssg70
g2277
sg63
(lp2284
S'json/getConnectionData/2'
p2285
asbasbasbag56
(g72
g58
NtRp2286
(dp2287
g61
(dp2288
sg70
g66
sg63
(lp2289
g56
(g77
g58
NtRp2290
(dp2291
g61
(dp2292
g81
g82
ssg70
g2286
sg63
(lp2293
S'url'
p2294
asbag56
(g77
g58
NtRp2295
(dp2296
g61
(dp2297
g88
g89
ssg70
g2286
sg63
(lp2298
S':'
asbag56
(g77
g58
NtRp2299
(dp2300
g61
(dp2301
sg70
g2286
sg63
(lp2302
g56
(g57
g58
NtRp2303
(dp2304
g61
(dp2305
g69
I5
ssg70
g2299
sg63
(lp2306
S'/streamlog/default/call/json/getConnectionData/2'
p2307
asbasbasbag56
(g72
g58
NtRp2308
(dp2309
g61
(dp2310
sg70
g66
sg63
(lp2311
g56
(g77
g58
NtRp2312
(dp2313
g61
(dp2314
g81
g82
ssg70
g2308
sg63
(lp2315
S'utcnow'
p2316
asbag56
(g77
g58
NtRp2317
(dp2318
g61
(dp2319
g88
g89
ssg70
g2308
sg63
(lp2320
S':'
asbag56
(g77
g58
NtRp2321
(dp2322
g61
(dp2323
sg70
g2308
sg63
(lp2324
g56
(g57
g58
NtRp2325
(dp2326
g61
(dp2327
g69
I5
ssg70
g2321
sg63
(lp2328
S'datetime.datetime(2012, 5, 26, 14, 32, 33, 628718)'
p2329
asbasbasbag56
(g72
g58
NtRp2330
(dp2331
g61
(dp2332
sg70
g66
sg63
(lp2333
g56
(g77
g58
NtRp2334
(dp2335
g61
(dp2336
g81
g82
ssg70
g2330
sg63
(lp2337
S'uuid'
p2338
asbag56
(g77
g58
NtRp2339
(dp2340
g61
(dp2341
g88
g89
ssg70
g2330
sg63
(lp2342
S':'
asbag56
(g77
g58
NtRp2343
(dp2344
g61
(dp2345
sg70
g2330
sg63
(lp2346
g56
(g57
g58
NtRp2347
(dp2348
g61
(dp2349
g69
I5
ssg70
g2343
sg63
(lp2350
S'streamlog/127.0.0.1.2012-05-26.21-32-33.8bfc09f4-6445-4a7a-9228-70168375a45b'
p2351
asbasbasbag56
(g72
g58
NtRp2352
(dp2353
g61
(dp2354
sg70
g66
sg63
(lp2355
g56
(g77
g58
NtRp2356
(dp2357
g61
(dp2358
g81
g82
ssg70
g2352
sg63
(lp2359
S'vars'
p2360
asbag56
(g77
g58
NtRp2361
(dp2362
g61
(dp2363
g88
g89
ssg70
g2352
sg63
(lp2364
S':'
asbag56
(g77
g58
NtRp2365
(dp2366
g61
(dp2367
sg70
g2352
sg63
(lp2368
g56
(g57
g58
NtRp2369
(dp2370
g61
(dp2371
g69
I5
ssg70
g2365
sg63
(lp2372
g56
(g65
g58
NtRp2373
(dp2374
g61
(dp2375
g69
I4
ssg70
Nsg63
(lp2376
sbasbasbasbag56
(g72
g58
NtRp2377
(dp2378
g61
(dp2379
sg70
g66
sg63
(lp2380
g56
(g77
g58
NtRp2381
(dp2382
g61
(dp2383
g81
g82
ssg70
g2377
sg63
(lp2384
S'wsgi'
p2385
asbag56
(g77
g58
NtRp2386
(dp2387
g61
(dp2388
g88
g89
ssg70
g2377
sg63
(lp2389
S':'
asbag56
(g77
g58
NtRp2390
(dp2391
g61
(dp2392
sg70
g2377
sg63
(lp2393
g56
(g57
g58
NtRp2394
(dp2395
g61
(dp2396
g69
I5
ssg70
g2390
sg63
(lp2397
g56
(g65
g58
NtRp2398
(dp2399
g61
(dp2400
g69
I4
ssg70
Nsg63
(lp2401
g56
(g72
g58
NtRp2402
(dp2403
g61
(dp2404
sg70
g2398
sg63
(lp2405
g56
(g77
g58
NtRp2406
(dp2407
g61
(dp2408
g81
g82
ssg70
g2402
sg63
(lp2409
S'environ'
p2410
asbag56
(g77
g58
NtRp2411
(dp2412
g61
(dp2413
g88
g89
ssg70
g2402
sg63
(lp2414
S':'
asbag56
(g77
g58
NtRp2415
(dp2416
g61
(dp2417
sg70
g2402
sg63
(lp2418
g56
(g57
g58
NtRp2419
(dp2420
g61
(dp2421
g69
I4
ssg70
g2415
sg63
(lp2422
g56
(g65
g58
NtRp2423
(dp2424
g61
(dp2425
g69
I3
ssg70
Nsg63
(lp2426
g56
(g72
g58
NtRp2427
(dp2428
g61
(dp2429
sg70
g2423
sg63
(lp2430
g56
(g77
g58
NtRp2431
(dp2432
g61
(dp2433
g81
g82
ssg70
g2427
sg63
(lp2434
S'HTTP_ACCEPT'
p2435
asbag56
(g77
g58
NtRp2436
(dp2437
g61
(dp2438
g88
g89
ssg70
g2427
sg63
(lp2439
S':'
asbag56
(g77
g58
NtRp2440
(dp2441
g61
(dp2442
sg70
g2427
sg63
(lp2443
g56
(g57
g58
NtRp2444
(dp2445
g61
(dp2446
g69
I3
ssg70
g2440
sg63
(lp2447
g1040
asbasbasbag56
(g72
g58
NtRp2448
(dp2449
g61
(dp2450
sg70
g2423
sg63
(lp2451
g56
(g77
g58
NtRp2452
(dp2453
g61
(dp2454
g81
g82
ssg70
g2448
sg63
(lp2455
S'HTTP_ACCEPT_ENCODING'
p2456
asbag56
(g77
g58
NtRp2457
(dp2458
g61
(dp2459
g88
g89
ssg70
g2448
sg63
(lp2460
S':'
asbag56
(g77
g58
NtRp2461
(dp2462
g61
(dp2463
sg70
g2448
sg63
(lp2464
g56
(g57
g58
NtRp2465
(dp2466
g61
(dp2467
g69
I3
ssg70
g2461
sg63
(lp2468
g1062
asbasbasbag56
(g72
g58
NtRp2469
(dp2470
g61
(dp2471
sg70
g2423
sg63
(lp2472
g56
(g77
g58
NtRp2473
(dp2474
g61
(dp2475
g81
g82
ssg70
g2469
sg63
(lp2476
S'HTTP_ACCEPT_LANGUAGE'
p2477
asbag56
(g77
g58
NtRp2478
(dp2479
g61
(dp2480
g88
g89
ssg70
g2469
sg63
(lp2481
S':'
asbag56
(g77
g58
NtRp2482
(dp2483
g61
(dp2484
sg70
g2469
sg63
(lp2485
g56
(g57
g58
NtRp2486
(dp2487
g61
(dp2488
g69
I3
ssg70
g2482
sg63
(lp2489
g1084
asbasbasbag56
(g72
g58
NtRp2490
(dp2491
g61
(dp2492
sg70
g2423
sg63
(lp2493
g56
(g77
g58
NtRp2494
(dp2495
g61
(dp2496
g81
g82
ssg70
g2490
sg63
(lp2497
S'HTTP_CACHE_CONTROL'
p2498
asbag56
(g77
g58
NtRp2499
(dp2500
g61
(dp2501
g88
g89
ssg70
g2490
sg63
(lp2502
S':'
asbag56
(g77
g58
NtRp2503
(dp2504
g61
(dp2505
sg70
g2490
sg63
(lp2506
g56
(g57
g58
NtRp2507
(dp2508
g61
(dp2509
g69
I3
ssg70
g2503
sg63
(lp2510
g1106
asbasbasbag56
(g72
g58
NtRp2511
(dp2512
g61
(dp2513
sg70
g2423
sg63
(lp2514
g56
(g77
g58
NtRp2515
(dp2516
g61
(dp2517
g81
g82
ssg70
g2511
sg63
(lp2518
S'HTTP_CONNECTION'
p2519
asbag56
(g77
g58
NtRp2520
(dp2521
g61
(dp2522
g88
g89
ssg70
g2511
sg63
(lp2523
S':'
asbag56
(g77
g58
NtRp2524
(dp2525
g61
(dp2526
sg70
g2511
sg63
(lp2527
g56
(g57
g58
NtRp2528
(dp2529
g61
(dp2530
g69
I3
ssg70
g2524
sg63
(lp2531
g1128
asbasbasbag56
(g72
g58
NtRp2532
(dp2533
g61
(dp2534
sg70
g2423
sg63
(lp2535
g56
(g77
g58
NtRp2536
(dp2537
g61
(dp2538
g81
g82
ssg70
g2532
sg63
(lp2539
S'HTTP_COOKIE'
p2540
asbag56
(g77
g58
NtRp2541
(dp2542
g61
(dp2543
g88
g89
ssg70
g2532
sg63
(lp2544
S':'
asbag56
(g77
g58
NtRp2545
(dp2546
g61
(dp2547
sg70
g2532
sg63
(lp2548
g56
(g57
g58
NtRp2549
(dp2550
g61
(dp2551
g69
I3
ssg70
g2545
sg63
(lp2552
g1150
asbasbasbag56
(g72
g58
NtRp2553
(dp2554
g61
(dp2555
sg70
g2423
sg63
(lp2556
g56
(g77
g58
NtRp2557
(dp2558
g61
(dp2559
g81
g82
ssg70
g2553
sg63
(lp2560
S'HTTP_HOST'
p2561
asbag56
(g77
g58
NtRp2562
(dp2563
g61
(dp2564
g88
g89
ssg70
g2553
sg63
(lp2565
S':'
asbag56
(g77
g58
NtRp2566
(dp2567
g61
(dp2568
sg70
g2553
sg63
(lp2569
g56
(g57
g58
NtRp2570
(dp2571
g61
(dp2572
g69
I3
ssg70
g2566
sg63
(lp2573
g1172
asbasbasbag56
(g72
g58
NtRp2574
(dp2575
g61
(dp2576
sg70
g2423
sg63
(lp2577
g56
(g77
g58
NtRp2578
(dp2579
g61
(dp2580
g81
g82
ssg70
g2574
sg63
(lp2581
S'HTTP_USER_AGENT'
p2582
asbag56
(g77
g58
NtRp2583
(dp2584
g61
(dp2585
g88
g89
ssg70
g2574
sg63
(lp2586
S':'
asbag56
(g77
g58
NtRp2587
(dp2588
g61
(dp2589
sg70
g2574
sg63
(lp2590
g56
(g57
g58
NtRp2591
(dp2592
g61
(dp2593
g69
I3
ssg70
g2587
sg63
(lp2594
g1194
asbasbasbag56
(g72
g58
NtRp2595
(dp2596
g61
(dp2597
sg70
g2423
sg63
(lp2598
g56
(g77
g58
NtRp2599
(dp2600
g61
(dp2601
g81
g82
ssg70
g2595
sg63
(lp2602
S'PATH_INFO'
p2603
asbag56
(g77
g58
NtRp2604
(dp2605
g61
(dp2606
g88
g89
ssg70
g2595
sg63
(lp2607
S':'
asbag56
(g77
g58
NtRp2608
(dp2609
g61
(dp2610
sg70
g2595
sg63
(lp2611
g56
(g57
g58
NtRp2612
(dp2613
g61
(dp2614
g69
I3
ssg70
g2608
sg63
(lp2615
g1237
asbasbasbag56
(g72
g58
NtRp2616
(dp2617
g61
(dp2618
sg70
g2423
sg63
(lp2619
g56
(g77
g58
NtRp2620
(dp2621
g61
(dp2622
g81
g82
ssg70
g2616
sg63
(lp2623
S'QUERY_STRING'
p2624
asbag56
(g77
g58
NtRp2625
(dp2626
g61
(dp2627
g88
g89
ssg70
g2616
sg63
(lp2628
S':'
asbag56
(g77
g58
NtRp2629
(dp2630
g61
(dp2631
sg70
g2616
sg63
(lp2632
g56
(g57
g58
NtRp2633
(dp2634
g61
(dp2635
g69
I3
ssg70
g2629
sg63
(lp2636
S''
asbasbasbag56
(g72
g58
NtRp2637
(dp2638
g61
(dp2639
sg70
g2423
sg63
(lp2640
g56
(g77
g58
NtRp2641
(dp2642
g61
(dp2643
g81
g82
ssg70
g2637
sg63
(lp2644
S'REMOTE_ADDR'
p2645
asbag56
(g77
g58
NtRp2646
(dp2647
g61
(dp2648
g88
g89
ssg70
g2637
sg63
(lp2649
S':'
asbag56
(g77
g58
NtRp2650
(dp2651
g61
(dp2652
sg70
g2637
sg63
(lp2653
g56
(g57
g58
NtRp2654
(dp2655
g61
(dp2656
g69
I3
ssg70
g2650
sg63
(lp2657
g227
asbasbasbag56
(g72
g58
NtRp2658
(dp2659
g61
(dp2660
sg70
g2423
sg63
(lp2661
g56
(g77
g58
NtRp2662
(dp2663
g61
(dp2664
g81
g82
ssg70
g2658
sg63
(lp2665
S'REMOTE_PORT'
p2666
asbag56
(g77
g58
NtRp2667
(dp2668
g61
(dp2669
g88
g89
ssg70
g2658
sg63
(lp2670
S':'
asbag56
(g77
g58
NtRp2671
(dp2672
g61
(dp2673
sg70
g2658
sg63
(lp2674
g56
(g57
g58
NtRp2675
(dp2676
g61
(dp2677
g69
I3
ssg70
g2671
sg63
(lp2678
g1301
asbasbasbag56
(g72
g58
NtRp2679
(dp2680
g61
(dp2681
sg70
g2423
sg63
(lp2682
g56
(g77
g58
NtRp2683
(dp2684
g61
(dp2685
g81
g82
ssg70
g2679
sg63
(lp2686
S'REQUEST_METHOD'
p2687
asbag56
(g77
g58
NtRp2688
(dp2689
g61
(dp2690
g88
g89
ssg70
g2679
sg63
(lp2691
S':'
asbag56
(g77
g58
NtRp2692
(dp2693
g61
(dp2694
sg70
g2679
sg63
(lp2695
g56
(g57
g58
NtRp2696
(dp2697
g61
(dp2698
g69
I3
ssg70
g2692
sg63
(lp2699
g1323
asbasbasbag56
(g72
g58
NtRp2700
(dp2701
g61
(dp2702
sg70
g2423
sg63
(lp2703
g56
(g77
g58
NtRp2704
(dp2705
g61
(dp2706
g81
g82
ssg70
g2700
sg63
(lp2707
S'SCRIPT_NAME'
p2708
asbag56
(g77
g58
NtRp2709
(dp2710
g61
(dp2711
g88
g89
ssg70
g2700
sg63
(lp2712
S':'
asbag56
(g77
g58
NtRp2713
(dp2714
g61
(dp2715
sg70
g2700
sg63
(lp2716
g56
(g57
g58
NtRp2717
(dp2718
g61
(dp2719
g69
I3
ssg70
g2713
sg63
(lp2720
S''
asbasbasbag56
(g72
g58
NtRp2721
(dp2722
g61
(dp2723
sg70
g2423
sg63
(lp2724
g56
(g77
g58
NtRp2725
(dp2726
g61
(dp2727
g81
g82
ssg70
g2721
sg63
(lp2728
S'SERVER_NAME'
p2729
asbag56
(g77
g58
NtRp2730
(dp2731
g61
(dp2732
g88
g89
ssg70
g2721
sg63
(lp2733
S':'
asbag56
(g77
g58
NtRp2734
(dp2735
g61
(dp2736
sg70
g2721
sg63
(lp2737
g56
(g57
g58
NtRp2738
(dp2739
g61
(dp2740
g69
I3
ssg70
g2734
sg63
(lp2741
g1366
asbasbasbag56
(g72
g58
NtRp2742
(dp2743
g61
(dp2744
sg70
g2423
sg63
(lp2745
g56
(g77
g58
NtRp2746
(dp2747
g61
(dp2748
g81
g82
ssg70
g2742
sg63
(lp2749
S'SERVER_PORT'
p2750
asbag56
(g77
g58
NtRp2751
(dp2752
g61
(dp2753
g88
g89
ssg70
g2742
sg63
(lp2754
S':'
asbag56
(g77
g58
NtRp2755
(dp2756
g61
(dp2757
sg70
g2742
sg63
(lp2758
g56
(g57
g58
NtRp2759
(dp2760
g61
(dp2761
g69
I3
ssg70
g2755
sg63
(lp2762
g1388
asbasbasbag56
(g72
g58
NtRp2763
(dp2764
g61
(dp2765
sg70
g2423
sg63
(lp2766
g56
(g77
g58
NtRp2767
(dp2768
g61
(dp2769
g81
g82
ssg70
g2763
sg63
(lp2770
S'SERVER_PROTOCOL'
p2771
asbag56
(g77
g58
NtRp2772
(dp2773
g61
(dp2774
g88
g89
ssg70
g2763
sg63
(lp2775
S':'
asbag56
(g77
g58
NtRp2776
(dp2777
g61
(dp2778
sg70
g2763
sg63
(lp2779
g56
(g57
g58
NtRp2780
(dp2781
g61
(dp2782
g69
I3
ssg70
g2776
sg63
(lp2783
g1410
asbasbasbag56
(g72
g58
NtRp2784
(dp2785
g61
(dp2786
sg70
g2423
sg63
(lp2787
g56
(g77
g58
NtRp2788
(dp2789
g61
(dp2790
g81
g82
ssg70
g2784
sg63
(lp2791
S'SERVER_SOFTWARE'
p2792
asbag56
(g77
g58
NtRp2793
(dp2794
g61
(dp2795
g88
g89
ssg70
g2784
sg63
(lp2796
S':'
asbag56
(g77
g58
NtRp2797
(dp2798
g61
(dp2799
sg70
g2784
sg63
(lp2800
g56
(g57
g58
NtRp2801
(dp2802
g61
(dp2803
g69
I3
ssg70
g2797
sg63
(lp2804
g1432
asbasbasbag56
(g72
g58
NtRp2805
(dp2806
g61
(dp2807
sg70
g2423
sg63
(lp2808
g56
(g77
g58
NtRp2809
(dp2810
g61
(dp2811
g81
g82
ssg70
g2805
sg63
(lp2812
S'wsgi.errors'
p2813
asbag56
(g77
g58
NtRp2814
(dp2815
g61
(dp2816
g88
g89
ssg70
g2805
sg63
(lp2817
S':'
asbag56
(g77
g58
NtRp2818
(dp2819
g61
(dp2820
sg70
g2805
sg63
(lp2821
g56
(g57
g58
NtRp2822
(dp2823
g61
(dp2824
g69
I3
ssg70
g2818
sg63
(lp2825
S"<open file '<stderr>', mode 'w' at 0x7f84db3ff270>"
p2826
asbasbasbag56
(g72
g58
NtRp2827
(dp2828
g61
(dp2829
sg70
g2423
sg63
(lp2830
g56
(g77
g58
NtRp2831
(dp2832
g61
(dp2833
g81
g82
ssg70
g2827
sg63
(lp2834
S'wsgi.file_wrapper'
p2835
asbag56
(g77
g58
NtRp2836
(dp2837
g61
(dp2838
g88
g89
ssg70
g2827
sg63
(lp2839
S':'
asbag56
(g77
g58
NtRp2840
(dp2841
g61
(dp2842
sg70
g2827
sg63
(lp2843
g56
(g57
g58
NtRp2844
(dp2845
g61
(dp2846
g69
I3
ssg70
g2840
sg63
(lp2847
S'<class wsgiref.util.FileWrapper at 0x1b96d50>'
p2848
asbasbasbag56
(g72
g58
NtRp2849
(dp2850
g61
(dp2851
sg70
g2423
sg63
(lp2852
g56
(g77
g58
NtRp2853
(dp2854
g61
(dp2855
g81
g82
ssg70
g2849
sg63
(lp2856
S'wsgi.input'
p2857
asbag56
(g77
g58
NtRp2858
(dp2859
g61
(dp2860
g88
g89
ssg70
g2849
sg63
(lp2861
S':'
asbag56
(g77
g58
NtRp2862
(dp2863
g61
(dp2864
sg70
g2849
sg63
(lp2865
g56
(g57
g58
NtRp2866
(dp2867
g61
(dp2868
g69
I3
ssg70
g2862
sg63
(lp2869
S'<cStringIO.StringO object at 0x39ccd88>'
p2870
asbasbasbag56
(g72
g58
NtRp2871
(dp2872
g61
(dp2873
sg70
g2423
sg63
(lp2874
g56
(g77
g58
NtRp2875
(dp2876
g61
(dp2877
g81
g82
ssg70
g2871
sg63
(lp2878
S'wsgi.multiprocess'
p2879
asbag56
(g77
g58
NtRp2880
(dp2881
g61
(dp2882
g88
g89
ssg70
g2871
sg63
(lp2883
S':'
asbag56
(g77
g58
NtRp2884
(dp2885
g61
(dp2886
sg70
g2871
sg63
(lp2887
g56
(g57
g58
NtRp2888
(dp2889
g61
(dp2890
g69
I3
ssg70
g2884
sg63
(lp2891
g99
asbasbasbag56
(g72
g58
NtRp2892
(dp2893
g61
(dp2894
sg70
g2423
sg63
(lp2895
g56
(g77
g58
NtRp2896
(dp2897
g61
(dp2898
g81
g82
ssg70
g2892
sg63
(lp2899
S'wsgi.multithread'
p2900
asbag56
(g77
g58
NtRp2901
(dp2902
g61
(dp2903
g88
g89
ssg70
g2892
sg63
(lp2904
S':'
asbag56
(g77
g58
NtRp2905
(dp2906
g61
(dp2907
sg70
g2892
sg63
(lp2908
g56
(g57
g58
NtRp2909
(dp2910
g61
(dp2911
g69
I3
ssg70
g2905
sg63
(lp2912
g1672
asbasbasbag56
(g72
g58
NtRp2913
(dp2914
g61
(dp2915
sg70
g2423
sg63
(lp2916
g56
(g77
g58
NtRp2917
(dp2918
g61
(dp2919
g81
g82
ssg70
g2913
sg63
(lp2920
S'wsgi.run_once'
p2921
asbag56
(g77
g58
NtRp2922
(dp2923
g61
(dp2924
g88
g89
ssg70
g2913
sg63
(lp2925
S':'
asbag56
(g77
g58
NtRp2926
(dp2927
g61
(dp2928
sg70
g2913
sg63
(lp2929
g56
(g57
g58
NtRp2930
(dp2931
g61
(dp2932
g69
I3
ssg70
g2926
sg63
(lp2933
g99
asbasbasbag56
(g72
g58
NtRp2934
(dp2935
g61
(dp2936
sg70
g2423
sg63
(lp2937
g56
(g77
g58
NtRp2938
(dp2939
g61
(dp2940
g81
g82
ssg70
g2934
sg63
(lp2941
S'wsgi.url_scheme'
p2942
asbag56
(g77
g58
NtRp2943
(dp2944
g61
(dp2945
g88
g89
ssg70
g2934
sg63
(lp2946
S':'
asbag56
(g77
g58
NtRp2947
(dp2948
g61
(dp2949
sg70
g2934
sg63
(lp2950
g56
(g57
g58
NtRp2951
(dp2952
g61
(dp2953
g69
I3
ssg70
g2947
sg63
(lp2954
g1715
asbasbasbag56
(g72
g58
NtRp2955
(dp2956
g61
(dp2957
sg70
g2423
sg63
(lp2958
g56
(g77
g58
NtRp2959
(dp2960
g61
(dp2961
g81
g82
ssg70
g2955
sg63
(lp2962
S'wsgi.version'
p2963
asbag56
(g77
g58
NtRp2964
(dp2965
g61
(dp2966
g88
g89
ssg70
g2955
sg63
(lp2967
S':'
asbag56
(g77
g58
NtRp2968
(dp2969
g61
(dp2970
sg70
g2955
sg63
(lp2971
g56
(g57
g58
NtRp2972
(dp2973
g61
(dp2974
g69
I3
ssg70
g2968
sg63
(lp2975
S'1'
asbasbasbasbasbasbasbasbasbasbasbasbasbsS'frames'
p2976
(lp2977
(dp2978
S'file'
p2979
S'/home/jose/DESARROLLO/web2py199/gluon/restricted.py'
p2980
sS'dump'
p2981
(dp2982
S'environment'
p2983
S"{'A': <class 'gluon.html.A'>, 'Auth': <class 'gluon.tools.Auth'>, 'B': <class 'gluon.html.B'>, 'BEAUTIFY': <class 'gluon.html.BEAUTIFY'>, 'BODY': <class 'gluon.html.BODY'>, 'BR': <class 'gluon.html.BR'>, 'BUTTON': <class 'gluon.html.BUTTON'>, 'CAT': <class 'gluon.html.CAT'>, 'CENTER': <class 'gluon.html.CENTER'>, 'CLEANUP': <class 'gluon.validators.CLEANUP'>, ...}"
p2984
sS'ccode'
p2985
S'<code object <module> at 0x2962430, file "/home/...tions/streamlog/controllers/default.py", line 14>'
p2986
ssS'lnum'
p2987
I194
sS'lines'
p2988
(dp2989
I192
S'        else:'
p2990
sI193
S'            ccode = compile2(code,layer)'
p2991
sI194
S'        exec ccode in environment'
p2992
sI195
S'    except HTTP:'
p2993
sI196
S'        raise'
p2994
sI197
S'    except Exception, error:'
p2995
sI198
S'        # XXX Show exception in Wing IDE if running in debugger'
p2996
sI189
S'    try:'
p2997
sI190
S'        if type(code) == types.CodeType:'
p2998
sI191
S'            ccode = code'
p2999
ssS'call'
p3000
S"(code='# -*- coding: utf-8 -*-\\n# this file is released ...m=crud())\\n\\nresponse._vars=response._caller(call)\\n', environment={'A': <class 'gluon.html.A'>, 'Auth': <class 'gluon.tools.Auth'>, 'B': <class 'gluon.html.B'>, 'BEAUTIFY': <class 'gluon.html.BEAUTIFY'>, 'BODY': <class 'gluon.html.BODY'>, 'BR': <class 'gluon.html.BR'>, 'BUTTON': <class 'gluon.html.BUTTON'>, 'CAT': <class 'gluon.html.CAT'>, 'CENTER': <class 'gluon.html.CENTER'>, 'CLEANUP': <class 'gluon.validators.CLEANUP'>, ...}, layer='/home/jose/DESARROLLO/web2py199/applications/streamlog/controllers/default.py')"
p3001
sS'func'
p3002
S'restricted'
p3003
sa(dp3004
g2979
S'/home/jose/DESARROLLO/web2py199/applications/streamlog/controllers/default.py'
p3005
sg2981
(dp3006
sg2987
I176
sg2988
(dp3007
I165
S'    http://..../[app]/default/data/update/[table]/[id]'
p3008
sI166
S'    http://..../[app]/default/data/delete/[table]/[id]'
p3009
sI167
S'    http://..../[app]/default/data/select/[table]'
p3010
sI168
S'    http://..../[app]/default/data/search/[table]'
p3011
sI169
S'    but URLs bust be signed, i.e. linked with'
p3012
sI170
S"      A('table',_href=URL('data/tables',user_signature=True))"
p3013
sI171
S'    or with the signed load operator'
p3014
sI172
S"      LOAD('default','data.load',args='tables',ajax=True,user_signature=True)"
p3015
sI173
S'    """'
p3016
sI174
S'    return dict(form=crud())'
p3017
ssg3000
S'()'
p3018
sg3002
S'<module>'
p3019
sa(dp3020
g2979
S'/home/jose/DESARROLLO/web2py199/gluon/globals.py'
p3021
sg2981
(dp3022
S'self'
p3023
S'undefined'
p3024
sS'f'
S'<function call>'
p3025
ssg2987
I149
sg2988
(dp3026
I144
S'        self.meta = Storage()      # used by web2py_ajax.html'
p3027
sI145
S'        self.menu = []             # used by the default view layout'
p3028
sI146
S'        self.files = []            # used by web2py_ajax.html'
p3029
sI147
S'        self.generic_patterns = [] # patterns to allow generic views'
p3030
sI148
S'        self._vars = None'
p3031
sI149
S'        self._caller = lambda f: f()'
p3032
sI150
S'        self._view_environment = None'
p3033
sI151
S'        self._custom_commit = None'
p3034
sI152
S'        self._custom_rollback = None'
p3035
sI153
S''
ssg3000
S'(f=<function call>)'
p3036
sg3002
S'<lambda>'
p3037
sa(dp3038
g2979
S'/home/jose/DESARROLLO/web2py199/applications/streamlog/controllers/default.py'
p3039
sg2981
(dp3040
S'global service'
p3041
S'<gluon.tools.Service object>'
p3042
ssg2987
I156
sg2988
(dp3043
I160
S'def data():'
p3044
sI151
S'    exposes services. for example:'
p3045
sI152
S'    http://..../[app]/default/call/jsonrpc'
p3046
sI153
S'    decorate with @services.jsonrpc the functions to expose'
p3047
sI154
S'    supports xml, json, xmlrpc, jsonrpc, amfrpc, rss, csv'
p3048
sI155
S'    """'
p3049
sI156
S'    return service()'
p3050
sI157
S''
sI158
S''
sI159
S'@auth.requires_signature()'
p3051
ssg3000
S'()'
p3052
sg3002
g3000
sa(dp3053
g2979
S'/home/jose/DESARROLLO/web2py199/gluon/tools.py'
p3054
sg2981
(dp3055
S'request.args'
p3056
S"['json', 'getConnectionData', '2']"
p3057
sS'self.serve_json'
p3058
S'<bound method Service.serve_json of <gluon.tools.Service object>>'
p3059
sS'self'
p3060
S'<gluon.tools.Service object>'
p3061
sS'request'
p3062
S"<Storage {'body': <cStringIO.StringO object at 0..._vars': <Storage {}>, 'post_vars': <Storage {}>}>"
p3063
ssg2987
I3839
sg2988
(dp3064
I3840
S"        elif arg0 == 'jsonrpc':"
p3065
sI3841
S'            return self.serve_jsonrpc()'
p3066
sI3842
S"        elif arg0 == 'xmlrpc':"
p3067
sI3843
S'            return self.serve_xmlrpc()'
p3068
sI3834
S"        elif arg0 == 'csv':"
p3069
sI3835
S'            return self.serve_csv(request.args[1:])'
p3070
sI3836
S"        elif arg0 == 'xml':"
p3071
sI3837
S'            return self.serve_xml(request.args[1:])'
p3072
sI3838
S"        elif arg0 == 'json':"
p3073
sI3839
S'            return self.serve_json(request.args[1:])'
p3074
ssg3000
S'(self=<gluon.tools.Service object>)'
p3075
sg3002
S'__call__'
p3076
sa(dp3077
g2979
S'/home/jose/DESARROLLO/web2py199/gluon/tools.py'
p3078
sg2981
(dp3079
S'args'
p3080
S"['getConnectionData', '2']"
p3081
sS'd'
g44
sS'self'
p3082
S'<gluon.tools.Service object>'
p3083
sS'global universal_caller'
p3084
S'<function universal_caller>'
p3085
sS'self.json_procedures'
p3086
S"{'getConnectionData': <function getConnectionData>}"
p3087
sS's'
g3024
ssg2987
I3656
sg2988
(dp3088
I3651
S"        response.headers['Content-Type'] = 'application/json; charset=utf-8'"
p3089
sI3652
S'        if not args:'
p3090
sI3653
S'            args = request.args'
p3091
sI3654
S'        d = dict(request.vars)'
p3092
sI3655
S'        if args and args[0] in self.json_procedures:'
p3093
sI3656
S'            s = universal_caller(self.json_procedures[args[0]],*args[1:],**d)'
p3094
sI3657
S"            if hasattr(s, 'as_list'):"
p3095
sI3658
S'                s = s.as_list()'
p3096
sI3659
S'            return response.json(s)'
p3097
sI3660
S'        self.error()'
p3098
ssg3000
S"(self=<gluon.tools.Service object>, args=['getConnectionData', '2'])"
p3099
sg3002
S'serve_json'
p3100
sa(dp3101
g2979
S'/home/jose/DESARROLLO/web2py199/gluon/tools.py'
p3102
sg2981
(dp3103
S'arg_dict'
p3104
g44
sS'f'
S'<function getConnectionData>'
p3105
ssg2987
I3348
sg2988
(dp3106
I3343
S'        # However, we need to update the arg_dict with the values from the named arguments as well.'
p3107
sI3344
S'        for arg_name in named_args:'
p3108
sI3345
S'            if b.has_key(arg_name):'
p3109
sI3346
S'                arg_dict[arg_name] = b[arg_name]'
p3110
sI3347
S''
sI3348
S'        return f(**arg_dict)'
p3111
sI3349
S''
sI3350
S'    # Raise an error, the function cannot be called.'
p3112
sI3351
S'    raise HTTP(404, "Object does not exist")'
p3113
sI3352
S''
ssg3000
S"(f=<function getConnectionData>, *a=('2',), **b={})"
p3114
sg3002
S'universal_caller'
p3115
sa(dp3116
g2979
S'/home/jose/DESARROLLO/web2py199/applications/streamlog/controllers/default.py'
p3117
sg2981
(dp3118
S'data_connection'
p3119
S'<gluon.dal.Query object>'
p3120
sS'row'
p3121
g3024
ssg2987
I33
sg2988
(dp3122
I32
S''
sI33
S'    for row in data_connection:'
p3123
sI34
S'        ip=row.IP'
p3124
sI35
S'        port=row.port'
p3125
sI36
S'        name_log=row.name'
p3126
sI37
S''
sI28
S"    port=''"
p3127
sI29
S"    name_log=''"
p3128
sI30
S''
sI31
S'    data_connection=(db.t_log.id==id_log)&(db.t_log.server==db.t_server.id)'
p3129
ssg3000
S'()'
p3130
sg3002
S'getConnectionData'
p3131
sasS'pyver'
p3132
S'Python 2.7.2+: /usr/bin/python'
p3133
sS'session'
p3134
g56
(g57
g58
NtRp3135
(dp3136
g61
(dp3137
sg63
(lp3138
g56
(g65
g58
NtRp3139
(dp3140
g61
(dp3141
g69
I5
ssg70
Nsg63
(lp3142
g56
(g72
g58
NtRp3143
(dp3144
g61
(dp3145
sg70
g3139
sg63
(lp3146
g56
(g77
g58
NtRp3147
(dp3148
g61
(dp3149
g81
g82
ssg70
g3143
sg63
(lp3150
S'auth'
p3151
asbag56
(g77
g58
NtRp3152
(dp3153
g61
(dp3154
g88
g89
ssg70
g3143
sg63
(lp3155
S':'
asbag56
(g77
g58
NtRp3156
(dp3157
g61
(dp3158
sg70
g3143
sg63
(lp3159
g56
(g57
g58
NtRp3160
(dp3161
g61
(dp3162
g69
I5
ssg70
g3156
sg63
(lp3163
g56
(g65
g58
NtRp3164
(dp3165
g61
(dp3166
g69
I4
ssg70
Nsg63
(lp3167
g56
(g72
g58
NtRp3168
(dp3169
g61
(dp3170
sg70
g3164
sg63
(lp3171
g56
(g77
g58
NtRp3172
(dp3173
g61
(dp3174
g81
g82
ssg70
g3168
sg63
(lp3175
S'expiration'
p3176
asbag56
(g77
g58
NtRp3177
(dp3178
g61
(dp3179
g88
g89
ssg70
g3168
sg63
(lp3180
S':'
asbag56
(g77
g58
NtRp3181
(dp3182
g61
(dp3183
sg70
g3168
sg63
(lp3184
g56
(g57
g58
NtRp3185
(dp3186
g61
(dp3187
g69
I4
ssg70
g3181
sg63
(lp3188
S'2592000'
p3189
asbasbasbag56
(g72
g58
NtRp3190
(dp3191
g61
(dp3192
sg70
g3164
sg63
(lp3193
g56
(g77
g58
NtRp3194
(dp3195
g61
(dp3196
g81
g82
ssg70
g3190
sg63
(lp3197
S'hmac_key'
p3198
asbag56
(g77
g58
NtRp3199
(dp3200
g61
(dp3201
g88
g89
ssg70
g3190
sg63
(lp3202
S':'
asbag56
(g77
g58
NtRp3203
(dp3204
g61
(dp3205
sg70
g3190
sg63
(lp3206
g56
(g57
g58
NtRp3207
(dp3208
g61
(dp3209
g69
I4
ssg70
g3203
sg63
(lp3210
S'b954f0e8-95b3-42d2-829e-2e50e94d8454'
p3211
asbasbasbag56
(g72
g58
NtRp3212
(dp3213
g61
(dp3214
sg70
g3164
sg63
(lp3215
g56
(g77
g58
NtRp3216
(dp3217
g61
(dp3218
g81
g82
ssg70
g3212
sg63
(lp3219
S'last_visit'
p3220
asbag56
(g77
g58
NtRp3221
(dp3222
g61
(dp3223
g88
g89
ssg70
g3212
sg63
(lp3224
S':'
asbag56
(g77
g58
NtRp3225
(dp3226
g61
(dp3227
sg70
g3212
sg63
(lp3228
g56
(g57
g58
NtRp3229
(dp3230
g61
(dp3231
g69
I4
ssg70
g3225
sg63
(lp3232
S'datetime.datetime(2012, 5, 26, 18, 42, 33, 844375)'
p3233
asbasbasbag56
(g72
g58
NtRp3234
(dp3235
g61
(dp3236
sg70
g3164
sg63
(lp3237
g56
(g77
g58
NtRp3238
(dp3239
g61
(dp3240
g81
g82
ssg70
g3234
sg63
(lp3241
S'remember'
p3242
asbag56
(g77
g58
NtRp3243
(dp3244
g61
(dp3245
g88
g89
ssg70
g3234
sg63
(lp3246
S':'
asbag56
(g77
g58
NtRp3247
(dp3248
g61
(dp3249
sg70
g3234
sg63
(lp3250
g56
(g57
g58
NtRp3251
(dp3252
g61
(dp3253
g69
I4
ssg70
g3247
sg63
(lp3254
g99
asbasbasbag56
(g72
g58
NtRp3255
(dp3256
g61
(dp3257
sg70
g3164
sg63
(lp3258
g56
(g77
g58
NtRp3259
(dp3260
g61
(dp3261
g81
g82
ssg70
g3255
sg63
(lp3262
S'user'
p3263
asbag56
(g77
g58
NtRp3264
(dp3265
g61
(dp3266
g88
g89
ssg70
g3255
sg63
(lp3267
S':'
asbag56
(g77
g58
NtRp3268
(dp3269
g61
(dp3270
sg70
g3255
sg63
(lp3271
g56
(g57
g58
NtRp3272
(dp3273
g61
(dp3274
g69
I4
ssg70
g3268
sg63
(lp3275
g56
(g65
g58
NtRp3276
(dp3277
g61
(dp3278
g69
I3
ssg70
Nsg63
(lp3279
g56
(g72
g58
NtRp3280
(dp3281
g61
(dp3282
sg70
g3276
sg63
(lp3283
g56
(g77
g58
NtRp3284
(dp3285
g61
(dp3286
g81
g82
ssg70
g3280
sg63
(lp3287
S'email'
p3288
asbag56
(g77
g58
NtRp3289
(dp3290
g61
(dp3291
g88
g89
ssg70
g3280
sg63
(lp3292
S':'
asbag56
(g77
g58
NtRp3293
(dp3294
g61
(dp3295
sg70
g3280
sg63
(lp3296
g56
(g57
g58
NtRp3297
(dp3298
g61
(dp3299
g69
I3
ssg70
g3293
sg63
(lp3300
S'josedesoto@gmail.com'
p3301
asbasbasbag56
(g72
g58
NtRp3302
(dp3303
g61
(dp3304
sg70
g3276
sg63
(lp3305
g56
(g77
g58
NtRp3306
(dp3307
g61
(dp3308
g81
g82
ssg70
g3302
sg63
(lp3309
S'first_name'
p3310
asbag56
(g77
g58
NtRp3311
(dp3312
g61
(dp3313
g88
g89
ssg70
g3302
sg63
(lp3314
S':'
asbag56
(g77
g58
NtRp3315
(dp3316
g61
(dp3317
sg70
g3302
sg63
(lp3318
g56
(g57
g58
NtRp3319
(dp3320
g61
(dp3321
g69
I3
ssg70
g3315
sg63
(lp3322
S'jose'
p3323
asbasbasbag56
(g72
g58
NtRp3324
(dp3325
g61
(dp3326
sg70
g3276
sg63
(lp3327
g56
(g77
g58
NtRp3328
(dp3329
g61
(dp3330
g81
g82
ssg70
g3324
sg63
(lp3331
S'id'
p3332
asbag56
(g77
g58
NtRp3333
(dp3334
g61
(dp3335
g88
g89
ssg70
g3324
sg63
(lp3336
S':'
asbag56
(g77
g58
NtRp3337
(dp3338
g61
(dp3339
sg70
g3324
sg63
(lp3340
g56
(g57
g58
NtRp3341
(dp3342
g61
(dp3343
g69
I3
ssg70
g3337
sg63
(lp3344
S'1'
asbasbasbag56
(g72
g58
NtRp3345
(dp3346
g61
(dp3347
sg70
g3276
sg63
(lp3348
g56
(g77
g58
NtRp3349
(dp3350
g61
(dp3351
g81
g82
ssg70
g3345
sg63
(lp3352
S'last_name'
p3353
asbag56
(g77
g58
NtRp3354
(dp3355
g61
(dp3356
g88
g89
ssg70
g3345
sg63
(lp3357
S':'
asbag56
(g77
g58
NtRp3358
(dp3359
g61
(dp3360
sg70
g3345
sg63
(lp3361
g56
(g57
g58
NtRp3362
(dp3363
g61
(dp3364
g69
I3
ssg70
g3358
sg63
(lp3365
S'jose'
p3366
asbasbasbag56
(g72
g58
NtRp3367
(dp3368
g61
(dp3369
sg70
g3276
sg63
(lp3370
g56
(g77
g58
NtRp3371
(dp3372
g61
(dp3373
g81
g82
ssg70
g3367
sg63
(lp3374
S'password'
p3375
asbag56
(g77
g58
NtRp3376
(dp3377
g61
(dp3378
g88
g89
ssg70
g3367
sg63
(lp3379
S':'
asbag56
(g77
g58
NtRp3380
(dp3381
g61
(dp3382
sg70
g3367
sg63
(lp3383
g56
(g57
g58
NtRp3384
(dp3385
g61
(dp3386
g69
I3
ssg70
g3380
sg63
(lp3387
S'2b32eaa2baa0c63b755a4cde1e4dda83'
p3388
asbasbasbag56
(g72
g58
NtRp3389
(dp3390
g61
(dp3391
sg70
g3276
sg63
(lp3392
g56
(g77
g58
NtRp3393
(dp3394
g61
(dp3395
g81
g82
ssg70
g3389
sg63
(lp3396
S'registration_key'
p3397
asbag56
(g77
g58
NtRp3398
(dp3399
g61
(dp3400
g88
g89
ssg70
g3389
sg63
(lp3401
S':'
asbag56
(g77
g58
NtRp3402
(dp3403
g61
(dp3404
sg70
g3389
sg63
(lp3405
g56
(g57
g58
NtRp3406
(dp3407
g61
(dp3408
g69
I3
ssg70
g3402
sg63
(lp3409
S''
asbasbasbag56
(g72
g58
NtRp3410
(dp3411
g61
(dp3412
sg70
g3276
sg63
(lp3413
g56
(g77
g58
NtRp3414
(dp3415
g61
(dp3416
g81
g82
ssg70
g3410
sg63
(lp3417
S'reset_password_key'
p3418
asbag56
(g77
g58
NtRp3419
(dp3420
g61
(dp3421
g88
g89
ssg70
g3410
sg63
(lp3422
S':'
asbag56
(g77
g58
NtRp3423
(dp3424
g61
(dp3425
sg70
g3410
sg63
(lp3426
g56
(g57
g58
NtRp3427
(dp3428
g61
(dp3429
g69
I3
ssg70
g3423
sg63
(lp3430
S''
asbasbasbasbasbasbasbasbasbasbasbag56
(g72
g58
NtRp3431
(dp3432
g61
(dp3433
sg70
g3139
sg63
(lp3434
g56
(g77
g58
NtRp3435
(dp3436
g61
(dp3437
g81
g82
ssg70
g3431
sg63
(lp3438
S'last_query'
p3439
asbag56
(g77
g58
NtRp3440
(dp3441
g61
(dp3442
g88
g89
ssg70
g3431
sg63
(lp3443
S':'
asbag56
(g77
g58
NtRp3444
(dp3445
g61
(dp3446
sg70
g3431
sg63
(lp3447
g56
(g57
g58
NtRp3448
(dp3449
g61
(dp3450
g69
I5
ssg70
g3444
sg63
(lp3451
S'db((db.t_log.id==1)&(db.t_log.type_log==db.t_type_log.id)).select(db.t_type_log.html_table)'
p3452
asbasbasbasbasbsS'etype'
p3453
S"<type 'exceptions.TypeError'>"
p3454
sS'date'
p3455
S'Sat May 26 21:32:33 2012'
p3456
sS'response'
p3457
g56
(g57
g58
NtRp3458
(dp3459
g61
(dp3460
sg63
(lp3461
g56
(g65
g58
NtRp3462
(dp3463
g61
(dp3464
g69
I5
ssg70
Nsg63
(lp3465
g56
(g72
g58
NtRp3466
(dp3467
g61
(dp3468
sg70
g3462
sg63
(lp3469
g56
(g77
g58
NtRp3470
(dp3471
g61
(dp3472
g81
g82
ssg70
g3466
sg63
(lp3473
g192
asbag56
(g77
g58
NtRp3474
(dp3475
g61
(dp3476
g88
g89
ssg70
g3466
sg63
(lp3477
S':'
asbag56
(g77
g58
NtRp3478
(dp3479
g61
(dp3480
sg70
g3466
sg63
(lp3481
g56
(g57
g58
NtRp3482
(dp3483
g61
(dp3484
g69
I5
ssg70
g3478
sg63
(lp3485
S'<cStringIO.StringO object at 0x39cc7a0>'
p3486
asbasbasbag56
(g72
g58
NtRp3487
(dp3488
g61
(dp3489
sg70
g3462
sg63
(lp3490
g56
(g77
g58
NtRp3491
(dp3492
g61
(dp3493
g81
g82
ssg70
g3487
sg63
(lp3494
g258
asbag56
(g77
g58
NtRp3495
(dp3496
g61
(dp3497
g88
g89
ssg70
g3487
sg63
(lp3498
S':'
asbag56
(g77
g58
NtRp3499
(dp3500
g61
(dp3501
sg70
g3487
sg63
(lp3502
g56
(g57
g58
NtRp3503
(dp3504
g61
(dp3505
g69
I5
ssg70
g3499
sg63
(lp3506
g56
(g65
g58
NtRp3507
(dp3508
g61
(dp3509
g69
I4
ssg70
Nsg63
(lp3510
g56
(g72
g58
NtRp3511
(dp3512
g61
(dp3513
sg70
g3507
sg63
(lp3514
g56
(g77
g58
NtRp3515
(dp3516
g61
(dp3517
g81
g82
ssg70
g3511
sg63
(lp3518
S'session_id_streamlog'
p3519
asbag56
(g77
g58
NtRp3520
(dp3521
g61
(dp3522
g88
g89
ssg70
g3511
sg63
(lp3523
S':'
asbag56
(g77
g58
NtRp3524
(dp3525
g61
(dp3526
sg70
g3511
sg63
(lp3527
g56
(g57
g58
NtRp3528
(dp3529
g61
(dp3530
g69
I4
ssg70
g3524
sg63
(lp3531
g56
(g65
g58
NtRp3532
(dp3533
g61
(dp3534
g69
I3
ssg70
Nsg63
(lp3535
g56
(g72
g58
NtRp3536
(dp3537
g61
(dp3538
sg70
g3532
sg63
(lp3539
g56
(g77
g58
NtRp3540
(dp3541
g61
(dp3542
g81
g82
ssg70
g3536
sg63
(lp3543
g308
asbag56
(g77
g58
NtRp3544
(dp3545
g61
(dp3546
g88
g89
ssg70
g3536
sg63
(lp3547
S':'
asbag56
(g77
g58
NtRp3548
(dp3549
g61
(dp3550
sg70
g3536
sg63
(lp3551
g56
(g57
g58
NtRp3552
(dp3553
g61
(dp3554
g69
I3
ssg70
g3548
sg63
(lp3555
S''
asbasbasbag56
(g72
g58
NtRp3556
(dp3557
g61
(dp3558
sg70
g3532
sg63
(lp3559
g56
(g77
g58
NtRp3560
(dp3561
g61
(dp3562
g81
g82
ssg70
g3556
sg63
(lp3563
g329
asbag56
(g77
g58
NtRp3564
(dp3565
g61
(dp3566
g88
g89
ssg70
g3556
sg63
(lp3567
S':'
asbag56
(g77
g58
NtRp3568
(dp3569
g61
(dp3570
sg70
g3556
sg63
(lp3571
g56
(g57
g58
NtRp3572
(dp3573
g61
(dp3574
g69
I3
ssg70
g3568
sg63
(lp3575
S''
asbasbasbag56
(g72
g58
NtRp3576
(dp3577
g61
(dp3578
sg70
g3532
sg63
(lp3579
g56
(g77
g58
NtRp3580
(dp3581
g61
(dp3582
g81
g82
ssg70
g3576
sg63
(lp3583
g350
asbag56
(g77
g58
NtRp3584
(dp3585
g61
(dp3586
g88
g89
ssg70
g3576
sg63
(lp3587
S':'
asbag56
(g77
g58
NtRp3588
(dp3589
g61
(dp3590
sg70
g3576
sg63
(lp3591
g56
(g57
g58
NtRp3592
(dp3593
g61
(dp3594
g69
I3
ssg70
g3588
sg63
(lp3595
S''
asbasbasbag56
(g72
g58
NtRp3596
(dp3597
g61
(dp3598
sg70
g3532
sg63
(lp3599
g56
(g77
g58
NtRp3600
(dp3601
g61
(dp3602
g81
g82
ssg70
g3596
sg63
(lp3603
g371
asbag56
(g77
g58
NtRp3604
(dp3605
g61
(dp3606
g88
g89
ssg70
g3596
sg63
(lp3607
S':'
asbag56
(g77
g58
NtRp3608
(dp3609
g61
(dp3610
sg70
g3596
sg63
(lp3611
g56
(g57
g58
NtRp3612
(dp3613
g61
(dp3614
g69
I3
ssg70
g3608
sg63
(lp3615
S''
asbasbasbag56
(g72
g58
NtRp3616
(dp3617
g61
(dp3618
sg70
g3532
sg63
(lp3619
g56
(g77
g58
NtRp3620
(dp3621
g61
(dp3622
g81
g82
ssg70
g3616
sg63
(lp3623
g392
asbag56
(g77
g58
NtRp3624
(dp3625
g61
(dp3626
g88
g89
ssg70
g3616
sg63
(lp3627
S':'
asbag56
(g77
g58
NtRp3628
(dp3629
g61
(dp3630
sg70
g3616
sg63
(lp3631
g56
(g57
g58
NtRp3632
(dp3633
g61
(dp3634
g69
I3
ssg70
g3628
sg63
(lp3635
S''
asbasbasbag56
(g72
g58
NtRp3636
(dp3637
g61
(dp3638
sg70
g3532
sg63
(lp3639
g56
(g77
g58
NtRp3640
(dp3641
g61
(dp3642
g81
g82
ssg70
g3636
sg63
(lp3643
g413
asbag56
(g77
g58
NtRp3644
(dp3645
g61
(dp3646
g88
g89
ssg70
g3636
sg63
(lp3647
S':'
asbag56
(g77
g58
NtRp3648
(dp3649
g61
(dp3650
sg70
g3636
sg63
(lp3651
g56
(g57
g58
NtRp3652
(dp3653
g61
(dp3654
g69
I3
ssg70
g3648
sg63
(lp3655
S'/'
asbasbasbag56
(g72
g58
NtRp3656
(dp3657
g61
(dp3658
sg70
g3532
sg63
(lp3659
g56
(g77
g58
NtRp3660
(dp3661
g61
(dp3662
g81
g82
ssg70
g3656
sg63
(lp3663
g434
asbag56
(g77
g58
NtRp3664
(dp3665
g61
(dp3666
g88
g89
ssg70
g3656
sg63
(lp3667
S':'
asbag56
(g77
g58
NtRp3668
(dp3669
g61
(dp3670
sg70
g3656
sg63
(lp3671
g56
(g57
g58
NtRp3672
(dp3673
g61
(dp3674
g69
I3
ssg70
g3668
sg63
(lp3675
S''
asbasbasbag56
(g72
g58
NtRp3676
(dp3677
g61
(dp3678
sg70
g3532
sg63
(lp3679
g56
(g77
g58
NtRp3680
(dp3681
g61
(dp3682
g81
g82
ssg70
g3676
sg63
(lp3683
g455
asbag56
(g77
g58
NtRp3684
(dp3685
g61
(dp3686
g88
g89
ssg70
g3676
sg63
(lp3687
S':'
asbag56
(g77
g58
NtRp3688
(dp3689
g61
(dp3690
sg70
g3676
sg63
(lp3691
g56
(g57
g58
NtRp3692
(dp3693
g61
(dp3694
g69
I3
ssg70
g3688
sg63
(lp3695
S''
asbasbasbasbasbasbasbasbasbasbasbag56
(g72
g58
NtRp3696
(dp3697
g61
(dp3698
sg70
g3462
sg63
(lp3699
g56
(g77
g58
NtRp3700
(dp3701
g61
(dp3702
g81
g82
ssg70
g3696
sg63
(lp3703
S'files'
p3704
asbag56
(g77
g58
NtRp3705
(dp3706
g61
(dp3707
g88
g89
ssg70
g3696
sg63
(lp3708
S':'
asbag56
(g77
g58
NtRp3709
(dp3710
g61
(dp3711
sg70
g3696
sg63
(lp3712
g56
(g57
g58
NtRp3713
(dp3714
g61
(dp3715
g69
I5
ssg70
g3709
sg63
(lp3716
g56
(g65
g58
NtRp3717
(dp3718
g61
(dp3719
g69
I4
ssg70
Nsg63
(lp3720
sbasbasbasbag56
(g72
g58
NtRp3721
(dp3722
g61
(dp3723
sg70
g3462
sg63
(lp3724
g56
(g77
g58
NtRp3725
(dp3726
g61
(dp3727
g81
g82
ssg70
g3721
sg63
(lp3728
S'flash'
p3729
asbag56
(g77
g58
NtRp3730
(dp3731
g61
(dp3732
g88
g89
ssg70
g3721
sg63
(lp3733
S':'
asbag56
(g77
g58
NtRp3734
(dp3735
g61
(dp3736
sg70
g3721
sg63
(lp3737
g56
(g57
g58
NtRp3738
(dp3739
g61
(dp3740
g69
I5
ssg70
g3734
sg63
(lp3741
S''
asbasbasbag56
(g72
g58
NtRp3742
(dp3743
g61
(dp3744
sg70
g3462
sg63
(lp3745
g56
(g77
g58
NtRp3746
(dp3747
g61
(dp3748
g81
g82
ssg70
g3742
sg63
(lp3749
S'generic_patterns'
p3750
asbag56
(g77
g58
NtRp3751
(dp3752
g61
(dp3753
g88
g89
ssg70
g3742
sg63
(lp3754
S':'
asbag56
(g77
g58
NtRp3755
(dp3756
g61
(dp3757
sg70
g3742
sg63
(lp3758
g56
(g57
g58
NtRp3759
(dp3760
g61
(dp3761
g69
I5
ssg70
g3755
sg63
(lp3762
g56
(g65
g58
NtRp3763
(dp3764
g61
(dp3765
g69
I4
ssg70
Nsg63
(lp3766
g56
(g72
g58
NtRp3767
(dp3768
g61
(dp3769
sg70
g3763
sg63
(lp3770
g56
(g77
g58
NtRp3771
(dp3772
g61
(dp3773
sg70
g3767
sg63
(lp3774
g56
(g57
g58
NtRp3775
(dp3776
g61
(dp3777
g69
I4
ssg70
g3771
sg63
(lp3778
S'*'
asbasbasbasbasbasbasbag56
(g72
g58
NtRp3779
(dp3780
g61
(dp3781
sg70
g3462
sg63
(lp3782
g56
(g77
g58
NtRp3783
(dp3784
g61
(dp3785
g81
g82
ssg70
g3779
sg63
(lp3786
S'headers'
p3787
asbag56
(g77
g58
NtRp3788
(dp3789
g61
(dp3790
g88
g89
ssg70
g3779
sg63
(lp3791
S':'
asbag56
(g77
g58
NtRp3792
(dp3793
g61
(dp3794
sg70
g3779
sg63
(lp3795
g56
(g57
g58
NtRp3796
(dp3797
g61
(dp3798
g69
I5
ssg70
g3792
sg63
(lp3799
g56
(g65
g58
NtRp3800
(dp3801
g61
(dp3802
g69
I4
ssg70
Nsg63
(lp3803
g56
(g72
g58
NtRp3804
(dp3805
g61
(dp3806
sg70
g3800
sg63
(lp3807
g56
(g77
g58
NtRp3808
(dp3809
g61
(dp3810
g81
g82
ssg70
g3804
sg63
(lp3811
S'Cache-Control'
p3812
asbag56
(g77
g58
NtRp3813
(dp3814
g61
(dp3815
g88
g89
ssg70
g3804
sg63
(lp3816
S':'
asbag56
(g77
g58
NtRp3817
(dp3818
g61
(dp3819
sg70
g3804
sg63
(lp3820
g56
(g57
g58
NtRp3821
(dp3822
g61
(dp3823
g69
I4
ssg70
g3817
sg63
(lp3824
S'no-store, no-cache, must-revalidate, post-check=0, pre-check=0'
p3825
asbasbasbag56
(g72
g58
NtRp3826
(dp3827
g61
(dp3828
sg70
g3800
sg63
(lp3829
g56
(g77
g58
NtRp3830
(dp3831
g61
(dp3832
g81
g82
ssg70
g3826
sg63
(lp3833
S'Content-Type'
p3834
asbag56
(g77
g58
NtRp3835
(dp3836
g61
(dp3837
g88
g89
ssg70
g3826
sg63
(lp3838
S':'
asbag56
(g77
g58
NtRp3839
(dp3840
g61
(dp3841
sg70
g3826
sg63
(lp3842
g56
(g57
g58
NtRp3843
(dp3844
g61
(dp3845
g69
I4
ssg70
g3839
sg63
(lp3846
S'application/json; charset=utf-8'
p3847
asbasbasbag56
(g72
g58
NtRp3848
(dp3849
g61
(dp3850
sg70
g3800
sg63
(lp3851
g56
(g77
g58
NtRp3852
(dp3853
g61
(dp3854
g81
g82
ssg70
g3848
sg63
(lp3855
S'Expires'
p3856
asbag56
(g77
g58
NtRp3857
(dp3858
g61
(dp3859
g88
g89
ssg70
g3848
sg63
(lp3860
S':'
asbag56
(g77
g58
NtRp3861
(dp3862
g61
(dp3863
sg70
g3848
sg63
(lp3864
g56
(g57
g58
NtRp3865
(dp3866
g61
(dp3867
g69
I4
ssg70
g3861
sg63
(lp3868
S'Sat, 26 May 2012 14:32:33 GMT'
p3869
asbasbasbag56
(g72
g58
NtRp3870
(dp3871
g61
(dp3872
sg70
g3800
sg63
(lp3873
g56
(g77
g58
NtRp3874
(dp3875
g61
(dp3876
g81
g82
ssg70
g3870
sg63
(lp3877
S'Pragma'
p3878
asbag56
(g77
g58
NtRp3879
(dp3880
g61
(dp3881
g88
g89
ssg70
g3870
sg63
(lp3882
S':'
asbag56
(g77
g58
NtRp3883
(dp3884
g61
(dp3885
sg70
g3870
sg63
(lp3886
g56
(g57
g58
NtRp3887
(dp3888
g61
(dp3889
g69
I4
ssg70
g3883
sg63
(lp3890
S'no-cache'
p3891
asbasbasbag56
(g72
g58
NtRp3892
(dp3893
g61
(dp3894
sg70
g3800
sg63
(lp3895
g56
(g77
g58
NtRp3896
(dp3897
g61
(dp3898
g81
g82
ssg70
g3892
sg63
(lp3899
S'X-Powered-By'
p3900
asbag56
(g77
g58
NtRp3901
(dp3902
g61
(dp3903
g88
g89
ssg70
g3892
sg63
(lp3904
S':'
asbag56
(g77
g58
NtRp3905
(dp3906
g61
(dp3907
sg70
g3892
sg63
(lp3908
g56
(g57
g58
NtRp3909
(dp3910
g61
(dp3911
g69
I4
ssg70
g3905
sg63
(lp3912
S'web2py'
p3913
asbasbasbasbasbasbasbag56
(g72
g58
NtRp3914
(dp3915
g61
(dp3916
sg70
g3462
sg63
(lp3917
g56
(g77
g58
NtRp3918
(dp3919
g61
(dp3920
g81
g82
ssg70
g3914
sg63
(lp3921
S'menu'
p3922
asbag56
(g77
g58
NtRp3923
(dp3924
g61
(dp3925
g88
g89
ssg70
g3914
sg63
(lp3926
S':'
asbag56
(g77
g58
NtRp3927
(dp3928
g61
(dp3929
sg70
g3914
sg63
(lp3930
g56
(g57
g58
NtRp3931
(dp3932
g61
(dp3933
g69
I5
ssg70
g3927
sg63
(lp3934
g56
(g65
g58
NtRp3935
(dp3936
g61
(dp3937
g69
I4
ssg70
Nsg63
(lp3938
g56
(g72
g58
NtRp3939
(dp3940
g61
(dp3941
sg70
g3935
sg63
(lp3942
g56
(g77
g58
NtRp3943
(dp3944
g61
(dp3945
sg70
g3939
sg63
(lp3946
g56
(g57
g58
NtRp3947
(dp3948
g61
(dp3949
g69
I4
ssg70
g3943
sg63
(lp3950
g56
(g65
g58
NtRp3951
(dp3952
g61
(dp3953
g69
I3
ssg70
Nsg63
(lp3954
g56
(g72
g58
NtRp3955
(dp3956
g61
(dp3957
sg70
g3951
sg63
(lp3958
g56
(g77
g58
NtRp3959
(dp3960
g61
(dp3961
sg70
g3955
sg63
(lp3962
g56
(g57
g58
NtRp3963
(dp3964
g61
(dp3965
g69
I3
ssg70
g3959
sg63
(lp3966
cgluon.languages
lazyT_unpickle
p3967
(S's\n\x00\x00\x00Clear Page'
tRp3968
asbasbasbag56
(g72
g58
NtRp3969
(dp3970
g61
(dp3971
sg70
g3951
sg63
(lp3972
g56
(g77
g58
NtRp3973
(dp3974
g61
(dp3975
sg70
g3969
sg63
(lp3976
g56
(g57
g58
NtRp3977
(dp3978
g61
(dp3979
g69
I3
ssg70
g3973
sg63
(lp3980
g99
asbasbasbag56
(g72
g58
NtRp3981
(dp3982
g61
(dp3983
sg70
g3951
sg63
(lp3984
g56
(g77
g58
NtRp3985
(dp3986
g61
(dp3987
sg70
g3981
sg63
(lp3988
g56
(g57
g58
NtRp3989
(dp3990
g61
(dp3991
g69
I3
ssg70
g3985
sg63
(lp3992
S'/streamlog/default/index'
p3993
asbasbasbag56
(g72
g58
NtRp3994
(dp3995
g61
(dp3996
sg70
g3951
sg63
(lp3997
g56
(g77
g58
NtRp3998
(dp3999
g61
(dp4000
sg70
g3994
sg63
(lp4001
g56
(g57
g58
NtRp4002
(dp4003
g61
(dp4004
g69
I3
ssg70
g3998
sg63
(lp4005
g56
(g65
g58
NtRp4006
(dp4007
g61
(dp4008
g69
I2
ssg70
Nsg63
(lp4009
sbasbasbasbasbasbasbasbag56
(g72
g58
NtRp4010
(dp4011
g61
(dp4012
sg70
g3935
sg63
(lp4013
g56
(g77
g58
NtRp4014
(dp4015
g61
(dp4016
sg70
g4010
sg63
(lp4017
g56
(g57
g58
NtRp4018
(dp4019
g61
(dp4020
g69
I4
ssg70
g4014
sg63
(lp4021
g56
(g65
g58
NtRp4022
(dp4023
g61
(dp4024
g69
I3
ssg70
Nsg63
(lp4025
g56
(g72
g58
NtRp4026
(dp4027
g61
(dp4028
sg70
g4022
sg63
(lp4029
g56
(g77
g58
NtRp4030
(dp4031
g61
(dp4032
sg70
g4026
sg63
(lp4033
g56
(g57
g58
NtRp4034
(dp4035
g61
(dp4036
g69
I3
ssg70
g4030
sg63
(lp4037
g3967
(S't\x06\x00\x00\x00Manage'
tRp4038
asbasbasbag56
(g72
g58
NtRp4039
(dp4040
g61
(dp4041
sg70
g4022
sg63
(lp4042
g56
(g77
g58
NtRp4043
(dp4044
g61
(dp4045
sg70
g4039
sg63
(lp4046
g56
(g57
g58
NtRp4047
(dp4048
g61
(dp4049
g69
I3
ssg70
g4043
sg63
(lp4050
g99
asbasbasbag56
(g72
g58
NtRp4051
(dp4052
g61
(dp4053
sg70
g4022
sg63
(lp4054
g56
(g77
g58
NtRp4055
(dp4056
g61
(dp4057
sg70
g4051
sg63
(lp4058
g56
(g57
g58
NtRp4059
(dp4060
g61
(dp4061
g69
I3
ssg70
g4055
sg63
(lp4062
S'None'
p4063
asbasbasbag56
(g72
g58
NtRp4064
(dp4065
g61
(dp4066
sg70
g4022
sg63
(lp4067
g56
(g77
g58
NtRp4068
(dp4069
g61
(dp4070
sg70
g4064
sg63
(lp4071
g56
(g57
g58
NtRp4072
(dp4073
g61
(dp4074
g69
I3
ssg70
g4068
sg63
(lp4075
g56
(g65
g58
NtRp4076
(dp4077
g61
(dp4078
g69
I2
ssg70
Nsg63
(lp4079
g56
(g72
g58
NtRp4080
(dp4081
g61
(dp4082
sg70
g4076
sg63
(lp4083
g56
(g77
g58
NtRp4084
(dp4085
g61
(dp4086
sg70
g4080
sg63
(lp4087
g56
(g57
g58
NtRp4088
(dp4089
g61
(dp4090
g69
I2
ssg70
g4084
sg63
(lp4091
g56
(g65
g58
NtRp4092
(dp4093
g61
(dp4094
g69
I1
ssg70
Nsg63
(lp4095
g56
(g72
g58
NtRp4096
(dp4097
g61
(dp4098
sg70
g4092
sg63
(lp4099
g56
(g77
g58
NtRp4100
(dp4101
g61
(dp4102
sg70
g4096
sg63
(lp4103
g56
(g57
g58
NtRp4104
(dp4105
g61
(dp4106
g69
I1
ssg70
g4100
sg63
(lp4107
g3967
(S't\x04\x00\x00\x00Logs'
tRp4108
asbasbasbag56
(g72
g58
NtRp4109
(dp4110
g61
(dp4111
sg70
g4092
sg63
(lp4112
g56
(g77
g58
NtRp4113
(dp4114
g61
(dp4115
sg70
g4109
sg63
(lp4116
g56
(g57
g58
NtRp4117
(dp4118
g61
(dp4119
g69
I1
ssg70
g4113
sg63
(lp4120
I00
asbasbasbag56
(g72
g58
NtRp4121
(dp4122
g61
(dp4123
sg70
g4092
sg63
(lp4124
g56
(g77
g58
NtRp4125
(dp4126
g61
(dp4127
sg70
g4121
sg63
(lp4128
g56
(g57
g58
NtRp4129
(dp4130
g61
(dp4131
g69
I1
ssg70
g4125
sg63
(lp4132
S'/streamlog/default/log_manage'
p4133
asbasbasbag56
(g72
g58
NtRp4134
(dp4135
g61
(dp4136
sg70
g4092
sg63
(lp4137
g56
(g77
g58
NtRp4138
(dp4139
g61
(dp4140
sg70
g4134
sg63
(lp4141
g56
(g57
g58
NtRp4142
(dp4143
g61
(dp4144
g69
I1
ssg70
g4138
sg63
(lp4145
(lp4146
asbasbasbasbasbasbasbag56
(g72
g58
NtRp4147
(dp4148
g61
(dp4149
sg70
g4076
sg63
(lp4150
g56
(g77
g58
NtRp4151
(dp4152
g61
(dp4153
sg70
g4147
sg63
(lp4154
g56
(g57
g58
NtRp4155
(dp4156
g61
(dp4157
g69
I2
ssg70
g4151
sg63
(lp4158
g56
(g65
g58
NtRp4159
(dp4160
g61
(dp4161
g69
I1
ssg70
Nsg63
(lp4162
g56
(g72
g58
NtRp4163
(dp4164
g61
(dp4165
sg70
g4159
sg63
(lp4166
g56
(g77
g58
NtRp4167
(dp4168
g61
(dp4169
sg70
g4163
sg63
(lp4170
g56
(g57
g58
NtRp4171
(dp4172
g61
(dp4173
g69
I1
ssg70
g4167
sg63
(lp4174
g3967
(S't\x07\x00\x00\x00Servers'
tRp4175
asbasbasbag56
(g72
g58
NtRp4176
(dp4177
g61
(dp4178
sg70
g4159
sg63
(lp4179
g56
(g77
g58
NtRp4180
(dp4181
g61
(dp4182
sg70
g4176
sg63
(lp4183
g56
(g57
g58
NtRp4184
(dp4185
g61
(dp4186
g69
I1
ssg70
g4180
sg63
(lp4187
I00
asbasbasbag56
(g72
g58
NtRp4188
(dp4189
g61
(dp4190
sg70
g4159
sg63
(lp4191
g56
(g77
g58
NtRp4192
(dp4193
g61
(dp4194
sg70
g4188
sg63
(lp4195
g56
(g57
g58
NtRp4196
(dp4197
g61
(dp4198
g69
I1
ssg70
g4192
sg63
(lp4199
S'/streamlog/default/server_manage'
p4200
asbasbasbag56
(g72
g58
NtRp4201
(dp4202
g61
(dp4203
sg70
g4159
sg63
(lp4204
g56
(g77
g58
NtRp4205
(dp4206
g61
(dp4207
sg70
g4201
sg63
(lp4208
g56
(g57
g58
NtRp4209
(dp4210
g61
(dp4211
g69
I1
ssg70
g4205
sg63
(lp4212
(lp4213
asbasbasbasbasbasbasbag56
(g72
g58
NtRp4214
(dp4215
g61
(dp4216
sg70
g4076
sg63
(lp4217
g56
(g77
g58
NtRp4218
(dp4219
g61
(dp4220
sg70
g4214
sg63
(lp4221
g56
(g57
g58
NtRp4222
(dp4223
g61
(dp4224
g69
I2
ssg70
g4218
sg63
(lp4225
g56
(g65
g58
NtRp4226
(dp4227
g61
(dp4228
g69
I1
ssg70
Nsg63
(lp4229
g56
(g72
g58
NtRp4230
(dp4231
g61
(dp4232
sg70
g4226
sg63
(lp4233
g56
(g77
g58
NtRp4234
(dp4235
g61
(dp4236
sg70
g4230
sg63
(lp4237
g56
(g57
g58
NtRp4238
(dp4239
g61
(dp4240
g69
I1
ssg70
g4234
sg63
(lp4241
g3967
(S't\x08\x00\x00\x00Projects'
tRp4242
asbasbasbag56
(g72
g58
NtRp4243
(dp4244
g61
(dp4245
sg70
g4226
sg63
(lp4246
g56
(g77
g58
NtRp4247
(dp4248
g61
(dp4249
sg70
g4243
sg63
(lp4250
g56
(g57
g58
NtRp4251
(dp4252
g61
(dp4253
g69
I1
ssg70
g4247
sg63
(lp4254
I00
asbasbasbag56
(g72
g58
NtRp4255
(dp4256
g61
(dp4257
sg70
g4226
sg63
(lp4258
g56
(g77
g58
NtRp4259
(dp4260
g61
(dp4261
sg70
g4255
sg63
(lp4262
g56
(g57
g58
NtRp4263
(dp4264
g61
(dp4265
g69
I1
ssg70
g4259
sg63
(lp4266
S'/streamlog/default/project_manage'
p4267
asbasbasbag56
(g72
g58
NtRp4268
(dp4269
g61
(dp4270
sg70
g4226
sg63
(lp4271
g56
(g77
g58
NtRp4272
(dp4273
g61
(dp4274
sg70
g4268
sg63
(lp4275
g56
(g57
g58
NtRp4276
(dp4277
g61
(dp4278
g69
I1
ssg70
g4272
sg63
(lp4279
(lp4280
asbasbasbasbasbasbasbag56
(g72
g58
NtRp4281
(dp4282
g61
(dp4283
sg70
g4076
sg63
(lp4284
g56
(g77
g58
NtRp4285
(dp4286
g61
(dp4287
sg70
g4281
sg63
(lp4288
g56
(g57
g58
NtRp4289
(dp4290
g61
(dp4291
g69
I2
ssg70
g4285
sg63
(lp4292
g56
(g65
g58
NtRp4293
(dp4294
g61
(dp4295
g69
I1
ssg70
Nsg63
(lp4296
g56
(g72
g58
NtRp4297
(dp4298
g61
(dp4299
sg70
g4293
sg63
(lp4300
g56
(g77
g58
NtRp4301
(dp4302
g61
(dp4303
sg70
g4297
sg63
(lp4304
g56
(g57
g58
NtRp4305
(dp4306
g61
(dp4307
g69
I1
ssg70
g4301
sg63
(lp4308
g3967
(S's\t\x00\x00\x00Type Logs'
tRp4309
asbasbasbag56
(g72
g58
NtRp4310
(dp4311
g61
(dp4312
sg70
g4293
sg63
(lp4313
g56
(g77
g58
NtRp4314
(dp4315
g61
(dp4316
sg70
g4310
sg63
(lp4317
g56
(g57
g58
NtRp4318
(dp4319
g61
(dp4320
g69
I1
ssg70
g4314
sg63
(lp4321
I00
asbasbasbag56
(g72
g58
NtRp4322
(dp4323
g61
(dp4324
sg70
g4293
sg63
(lp4325
g56
(g77
g58
NtRp4326
(dp4327
g61
(dp4328
sg70
g4322
sg63
(lp4329
g56
(g57
g58
NtRp4330
(dp4331
g61
(dp4332
g69
I1
ssg70
g4326
sg63
(lp4333
S'/streamlog/default/type_log_manage'
p4334
asbasbasbag56
(g72
g58
NtRp4335
(dp4336
g61
(dp4337
sg70
g4293
sg63
(lp4338
g56
(g77
g58
NtRp4339
(dp4340
g61
(dp4341
sg70
g4335
sg63
(lp4342
g56
(g57
g58
NtRp4343
(dp4344
g61
(dp4345
g69
I1
ssg70
g4339
sg63
(lp4346
(lp4347
asbasbasbasbasbasbasbasbasbasbasbasbasbasbasbasbasbasbasbag56
(g72
g58
NtRp4348
(dp4349
g61
(dp4350
sg70
g3462
sg63
(lp4351
g56
(g77
g58
NtRp4352
(dp4353
g61
(dp4354
g81
g82
ssg70
g4348
sg63
(lp4355
S'meta'
p4356
asbag56
(g77
g58
NtRp4357
(dp4358
g61
(dp4359
g88
g89
ssg70
g4348
sg63
(lp4360
S':'
asbag56
(g77
g58
NtRp4361
(dp4362
g61
(dp4363
sg70
g4348
sg63
(lp4364
g56
(g57
g58
NtRp4365
(dp4366
g61
(dp4367
g69
I5
ssg70
g4361
sg63
(lp4368
g56
(g65
g58
NtRp4369
(dp4370
g61
(dp4371
g69
I4
ssg70
Nsg63
(lp4372
g56
(g72
g58
NtRp4373
(dp4374
g61
(dp4375
sg70
g4369
sg63
(lp4376
g56
(g77
g58
NtRp4377
(dp4378
g61
(dp4379
g81
g82
ssg70
g4373
sg63
(lp4380
S'author'
p4381
asbag56
(g77
g58
NtRp4382
(dp4383
g61
(dp4384
g88
g89
ssg70
g4373
sg63
(lp4385
S':'
asbag56
(g77
g58
NtRp4386
(dp4387
g61
(dp4388
sg70
g4373
sg63
(lp4389
g56
(g57
g58
NtRp4390
(dp4391
g61
(dp4392
g69
I4
ssg70
g4386
sg63
(lp4393
S'Jose de Soto <josedesoto@gmail.com>'
p4394
asbasbasbag56
(g72
g58
NtRp4395
(dp4396
g61
(dp4397
sg70
g4369
sg63
(lp4398
g56
(g77
g58
NtRp4399
(dp4400
g61
(dp4401
g81
g82
ssg70
g4395
sg63
(lp4402
S'copyright'
p4403
asbag56
(g77
g58
NtRp4404
(dp4405
g61
(dp4406
g88
g89
ssg70
g4395
sg63
(lp4407
S':'
asbag56
(g77
g58
NtRp4408
(dp4409
g61
(dp4410
sg70
g4395
sg63
(lp4411
g56
(g57
g58
NtRp4412
(dp4413
g61
(dp4414
g69
I4
ssg70
g4408
sg63
(lp4415
S'Copyright 2011'
p4416
asbasbasbag56
(g72
g58
NtRp4417
(dp4418
g61
(dp4419
sg70
g4369
sg63
(lp4420
g56
(g77
g58
NtRp4421
(dp4422
g61
(dp4423
g81
g82
ssg70
g4417
sg63
(lp4424
S'description'
p4425
asbag56
(g77
g58
NtRp4426
(dp4427
g61
(dp4428
g88
g89
ssg70
g4417
sg63
(lp4429
S':'
asbag56
(g77
g58
NtRp4430
(dp4431
g61
(dp4432
sg70
g4417
sg63
(lp4433
g56
(g57
g58
NtRp4434
(dp4435
g61
(dp4436
g69
I4
ssg70
g4430
sg63
(lp4437
S'a cool new app'
p4438
asbasbasbag56
(g72
g58
NtRp4439
(dp4440
g61
(dp4441
sg70
g4369
sg63
(lp4442
g56
(g77
g58
NtRp4443
(dp4444
g61
(dp4445
g81
g82
ssg70
g4439
sg63
(lp4446
S'generator'
p4447
asbag56
(g77
g58
NtRp4448
(dp4449
g61
(dp4450
g88
g89
ssg70
g4439
sg63
(lp4451
S':'
asbag56
(g77
g58
NtRp4452
(dp4453
g61
(dp4454
sg70
g4439
sg63
(lp4455
g56
(g57
g58
NtRp4456
(dp4457
g61
(dp4458
g69
I4
ssg70
g4452
sg63
(lp4459
S'Web2py Web Framework'
p4460
asbasbasbag56
(g72
g58
NtRp4461
(dp4462
g61
(dp4463
sg70
g4369
sg63
(lp4464
g56
(g77
g58
NtRp4465
(dp4466
g61
(dp4467
g81
g82
ssg70
g4461
sg63
(lp4468
S'keywords'
p4469
asbag56
(g77
g58
NtRp4470
(dp4471
g61
(dp4472
g88
g89
ssg70
g4461
sg63
(lp4473
S':'
asbag56
(g77
g58
NtRp4474
(dp4475
g61
(dp4476
sg70
g4461
sg63
(lp4477
g56
(g57
g58
NtRp4478
(dp4479
g61
(dp4480
g69
I4
ssg70
g4474
sg63
(lp4481
S'web2py, python, framework'
p4482
asbasbasbasbasbasbasbag56
(g72
g58
NtRp4483
(dp4484
g61
(dp4485
sg70
g3462
sg63
(lp4486
g56
(g77
g58
NtRp4487
(dp4488
g61
(dp4489
g81
g82
ssg70
g4483
sg63
(lp4490
S'postprocessing'
p4491
asbag56
(g77
g58
NtRp4492
(dp4493
g61
(dp4494
g88
g89
ssg70
g4483
sg63
(lp4495
S':'
asbag56
(g77
g58
NtRp4496
(dp4497
g61
(dp4498
sg70
g4483
sg63
(lp4499
g56
(g57
g58
NtRp4500
(dp4501
g61
(dp4502
g69
I5
ssg70
g4496
sg63
(lp4503
g56
(g65
g58
NtRp4504
(dp4505
g61
(dp4506
g69
I4
ssg70
Nsg63
(lp4507
sbasbasbasbag56
(g72
g58
NtRp4508
(dp4509
g61
(dp4510
sg70
g3462
sg63
(lp4511
g56
(g77
g58
NtRp4512
(dp4513
g61
(dp4514
g81
g82
ssg70
g4508
sg63
(lp4515
S'session_file'
p4516
asbag56
(g77
g58
NtRp4517
(dp4518
g61
(dp4519
g88
g89
ssg70
g4508
sg63
(lp4520
S':'
asbag56
(g77
g58
NtRp4521
(dp4522
g61
(dp4523
sg70
g4508
sg63
(lp4524
g56
(g57
g58
NtRp4525
(dp4526
g61
(dp4527
g69
I5
ssg70
g4521
sg63
(lp4528
S"<open file '/home/jose/DESARROLLO/web2py199/applications/streamlog/sessions/127.0.0.1-610b0c7d-3f6f-4500-a76a-b095fb30f7fd', mode 'rb+' at 0x3c3f5d0>"
p4529
asbasbasbag56
(g72
g58
NtRp4530
(dp4531
g61
(dp4532
sg70
g3462
sg63
(lp4533
g56
(g77
g58
NtRp4534
(dp4535
g61
(dp4536
g81
g82
ssg70
g4530
sg63
(lp4537
S'session_filename'
p4538
asbag56
(g77
g58
NtRp4539
(dp4540
g61
(dp4541
g88
g89
ssg70
g4530
sg63
(lp4542
S':'
asbag56
(g77
g58
NtRp4543
(dp4544
g61
(dp4545
sg70
g4530
sg63
(lp4546
g56
(g57
g58
NtRp4547
(dp4548
g61
(dp4549
g69
I5
ssg70
g4543
sg63
(lp4550
S'/home/jose/DESARROLLO/web2py199/applications/streamlog/sessions/127.0.0.1-610b0c7d-3f6f-4500-a76a-b095fb30f7fd'
p4551
asbasbasbag56
(g72
g58
NtRp4552
(dp4553
g61
(dp4554
sg70
g3462
sg63
(lp4555
g56
(g77
g58
NtRp4556
(dp4557
g61
(dp4558
g81
g82
ssg70
g4552
sg63
(lp4559
S'session_id'
p4560
asbag56
(g77
g58
NtRp4561
(dp4562
g61
(dp4563
g88
g89
ssg70
g4552
sg63
(lp4564
S':'
asbag56
(g77
g58
NtRp4565
(dp4566
g61
(dp4567
sg70
g4552
sg63
(lp4568
g56
(g57
g58
NtRp4569
(dp4570
g61
(dp4571
g69
I5
ssg70
g4565
sg63
(lp4572
S'127.0.0.1-610b0c7d-3f6f-4500-a76a-b095fb30f7fd'
p4573
asbasbasbag56
(g72
g58
NtRp4574
(dp4575
g61
(dp4576
sg70
g3462
sg63
(lp4577
g56
(g77
g58
NtRp4578
(dp4579
g61
(dp4580
g81
g82
ssg70
g4574
sg63
(lp4581
S'session_id_name'
p4582
asbag56
(g77
g58
NtRp4583
(dp4584
g61
(dp4585
g88
g89
ssg70
g4574
sg63
(lp4586
S':'
asbag56
(g77
g58
NtRp4587
(dp4588
g61
(dp4589
sg70
g4574
sg63
(lp4590
g56
(g57
g58
NtRp4591
(dp4592
g61
(dp4593
g69
I5
ssg70
g4587
sg63
(lp4594
g3519
asbasbasbag56
(g72
g58
NtRp4595
(dp4596
g61
(dp4597
sg70
g3462
sg63
(lp4598
g56
(g77
g58
NtRp4599
(dp4600
g61
(dp4601
g81
g82
ssg70
g4595
sg63
(lp4602
S'session_locked'
p4603
asbag56
(g77
g58
NtRp4604
(dp4605
g61
(dp4606
g88
g89
ssg70
g4595
sg63
(lp4607
S':'
asbag56
(g77
g58
NtRp4608
(dp4609
g61
(dp4610
sg70
g4595
sg63
(lp4611
g56
(g57
g58
NtRp4612
(dp4613
g61
(dp4614
g69
I5
ssg70
g4608
sg63
(lp4615
g1672
asbasbasbag56
(g72
g58
NtRp4616
(dp4617
g61
(dp4618
sg70
g3462
sg63
(lp4619
g56
(g77
g58
NtRp4620
(dp4621
g61
(dp4622
g81
g82
ssg70
g4616
sg63
(lp4623
S'session_new'
p4624
asbag56
(g77
g58
NtRp4625
(dp4626
g61
(dp4627
g88
g89
ssg70
g4616
sg63
(lp4628
S':'
asbag56
(g77
g58
NtRp4629
(dp4630
g61
(dp4631
sg70
g4616
sg63
(lp4632
g56
(g57
g58
NtRp4633
(dp4634
g61
(dp4635
g69
I5
ssg70
g4629
sg63
(lp4636
g99
asbasbasbag56
(g72
g58
NtRp4637
(dp4638
g61
(dp4639
sg70
g3462
sg63
(lp4640
g56
(g77
g58
NtRp4641
(dp4642
g61
(dp4643
g81
g82
ssg70
g4637
sg63
(lp4644
S'status'
p4645
asbag56
(g77
g58
NtRp4646
(dp4647
g61
(dp4648
g88
g89
ssg70
g4637
sg63
(lp4649
S':'
asbag56
(g77
g58
NtRp4650
(dp4651
g61
(dp4652
sg70
g4637
sg63
(lp4653
g56
(g57
g58
NtRp4654
(dp4655
g61
(dp4656
g69
I5
ssg70
g4650
sg63
(lp4657
S'200'
p4658
asbasbasbag56
(g72
g58
NtRp4659
(dp4660
g61
(dp4661
sg70
g3462
sg63
(lp4662
g56
(g77
g58
NtRp4663
(dp4664
g61
(dp4665
g81
g82
ssg70
g4659
sg63
(lp4666
S'subtitle'
p4667
asbag56
(g77
g58
NtRp4668
(dp4669
g61
(dp4670
g88
g89
ssg70
g4659
sg63
(lp4671
S':'
asbag56
(g77
g58
NtRp4672
(dp4673
g61
(dp4674
sg70
g4659
sg63
(lp4675
g56
(g57
g58
NtRp4676
(dp4677
g61
(dp4678
g69
I5
ssg70
g4672
sg63
(lp4679
g3967
(S's\x12\x00\x00\x00Stream Log Client!'
tRp4680
asbasbasbag56
(g72
g58
NtRp4681
(dp4682
g61
(dp4683
sg70
g3462
sg63
(lp4684
g56
(g77
g58
NtRp4685
(dp4686
g61
(dp4687
g81
g82
ssg70
g4681
sg63
(lp4688
S'title'
p4689
asbag56
(g77
g58
NtRp4690
(dp4691
g61
(dp4692
g88
g89
ssg70
g4681
sg63
(lp4693
S':'
asbag56
(g77
g58
NtRp4694
(dp4695
g61
(dp4696
sg70
g4681
sg63
(lp4697
g56
(g57
g58
NtRp4698
(dp4699
g61
(dp4700
g69
I5
ssg70
g4694
sg63
(lp4701
g121
asbasbasbag56
(g72
g58
NtRp4702
(dp4703
g61
(dp4704
sg70
g3462
sg63
(lp4705
g56
(g77
g58
NtRp4706
(dp4707
g61
(dp4708
g81
g82
ssg70
g4702
sg63
(lp4709
g2338
asbag56
(g77
g58
NtRp4710
(dp4711
g61
(dp4712
g88
g89
ssg70
g4702
sg63
(lp4713
S':'
asbag56
(g77
g58
NtRp4714
(dp4715
g61
(dp4716
sg70
g4702
sg63
(lp4717
g56
(g57
g58
NtRp4718
(dp4719
g61
(dp4720
g69
I5
ssg70
g4714
sg63
(lp4721
g2351
asbasbasbag56
(g72
g58
NtRp4722
(dp4723
g61
(dp4724
sg70
g3462
sg63
(lp4725
g56
(g77
g58
NtRp4726
(dp4727
g61
(dp4728
g81
g82
ssg70
g4722
sg63
(lp4729
S'view'
p4730
asbag56
(g77
g58
NtRp4731
(dp4732
g61
(dp4733
g88
g89
ssg70
g4722
sg63
(lp4734
S':'
asbag56
(g77
g58
NtRp4735
(dp4736
g61
(dp4737
sg70
g4722
sg63
(lp4738
g56
(g57
g58
NtRp4739
(dp4740
g61
(dp4741
g69
I5
ssg70
g4735
sg63
(lp4742
S'default/call.html'
p4743
asbasbasbasbasbsS'locals'
p4744
(dp4745
S'ip'
p4746
S"''"
p4747
sS'id_log'
p4748
S"'json'"
p4749
sS'data_connection'
p4750
S'<gluon.dal.Query object>'
p4751
sS'name_log'
p4752
S"''"
p4753
sS'port'
p4754
S"''"
p4755
sssS'traceback'
p4756
S'Traceback (most recent call last):\n  File "/home/jose/DESARROLLO/web2py199/gluon/restricted.py", line 194, in restricted\n    exec ccode in environment\n  File "/home/jose/DESARROLLO/web2py199/applications/streamlog/controllers/default.py", line 176, in <module>\n  File "/home/jose/DESARROLLO/web2py199/gluon/globals.py", line 149, in <lambda>\n    self._caller = lambda f: f()\n  File "/home/jose/DESARROLLO/web2py199/applications/streamlog/controllers/default.py", line 156, in call\n    return service()\n  File "/home/jose/DESARROLLO/web2py199/gluon/tools.py", line 3839, in __call__\n    return self.serve_json(request.args[1:])\n  File "/home/jose/DESARROLLO/web2py199/gluon/tools.py", line 3656, in serve_json\n    s = universal_caller(self.json_procedures[args[0]],*args[1:],**d)\n  File "/home/jose/DESARROLLO/web2py199/gluon/tools.py", line 3348, in universal_caller\n    return f(**arg_dict)\n  File "/home/jose/DESARROLLO/web2py199/applications/streamlog/controllers/default.py", line 33, in getConnectionData\n    for row in data_connection:\nTypeError: \'Query\' object is not iterable\n'
p4757
s.