(dp1
S'output'
p2
S''
sS'layer'
p3
S'/home/jose/DESARROLLO/web2py199/applications/streamlog/views/default/index.html'
p4
sS'code'
p5
S'response.files.append(URL(r=request,c=\'static\',f=\'css/demo_table.css\'))\nresponse.write(\'\\n\', escape=False)\nresponse.files.append(URL(r=request,c=\'static\',f=\'js/jquery.dataTables.min.js\'))\nresponse.write(\'\\n\\n\', escape=False)\nresponse.write(\'<!DOCTYPE html>\\n<html lang="\', escape=False)\nresponse.write(T.accepted_language or \'en\')\nresponse.write(\'" class="no-js"><!-- no-js need it for modernzr -->\\n  <head>\\n    \\n    <meta charset="utf-8" />        \\n    <!-- www.phpied.com/conditional-comments-block-downloads/ -->\\n    <!--[if IE]>\\n      <!-- Always force latest IE rendering engine \\n       (even in intranet) & Chrome Frame \\n       Remove this if you use the .htaccess -->\\n      <meta http-equiv="X-UA-Compatible" content="IE=edge,chrome=1">\\n    <![endif]-->    \\n\\n    <title>\', escape=False)\nresponse.write(response.title or request.application)\nresponse.write(\'</title>\\n    \\n    <!-- http://dev.w3.org/html5/markup/meta.name.html -->\\n    <meta name="application-name" content="\', escape=False)\nresponse.write(request.application)\nresponse.write(\'" /> \\n    \\n    <!-- Speaking of Google, don\\\'t forget to set your site up: \\n     http://google.com/webmasters -->\\n    <meta name="google-site-verification" content="" />\\n    \\n    <!--  Mobile Viewport Fix\\n      j.mp/mobileviewport & davidbcalhoun.com/2010/viewport-metatag \\n      device-width: Occupy full width of the screen in its current orientation\\n      initial-scale = 1.0 retains dimensions instead of zooming out if page height > device height\\n      maximum-scale = 1.0 retains dimensions instead of zooming in if page width < device width\\n      -->\\n    <meta name="viewport" content="width=device-width, initial-scale=1.0, maximum-scale=1.0">\\n    \\n    <!-- Place favicon.ico and apple-touch-icon.png in the root of your domain and delete these references -->\\n    <link rel="shortcut icon" href="\', escape=False)\nresponse.write(URL(\'static\',\'favicon.ico\'))\nresponse.write(\'" type="image/x-icon">\\n    <link rel="apple-touch-icon" href="\', escape=False)\nresponse.write(URL(\'static\',\'favicon.png\'))\nresponse.write(\'">\\n\\n    <!-- For the less-enabled mobile browsers like Opera Mini -->\\n    <link rel="stylesheet" media="handheld" href="\', escape=False)\nresponse.write(URL(\'static\',\'css/handheld.css\'))\nresponse.write(\'">\\n    \\n    <!-- All JavaScript at the bottom, except for Modernizr which enables HTML5 elements & feature detects -->\\n    <script src="\', escape=False)\nresponse.write(URL(\'static\',\'js/modernizr-1.7.min.js\'))\nresponse.write(\'"></script>\\n    \\n    \', escape=False)\n#------  require CSS and JS files for this page (read info in base.css) ------\nresponse.write(\'\\n    \', escape=False)\nresponse.files.append(URL(\'static\',\'css/base.css\'))\nresponse.write(\'\\n    \', escape=False)\nresponse.files.append(URL(\'static\',\'css/superfish.css\'))\nresponse.write(\'\\n    \', escape=False)\nresponse.files.append(URL(\'static\',\'js/superfish.js\'))\nresponse.write(\'\\n    \', escape=False)\n#------ include web2py specific js code (jquery, calendar, form stuff) ------\nresponse.write(\'\\n    \', escape=False)\nresponse.files.insert(0,URL(\'static\',\'js/jquery.js\'))\nresponse.files.insert(1,URL(\'static\',\'css/anytime.css\'))\nresponse.files.insert(2,URL(\'static\',\'js/anytime.js\'))\nresponse.include_meta()\nresponse.include_files()\nresponse.write(\'\\n<script type="text/javascript"><!--\\n    // These variables are used by the web2py_ajax_init function in web2py_ajax.js (which is loaded below).\\n    var w2p_ajax_confirm_message = "\', escape=False)\nresponse.write(T(\'Are you sure you want to delete this object?\'))\nresponse.write(\'";\\n    var w2p_ajax_date_format = "\', escape=False)\nresponse.write(T(\'%Y-%m-%d\'))\nresponse.write(\'";\\n    var w2p_ajax_datetime_format = "\', escape=False)\nresponse.write(T(\'%Y-%m-%d %H:%M:%S\'))\nresponse.write(\'";\\n    //--></script>\\n    <script src="\', escape=False)\nresponse.write(URL(\'static\',\'js/web2py_ajax.js\'))\nresponse.write(\'" type="text/javascript"></script>\\n\', escape=False)\nresponse.write(\'\\n\\n    \', escape=False)\n#using sidebars need to know what sidebar you want to use\n#prior of using it, because of static width size of content, you can use\n#left_sidebar, right_sidebar, both or none (False left and right)\nleft_sidebar_enabled = globals().get(\'left_sidebar_enabled\',False)\nright_sidebar_enabled = globals().get(\'right_sidebar_enabled\',False)\nif left_sidebar_enabled and right_sidebar_enabled: width_content=\'63%\'\nelif left_sidebar_enabled != right_sidebar_enabled: width_content=\'740px\'\nelse: width_content=\'100%\'\nif left_sidebar_enabled: left_sidebar_style = \'style="display: block;"\'\nelse: left_sidebar_style = \'style="display: none;"\'\nif right_sidebar_enabled: right_sidebar_style = \'style="display: block;"\'\nelse: right_sidebar_style = \'style="display: none;"\'\nstyle_content = \'style="width: %s"\' % width_content\nresponse.write(\'\\n    \\n    <!-- uncomment here to load jquery-ui -->\\n    \\n    <link rel="stylesheet" href="http://ajax.googleapis.com/ajax/libs/jqueryui/1.8.16/themes/base/jquery-ui.css" type="text/css" media="all" />\\n    <script src="http://ajax.googleapis.com/ajax/libs/jqueryui/1.8.16/jquery-ui.min.js" type="text/javascript"></script>\\n    \\n   <!-- uncomment to load jquery-ui -->\\n    \\n    \\n  </head>\\n  \\n  <!-- paulirish.com/2008/conditional-stylesheets-vs-css-hacks-answer-neither/ -->  \\n  <!--[if lt IE 7 ]> <body class="ie6"> <![endif]-->\\n  <!--[if IE 7 ]>    <body class="ie7"> <![endif]-->\\n  <!--[if IE 8 ]>    <body class="ie8"> <![endif]-->\\n  <!--[if IE 9 ]>    <body class="ie9"> <![endif]-->\\n  <!--[if (gt IE 9)|!(IE)]><!--> <body> <!--<![endif]-->\\n    \\n    <div class="flash">\', escape=False)\nresponse.write(response.flash or \'\')\nresponse.write(\'</div> <!-- notification div -->\\n\\n        \\n\\n    <div id="container">                        \\n      \\n      <div id="wrapper">     \\n\\t\', escape=False)\ntry:\n    response.write(auth.navbar(action=URL(\'default\',\'user\')))\nexcept:pass\nresponse.write(\'   \\n      \\n    \\n    <div id="header"> <!-- header and login nav -->\\n      \', escape=False)\nresponse.write(\' <!-- this is default header -->\\n      \\n      <h1>\\n        <span id="appname">\', escape=False)\nresponse.write(request.application.capitalize())\nresponse.write(\'</span>\\n      </h1>\\n      <div style="clear: both;"></div><!-- Clear the divs -->\\n      \', escape=False)\nresponse.write(\'\\n    </div><!-- header  -->\\n    \\n    <div id="statusbar"><!-- statusbar is menu zone -->\\n      \', escape=False)\nresponse.write(\' <!-- this is default statusbar -->\\n      \', escape=False)\n#------ superfish menu ------\nresponse.write(\'\\n      \', escape=False)\nresponse.write(MENU(response.menu,_class=\'sf-menu\'))\nresponse.write(\'\\n      <script type="text/javascript">\\n        jQuery(document).ready(function(){\\n        jQuery(\\\'ul.sf-menu\\\').superfish();});\\n      </script>\\n\\n \\n\\n      <div style="clear: both;"></div><!-- Clear the divs -->   \\n      \', escape=False)\nresponse.write(\'               \\n    </div><!-- statusbar -->\\n    \\n    <div id="page"> <!-- Here my central body -->     \\n\\n      \', escape=False)\nif left_sidebar_enabled:\n    response.write(\'\\n          <div id="left_sidebar" \', escape=False)\n    response.write(XML(left_sidebar_style))\n    response.write(\' >\\n            <div style="padding: 4px;">\\n          \', escape=False)\n    response.write(\'Content Left Sidebar\', escape=False)\n    response.write(\'       \\n            </div>\\n          </div><!-- left_sidebar -->\\n      \', escape=False)\n    pass\nresponse.write(\'\\n\\n      <!-- content -->\\n      <div id="content" \', escape=False)\nresponse.write(XML(style_content))\nresponse.write(\' >\\n        \', escape=False)\nresponse.write(\'\\n\\n<p>\', escape=False)\nresponse.write(form)\nresponse.write(\'</p>\\n\\n\\n<div id="typetable"></div>\\n\\n\\n<script>\\n\\n\\tfunction createStream(log_id)\\n\\t{\\n\\t\\talert(log_id);\\n\\t\\tvar data;\\n\\t\\tvar oTable;\\n\\n\\t\\tjQuery.getJSON(\\\'\', escape=False)\nresponse.write(URL(r=request,f="getConnectionData.json",args=[log_id]))\nresponse.write(\'\\\',\\n        \\tfunction(json){\\n\\n\\n\\t\\t\\toTable=$(\\\'#tablelog\\\').dataTable( {\\n\\t\\t\\t"sScrollY": "600px",\\n\\t\\t\\t"bPaginate": false,\\n\\t\\t\\t"bScrollCollapse": true\\n\\t\\t\\t});\\n\\n\\t\\t\\tname_log=json.name_log\\n\\t\\t\\tip=json.ip\\n\\t\\t\\tport=json.port\\n\\t\\t\\texpression=json.regex\\n\\t\\t\\t\\n\\t\\n\\t\\t\\talert(expression);\\n\\t\\t\\talert(\\\'ws://\\\'+ip+\\\':\\\'+port+\\\'/realtime/\\\'+name_log);\\n\\t\\t\\tvar regex = new RegExp(expression);\\t\\t\\n\\t\\t\\tweb2py_comet(\\\'ws://\\\'+ip+\\\':\\\'+port+\\\'/realtime/\\\'+name_log,\\n\\t\\t\\tfunction(e){\\n\\t\\t\\t\\tdata=eval(\\\'(\\\'+oTable.fnAddData(e.data.split(regex).slice(1, -1))+\\\')\\\')\\n\\t\\n\\t\\t\\t\\t});\\n        \\t\\t}\\n\\t\\t );\\n\\n\\t\\t\\n\\t}\\n\\t\\n\\n\\tfunction loadTable(log_id)\\n\\n\\t{\\n\\n\\t\\tajax(\\\'getTypeTable/\\\'+log_id,[],\\\'typetable\\\')\\n\\t\\t\\n\\n\\t}\\n\\n        $("#button").click( function()\\n           {\\n             \\tvar oTable;\\n\\t\\toTable=$(\\\'#tablelog\\\').dataTable( {\\n\\t\\t"sScrollY": "600px",\\n        \\t"bPaginate": false,\\n        \\t"bScrollCollapse": true\\n\\t\\t\\t\\t\\t} );\\n\\t\\toTable.fnSort( [ [0,\\\'desc\\\'] ] );\\n\\n\\t\\tvar params = $("input[name=radio]:checked").val();\\n\\t\\t\\n\\n\\t\\tvar data;\\n\\t\\tweb2py_comet(\\\'ws://95.142.163.184:8888/realtime/\\\'+params,\\n\\t\\tfunction(e){\\n\\t\\t\\tdata=eval(\\\'(\\\'+oTable.fnAddData(e.data.split(" "))+\\\')\\\')\\n\\t\\n\\t\\t});\\n\\n           });\\n\\n  \\n\\n\\n\\n\\n </script>\\n\', escape=False)\nresponse.write(\' \\n      </div>\\n      <!-- content -->\\n\\n      \', escape=False)\nif right_sidebar_enabled:\n    response.write(\'\\n          <div id="right_sidebar" \', escape=False)\n    response.write(XML(right_sidebar_style))\n    response.write(\' >\\n            <div style="padding: 4px;">\\n              \', escape=False)\n    response.write(\'Content Right Sidebar\', escape=False)\n    response.write(\'\\n            </div>\\n      </div><!-- right_sidebar -->\\n          \', escape=False)\n    pass\nresponse.write(\'\\n\\n\\n      <div style="clear: both;"></div><!-- Clear the divs -->\\n      \\n    </div><!-- page -->                         \\n    \\n    <div id="footer">\\n      \', escape=False)\nresponse.write(\' <!-- this is default footer -->\\n      <a href="http://www.web2py.com/" style="float: left; padding-right: 6px;">\\n        <img src="\', escape=False)\nresponse.write(URL(\'static\',\'images/poweredby.png\'))\nresponse.write(\'"/>\\n      </a>\\n      \', escape=False)\nresponse.write(T(\'Copyright\'))\nresponse.write(\' &#169; 2011               \\n      <div style="clear: both;"></div><!-- Clear the divs -->\\n      \', escape=False)\nresponse.write(\'\\n\\n    </div><!-- footer -->           \\n      </div><!-- wrapper -->\\n    </div><!-- container -->        \\n    \\n    <!--[if lt IE 7 ]>\\n    <script src="\', escape=False)\nresponse.write(URL(\'static\',\'js/dd_belatedpng.js\'))\nresponse.write(\'"></script>\\n    <script> DD_belatedPNG.fix(\\\'img, .png_bg\\\'); //fix any <img> or .png_bg background-images </script>\\n    <![endif]-->\\n    \', escape=False)\nif response.google_analytics_id:\n    response.write("<script>/* http://mathiasbynens.be/notes/async-analytics-snippet */ var _gaq=[[\'_setAccount\',\'", escape=False)\n    response.write(response.google_analyitics_id)\n    response.write("\'],[\'_trackPageview\']];(function(d,t){var g=d.createElement(t),s=d.getElementsByTagName(t)[0];g.src=\'//www.google-analytics.com/ga.js\';s.parentNode.insertBefore(g,s)}(document,\'script\')) </script>", escape=False)\n    pass\nresponse.write(\'\\n  </body>\\n</html>\\n\', escape=False)'
p6
sS'snapshot'
p7
(dp8
S'exception'
p9
(dp10
S'__hash__'
p11
S"<method-wrapper '__hash__' of exceptions.NameError object>"
p12
sS'__setattr__'
p13
S"<method-wrapper '__setattr__' of exceptions.NameError object>"
p14
sS'__reduce_ex__'
p15
S'<built-in method __reduce_ex__ of exceptions.NameError object>'
p16
sS'__getslice__'
p17
S"<method-wrapper '__getslice__' of exceptions.NameError object>"
p18
sS'__getitem__'
p19
S"<method-wrapper '__getitem__' of exceptions.NameError object>"
p20
sS'__setstate__'
p21
S'<built-in method __setstate__ of exceptions.NameError object>'
p22
sS'args'
p23
S'("name \'log_id\' is not defined",)'
p24
sS'__reduce__'
p25
S'<built-in method __reduce__ of exceptions.NameError object>'
p26
sS'__str__'
p27
S"<method-wrapper '__str__' of exceptions.NameError object>"
p28
sS'__format__'
p29
S'<built-in method __format__ of exceptions.NameError object>'
p30
sS'__getattribute__'
p31
S"<method-wrapper '__getattribute__' of exceptions.NameError object>"
p32
sS'__class__'
p33
S"<type 'exceptions.NameError'>"
p34
sS'__unicode__'
p35
S'<built-in method __unicode__ of exceptions.NameError object>'
p36
sS'__delattr__'
p37
S"<method-wrapper '__delattr__' of exceptions.NameError object>"
p38
sS'__subclasshook__'
p39
S'<built-in method __subclasshook__ of type object>'
p40
sS'__repr__'
p41
S"<method-wrapper '__repr__' of exceptions.NameError object>"
p42
sS'__dict__'
p43
S'{}'
p44
sS'__sizeof__'
p45
S'<built-in method __sizeof__ of exceptions.NameError object>'
p46
sS'__doc__'
p47
S"'Name not found globally.'"
p48
sS'__init__'
p49
S"<method-wrapper '__init__' of exceptions.NameError object>"
p50
sS'__new__'
p51
S'<built-in method __new__ of type object>'
p52
ssS'evalue'
p53
S"name 'log_id' is not defined"
p54
sS'request'
p55
ccopy_reg
_reconstructor
p56
(cgluon.html
BEAUTIFY
p57
c__builtin__
object
p58
NtRp59
(dp60
S'attributes'
p61
(dp62
sS'components'
p63
(lp64
g56
(cgluon.html
TABLE
p65
g58
NtRp66
(dp67
g61
(dp68
S'level'
p69
I5
ssS'parent'
p70
Nsg63
(lp71
g56
(cgluon.html
TR
p72
g58
NtRp73
(dp74
g61
(dp75
sg70
g66
sg63
(lp76
g56
(cgluon.html
TD
p77
g58
NtRp78
(dp79
g61
(dp80
S'_style'
p81
S'font-weight:bold;'
p82
ssg70
g73
sg63
(lp83
S'ajax'
p84
asbag56
(g77
g58
NtRp85
(dp86
g61
(dp87
S'_valign'
p88
S'top'
p89
ssg70
g73
sg63
(lp90
S':'
asbag56
(g77
g58
NtRp91
(dp92
g61
(dp93
sg70
g73
sg63
(lp94
g56
(g57
g58
NtRp95
(dp96
g61
(dp97
g69
I5
ssg70
g91
sg63
(lp98
S'False'
p99
asbasbasbag56
(g72
g58
NtRp100
(dp101
g61
(dp102
sg70
g66
sg63
(lp103
g56
(g77
g58
NtRp104
(dp105
g61
(dp106
g81
g82
ssg70
g100
sg63
(lp107
S'application'
p108
asbag56
(g77
g58
NtRp109
(dp110
g61
(dp111
g88
g89
ssg70
g100
sg63
(lp112
S':'
asbag56
(g77
g58
NtRp113
(dp114
g61
(dp115
sg70
g100
sg63
(lp116
g56
(g57
g58
NtRp117
(dp118
g61
(dp119
g69
I5
ssg70
g113
sg63
(lp120
S'streamlog'
p121
asbasbasbag56
(g72
g58
NtRp122
(dp123
g61
(dp124
sg70
g66
sg63
(lp125
g56
(g77
g58
NtRp126
(dp127
g61
(dp128
g81
g82
ssg70
g122
sg63
(lp129
g23
asbag56
(g77
g58
NtRp130
(dp131
g61
(dp132
g88
g89
ssg70
g122
sg63
(lp133
S':'
asbag56
(g77
g58
NtRp134
(dp135
g61
(dp136
sg70
g122
sg63
(lp137
g56
(g57
g58
NtRp138
(dp139
g61
(dp140
g69
I5
ssg70
g134
sg63
(lp141
g56
(g65
g58
NtRp142
(dp143
g61
(dp144
g69
I4
ssg70
Nsg63
(lp145
sbasbasbasbag56
(g72
g58
NtRp146
(dp147
g61
(dp148
sg70
g66
sg63
(lp149
g56
(g77
g58
NtRp150
(dp151
g61
(dp152
g81
g82
ssg70
g146
sg63
(lp153
S'body'
p154
asbag56
(g77
g58
NtRp155
(dp156
g61
(dp157
g88
g89
ssg70
g146
sg63
(lp158
S':'
asbag56
(g77
g58
NtRp159
(dp160
g61
(dp161
sg70
g146
sg63
(lp162
g56
(g57
g58
NtRp163
(dp164
g61
(dp165
g69
I5
ssg70
g159
sg63
(lp166
S'<cStringIO.StringO object at 0x3ad37a0>'
p167
asbasbasbag56
(g72
g58
NtRp168
(dp169
g61
(dp170
sg70
g66
sg63
(lp171
g56
(g77
g58
NtRp172
(dp173
g61
(dp174
g81
g82
ssg70
g168
sg63
(lp175
S'client'
p176
asbag56
(g77
g58
NtRp177
(dp178
g61
(dp179
g88
g89
ssg70
g168
sg63
(lp180
S':'
asbag56
(g77
g58
NtRp181
(dp182
g61
(dp183
sg70
g168
sg63
(lp184
g56
(g57
g58
NtRp185
(dp186
g61
(dp187
g69
I5
ssg70
g181
sg63
(lp188
S'127.0.0.1'
p189
asbasbasbag56
(g72
g58
NtRp190
(dp191
g61
(dp192
sg70
g66
sg63
(lp193
g56
(g77
g58
NtRp194
(dp195
g61
(dp196
g81
g82
ssg70
g190
sg63
(lp197
S'controller'
p198
asbag56
(g77
g58
NtRp199
(dp200
g61
(dp201
g88
g89
ssg70
g190
sg63
(lp202
S':'
asbag56
(g77
g58
NtRp203
(dp204
g61
(dp205
sg70
g190
sg63
(lp206
g56
(g57
g58
NtRp207
(dp208
g61
(dp209
g69
I5
ssg70
g203
sg63
(lp210
S'default'
p211
asbasbasbag56
(g72
g58
NtRp212
(dp213
g61
(dp214
sg70
g66
sg63
(lp215
g56
(g77
g58
NtRp216
(dp217
g61
(dp218
g81
g82
ssg70
g212
sg63
(lp219
S'cookies'
p220
asbag56
(g77
g58
NtRp221
(dp222
g61
(dp223
g88
g89
ssg70
g212
sg63
(lp224
S':'
asbag56
(g77
g58
NtRp225
(dp226
g61
(dp227
sg70
g212
sg63
(lp228
g56
(g57
g58
NtRp229
(dp230
g61
(dp231
g69
I5
ssg70
g225
sg63
(lp232
g56
(g65
g58
NtRp233
(dp234
g61
(dp235
g69
I4
ssg70
Nsg63
(lp236
g56
(g72
g58
NtRp237
(dp238
g61
(dp239
sg70
g233
sg63
(lp240
g56
(g77
g58
NtRp241
(dp242
g61
(dp243
g81
g82
ssg70
g237
sg63
(lp244
S'session_id_admin'
p245
asbag56
(g77
g58
NtRp246
(dp247
g61
(dp248
g88
g89
ssg70
g237
sg63
(lp249
S':'
asbag56
(g77
g58
NtRp250
(dp251
g61
(dp252
sg70
g237
sg63
(lp253
g56
(g57
g58
NtRp254
(dp255
g61
(dp256
g69
I4
ssg70
g250
sg63
(lp257
g56
(g65
g58
NtRp258
(dp259
g61
(dp260
g69
I3
ssg70
Nsg63
(lp261
g56
(g72
g58
NtRp262
(dp263
g61
(dp264
sg70
g258
sg63
(lp265
g56
(g77
g58
NtRp266
(dp267
g61
(dp268
g81
g82
ssg70
g262
sg63
(lp269
S'comment'
p270
asbag56
(g77
g58
NtRp271
(dp272
g61
(dp273
g88
g89
ssg70
g262
sg63
(lp274
S':'
asbag56
(g77
g58
NtRp275
(dp276
g61
(dp277
sg70
g262
sg63
(lp278
g56
(g57
g58
NtRp279
(dp280
g61
(dp281
g69
I3
ssg70
g275
sg63
(lp282
S''
asbasbasbag56
(g72
g58
NtRp283
(dp284
g61
(dp285
sg70
g258
sg63
(lp286
g56
(g77
g58
NtRp287
(dp288
g61
(dp289
g81
g82
ssg70
g283
sg63
(lp290
S'domain'
p291
asbag56
(g77
g58
NtRp292
(dp293
g61
(dp294
g88
g89
ssg70
g283
sg63
(lp295
S':'
asbag56
(g77
g58
NtRp296
(dp297
g61
(dp298
sg70
g283
sg63
(lp299
g56
(g57
g58
NtRp300
(dp301
g61
(dp302
g69
I3
ssg70
g296
sg63
(lp303
S''
asbasbasbag56
(g72
g58
NtRp304
(dp305
g61
(dp306
sg70
g258
sg63
(lp307
g56
(g77
g58
NtRp308
(dp309
g61
(dp310
g81
g82
ssg70
g304
sg63
(lp311
S'expires'
p312
asbag56
(g77
g58
NtRp313
(dp314
g61
(dp315
g88
g89
ssg70
g304
sg63
(lp316
S':'
asbag56
(g77
g58
NtRp317
(dp318
g61
(dp319
sg70
g304
sg63
(lp320
g56
(g57
g58
NtRp321
(dp322
g61
(dp323
g69
I3
ssg70
g317
sg63
(lp324
S''
asbasbasbag56
(g72
g58
NtRp325
(dp326
g61
(dp327
sg70
g258
sg63
(lp328
g56
(g77
g58
NtRp329
(dp330
g61
(dp331
g81
g82
ssg70
g325
sg63
(lp332
S'httponly'
p333
asbag56
(g77
g58
NtRp334
(dp335
g61
(dp336
g88
g89
ssg70
g325
sg63
(lp337
S':'
asbag56
(g77
g58
NtRp338
(dp339
g61
(dp340
sg70
g325
sg63
(lp341
g56
(g57
g58
NtRp342
(dp343
g61
(dp344
g69
I3
ssg70
g338
sg63
(lp345
S''
asbasbasbag56
(g72
g58
NtRp346
(dp347
g61
(dp348
sg70
g258
sg63
(lp349
g56
(g77
g58
NtRp350
(dp351
g61
(dp352
g81
g82
ssg70
g346
sg63
(lp353
S'max-age'
p354
asbag56
(g77
g58
NtRp355
(dp356
g61
(dp357
g88
g89
ssg70
g346
sg63
(lp358
S':'
asbag56
(g77
g58
NtRp359
(dp360
g61
(dp361
sg70
g346
sg63
(lp362
g56
(g57
g58
NtRp363
(dp364
g61
(dp365
g69
I3
ssg70
g359
sg63
(lp366
S''
asbasbasbag56
(g72
g58
NtRp367
(dp368
g61
(dp369
sg70
g258
sg63
(lp370
g56
(g77
g58
NtRp371
(dp372
g61
(dp373
g81
g82
ssg70
g367
sg63
(lp374
S'path'
p375
asbag56
(g77
g58
NtRp376
(dp377
g61
(dp378
g88
g89
ssg70
g367
sg63
(lp379
S':'
asbag56
(g77
g58
NtRp380
(dp381
g61
(dp382
sg70
g367
sg63
(lp383
g56
(g57
g58
NtRp384
(dp385
g61
(dp386
g69
I3
ssg70
g380
sg63
(lp387
S''
asbasbasbag56
(g72
g58
NtRp388
(dp389
g61
(dp390
sg70
g258
sg63
(lp391
g56
(g77
g58
NtRp392
(dp393
g61
(dp394
g81
g82
ssg70
g388
sg63
(lp395
S'secure'
p396
asbag56
(g77
g58
NtRp397
(dp398
g61
(dp399
g88
g89
ssg70
g388
sg63
(lp400
S':'
asbag56
(g77
g58
NtRp401
(dp402
g61
(dp403
sg70
g388
sg63
(lp404
g56
(g57
g58
NtRp405
(dp406
g61
(dp407
g69
I3
ssg70
g401
sg63
(lp408
S''
asbasbasbag56
(g72
g58
NtRp409
(dp410
g61
(dp411
sg70
g258
sg63
(lp412
g56
(g77
g58
NtRp413
(dp414
g61
(dp415
g81
g82
ssg70
g409
sg63
(lp416
S'version'
p417
asbag56
(g77
g58
NtRp418
(dp419
g61
(dp420
g88
g89
ssg70
g409
sg63
(lp421
S':'
asbag56
(g77
g58
NtRp422
(dp423
g61
(dp424
sg70
g409
sg63
(lp425
g56
(g57
g58
NtRp426
(dp427
g61
(dp428
g69
I3
ssg70
g422
sg63
(lp429
S''
asbasbasbasbasbasbasbag56
(g72
g58
NtRp430
(dp431
g61
(dp432
sg70
g233
sg63
(lp433
g56
(g77
g58
NtRp434
(dp435
g61
(dp436
g81
g82
ssg70
g430
sg63
(lp437
S'session_id_streamlog'
p438
asbag56
(g77
g58
NtRp439
(dp440
g61
(dp441
g88
g89
ssg70
g430
sg63
(lp442
S':'
asbag56
(g77
g58
NtRp443
(dp444
g61
(dp445
sg70
g430
sg63
(lp446
g56
(g57
g58
NtRp447
(dp448
g61
(dp449
g69
I4
ssg70
g443
sg63
(lp450
g56
(g65
g58
NtRp451
(dp452
g61
(dp453
g69
I3
ssg70
Nsg63
(lp454
g56
(g72
g58
NtRp455
(dp456
g61
(dp457
sg70
g451
sg63
(lp458
g56
(g77
g58
NtRp459
(dp460
g61
(dp461
g81
g82
ssg70
g455
sg63
(lp462
g270
asbag56
(g77
g58
NtRp463
(dp464
g61
(dp465
g88
g89
ssg70
g455
sg63
(lp466
S':'
asbag56
(g77
g58
NtRp467
(dp468
g61
(dp469
sg70
g455
sg63
(lp470
g56
(g57
g58
NtRp471
(dp472
g61
(dp473
g69
I3
ssg70
g467
sg63
(lp474
S''
asbasbasbag56
(g72
g58
NtRp475
(dp476
g61
(dp477
sg70
g451
sg63
(lp478
g56
(g77
g58
NtRp479
(dp480
g61
(dp481
g81
g82
ssg70
g475
sg63
(lp482
g291
asbag56
(g77
g58
NtRp483
(dp484
g61
(dp485
g88
g89
ssg70
g475
sg63
(lp486
S':'
asbag56
(g77
g58
NtRp487
(dp488
g61
(dp489
sg70
g475
sg63
(lp490
g56
(g57
g58
NtRp491
(dp492
g61
(dp493
g69
I3
ssg70
g487
sg63
(lp494
S''
asbasbasbag56
(g72
g58
NtRp495
(dp496
g61
(dp497
sg70
g451
sg63
(lp498
g56
(g77
g58
NtRp499
(dp500
g61
(dp501
g81
g82
ssg70
g495
sg63
(lp502
g312
asbag56
(g77
g58
NtRp503
(dp504
g61
(dp505
g88
g89
ssg70
g495
sg63
(lp506
S':'
asbag56
(g77
g58
NtRp507
(dp508
g61
(dp509
sg70
g495
sg63
(lp510
g56
(g57
g58
NtRp511
(dp512
g61
(dp513
g69
I3
ssg70
g507
sg63
(lp514
S''
asbasbasbag56
(g72
g58
NtRp515
(dp516
g61
(dp517
sg70
g451
sg63
(lp518
g56
(g77
g58
NtRp519
(dp520
g61
(dp521
g81
g82
ssg70
g515
sg63
(lp522
g333
asbag56
(g77
g58
NtRp523
(dp524
g61
(dp525
g88
g89
ssg70
g515
sg63
(lp526
S':'
asbag56
(g77
g58
NtRp527
(dp528
g61
(dp529
sg70
g515
sg63
(lp530
g56
(g57
g58
NtRp531
(dp532
g61
(dp533
g69
I3
ssg70
g527
sg63
(lp534
S''
asbasbasbag56
(g72
g58
NtRp535
(dp536
g61
(dp537
sg70
g451
sg63
(lp538
g56
(g77
g58
NtRp539
(dp540
g61
(dp541
g81
g82
ssg70
g535
sg63
(lp542
g354
asbag56
(g77
g58
NtRp543
(dp544
g61
(dp545
g88
g89
ssg70
g535
sg63
(lp546
S':'
asbag56
(g77
g58
NtRp547
(dp548
g61
(dp549
sg70
g535
sg63
(lp550
g56
(g57
g58
NtRp551
(dp552
g61
(dp553
g69
I3
ssg70
g547
sg63
(lp554
S''
asbasbasbag56
(g72
g58
NtRp555
(dp556
g61
(dp557
sg70
g451
sg63
(lp558
g56
(g77
g58
NtRp559
(dp560
g61
(dp561
g81
g82
ssg70
g555
sg63
(lp562
g375
asbag56
(g77
g58
NtRp563
(dp564
g61
(dp565
g88
g89
ssg70
g555
sg63
(lp566
S':'
asbag56
(g77
g58
NtRp567
(dp568
g61
(dp569
sg70
g555
sg63
(lp570
g56
(g57
g58
NtRp571
(dp572
g61
(dp573
g69
I3
ssg70
g567
sg63
(lp574
S''
asbasbasbag56
(g72
g58
NtRp575
(dp576
g61
(dp577
sg70
g451
sg63
(lp578
g56
(g77
g58
NtRp579
(dp580
g61
(dp581
g81
g82
ssg70
g575
sg63
(lp582
g396
asbag56
(g77
g58
NtRp583
(dp584
g61
(dp585
g88
g89
ssg70
g575
sg63
(lp586
S':'
asbag56
(g77
g58
NtRp587
(dp588
g61
(dp589
sg70
g575
sg63
(lp590
g56
(g57
g58
NtRp591
(dp592
g61
(dp593
g69
I3
ssg70
g587
sg63
(lp594
S''
asbasbasbag56
(g72
g58
NtRp595
(dp596
g61
(dp597
sg70
g451
sg63
(lp598
g56
(g77
g58
NtRp599
(dp600
g61
(dp601
g81
g82
ssg70
g595
sg63
(lp602
g417
asbag56
(g77
g58
NtRp603
(dp604
g61
(dp605
g88
g89
ssg70
g595
sg63
(lp606
S':'
asbag56
(g77
g58
NtRp607
(dp608
g61
(dp609
sg70
g595
sg63
(lp610
g56
(g57
g58
NtRp611
(dp612
g61
(dp613
g69
I3
ssg70
g607
sg63
(lp614
S''
asbasbasbasbasbasbasbag56
(g72
g58
NtRp615
(dp616
g61
(dp617
sg70
g233
sg63
(lp618
g56
(g77
g58
NtRp619
(dp620
g61
(dp621
g81
g82
ssg70
g615
sg63
(lp622
S'session_id_test3'
p623
asbag56
(g77
g58
NtRp624
(dp625
g61
(dp626
g88
g89
ssg70
g615
sg63
(lp627
S':'
asbag56
(g77
g58
NtRp628
(dp629
g61
(dp630
sg70
g615
sg63
(lp631
g56
(g57
g58
NtRp632
(dp633
g61
(dp634
g69
I4
ssg70
g628
sg63
(lp635
g56
(g65
g58
NtRp636
(dp637
g61
(dp638
g69
I3
ssg70
Nsg63
(lp639
g56
(g72
g58
NtRp640
(dp641
g61
(dp642
sg70
g636
sg63
(lp643
g56
(g77
g58
NtRp644
(dp645
g61
(dp646
g81
g82
ssg70
g640
sg63
(lp647
g270
asbag56
(g77
g58
NtRp648
(dp649
g61
(dp650
g88
g89
ssg70
g640
sg63
(lp651
S':'
asbag56
(g77
g58
NtRp652
(dp653
g61
(dp654
sg70
g640
sg63
(lp655
g56
(g57
g58
NtRp656
(dp657
g61
(dp658
g69
I3
ssg70
g652
sg63
(lp659
S''
asbasbasbag56
(g72
g58
NtRp660
(dp661
g61
(dp662
sg70
g636
sg63
(lp663
g56
(g77
g58
NtRp664
(dp665
g61
(dp666
g81
g82
ssg70
g660
sg63
(lp667
g291
asbag56
(g77
g58
NtRp668
(dp669
g61
(dp670
g88
g89
ssg70
g660
sg63
(lp671
S':'
asbag56
(g77
g58
NtRp672
(dp673
g61
(dp674
sg70
g660
sg63
(lp675
g56
(g57
g58
NtRp676
(dp677
g61
(dp678
g69
I3
ssg70
g672
sg63
(lp679
S''
asbasbasbag56
(g72
g58
NtRp680
(dp681
g61
(dp682
sg70
g636
sg63
(lp683
g56
(g77
g58
NtRp684
(dp685
g61
(dp686
g81
g82
ssg70
g680
sg63
(lp687
g312
asbag56
(g77
g58
NtRp688
(dp689
g61
(dp690
g88
g89
ssg70
g680
sg63
(lp691
S':'
asbag56
(g77
g58
NtRp692
(dp693
g61
(dp694
sg70
g680
sg63
(lp695
g56
(g57
g58
NtRp696
(dp697
g61
(dp698
g69
I3
ssg70
g692
sg63
(lp699
S''
asbasbasbag56
(g72
g58
NtRp700
(dp701
g61
(dp702
sg70
g636
sg63
(lp703
g56
(g77
g58
NtRp704
(dp705
g61
(dp706
g81
g82
ssg70
g700
sg63
(lp707
g333
asbag56
(g77
g58
NtRp708
(dp709
g61
(dp710
g88
g89
ssg70
g700
sg63
(lp711
S':'
asbag56
(g77
g58
NtRp712
(dp713
g61
(dp714
sg70
g700
sg63
(lp715
g56
(g57
g58
NtRp716
(dp717
g61
(dp718
g69
I3
ssg70
g712
sg63
(lp719
S''
asbasbasbag56
(g72
g58
NtRp720
(dp721
g61
(dp722
sg70
g636
sg63
(lp723
g56
(g77
g58
NtRp724
(dp725
g61
(dp726
g81
g82
ssg70
g720
sg63
(lp727
g354
asbag56
(g77
g58
NtRp728
(dp729
g61
(dp730
g88
g89
ssg70
g720
sg63
(lp731
S':'
asbag56
(g77
g58
NtRp732
(dp733
g61
(dp734
sg70
g720
sg63
(lp735
g56
(g57
g58
NtRp736
(dp737
g61
(dp738
g69
I3
ssg70
g732
sg63
(lp739
S''
asbasbasbag56
(g72
g58
NtRp740
(dp741
g61
(dp742
sg70
g636
sg63
(lp743
g56
(g77
g58
NtRp744
(dp745
g61
(dp746
g81
g82
ssg70
g740
sg63
(lp747
g375
asbag56
(g77
g58
NtRp748
(dp749
g61
(dp750
g88
g89
ssg70
g740
sg63
(lp751
S':'
asbag56
(g77
g58
NtRp752
(dp753
g61
(dp754
sg70
g740
sg63
(lp755
g56
(g57
g58
NtRp756
(dp757
g61
(dp758
g69
I3
ssg70
g752
sg63
(lp759
S''
asbasbasbag56
(g72
g58
NtRp760
(dp761
g61
(dp762
sg70
g636
sg63
(lp763
g56
(g77
g58
NtRp764
(dp765
g61
(dp766
g81
g82
ssg70
g760
sg63
(lp767
g396
asbag56
(g77
g58
NtRp768
(dp769
g61
(dp770
g88
g89
ssg70
g760
sg63
(lp771
S':'
asbag56
(g77
g58
NtRp772
(dp773
g61
(dp774
sg70
g760
sg63
(lp775
g56
(g57
g58
NtRp776
(dp777
g61
(dp778
g69
I3
ssg70
g772
sg63
(lp779
S''
asbasbasbag56
(g72
g58
NtRp780
(dp781
g61
(dp782
sg70
g636
sg63
(lp783
g56
(g77
g58
NtRp784
(dp785
g61
(dp786
g81
g82
ssg70
g780
sg63
(lp787
g417
asbag56
(g77
g58
NtRp788
(dp789
g61
(dp790
g88
g89
ssg70
g780
sg63
(lp791
S':'
asbag56
(g77
g58
NtRp792
(dp793
g61
(dp794
sg70
g780
sg63
(lp795
g56
(g57
g58
NtRp796
(dp797
g61
(dp798
g69
I3
ssg70
g792
sg63
(lp799
S''
asbasbasbasbasbasbasbasbasbasbasbag56
(g72
g58
NtRp800
(dp801
g61
(dp802
sg70
g66
sg63
(lp803
g56
(g77
g58
NtRp804
(dp805
g61
(dp806
g81
g82
ssg70
g800
sg63
(lp807
S'env'
p808
asbag56
(g77
g58
NtRp809
(dp810
g61
(dp811
g88
g89
ssg70
g800
sg63
(lp812
S':'
asbag56
(g77
g58
NtRp813
(dp814
g61
(dp815
sg70
g800
sg63
(lp816
g56
(g57
g58
NtRp817
(dp818
g61
(dp819
g69
I5
ssg70
g813
sg63
(lp820
g56
(g65
g58
NtRp821
(dp822
g61
(dp823
g69
I4
ssg70
Nsg63
(lp824
g56
(g72
g58
NtRp825
(dp826
g61
(dp827
sg70
g821
sg63
(lp828
g56
(g77
g58
NtRp829
(dp830
g61
(dp831
g81
g82
ssg70
g825
sg63
(lp832
S'app_folders'
p833
asbag56
(g77
g58
NtRp834
(dp835
g61
(dp836
g88
g89
ssg70
g825
sg63
(lp837
S':'
asbag56
(g77
g58
NtRp838
(dp839
g61
(dp840
sg70
g825
sg63
(lp841
g56
(g57
g58
NtRp842
(dp843
g61
(dp844
g69
I4
ssg70
g838
sg63
(lp845
S"set(['/home/jose/DESARROLLO/web2py199/applications/streamlog/', '/home/jose/DESARROLLO/web2py199/applications/admin/'])"
p846
asbasbasbag56
(g72
g58
NtRp847
(dp848
g61
(dp849
sg70
g821
sg63
(lp850
g56
(g77
g58
NtRp851
(dp852
g61
(dp853
g81
g82
ssg70
g847
sg63
(lp854
S'applications_parent'
p855
asbag56
(g77
g58
NtRp856
(dp857
g61
(dp858
g88
g89
ssg70
g847
sg63
(lp859
S':'
asbag56
(g77
g58
NtRp860
(dp861
g61
(dp862
sg70
g847
sg63
(lp863
g56
(g57
g58
NtRp864
(dp865
g61
(dp866
g69
I4
ssg70
g860
sg63
(lp867
S'/home/jose/DESARROLLO/web2py199'
p868
asbasbasbag56
(g72
g58
NtRp869
(dp870
g61
(dp871
sg70
g821
sg63
(lp872
g56
(g77
g58
NtRp873
(dp874
g61
(dp875
g81
g82
ssg70
g869
sg63
(lp876
S'cmd_args'
p877
asbag56
(g77
g58
NtRp878
(dp879
g61
(dp880
g88
g89
ssg70
g869
sg63
(lp881
S':'
asbag56
(g77
g58
NtRp882
(dp883
g61
(dp884
sg70
g869
sg63
(lp885
g56
(g57
g58
NtRp886
(dp887
g61
(dp888
g69
I4
ssg70
g882
sg63
(lp889
g56
(g65
g58
NtRp890
(dp891
g61
(dp892
g69
I3
ssg70
Nsg63
(lp893
sbasbasbasbag56
(g72
g58
NtRp894
(dp895
g61
(dp896
sg70
g821
sg63
(lp897
g56
(g77
g58
NtRp898
(dp899
g61
(dp900
g81
g82
ssg70
g894
sg63
(lp901
S'cmd_options'
p902
asbag56
(g77
g58
NtRp903
(dp904
g61
(dp905
g88
g89
ssg70
g894
sg63
(lp906
S':'
asbag56
(g77
g58
NtRp907
(dp908
g61
(dp909
sg70
g894
sg63
(lp910
g56
(g57
g58
NtRp911
(dp912
g61
(dp913
g69
I4
ssg70
g907
sg63
(lp914
S"<Values at 0x24356c8: {'verbose': False, 'ip': '127.0.0.1', 'shutdown_timeout': 5, 'taskbar': False, 'nocron': False, 'pid_filename': 'httpserver.pid', 'maxthreads': None, 'softcron': False, 'server_name': 'jose', 'bpython': False, 'nogui': False, 'port': 8000, 'extcron': False, 'debuglevel': 30, 'test': None, 'folder': '/home/jose/DESARROLLO/web2py199', 'config': '', 'import_models': False, 'winservice': '', 'shell': None, 'run': '', 'log_filename': 'httpserver.log', 'args': [''], 'ssl_ca_certificate': None, 'scheduler': None, 'profiler_filename': None, 'ssl_private_key': '', 'password': 't', 'request_queue_size': 5, 'ssl_certificate': '', 'cronjob': False, 'plain': False, 'quiet': False, 'interfaces': None, 'minthreads': None, 'timeout': 10, 'numthreads': None, 'nobanner': False}>"
p915
asbasbasbag56
(g72
g58
NtRp916
(dp917
g61
(dp918
sg70
g821
sg63
(lp919
g56
(g77
g58
NtRp920
(dp921
g61
(dp922
g81
g82
ssg70
g916
sg63
(lp923
S'db_sessions'
p924
asbag56
(g77
g58
NtRp925
(dp926
g61
(dp927
g88
g89
ssg70
g916
sg63
(lp928
S':'
asbag56
(g77
g58
NtRp929
(dp930
g61
(dp931
sg70
g916
sg63
(lp932
g56
(g57
g58
NtRp933
(dp934
g61
(dp935
g69
I4
ssg70
g929
sg63
(lp936
S'set([])'
p937
asbasbasbag56
(g72
g58
NtRp938
(dp939
g61
(dp940
sg70
g821
sg63
(lp941
g56
(g77
g58
NtRp942
(dp943
g61
(dp944
g81
g82
ssg70
g938
sg63
(lp945
S'debugging'
p946
asbag56
(g77
g58
NtRp947
(dp948
g61
(dp949
g88
g89
ssg70
g938
sg63
(lp950
S':'
asbag56
(g77
g58
NtRp951
(dp952
g61
(dp953
sg70
g938
sg63
(lp954
g56
(g57
g58
NtRp955
(dp956
g61
(dp957
g69
I4
ssg70
g951
sg63
(lp958
g99
asbasbasbag56
(g72
g58
NtRp959
(dp960
g61
(dp961
sg70
g821
sg63
(lp962
g56
(g77
g58
NtRp963
(dp964
g61
(dp965
g81
g82
ssg70
g959
sg63
(lp966
S'gluon_parent'
p967
asbag56
(g77
g58
NtRp968
(dp969
g61
(dp970
g88
g89
ssg70
g959
sg63
(lp971
S':'
asbag56
(g77
g58
NtRp972
(dp973
g61
(dp974
sg70
g959
sg63
(lp975
g56
(g57
g58
NtRp976
(dp977
g61
(dp978
g69
I4
ssg70
g972
sg63
(lp979
S'/home/jose/DESARROLLO/web2py199'
p980
asbasbasbag56
(g72
g58
NtRp981
(dp982
g61
(dp983
sg70
g821
sg63
(lp984
g56
(g77
g58
NtRp985
(dp986
g61
(dp987
g81
g82
ssg70
g981
sg63
(lp988
S'http_accept'
p989
asbag56
(g77
g58
NtRp990
(dp991
g61
(dp992
g88
g89
ssg70
g981
sg63
(lp993
S':'
asbag56
(g77
g58
NtRp994
(dp995
g61
(dp996
sg70
g981
sg63
(lp997
g56
(g57
g58
NtRp998
(dp999
g61
(dp1000
g69
I4
ssg70
g994
sg63
(lp1001
S'text/html,application/xhtml+xml,application/xml;q=0.9,*/*;q=0.8'
p1002
asbasbasbag56
(g72
g58
NtRp1003
(dp1004
g61
(dp1005
sg70
g821
sg63
(lp1006
g56
(g77
g58
NtRp1007
(dp1008
g61
(dp1009
g81
g82
ssg70
g1003
sg63
(lp1010
S'http_accept_encoding'
p1011
asbag56
(g77
g58
NtRp1012
(dp1013
g61
(dp1014
g88
g89
ssg70
g1003
sg63
(lp1015
S':'
asbag56
(g77
g58
NtRp1016
(dp1017
g61
(dp1018
sg70
g1003
sg63
(lp1019
g56
(g57
g58
NtRp1020
(dp1021
g61
(dp1022
g69
I4
ssg70
g1016
sg63
(lp1023
S'gzip, deflate'
p1024
asbasbasbag56
(g72
g58
NtRp1025
(dp1026
g61
(dp1027
sg70
g821
sg63
(lp1028
g56
(g77
g58
NtRp1029
(dp1030
g61
(dp1031
g81
g82
ssg70
g1025
sg63
(lp1032
S'http_accept_language'
p1033
asbag56
(g77
g58
NtRp1034
(dp1035
g61
(dp1036
g88
g89
ssg70
g1025
sg63
(lp1037
S':'
asbag56
(g77
g58
NtRp1038
(dp1039
g61
(dp1040
sg70
g1025
sg63
(lp1041
g56
(g57
g58
NtRp1042
(dp1043
g61
(dp1044
g69
I4
ssg70
g1038
sg63
(lp1045
S'en-us,en;q=0.5'
p1046
asbasbasbag56
(g72
g58
NtRp1047
(dp1048
g61
(dp1049
sg70
g821
sg63
(lp1050
g56
(g77
g58
NtRp1051
(dp1052
g61
(dp1053
g81
g82
ssg70
g1047
sg63
(lp1054
S'http_connection'
p1055
asbag56
(g77
g58
NtRp1056
(dp1057
g61
(dp1058
g88
g89
ssg70
g1047
sg63
(lp1059
S':'
asbag56
(g77
g58
NtRp1060
(dp1061
g61
(dp1062
sg70
g1047
sg63
(lp1063
g56
(g57
g58
NtRp1064
(dp1065
g61
(dp1066
g69
I4
ssg70
g1060
sg63
(lp1067
S'keep-alive'
p1068
asbasbasbag56
(g72
g58
NtRp1069
(dp1070
g61
(dp1071
sg70
g821
sg63
(lp1072
g56
(g77
g58
NtRp1073
(dp1074
g61
(dp1075
g81
g82
ssg70
g1069
sg63
(lp1076
S'http_cookie'
p1077
asbag56
(g77
g58
NtRp1078
(dp1079
g61
(dp1080
g88
g89
ssg70
g1069
sg63
(lp1081
S':'
asbag56
(g77
g58
NtRp1082
(dp1083
g61
(dp1084
sg70
g1069
sg63
(lp1085
g56
(g57
g58
NtRp1086
(dp1087
g61
(dp1088
g69
I4
ssg70
g1082
sg63
(lp1089
S'session_id_test3=127.0.0.1-380e7b29-b635-4690-b9ca-812870d6a061; session_id_admin=127.0.0.1-9b4c5961-ad99-4e9d-9992-13f3450e53e5; session_id_streamlog=127.0.0.1-610b0c7d-3f6f-4500-a76a-b095fb30f7fd'
p1090
asbasbasbag56
(g72
g58
NtRp1091
(dp1092
g61
(dp1093
sg70
g821
sg63
(lp1094
g56
(g77
g58
NtRp1095
(dp1096
g61
(dp1097
g81
g82
ssg70
g1091
sg63
(lp1098
S'http_host'
p1099
asbag56
(g77
g58
NtRp1100
(dp1101
g61
(dp1102
g88
g89
ssg70
g1091
sg63
(lp1103
S':'
asbag56
(g77
g58
NtRp1104
(dp1105
g61
(dp1106
sg70
g1091
sg63
(lp1107
g56
(g57
g58
NtRp1108
(dp1109
g61
(dp1110
g69
I4
ssg70
g1104
sg63
(lp1111
S'localhost:8000'
p1112
asbasbasbag56
(g72
g58
NtRp1113
(dp1114
g61
(dp1115
sg70
g821
sg63
(lp1116
g56
(g77
g58
NtRp1117
(dp1118
g61
(dp1119
g81
g82
ssg70
g1113
sg63
(lp1120
S'http_user_agent'
p1121
asbag56
(g77
g58
NtRp1122
(dp1123
g61
(dp1124
g88
g89
ssg70
g1113
sg63
(lp1125
S':'
asbag56
(g77
g58
NtRp1126
(dp1127
g61
(dp1128
sg70
g1113
sg63
(lp1129
g56
(g57
g58
NtRp1130
(dp1131
g61
(dp1132
g69
I4
ssg70
g1126
sg63
(lp1133
S'Mozilla/5.0 (X11; Ubuntu; Linux x86_64; rv:12.0) Gecko/20100101 Firefox/12.0'
p1134
asbasbasbag56
(g72
g58
NtRp1135
(dp1136
g61
(dp1137
sg70
g821
sg63
(lp1138
g56
(g77
g58
NtRp1139
(dp1140
g61
(dp1141
g81
g82
ssg70
g1135
sg63
(lp1142
S'is_jython'
p1143
asbag56
(g77
g58
NtRp1144
(dp1145
g61
(dp1146
g88
g89
ssg70
g1135
sg63
(lp1147
S':'
asbag56
(g77
g58
NtRp1148
(dp1149
g61
(dp1150
sg70
g1135
sg63
(lp1151
g56
(g57
g58
NtRp1152
(dp1153
g61
(dp1154
g69
I4
ssg70
g1148
sg63
(lp1155
g99
asbasbasbag56
(g72
g58
NtRp1156
(dp1157
g61
(dp1158
sg70
g821
sg63
(lp1159
g56
(g77
g58
NtRp1160
(dp1161
g61
(dp1162
g81
g82
ssg70
g1156
sg63
(lp1163
S'path_info'
p1164
asbag56
(g77
g58
NtRp1165
(dp1166
g61
(dp1167
g88
g89
ssg70
g1156
sg63
(lp1168
S':'
asbag56
(g77
g58
NtRp1169
(dp1170
g61
(dp1171
sg70
g1156
sg63
(lp1172
g56
(g57
g58
NtRp1173
(dp1174
g61
(dp1175
g69
I4
ssg70
g1169
sg63
(lp1176
S'/streamlog/default/index'
p1177
asbasbasbag56
(g72
g58
NtRp1178
(dp1179
g61
(dp1180
sg70
g821
sg63
(lp1181
g56
(g77
g58
NtRp1182
(dp1183
g61
(dp1184
g81
g82
ssg70
g1178
sg63
(lp1185
S'query_string'
p1186
asbag56
(g77
g58
NtRp1187
(dp1188
g61
(dp1189
g88
g89
ssg70
g1178
sg63
(lp1190
S':'
asbag56
(g77
g58
NtRp1191
(dp1192
g61
(dp1193
sg70
g1178
sg63
(lp1194
g56
(g57
g58
NtRp1195
(dp1196
g61
(dp1197
g69
I4
ssg70
g1191
sg63
(lp1198
S''
asbasbasbag56
(g72
g58
NtRp1199
(dp1200
g61
(dp1201
sg70
g821
sg63
(lp1202
g56
(g77
g58
NtRp1203
(dp1204
g61
(dp1205
g81
g82
ssg70
g1199
sg63
(lp1206
S'remote_addr'
p1207
asbag56
(g77
g58
NtRp1208
(dp1209
g61
(dp1210
g88
g89
ssg70
g1199
sg63
(lp1211
S':'
asbag56
(g77
g58
NtRp1212
(dp1213
g61
(dp1214
sg70
g1199
sg63
(lp1215
g56
(g57
g58
NtRp1216
(dp1217
g61
(dp1218
g69
I4
ssg70
g1212
sg63
(lp1219
g189
asbasbasbag56
(g72
g58
NtRp1220
(dp1221
g61
(dp1222
sg70
g821
sg63
(lp1223
g56
(g77
g58
NtRp1224
(dp1225
g61
(dp1226
g81
g82
ssg70
g1220
sg63
(lp1227
S'remote_port'
p1228
asbag56
(g77
g58
NtRp1229
(dp1230
g61
(dp1231
g88
g89
ssg70
g1220
sg63
(lp1232
S':'
asbag56
(g77
g58
NtRp1233
(dp1234
g61
(dp1235
sg70
g1220
sg63
(lp1236
g56
(g57
g58
NtRp1237
(dp1238
g61
(dp1239
g69
I4
ssg70
g1233
sg63
(lp1240
S'34725'
p1241
asbasbasbag56
(g72
g58
NtRp1242
(dp1243
g61
(dp1244
sg70
g821
sg63
(lp1245
g56
(g77
g58
NtRp1246
(dp1247
g61
(dp1248
g81
g82
ssg70
g1242
sg63
(lp1249
S'request_method'
p1250
asbag56
(g77
g58
NtRp1251
(dp1252
g61
(dp1253
g88
g89
ssg70
g1242
sg63
(lp1254
S':'
asbag56
(g77
g58
NtRp1255
(dp1256
g61
(dp1257
sg70
g1242
sg63
(lp1258
g56
(g57
g58
NtRp1259
(dp1260
g61
(dp1261
g69
I4
ssg70
g1255
sg63
(lp1262
S'GET'
p1263
asbasbasbag56
(g72
g58
NtRp1264
(dp1265
g61
(dp1266
sg70
g821
sg63
(lp1267
g56
(g77
g58
NtRp1268
(dp1269
g61
(dp1270
g81
g82
ssg70
g1264
sg63
(lp1271
S'request_uri'
p1272
asbag56
(g77
g58
NtRp1273
(dp1274
g61
(dp1275
g88
g89
ssg70
g1264
sg63
(lp1276
S':'
asbag56
(g77
g58
NtRp1277
(dp1278
g61
(dp1279
sg70
g1264
sg63
(lp1280
g56
(g57
g58
NtRp1281
(dp1282
g61
(dp1283
g69
I4
ssg70
g1277
sg63
(lp1284
g1177
asbasbasbag56
(g72
g58
NtRp1285
(dp1286
g61
(dp1287
sg70
g821
sg63
(lp1288
g56
(g77
g58
NtRp1289
(dp1290
g61
(dp1291
g81
g82
ssg70
g1285
sg63
(lp1292
S'script_name'
p1293
asbag56
(g77
g58
NtRp1294
(dp1295
g61
(dp1296
g88
g89
ssg70
g1285
sg63
(lp1297
S':'
asbag56
(g77
g58
NtRp1298
(dp1299
g61
(dp1300
sg70
g1285
sg63
(lp1301
g56
(g57
g58
NtRp1302
(dp1303
g61
(dp1304
g69
I4
ssg70
g1298
sg63
(lp1305
S''
asbasbasbag56
(g72
g58
NtRp1306
(dp1307
g61
(dp1308
sg70
g821
sg63
(lp1309
g56
(g77
g58
NtRp1310
(dp1311
g61
(dp1312
g81
g82
ssg70
g1306
sg63
(lp1313
S'server_name'
p1314
asbag56
(g77
g58
NtRp1315
(dp1316
g61
(dp1317
g88
g89
ssg70
g1306
sg63
(lp1318
S':'
asbag56
(g77
g58
NtRp1319
(dp1320
g61
(dp1321
sg70
g1306
sg63
(lp1322
g56
(g57
g58
NtRp1323
(dp1324
g61
(dp1325
g69
I4
ssg70
g1319
sg63
(lp1326
S'jose'
p1327
asbasbasbag56
(g72
g58
NtRp1328
(dp1329
g61
(dp1330
sg70
g821
sg63
(lp1331
g56
(g77
g58
NtRp1332
(dp1333
g61
(dp1334
g81
g82
ssg70
g1328
sg63
(lp1335
S'server_port'
p1336
asbag56
(g77
g58
NtRp1337
(dp1338
g61
(dp1339
g88
g89
ssg70
g1328
sg63
(lp1340
S':'
asbag56
(g77
g58
NtRp1341
(dp1342
g61
(dp1343
sg70
g1328
sg63
(lp1344
g56
(g57
g58
NtRp1345
(dp1346
g61
(dp1347
g69
I4
ssg70
g1341
sg63
(lp1348
S'8000'
p1349
asbasbasbag56
(g72
g58
NtRp1350
(dp1351
g61
(dp1352
sg70
g821
sg63
(lp1353
g56
(g77
g58
NtRp1354
(dp1355
g61
(dp1356
g81
g82
ssg70
g1350
sg63
(lp1357
S'server_protocol'
p1358
asbag56
(g77
g58
NtRp1359
(dp1360
g61
(dp1361
g88
g89
ssg70
g1350
sg63
(lp1362
S':'
asbag56
(g77
g58
NtRp1363
(dp1364
g61
(dp1365
sg70
g1350
sg63
(lp1366
g56
(g57
g58
NtRp1367
(dp1368
g61
(dp1369
g69
I4
ssg70
g1363
sg63
(lp1370
S'HTTP/1.1'
p1371
asbasbasbag56
(g72
g58
NtRp1372
(dp1373
g61
(dp1374
sg70
g821
sg63
(lp1375
g56
(g77
g58
NtRp1376
(dp1377
g61
(dp1378
g81
g82
ssg70
g1372
sg63
(lp1379
S'server_software'
p1380
asbag56
(g77
g58
NtRp1381
(dp1382
g61
(dp1383
g88
g89
ssg70
g1372
sg63
(lp1384
S':'
asbag56
(g77
g58
NtRp1385
(dp1386
g61
(dp1387
sg70
g1372
sg63
(lp1388
g56
(g57
g58
NtRp1389
(dp1390
g61
(dp1391
g69
I4
ssg70
g1385
sg63
(lp1392
S'Rocket 1.2.4'
p1393
asbasbasbag56
(g72
g58
NtRp1394
(dp1395
g61
(dp1396
sg70
g821
sg63
(lp1397
g56
(g77
g58
NtRp1398
(dp1399
g61
(dp1400
g81
g82
ssg70
g1394
sg63
(lp1401
S'web2py_crontype'
p1402
asbag56
(g77
g58
NtRp1403
(dp1404
g61
(dp1405
g88
g89
ssg70
g1394
sg63
(lp1406
S':'
asbag56
(g77
g58
NtRp1407
(dp1408
g61
(dp1409
sg70
g1394
sg63
(lp1410
g56
(g57
g58
NtRp1411
(dp1412
g61
(dp1413
g69
I4
ssg70
g1407
sg63
(lp1414
S'hard'
p1415
asbasbasbag56
(g72
g58
NtRp1416
(dp1417
g61
(dp1418
sg70
g821
sg63
(lp1419
g56
(g77
g58
NtRp1420
(dp1421
g61
(dp1422
g81
g82
ssg70
g1416
sg63
(lp1423
S'web2py_original_uri'
p1424
asbag56
(g77
g58
NtRp1425
(dp1426
g61
(dp1427
g88
g89
ssg70
g1416
sg63
(lp1428
S':'
asbag56
(g77
g58
NtRp1429
(dp1430
g61
(dp1431
sg70
g1416
sg63
(lp1432
g56
(g57
g58
NtRp1433
(dp1434
g61
(dp1435
g69
I4
ssg70
g1429
sg63
(lp1436
g1177
asbasbasbag56
(g72
g58
NtRp1437
(dp1438
g61
(dp1439
sg70
g821
sg63
(lp1440
g56
(g77
g58
NtRp1441
(dp1442
g61
(dp1443
g81
g82
ssg70
g1437
sg63
(lp1444
S'web2py_path'
p1445
asbag56
(g77
g58
NtRp1446
(dp1447
g61
(dp1448
g88
g89
ssg70
g1437
sg63
(lp1449
S':'
asbag56
(g77
g58
NtRp1450
(dp1451
g61
(dp1452
sg70
g1437
sg63
(lp1453
g56
(g57
g58
NtRp1454
(dp1455
g61
(dp1456
g69
I4
ssg70
g1450
sg63
(lp1457
g868
asbasbasbag56
(g72
g58
NtRp1458
(dp1459
g61
(dp1460
sg70
g821
sg63
(lp1461
g56
(g77
g58
NtRp1462
(dp1463
g61
(dp1464
g81
g82
ssg70
g1458
sg63
(lp1465
S'web2py_version'
p1466
asbag56
(g77
g58
NtRp1467
(dp1468
g61
(dp1469
g88
g89
ssg70
g1458
sg63
(lp1470
S':'
asbag56
(g77
g58
NtRp1471
(dp1472
g61
(dp1473
sg70
g1458
sg63
(lp1474
g56
(g57
g58
NtRp1475
(dp1476
g61
(dp1477
g69
I4
ssg70
g1471
sg63
(lp1478
g56
(g65
g58
NtRp1479
(dp1480
g61
(dp1481
g69
I3
ssg70
Nsg63
(lp1482
g56
(g72
g58
NtRp1483
(dp1484
g61
(dp1485
sg70
g1479
sg63
(lp1486
g56
(g77
g58
NtRp1487
(dp1488
g61
(dp1489
sg70
g1483
sg63
(lp1490
g56
(g57
g58
NtRp1491
(dp1492
g61
(dp1493
g69
I3
ssg70
g1487
sg63
(lp1494
S'1'
asbasbasbag56
(g72
g58
NtRp1495
(dp1496
g61
(dp1497
sg70
g1479
sg63
(lp1498
g56
(g77
g58
NtRp1499
(dp1500
g61
(dp1501
sg70
g1495
sg63
(lp1502
g56
(g57
g58
NtRp1503
(dp1504
g61
(dp1505
g69
I3
ssg70
g1499
sg63
(lp1506
S'99'
p1507
asbasbasbag56
(g72
g58
NtRp1508
(dp1509
g61
(dp1510
sg70
g1479
sg63
(lp1511
g56
(g77
g58
NtRp1512
(dp1513
g61
(dp1514
sg70
g1508
sg63
(lp1515
g56
(g57
g58
NtRp1516
(dp1517
g61
(dp1518
g69
I3
ssg70
g1512
sg63
(lp1519
S'2'
asbasbasbag56
(g72
g58
NtRp1520
(dp1521
g61
(dp1522
sg70
g1479
sg63
(lp1523
g56
(g77
g58
NtRp1524
(dp1525
g61
(dp1526
sg70
g1520
sg63
(lp1527
g56
(g57
g58
NtRp1528
(dp1529
g61
(dp1530
g69
I3
ssg70
g1524
sg63
(lp1531
S'datetime.datetime(2011, 9, 26, 6, 55, 33)'
p1532
asbasbasbag56
(g72
g58
NtRp1533
(dp1534
g61
(dp1535
sg70
g1479
sg63
(lp1536
g56
(g77
g58
NtRp1537
(dp1538
g61
(dp1539
sg70
g1533
sg63
(lp1540
g56
(g57
g58
NtRp1541
(dp1542
g61
(dp1543
g69
I3
ssg70
g1537
sg63
(lp1544
S'stable'
p1545
asbasbasbasbasbasbasbag56
(g72
g58
NtRp1546
(dp1547
g61
(dp1548
sg70
g821
sg63
(lp1549
g56
(g77
g58
NtRp1550
(dp1551
g61
(dp1552
g81
g82
ssg70
g1546
sg63
(lp1553
S'wsgi_errors'
p1554
asbag56
(g77
g58
NtRp1555
(dp1556
g61
(dp1557
g88
g89
ssg70
g1546
sg63
(lp1558
S':'
asbag56
(g77
g58
NtRp1559
(dp1560
g61
(dp1561
sg70
g1546
sg63
(lp1562
g56
(g57
g58
NtRp1563
(dp1564
g61
(dp1565
g69
I4
ssg70
g1559
sg63
(lp1566
S"<open file '<stderr>', mode 'w' at 0x7f70cdab4270>"
p1567
asbasbasbag56
(g72
g58
NtRp1568
(dp1569
g61
(dp1570
sg70
g821
sg63
(lp1571
g56
(g77
g58
NtRp1572
(dp1573
g61
(dp1574
g81
g82
ssg70
g1568
sg63
(lp1575
S'wsgi_file_wrapper'
p1576
asbag56
(g77
g58
NtRp1577
(dp1578
g61
(dp1579
g88
g89
ssg70
g1568
sg63
(lp1580
S':'
asbag56
(g77
g58
NtRp1581
(dp1582
g61
(dp1583
sg70
g1568
sg63
(lp1584
g56
(g57
g58
NtRp1585
(dp1586
g61
(dp1587
g69
I4
ssg70
g1581
sg63
(lp1588
S'<class wsgiref.util.FileWrapper at 0x234fd50>'
p1589
asbasbasbag56
(g72
g58
NtRp1590
(dp1591
g61
(dp1592
sg70
g821
sg63
(lp1593
g56
(g77
g58
NtRp1594
(dp1595
g61
(dp1596
g81
g82
ssg70
g1590
sg63
(lp1597
S'wsgi_input'
p1598
asbag56
(g77
g58
NtRp1599
(dp1600
g61
(dp1601
g88
g89
ssg70
g1590
sg63
(lp1602
S':'
asbag56
(g77
g58
NtRp1603
(dp1604
g61
(dp1605
sg70
g1590
sg63
(lp1606
g56
(g57
g58
NtRp1607
(dp1608
g61
(dp1609
g69
I4
ssg70
g1603
sg63
(lp1610
S'<socket._fileobject object at 0x2c01250>'
p1611
asbasbasbag56
(g72
g58
NtRp1612
(dp1613
g61
(dp1614
sg70
g821
sg63
(lp1615
g56
(g77
g58
NtRp1616
(dp1617
g61
(dp1618
g81
g82
ssg70
g1612
sg63
(lp1619
S'wsgi_multiprocess'
p1620
asbag56
(g77
g58
NtRp1621
(dp1622
g61
(dp1623
g88
g89
ssg70
g1612
sg63
(lp1624
S':'
asbag56
(g77
g58
NtRp1625
(dp1626
g61
(dp1627
sg70
g1612
sg63
(lp1628
g56
(g57
g58
NtRp1629
(dp1630
g61
(dp1631
g69
I4
ssg70
g1625
sg63
(lp1632
g99
asbasbasbag56
(g72
g58
NtRp1633
(dp1634
g61
(dp1635
sg70
g821
sg63
(lp1636
g56
(g77
g58
NtRp1637
(dp1638
g61
(dp1639
g81
g82
ssg70
g1633
sg63
(lp1640
S'wsgi_multithread'
p1641
asbag56
(g77
g58
NtRp1642
(dp1643
g61
(dp1644
g88
g89
ssg70
g1633
sg63
(lp1645
S':'
asbag56
(g77
g58
NtRp1646
(dp1647
g61
(dp1648
sg70
g1633
sg63
(lp1649
g56
(g57
g58
NtRp1650
(dp1651
g61
(dp1652
g69
I4
ssg70
g1646
sg63
(lp1653
S'True'
p1654
asbasbasbag56
(g72
g58
NtRp1655
(dp1656
g61
(dp1657
sg70
g821
sg63
(lp1658
g56
(g77
g58
NtRp1659
(dp1660
g61
(dp1661
g81
g82
ssg70
g1655
sg63
(lp1662
S'wsgi_run_once'
p1663
asbag56
(g77
g58
NtRp1664
(dp1665
g61
(dp1666
g88
g89
ssg70
g1655
sg63
(lp1667
S':'
asbag56
(g77
g58
NtRp1668
(dp1669
g61
(dp1670
sg70
g1655
sg63
(lp1671
g56
(g57
g58
NtRp1672
(dp1673
g61
(dp1674
g69
I4
ssg70
g1668
sg63
(lp1675
g99
asbasbasbag56
(g72
g58
NtRp1676
(dp1677
g61
(dp1678
sg70
g821
sg63
(lp1679
g56
(g77
g58
NtRp1680
(dp1681
g61
(dp1682
g81
g82
ssg70
g1676
sg63
(lp1683
S'wsgi_url_scheme'
p1684
asbag56
(g77
g58
NtRp1685
(dp1686
g61
(dp1687
g88
g89
ssg70
g1676
sg63
(lp1688
S':'
asbag56
(g77
g58
NtRp1689
(dp1690
g61
(dp1691
sg70
g1676
sg63
(lp1692
g56
(g57
g58
NtRp1693
(dp1694
g61
(dp1695
g69
I4
ssg70
g1689
sg63
(lp1696
S'http'
p1697
asbasbasbag56
(g72
g58
NtRp1698
(dp1699
g61
(dp1700
sg70
g821
sg63
(lp1701
g56
(g77
g58
NtRp1702
(dp1703
g61
(dp1704
g81
g82
ssg70
g1698
sg63
(lp1705
S'wsgi_version'
p1706
asbag56
(g77
g58
NtRp1707
(dp1708
g61
(dp1709
g88
g89
ssg70
g1698
sg63
(lp1710
S':'
asbag56
(g77
g58
NtRp1711
(dp1712
g61
(dp1713
sg70
g1698
sg63
(lp1714
g56
(g57
g58
NtRp1715
(dp1716
g61
(dp1717
g69
I4
ssg70
g1711
sg63
(lp1718
g56
(g65
g58
NtRp1719
(dp1720
g61
(dp1721
g69
I3
ssg70
Nsg63
(lp1722
g56
(g72
g58
NtRp1723
(dp1724
g61
(dp1725
sg70
g1719
sg63
(lp1726
g56
(g77
g58
NtRp1727
(dp1728
g61
(dp1729
sg70
g1723
sg63
(lp1730
g56
(g57
g58
NtRp1731
(dp1732
g61
(dp1733
g69
I3
ssg70
g1727
sg63
(lp1734
S'1'
asbasbasbag56
(g72
g58
NtRp1735
(dp1736
g61
(dp1737
sg70
g1719
sg63
(lp1738
g56
(g77
g58
NtRp1739
(dp1740
g61
(dp1741
sg70
g1735
sg63
(lp1742
g56
(g57
g58
NtRp1743
(dp1744
g61
(dp1745
g69
I3
ssg70
g1739
sg63
(lp1746
S'0'
asbasbasbasbasbasbasbasbasbasbasbag56
(g72
g58
NtRp1747
(dp1748
g61
(dp1749
sg70
g66
sg63
(lp1750
g56
(g77
g58
NtRp1751
(dp1752
g61
(dp1753
g81
g82
ssg70
g1747
sg63
(lp1754
S'extension'
p1755
asbag56
(g77
g58
NtRp1756
(dp1757
g61
(dp1758
g88
g89
ssg70
g1747
sg63
(lp1759
S':'
asbag56
(g77
g58
NtRp1760
(dp1761
g61
(dp1762
sg70
g1747
sg63
(lp1763
g56
(g57
g58
NtRp1764
(dp1765
g61
(dp1766
g69
I5
ssg70
g1760
sg63
(lp1767
S'html'
p1768
asbasbasbag56
(g72
g58
NtRp1769
(dp1770
g61
(dp1771
sg70
g66
sg63
(lp1772
g56
(g77
g58
NtRp1773
(dp1774
g61
(dp1775
g81
g82
ssg70
g1769
sg63
(lp1776
S'folder'
p1777
asbag56
(g77
g58
NtRp1778
(dp1779
g61
(dp1780
g88
g89
ssg70
g1769
sg63
(lp1781
S':'
asbag56
(g77
g58
NtRp1782
(dp1783
g61
(dp1784
sg70
g1769
sg63
(lp1785
g56
(g57
g58
NtRp1786
(dp1787
g61
(dp1788
g69
I5
ssg70
g1782
sg63
(lp1789
S'/home/jose/DESARROLLO/web2py199/applications/streamlog/'
p1790
asbasbasbag56
(g72
g58
NtRp1791
(dp1792
g61
(dp1793
sg70
g66
sg63
(lp1794
g56
(g77
g58
NtRp1795
(dp1796
g61
(dp1797
g81
g82
ssg70
g1791
sg63
(lp1798
S'function'
p1799
asbag56
(g77
g58
NtRp1800
(dp1801
g61
(dp1802
g88
g89
ssg70
g1791
sg63
(lp1803
S':'
asbag56
(g77
g58
NtRp1804
(dp1805
g61
(dp1806
sg70
g1791
sg63
(lp1807
g56
(g57
g58
NtRp1808
(dp1809
g61
(dp1810
g69
I5
ssg70
g1804
sg63
(lp1811
S'index'
p1812
asbasbasbag56
(g72
g58
NtRp1813
(dp1814
g61
(dp1815
sg70
g66
sg63
(lp1816
g56
(g77
g58
NtRp1817
(dp1818
g61
(dp1819
g81
g82
ssg70
g1813
sg63
(lp1820
S'get_vars'
p1821
asbag56
(g77
g58
NtRp1822
(dp1823
g61
(dp1824
g88
g89
ssg70
g1813
sg63
(lp1825
S':'
asbag56
(g77
g58
NtRp1826
(dp1827
g61
(dp1828
sg70
g1813
sg63
(lp1829
g56
(g57
g58
NtRp1830
(dp1831
g61
(dp1832
g69
I5
ssg70
g1826
sg63
(lp1833
g56
(g65
g58
NtRp1834
(dp1835
g61
(dp1836
g69
I4
ssg70
Nsg63
(lp1837
sbasbasbasbag56
(g72
g58
NtRp1838
(dp1839
g61
(dp1840
sg70
g66
sg63
(lp1841
g56
(g77
g58
NtRp1842
(dp1843
g61
(dp1844
g81
g82
ssg70
g1838
sg63
(lp1845
S'global_settings'
p1846
asbag56
(g77
g58
NtRp1847
(dp1848
g61
(dp1849
g88
g89
ssg70
g1838
sg63
(lp1850
S':'
asbag56
(g77
g58
NtRp1851
(dp1852
g61
(dp1853
sg70
g1838
sg63
(lp1854
g56
(g57
g58
NtRp1855
(dp1856
g61
(dp1857
g69
I5
ssg70
g1851
sg63
(lp1858
g56
(g65
g58
NtRp1859
(dp1860
g61
(dp1861
g69
I4
ssg70
Nsg63
(lp1862
g56
(g72
g58
NtRp1863
(dp1864
g61
(dp1865
sg70
g1859
sg63
(lp1866
g56
(g77
g58
NtRp1867
(dp1868
g61
(dp1869
g81
g82
ssg70
g1863
sg63
(lp1870
g833
asbag56
(g77
g58
NtRp1871
(dp1872
g61
(dp1873
g88
g89
ssg70
g1863
sg63
(lp1874
S':'
asbag56
(g77
g58
NtRp1875
(dp1876
g61
(dp1877
sg70
g1863
sg63
(lp1878
g56
(g57
g58
NtRp1879
(dp1880
g61
(dp1881
g69
I4
ssg70
g1875
sg63
(lp1882
S"set(['/home/jose/DESARROLLO/web2py199/applications/streamlog/', '/home/jose/DESARROLLO/web2py199/applications/admin/'])"
p1883
asbasbasbag56
(g72
g58
NtRp1884
(dp1885
g61
(dp1886
sg70
g1859
sg63
(lp1887
g56
(g77
g58
NtRp1888
(dp1889
g61
(dp1890
g81
g82
ssg70
g1884
sg63
(lp1891
g855
asbag56
(g77
g58
NtRp1892
(dp1893
g61
(dp1894
g88
g89
ssg70
g1884
sg63
(lp1895
S':'
asbag56
(g77
g58
NtRp1896
(dp1897
g61
(dp1898
sg70
g1884
sg63
(lp1899
g56
(g57
g58
NtRp1900
(dp1901
g61
(dp1902
g69
I4
ssg70
g1896
sg63
(lp1903
g868
asbasbasbag56
(g72
g58
NtRp1904
(dp1905
g61
(dp1906
sg70
g1859
sg63
(lp1907
g56
(g77
g58
NtRp1908
(dp1909
g61
(dp1910
g81
g82
ssg70
g1904
sg63
(lp1911
g877
asbag56
(g77
g58
NtRp1912
(dp1913
g61
(dp1914
g88
g89
ssg70
g1904
sg63
(lp1915
S':'
asbag56
(g77
g58
NtRp1916
(dp1917
g61
(dp1918
sg70
g1904
sg63
(lp1919
g56
(g57
g58
NtRp1920
(dp1921
g61
(dp1922
g69
I4
ssg70
g1916
sg63
(lp1923
g56
(g65
g58
NtRp1924
(dp1925
g61
(dp1926
g69
I3
ssg70
Nsg63
(lp1927
sbasbasbasbag56
(g72
g58
NtRp1928
(dp1929
g61
(dp1930
sg70
g1859
sg63
(lp1931
g56
(g77
g58
NtRp1932
(dp1933
g61
(dp1934
g81
g82
ssg70
g1928
sg63
(lp1935
g902
asbag56
(g77
g58
NtRp1936
(dp1937
g61
(dp1938
g88
g89
ssg70
g1928
sg63
(lp1939
S':'
asbag56
(g77
g58
NtRp1940
(dp1941
g61
(dp1942
sg70
g1928
sg63
(lp1943
g56
(g57
g58
NtRp1944
(dp1945
g61
(dp1946
g69
I4
ssg70
g1940
sg63
(lp1947
S"<Values at 0x24356c8: {'verbose': False, 'ip': '127.0.0.1', 'shutdown_timeout': 5, 'taskbar': False, 'nocron': False, 'pid_filename': 'httpserver.pid', 'maxthreads': None, 'softcron': False, 'server_name': 'jose', 'bpython': False, 'nogui': False, 'port': 8000, 'extcron': False, 'debuglevel': 30, 'test': None, 'folder': '/home/jose/DESARROLLO/web2py199', 'config': '', 'import_models': False, 'winservice': '', 'shell': None, 'run': '', 'log_filename': 'httpserver.log', 'args': [''], 'ssl_ca_certificate': None, 'scheduler': None, 'profiler_filename': None, 'ssl_private_key': '', 'password': 't', 'request_queue_size': 5, 'ssl_certificate': '', 'cronjob': False, 'plain': False, 'quiet': False, 'interfaces': None, 'minthreads': None, 'timeout': 10, 'numthreads': None, 'nobanner': False}>"
p1948
asbasbasbag56
(g72
g58
NtRp1949
(dp1950
g61
(dp1951
sg70
g1859
sg63
(lp1952
g56
(g77
g58
NtRp1953
(dp1954
g61
(dp1955
g81
g82
ssg70
g1949
sg63
(lp1956
g924
asbag56
(g77
g58
NtRp1957
(dp1958
g61
(dp1959
g88
g89
ssg70
g1949
sg63
(lp1960
S':'
asbag56
(g77
g58
NtRp1961
(dp1962
g61
(dp1963
sg70
g1949
sg63
(lp1964
g56
(g57
g58
NtRp1965
(dp1966
g61
(dp1967
g69
I4
ssg70
g1961
sg63
(lp1968
S'set([])'
p1969
asbasbasbag56
(g72
g58
NtRp1970
(dp1971
g61
(dp1972
sg70
g1859
sg63
(lp1973
g56
(g77
g58
NtRp1974
(dp1975
g61
(dp1976
g81
g82
ssg70
g1970
sg63
(lp1977
g946
asbag56
(g77
g58
NtRp1978
(dp1979
g61
(dp1980
g88
g89
ssg70
g1970
sg63
(lp1981
S':'
asbag56
(g77
g58
NtRp1982
(dp1983
g61
(dp1984
sg70
g1970
sg63
(lp1985
g56
(g57
g58
NtRp1986
(dp1987
g61
(dp1988
g69
I4
ssg70
g1982
sg63
(lp1989
g99
asbasbasbag56
(g72
g58
NtRp1990
(dp1991
g61
(dp1992
sg70
g1859
sg63
(lp1993
g56
(g77
g58
NtRp1994
(dp1995
g61
(dp1996
g81
g82
ssg70
g1990
sg63
(lp1997
g967
asbag56
(g77
g58
NtRp1998
(dp1999
g61
(dp2000
g88
g89
ssg70
g1990
sg63
(lp2001
S':'
asbag56
(g77
g58
NtRp2002
(dp2003
g61
(dp2004
sg70
g1990
sg63
(lp2005
g56
(g57
g58
NtRp2006
(dp2007
g61
(dp2008
g69
I4
ssg70
g2002
sg63
(lp2009
g980
asbasbasbag56
(g72
g58
NtRp2010
(dp2011
g61
(dp2012
sg70
g1859
sg63
(lp2013
g56
(g77
g58
NtRp2014
(dp2015
g61
(dp2016
g81
g82
ssg70
g2010
sg63
(lp2017
g1143
asbag56
(g77
g58
NtRp2018
(dp2019
g61
(dp2020
g88
g89
ssg70
g2010
sg63
(lp2021
S':'
asbag56
(g77
g58
NtRp2022
(dp2023
g61
(dp2024
sg70
g2010
sg63
(lp2025
g56
(g57
g58
NtRp2026
(dp2027
g61
(dp2028
g69
I4
ssg70
g2022
sg63
(lp2029
g99
asbasbasbag56
(g72
g58
NtRp2030
(dp2031
g61
(dp2032
sg70
g1859
sg63
(lp2033
g56
(g77
g58
NtRp2034
(dp2035
g61
(dp2036
g81
g82
ssg70
g2030
sg63
(lp2037
g1402
asbag56
(g77
g58
NtRp2038
(dp2039
g61
(dp2040
g88
g89
ssg70
g2030
sg63
(lp2041
S':'
asbag56
(g77
g58
NtRp2042
(dp2043
g61
(dp2044
sg70
g2030
sg63
(lp2045
g56
(g57
g58
NtRp2046
(dp2047
g61
(dp2048
g69
I4
ssg70
g2042
sg63
(lp2049
g1415
asbasbasbag56
(g72
g58
NtRp2050
(dp2051
g61
(dp2052
sg70
g1859
sg63
(lp2053
g56
(g77
g58
NtRp2054
(dp2055
g61
(dp2056
g81
g82
ssg70
g2050
sg63
(lp2057
g1466
asbag56
(g77
g58
NtRp2058
(dp2059
g61
(dp2060
g88
g89
ssg70
g2050
sg63
(lp2061
S':'
asbag56
(g77
g58
NtRp2062
(dp2063
g61
(dp2064
sg70
g2050
sg63
(lp2065
g56
(g57
g58
NtRp2066
(dp2067
g61
(dp2068
g69
I4
ssg70
g2062
sg63
(lp2069
g56
(g65
g58
NtRp2070
(dp2071
g61
(dp2072
g69
I3
ssg70
Nsg63
(lp2073
g56
(g72
g58
NtRp2074
(dp2075
g61
(dp2076
sg70
g2070
sg63
(lp2077
g56
(g77
g58
NtRp2078
(dp2079
g61
(dp2080
sg70
g2074
sg63
(lp2081
g56
(g57
g58
NtRp2082
(dp2083
g61
(dp2084
g69
I3
ssg70
g2078
sg63
(lp2085
S'1'
asbasbasbag56
(g72
g58
NtRp2086
(dp2087
g61
(dp2088
sg70
g2070
sg63
(lp2089
g56
(g77
g58
NtRp2090
(dp2091
g61
(dp2092
sg70
g2086
sg63
(lp2093
g56
(g57
g58
NtRp2094
(dp2095
g61
(dp2096
g69
I3
ssg70
g2090
sg63
(lp2097
S'99'
p2098
asbasbasbag56
(g72
g58
NtRp2099
(dp2100
g61
(dp2101
sg70
g2070
sg63
(lp2102
g56
(g77
g58
NtRp2103
(dp2104
g61
(dp2105
sg70
g2099
sg63
(lp2106
g56
(g57
g58
NtRp2107
(dp2108
g61
(dp2109
g69
I3
ssg70
g2103
sg63
(lp2110
S'2'
asbasbasbag56
(g72
g58
NtRp2111
(dp2112
g61
(dp2113
sg70
g2070
sg63
(lp2114
g56
(g77
g58
NtRp2115
(dp2116
g61
(dp2117
sg70
g2111
sg63
(lp2118
g56
(g57
g58
NtRp2119
(dp2120
g61
(dp2121
g69
I3
ssg70
g2115
sg63
(lp2122
S'datetime.datetime(2011, 9, 26, 6, 55, 33)'
p2123
asbasbasbag56
(g72
g58
NtRp2124
(dp2125
g61
(dp2126
sg70
g2070
sg63
(lp2127
g56
(g77
g58
NtRp2128
(dp2129
g61
(dp2130
sg70
g2124
sg63
(lp2131
g56
(g57
g58
NtRp2132
(dp2133
g61
(dp2134
g69
I3
ssg70
g2128
sg63
(lp2135
g1545
asbasbasbasbasbasbasbasbasbasbasbag56
(g72
g58
NtRp2136
(dp2137
g61
(dp2138
sg70
g66
sg63
(lp2139
g56
(g77
g58
NtRp2140
(dp2141
g61
(dp2142
g81
g82
ssg70
g2136
sg63
(lp2143
S'is_https'
p2144
asbag56
(g77
g58
NtRp2145
(dp2146
g61
(dp2147
g88
g89
ssg70
g2136
sg63
(lp2148
S':'
asbag56
(g77
g58
NtRp2149
(dp2150
g61
(dp2151
sg70
g2136
sg63
(lp2152
g56
(g57
g58
NtRp2153
(dp2154
g61
(dp2155
g69
I5
ssg70
g2149
sg63
(lp2156
g99
asbasbasbag56
(g72
g58
NtRp2157
(dp2158
g61
(dp2159
sg70
g66
sg63
(lp2160
g56
(g77
g58
NtRp2161
(dp2162
g61
(dp2163
g81
g82
ssg70
g2157
sg63
(lp2164
S'is_local'
p2165
asbag56
(g77
g58
NtRp2166
(dp2167
g61
(dp2168
g88
g89
ssg70
g2157
sg63
(lp2169
S':'
asbag56
(g77
g58
NtRp2170
(dp2171
g61
(dp2172
sg70
g2157
sg63
(lp2173
g56
(g57
g58
NtRp2174
(dp2175
g61
(dp2176
g69
I5
ssg70
g2170
sg63
(lp2177
g1654
asbasbasbag56
(g72
g58
NtRp2178
(dp2179
g61
(dp2180
sg70
g66
sg63
(lp2181
g56
(g77
g58
NtRp2182
(dp2183
g61
(dp2184
g81
g82
ssg70
g2178
sg63
(lp2185
S'is_restful'
p2186
asbag56
(g77
g58
NtRp2187
(dp2188
g61
(dp2189
g88
g89
ssg70
g2178
sg63
(lp2190
S':'
asbag56
(g77
g58
NtRp2191
(dp2192
g61
(dp2193
sg70
g2178
sg63
(lp2194
g56
(g57
g58
NtRp2195
(dp2196
g61
(dp2197
g69
I5
ssg70
g2191
sg63
(lp2198
g99
asbasbasbag56
(g72
g58
NtRp2199
(dp2200
g61
(dp2201
sg70
g66
sg63
(lp2202
g56
(g77
g58
NtRp2203
(dp2204
g61
(dp2205
g81
g82
ssg70
g2199
sg63
(lp2206
S'now'
p2207
asbag56
(g77
g58
NtRp2208
(dp2209
g61
(dp2210
g88
g89
ssg70
g2199
sg63
(lp2211
S':'
asbag56
(g77
g58
NtRp2212
(dp2213
g61
(dp2214
sg70
g2199
sg63
(lp2215
g56
(g57
g58
NtRp2216
(dp2217
g61
(dp2218
g69
I5
ssg70
g2212
sg63
(lp2219
S'datetime.datetime(2012, 5, 27, 15, 54, 14, 276316)'
p2220
asbasbasbag56
(g72
g58
NtRp2221
(dp2222
g61
(dp2223
sg70
g66
sg63
(lp2224
g56
(g77
g58
NtRp2225
(dp2226
g61
(dp2227
g81
g82
ssg70
g2221
sg63
(lp2228
S'post_vars'
p2229
asbag56
(g77
g58
NtRp2230
(dp2231
g61
(dp2232
g88
g89
ssg70
g2221
sg63
(lp2233
S':'
asbag56
(g77
g58
NtRp2234
(dp2235
g61
(dp2236
sg70
g2221
sg63
(lp2237
g56
(g57
g58
NtRp2238
(dp2239
g61
(dp2240
g69
I5
ssg70
g2234
sg63
(lp2241
g56
(g65
g58
NtRp2242
(dp2243
g61
(dp2244
g69
I4
ssg70
Nsg63
(lp2245
sbasbasbasbag56
(g72
g58
NtRp2246
(dp2247
g61
(dp2248
sg70
g66
sg63
(lp2249
g56
(g77
g58
NtRp2250
(dp2251
g61
(dp2252
g81
g82
ssg70
g2246
sg63
(lp2253
S'url'
p2254
asbag56
(g77
g58
NtRp2255
(dp2256
g61
(dp2257
g88
g89
ssg70
g2246
sg63
(lp2258
S':'
asbag56
(g77
g58
NtRp2259
(dp2260
g61
(dp2261
sg70
g2246
sg63
(lp2262
g56
(g57
g58
NtRp2263
(dp2264
g61
(dp2265
g69
I5
ssg70
g2259
sg63
(lp2266
S'/streamlog/default/index'
p2267
asbasbasbag56
(g72
g58
NtRp2268
(dp2269
g61
(dp2270
sg70
g66
sg63
(lp2271
g56
(g77
g58
NtRp2272
(dp2273
g61
(dp2274
g81
g82
ssg70
g2268
sg63
(lp2275
S'utcnow'
p2276
asbag56
(g77
g58
NtRp2277
(dp2278
g61
(dp2279
g88
g89
ssg70
g2268
sg63
(lp2280
S':'
asbag56
(g77
g58
NtRp2281
(dp2282
g61
(dp2283
sg70
g2268
sg63
(lp2284
g56
(g57
g58
NtRp2285
(dp2286
g61
(dp2287
g69
I5
ssg70
g2281
sg63
(lp2288
S'datetime.datetime(2012, 5, 27, 8, 54, 14, 276343)'
p2289
asbasbasbag56
(g72
g58
NtRp2290
(dp2291
g61
(dp2292
sg70
g66
sg63
(lp2293
g56
(g77
g58
NtRp2294
(dp2295
g61
(dp2296
g81
g82
ssg70
g2290
sg63
(lp2297
S'uuid'
p2298
asbag56
(g77
g58
NtRp2299
(dp2300
g61
(dp2301
g88
g89
ssg70
g2290
sg63
(lp2302
S':'
asbag56
(g77
g58
NtRp2303
(dp2304
g61
(dp2305
sg70
g2290
sg63
(lp2306
g56
(g57
g58
NtRp2307
(dp2308
g61
(dp2309
g69
I5
ssg70
g2303
sg63
(lp2310
S'streamlog/127.0.0.1.2012-05-27.15-54-14.8f5dc4d8-9148-4aff-86cb-fa7918ea8256'
p2311
asbasbasbag56
(g72
g58
NtRp2312
(dp2313
g61
(dp2314
sg70
g66
sg63
(lp2315
g56
(g77
g58
NtRp2316
(dp2317
g61
(dp2318
g81
g82
ssg70
g2312
sg63
(lp2319
S'vars'
p2320
asbag56
(g77
g58
NtRp2321
(dp2322
g61
(dp2323
g88
g89
ssg70
g2312
sg63
(lp2324
S':'
asbag56
(g77
g58
NtRp2325
(dp2326
g61
(dp2327
sg70
g2312
sg63
(lp2328
g56
(g57
g58
NtRp2329
(dp2330
g61
(dp2331
g69
I5
ssg70
g2325
sg63
(lp2332
g56
(g65
g58
NtRp2333
(dp2334
g61
(dp2335
g69
I4
ssg70
Nsg63
(lp2336
g56
(g72
g58
NtRp2337
(dp2338
g61
(dp2339
sg70
g2333
sg63
(lp2340
g56
(g77
g58
NtRp2341
(dp2342
g61
(dp2343
g81
g82
ssg70
g2337
sg63
(lp2344
S'records'
p2345
asbag56
(g77
g58
NtRp2346
(dp2347
g61
(dp2348
g88
g89
ssg70
g2337
sg63
(lp2349
S':'
asbag56
(g77
g58
NtRp2350
(dp2351
g61
(dp2352
sg70
g2337
sg63
(lp2353
g56
(g57
g58
NtRp2354
(dp2355
g61
(dp2356
g69
I4
ssg70
g2350
sg63
(lp2357
g56
(g65
g58
NtRp2358
(dp2359
g61
(dp2360
g69
I3
ssg70
Nsg63
(lp2361
sbasbasbasbasbasbasbasbag56
(g72
g58
NtRp2362
(dp2363
g61
(dp2364
sg70
g66
sg63
(lp2365
g56
(g77
g58
NtRp2366
(dp2367
g61
(dp2368
g81
g82
ssg70
g2362
sg63
(lp2369
S'wsgi'
p2370
asbag56
(g77
g58
NtRp2371
(dp2372
g61
(dp2373
g88
g89
ssg70
g2362
sg63
(lp2374
S':'
asbag56
(g77
g58
NtRp2375
(dp2376
g61
(dp2377
sg70
g2362
sg63
(lp2378
g56
(g57
g58
NtRp2379
(dp2380
g61
(dp2381
g69
I5
ssg70
g2375
sg63
(lp2382
g56
(g65
g58
NtRp2383
(dp2384
g61
(dp2385
g69
I4
ssg70
Nsg63
(lp2386
g56
(g72
g58
NtRp2387
(dp2388
g61
(dp2389
sg70
g2383
sg63
(lp2390
g56
(g77
g58
NtRp2391
(dp2392
g61
(dp2393
g81
g82
ssg70
g2387
sg63
(lp2394
S'environ'
p2395
asbag56
(g77
g58
NtRp2396
(dp2397
g61
(dp2398
g88
g89
ssg70
g2387
sg63
(lp2399
S':'
asbag56
(g77
g58
NtRp2400
(dp2401
g61
(dp2402
sg70
g2387
sg63
(lp2403
g56
(g57
g58
NtRp2404
(dp2405
g61
(dp2406
g69
I4
ssg70
g2400
sg63
(lp2407
g56
(g65
g58
NtRp2408
(dp2409
g61
(dp2410
g69
I3
ssg70
Nsg63
(lp2411
g56
(g72
g58
NtRp2412
(dp2413
g61
(dp2414
sg70
g2408
sg63
(lp2415
g56
(g77
g58
NtRp2416
(dp2417
g61
(dp2418
g81
g82
ssg70
g2412
sg63
(lp2419
S'HTTP_ACCEPT'
p2420
asbag56
(g77
g58
NtRp2421
(dp2422
g61
(dp2423
g88
g89
ssg70
g2412
sg63
(lp2424
S':'
asbag56
(g77
g58
NtRp2425
(dp2426
g61
(dp2427
sg70
g2412
sg63
(lp2428
g56
(g57
g58
NtRp2429
(dp2430
g61
(dp2431
g69
I3
ssg70
g2425
sg63
(lp2432
g1002
asbasbasbag56
(g72
g58
NtRp2433
(dp2434
g61
(dp2435
sg70
g2408
sg63
(lp2436
g56
(g77
g58
NtRp2437
(dp2438
g61
(dp2439
g81
g82
ssg70
g2433
sg63
(lp2440
S'HTTP_ACCEPT_ENCODING'
p2441
asbag56
(g77
g58
NtRp2442
(dp2443
g61
(dp2444
g88
g89
ssg70
g2433
sg63
(lp2445
S':'
asbag56
(g77
g58
NtRp2446
(dp2447
g61
(dp2448
sg70
g2433
sg63
(lp2449
g56
(g57
g58
NtRp2450
(dp2451
g61
(dp2452
g69
I3
ssg70
g2446
sg63
(lp2453
g1024
asbasbasbag56
(g72
g58
NtRp2454
(dp2455
g61
(dp2456
sg70
g2408
sg63
(lp2457
g56
(g77
g58
NtRp2458
(dp2459
g61
(dp2460
g81
g82
ssg70
g2454
sg63
(lp2461
S'HTTP_ACCEPT_LANGUAGE'
p2462
asbag56
(g77
g58
NtRp2463
(dp2464
g61
(dp2465
g88
g89
ssg70
g2454
sg63
(lp2466
S':'
asbag56
(g77
g58
NtRp2467
(dp2468
g61
(dp2469
sg70
g2454
sg63
(lp2470
g56
(g57
g58
NtRp2471
(dp2472
g61
(dp2473
g69
I3
ssg70
g2467
sg63
(lp2474
g1046
asbasbasbag56
(g72
g58
NtRp2475
(dp2476
g61
(dp2477
sg70
g2408
sg63
(lp2478
g56
(g77
g58
NtRp2479
(dp2480
g61
(dp2481
g81
g82
ssg70
g2475
sg63
(lp2482
S'HTTP_CONNECTION'
p2483
asbag56
(g77
g58
NtRp2484
(dp2485
g61
(dp2486
g88
g89
ssg70
g2475
sg63
(lp2487
S':'
asbag56
(g77
g58
NtRp2488
(dp2489
g61
(dp2490
sg70
g2475
sg63
(lp2491
g56
(g57
g58
NtRp2492
(dp2493
g61
(dp2494
g69
I3
ssg70
g2488
sg63
(lp2495
g1068
asbasbasbag56
(g72
g58
NtRp2496
(dp2497
g61
(dp2498
sg70
g2408
sg63
(lp2499
g56
(g77
g58
NtRp2500
(dp2501
g61
(dp2502
g81
g82
ssg70
g2496
sg63
(lp2503
S'HTTP_COOKIE'
p2504
asbag56
(g77
g58
NtRp2505
(dp2506
g61
(dp2507
g88
g89
ssg70
g2496
sg63
(lp2508
S':'
asbag56
(g77
g58
NtRp2509
(dp2510
g61
(dp2511
sg70
g2496
sg63
(lp2512
g56
(g57
g58
NtRp2513
(dp2514
g61
(dp2515
g69
I3
ssg70
g2509
sg63
(lp2516
g1090
asbasbasbag56
(g72
g58
NtRp2517
(dp2518
g61
(dp2519
sg70
g2408
sg63
(lp2520
g56
(g77
g58
NtRp2521
(dp2522
g61
(dp2523
g81
g82
ssg70
g2517
sg63
(lp2524
S'HTTP_HOST'
p2525
asbag56
(g77
g58
NtRp2526
(dp2527
g61
(dp2528
g88
g89
ssg70
g2517
sg63
(lp2529
S':'
asbag56
(g77
g58
NtRp2530
(dp2531
g61
(dp2532
sg70
g2517
sg63
(lp2533
g56
(g57
g58
NtRp2534
(dp2535
g61
(dp2536
g69
I3
ssg70
g2530
sg63
(lp2537
g1112
asbasbasbag56
(g72
g58
NtRp2538
(dp2539
g61
(dp2540
sg70
g2408
sg63
(lp2541
g56
(g77
g58
NtRp2542
(dp2543
g61
(dp2544
g81
g82
ssg70
g2538
sg63
(lp2545
S'HTTP_USER_AGENT'
p2546
asbag56
(g77
g58
NtRp2547
(dp2548
g61
(dp2549
g88
g89
ssg70
g2538
sg63
(lp2550
S':'
asbag56
(g77
g58
NtRp2551
(dp2552
g61
(dp2553
sg70
g2538
sg63
(lp2554
g56
(g57
g58
NtRp2555
(dp2556
g61
(dp2557
g69
I3
ssg70
g2551
sg63
(lp2558
g1134
asbasbasbag56
(g72
g58
NtRp2559
(dp2560
g61
(dp2561
sg70
g2408
sg63
(lp2562
g56
(g77
g58
NtRp2563
(dp2564
g61
(dp2565
g81
g82
ssg70
g2559
sg63
(lp2566
S'PATH_INFO'
p2567
asbag56
(g77
g58
NtRp2568
(dp2569
g61
(dp2570
g88
g89
ssg70
g2559
sg63
(lp2571
S':'
asbag56
(g77
g58
NtRp2572
(dp2573
g61
(dp2574
sg70
g2559
sg63
(lp2575
g56
(g57
g58
NtRp2576
(dp2577
g61
(dp2578
g69
I3
ssg70
g2572
sg63
(lp2579
g1177
asbasbasbag56
(g72
g58
NtRp2580
(dp2581
g61
(dp2582
sg70
g2408
sg63
(lp2583
g56
(g77
g58
NtRp2584
(dp2585
g61
(dp2586
g81
g82
ssg70
g2580
sg63
(lp2587
S'QUERY_STRING'
p2588
asbag56
(g77
g58
NtRp2589
(dp2590
g61
(dp2591
g88
g89
ssg70
g2580
sg63
(lp2592
S':'
asbag56
(g77
g58
NtRp2593
(dp2594
g61
(dp2595
sg70
g2580
sg63
(lp2596
g56
(g57
g58
NtRp2597
(dp2598
g61
(dp2599
g69
I3
ssg70
g2593
sg63
(lp2600
S''
asbasbasbag56
(g72
g58
NtRp2601
(dp2602
g61
(dp2603
sg70
g2408
sg63
(lp2604
g56
(g77
g58
NtRp2605
(dp2606
g61
(dp2607
g81
g82
ssg70
g2601
sg63
(lp2608
S'REMOTE_ADDR'
p2609
asbag56
(g77
g58
NtRp2610
(dp2611
g61
(dp2612
g88
g89
ssg70
g2601
sg63
(lp2613
S':'
asbag56
(g77
g58
NtRp2614
(dp2615
g61
(dp2616
sg70
g2601
sg63
(lp2617
g56
(g57
g58
NtRp2618
(dp2619
g61
(dp2620
g69
I3
ssg70
g2614
sg63
(lp2621
g189
asbasbasbag56
(g72
g58
NtRp2622
(dp2623
g61
(dp2624
sg70
g2408
sg63
(lp2625
g56
(g77
g58
NtRp2626
(dp2627
g61
(dp2628
g81
g82
ssg70
g2622
sg63
(lp2629
S'REMOTE_PORT'
p2630
asbag56
(g77
g58
NtRp2631
(dp2632
g61
(dp2633
g88
g89
ssg70
g2622
sg63
(lp2634
S':'
asbag56
(g77
g58
NtRp2635
(dp2636
g61
(dp2637
sg70
g2622
sg63
(lp2638
g56
(g57
g58
NtRp2639
(dp2640
g61
(dp2641
g69
I3
ssg70
g2635
sg63
(lp2642
g1241
asbasbasbag56
(g72
g58
NtRp2643
(dp2644
g61
(dp2645
sg70
g2408
sg63
(lp2646
g56
(g77
g58
NtRp2647
(dp2648
g61
(dp2649
g81
g82
ssg70
g2643
sg63
(lp2650
S'REQUEST_METHOD'
p2651
asbag56
(g77
g58
NtRp2652
(dp2653
g61
(dp2654
g88
g89
ssg70
g2643
sg63
(lp2655
S':'
asbag56
(g77
g58
NtRp2656
(dp2657
g61
(dp2658
sg70
g2643
sg63
(lp2659
g56
(g57
g58
NtRp2660
(dp2661
g61
(dp2662
g69
I3
ssg70
g2656
sg63
(lp2663
g1263
asbasbasbag56
(g72
g58
NtRp2664
(dp2665
g61
(dp2666
sg70
g2408
sg63
(lp2667
g56
(g77
g58
NtRp2668
(dp2669
g61
(dp2670
g81
g82
ssg70
g2664
sg63
(lp2671
S'REQUEST_URI'
p2672
asbag56
(g77
g58
NtRp2673
(dp2674
g61
(dp2675
g88
g89
ssg70
g2664
sg63
(lp2676
S':'
asbag56
(g77
g58
NtRp2677
(dp2678
g61
(dp2679
sg70
g2664
sg63
(lp2680
g56
(g57
g58
NtRp2681
(dp2682
g61
(dp2683
g69
I3
ssg70
g2677
sg63
(lp2684
g1177
asbasbasbag56
(g72
g58
NtRp2685
(dp2686
g61
(dp2687
sg70
g2408
sg63
(lp2688
g56
(g77
g58
NtRp2689
(dp2690
g61
(dp2691
g81
g82
ssg70
g2685
sg63
(lp2692
S'SCRIPT_NAME'
p2693
asbag56
(g77
g58
NtRp2694
(dp2695
g61
(dp2696
g88
g89
ssg70
g2685
sg63
(lp2697
S':'
asbag56
(g77
g58
NtRp2698
(dp2699
g61
(dp2700
sg70
g2685
sg63
(lp2701
g56
(g57
g58
NtRp2702
(dp2703
g61
(dp2704
g69
I3
ssg70
g2698
sg63
(lp2705
S''
asbasbasbag56
(g72
g58
NtRp2706
(dp2707
g61
(dp2708
sg70
g2408
sg63
(lp2709
g56
(g77
g58
NtRp2710
(dp2711
g61
(dp2712
g81
g82
ssg70
g2706
sg63
(lp2713
S'SERVER_NAME'
p2714
asbag56
(g77
g58
NtRp2715
(dp2716
g61
(dp2717
g88
g89
ssg70
g2706
sg63
(lp2718
S':'
asbag56
(g77
g58
NtRp2719
(dp2720
g61
(dp2721
sg70
g2706
sg63
(lp2722
g56
(g57
g58
NtRp2723
(dp2724
g61
(dp2725
g69
I3
ssg70
g2719
sg63
(lp2726
g1327
asbasbasbag56
(g72
g58
NtRp2727
(dp2728
g61
(dp2729
sg70
g2408
sg63
(lp2730
g56
(g77
g58
NtRp2731
(dp2732
g61
(dp2733
g81
g82
ssg70
g2727
sg63
(lp2734
S'SERVER_PORT'
p2735
asbag56
(g77
g58
NtRp2736
(dp2737
g61
(dp2738
g88
g89
ssg70
g2727
sg63
(lp2739
S':'
asbag56
(g77
g58
NtRp2740
(dp2741
g61
(dp2742
sg70
g2727
sg63
(lp2743
g56
(g57
g58
NtRp2744
(dp2745
g61
(dp2746
g69
I3
ssg70
g2740
sg63
(lp2747
g1349
asbasbasbag56
(g72
g58
NtRp2748
(dp2749
g61
(dp2750
sg70
g2408
sg63
(lp2751
g56
(g77
g58
NtRp2752
(dp2753
g61
(dp2754
g81
g82
ssg70
g2748
sg63
(lp2755
S'SERVER_PROTOCOL'
p2756
asbag56
(g77
g58
NtRp2757
(dp2758
g61
(dp2759
g88
g89
ssg70
g2748
sg63
(lp2760
S':'
asbag56
(g77
g58
NtRp2761
(dp2762
g61
(dp2763
sg70
g2748
sg63
(lp2764
g56
(g57
g58
NtRp2765
(dp2766
g61
(dp2767
g69
I3
ssg70
g2761
sg63
(lp2768
g1371
asbasbasbag56
(g72
g58
NtRp2769
(dp2770
g61
(dp2771
sg70
g2408
sg63
(lp2772
g56
(g77
g58
NtRp2773
(dp2774
g61
(dp2775
g81
g82
ssg70
g2769
sg63
(lp2776
S'SERVER_SOFTWARE'
p2777
asbag56
(g77
g58
NtRp2778
(dp2779
g61
(dp2780
g88
g89
ssg70
g2769
sg63
(lp2781
S':'
asbag56
(g77
g58
NtRp2782
(dp2783
g61
(dp2784
sg70
g2769
sg63
(lp2785
g56
(g57
g58
NtRp2786
(dp2787
g61
(dp2788
g69
I3
ssg70
g2782
sg63
(lp2789
g1393
asbasbasbag56
(g72
g58
NtRp2790
(dp2791
g61
(dp2792
sg70
g2408
sg63
(lp2793
g56
(g77
g58
NtRp2794
(dp2795
g61
(dp2796
g81
g82
ssg70
g2790
sg63
(lp2797
S'WEB2PY_ORIGINAL_URI'
p2798
asbag56
(g77
g58
NtRp2799
(dp2800
g61
(dp2801
g88
g89
ssg70
g2790
sg63
(lp2802
S':'
asbag56
(g77
g58
NtRp2803
(dp2804
g61
(dp2805
sg70
g2790
sg63
(lp2806
g56
(g57
g58
NtRp2807
(dp2808
g61
(dp2809
g69
I3
ssg70
g2803
sg63
(lp2810
g1177
asbasbasbag56
(g72
g58
NtRp2811
(dp2812
g61
(dp2813
sg70
g2408
sg63
(lp2814
g56
(g77
g58
NtRp2815
(dp2816
g61
(dp2817
g81
g82
ssg70
g2811
sg63
(lp2818
S'wsgi.errors'
p2819
asbag56
(g77
g58
NtRp2820
(dp2821
g61
(dp2822
g88
g89
ssg70
g2811
sg63
(lp2823
S':'
asbag56
(g77
g58
NtRp2824
(dp2825
g61
(dp2826
sg70
g2811
sg63
(lp2827
g56
(g57
g58
NtRp2828
(dp2829
g61
(dp2830
g69
I3
ssg70
g2824
sg63
(lp2831
S"<open file '<stderr>', mode 'w' at 0x7f70cdab4270>"
p2832
asbasbasbag56
(g72
g58
NtRp2833
(dp2834
g61
(dp2835
sg70
g2408
sg63
(lp2836
g56
(g77
g58
NtRp2837
(dp2838
g61
(dp2839
g81
g82
ssg70
g2833
sg63
(lp2840
S'wsgi.file_wrapper'
p2841
asbag56
(g77
g58
NtRp2842
(dp2843
g61
(dp2844
g88
g89
ssg70
g2833
sg63
(lp2845
S':'
asbag56
(g77
g58
NtRp2846
(dp2847
g61
(dp2848
sg70
g2833
sg63
(lp2849
g56
(g57
g58
NtRp2850
(dp2851
g61
(dp2852
g69
I3
ssg70
g2846
sg63
(lp2853
S'<class wsgiref.util.FileWrapper at 0x234fd50>'
p2854
asbasbasbag56
(g72
g58
NtRp2855
(dp2856
g61
(dp2857
sg70
g2408
sg63
(lp2858
g56
(g77
g58
NtRp2859
(dp2860
g61
(dp2861
g81
g82
ssg70
g2855
sg63
(lp2862
S'wsgi.input'
p2863
asbag56
(g77
g58
NtRp2864
(dp2865
g61
(dp2866
g88
g89
ssg70
g2855
sg63
(lp2867
S':'
asbag56
(g77
g58
NtRp2868
(dp2869
g61
(dp2870
sg70
g2855
sg63
(lp2871
g56
(g57
g58
NtRp2872
(dp2873
g61
(dp2874
g69
I3
ssg70
g2868
sg63
(lp2875
S'<cStringIO.StringO object at 0x3ad37a0>'
p2876
asbasbasbag56
(g72
g58
NtRp2877
(dp2878
g61
(dp2879
sg70
g2408
sg63
(lp2880
g56
(g77
g58
NtRp2881
(dp2882
g61
(dp2883
g81
g82
ssg70
g2877
sg63
(lp2884
S'wsgi.multiprocess'
p2885
asbag56
(g77
g58
NtRp2886
(dp2887
g61
(dp2888
g88
g89
ssg70
g2877
sg63
(lp2889
S':'
asbag56
(g77
g58
NtRp2890
(dp2891
g61
(dp2892
sg70
g2877
sg63
(lp2893
g56
(g57
g58
NtRp2894
(dp2895
g61
(dp2896
g69
I3
ssg70
g2890
sg63
(lp2897
g99
asbasbasbag56
(g72
g58
NtRp2898
(dp2899
g61
(dp2900
sg70
g2408
sg63
(lp2901
g56
(g77
g58
NtRp2902
(dp2903
g61
(dp2904
g81
g82
ssg70
g2898
sg63
(lp2905
S'wsgi.multithread'
p2906
asbag56
(g77
g58
NtRp2907
(dp2908
g61
(dp2909
g88
g89
ssg70
g2898
sg63
(lp2910
S':'
asbag56
(g77
g58
NtRp2911
(dp2912
g61
(dp2913
sg70
g2898
sg63
(lp2914
g56
(g57
g58
NtRp2915
(dp2916
g61
(dp2917
g69
I3
ssg70
g2911
sg63
(lp2918
g1654
asbasbasbag56
(g72
g58
NtRp2919
(dp2920
g61
(dp2921
sg70
g2408
sg63
(lp2922
g56
(g77
g58
NtRp2923
(dp2924
g61
(dp2925
g81
g82
ssg70
g2919
sg63
(lp2926
S'wsgi.run_once'
p2927
asbag56
(g77
g58
NtRp2928
(dp2929
g61
(dp2930
g88
g89
ssg70
g2919
sg63
(lp2931
S':'
asbag56
(g77
g58
NtRp2932
(dp2933
g61
(dp2934
sg70
g2919
sg63
(lp2935
g56
(g57
g58
NtRp2936
(dp2937
g61
(dp2938
g69
I3
ssg70
g2932
sg63
(lp2939
g99
asbasbasbag56
(g72
g58
NtRp2940
(dp2941
g61
(dp2942
sg70
g2408
sg63
(lp2943
g56
(g77
g58
NtRp2944
(dp2945
g61
(dp2946
g81
g82
ssg70
g2940
sg63
(lp2947
S'wsgi.url_scheme'
p2948
asbag56
(g77
g58
NtRp2949
(dp2950
g61
(dp2951
g88
g89
ssg70
g2940
sg63
(lp2952
S':'
asbag56
(g77
g58
NtRp2953
(dp2954
g61
(dp2955
sg70
g2940
sg63
(lp2956
g56
(g57
g58
NtRp2957
(dp2958
g61
(dp2959
g69
I3
ssg70
g2953
sg63
(lp2960
g1697
asbasbasbag56
(g72
g58
NtRp2961
(dp2962
g61
(dp2963
sg70
g2408
sg63
(lp2964
g56
(g77
g58
NtRp2965
(dp2966
g61
(dp2967
g81
g82
ssg70
g2961
sg63
(lp2968
S'wsgi.version'
p2969
asbag56
(g77
g58
NtRp2970
(dp2971
g61
(dp2972
g88
g89
ssg70
g2961
sg63
(lp2973
S':'
asbag56
(g77
g58
NtRp2974
(dp2975
g61
(dp2976
sg70
g2961
sg63
(lp2977
g56
(g57
g58
NtRp2978
(dp2979
g61
(dp2980
g69
I3
ssg70
g2974
sg63
(lp2981
S'1'
asbasbasbasbasbasbasbasbasbasbasbasbasbsS'frames'
p2982
(lp2983
(dp2984
S'file'
p2985
S'/home/jose/DESARROLLO/web2py199/gluon/restricted.py'
p2986
sS'dump'
p2987
(dp2988
S'environment'
p2989
S"{'A': <class 'gluon.html.A'>, 'Auth': <class 'gluon.tools.Auth'>, 'B': <class 'gluon.html.B'>, 'BEAUTIFY': <class 'gluon.html.BEAUTIFY'>, 'BODY': <class 'gluon.html.BODY'>, 'BR': <class 'gluon.html.BR'>, 'BUTTON': <class 'gluon.html.BUTTON'>, 'CAT': <class 'gluon.html.CAT'>, 'CENTER': <class 'gluon.html.CENTER'>, 'CLEANUP': <class 'gluon.validators.CLEANUP'>, ...}"
p2990
sS'ccode'
p2991
S'<code object <module> at 0x2d73a30, file "/home/...ions/streamlog/views/default/index.html", line 1>'
p2992
ssS'lnum'
p2993
I194
sS'lines'
p2994
(dp2995
I192
S'        else:'
p2996
sI193
S'            ccode = compile2(code,layer)'
p2997
sI194
S'        exec ccode in environment'
p2998
sI195
S'    except HTTP:'
p2999
sI196
S'        raise'
p3000
sI197
S'    except Exception, error:'
p3001
sI198
S'        # XXX Show exception in Wing IDE if running in debugger'
p3002
sI189
S'    try:'
p3003
sI190
S'        if type(code) == types.CodeType:'
p3004
sI191
S'            ccode = code'
p3005
ssS'call'
p3006
S'(code=r"response.files.append(URL(r=request,c=\'static\',f...nse.write(\'\\n  </body>\\n</html>\\n\', escape=False)", environment={\'A\': <class \'gluon.html.A\'>, \'Auth\': <class \'gluon.tools.Auth\'>, \'B\': <class \'gluon.html.B\'>, \'BEAUTIFY\': <class \'gluon.html.BEAUTIFY\'>, \'BODY\': <class \'gluon.html.BODY\'>, \'BR\': <class \'gluon.html.BR\'>, \'BUTTON\': <class \'gluon.html.BUTTON\'>, \'CAT\': <class \'gluon.html.CAT\'>, \'CENTER\': <class \'gluon.html.CENTER\'>, \'CLEANUP\': <class \'gluon.validators.CLEANUP\'>, ...}, layer=\'/home/jose/DESARROLLO/web2py199/applications/streamlog/views/default/index.html\')'
p3007
sS'func'
p3008
S'restricted'
p3009
sa(dp3010
g2985
S'/home/jose/DESARROLLO/web2py199/applications/streamlog/views/default/index.html'
p3011
sg2987
(dp3012
sg2993
I88
sg2994
(dp3013
I96
S"    response.write('\\n            </div>\\n      </div><!-- right_sidebar -->\\n          ', escape=False)"
p3014
sI97
S'    pass'
p3015
sI98
S'response.write(\'\\n\\n\\n      <div style="clear: both;"></div><!-- Clear the divs -->\\n      \\n    </div><!-- page -->                         \\n    \\n    <div id="footer">\\n      \', escape=False)'
p3016
sI79
S"    response.write('Content Left Sidebar', escape=False)"
p3017
sI80
S"    response.write('       \\n            </div>\\n          </div><!-- left_sidebar -->\\n      ', escape=False)"
p3018
sI81
S'    pass'
p3019
sI82
S'response.write(\'\\n\\n      <!-- content -->\\n      <div id="content" \', escape=False)'
p3020
sI83
S'response.write(XML(style_content))'
p3021
sI84
S"response.write(' >\\n        ', escape=False)"
p3022
sI85
S"response.write('\\n\\n<p>', escape=False)"
p3023
sI86
S'response.write(form)'
p3024
sI87
S'response.write(\'</p>\\n\\n\\n<div id="typetable"></div>\\n\\n\\n<script>\\n\\n\\tfunction createStream(log_id)\\n\\t{\\n\\t\\talert(log_id);\\n\\t\\tvar data;\\n\\t\\tvar oTable;\\n\\n\\t\\tjQuery.getJSON(\\\'\', escape=False)'
p3025
sI88
S'response.write(URL(r=request,f="getConnectionData.json",args=[log_id]))'
p3026
sI89
S'response.write(\'\\\',\\n        \\tfunction(json){\\n\\n\\n\\t\\t\\toTable=$(\\\'#tablelog\\\').dataTable( {\\n\\t\\t\\t"sScrollY": "600px",\\n\\t\\t\\t"bPaginate": false,\\n\\t\\t\\t"bScrollCollapse": true\\n\\t\\t\\t});\\n\\n\\t\\t\\tname_log=json.name_log\\n\\t\\t\\tip=json.ip\\n\\t\\t\\tport=json.port\\n\\t\\t\\texpression=json.regex\\n\\t\\t\\t\\n\\t\\n\\t\\t\\talert(expression);\\n\\t\\t\\talert(\\\'ws://\\\'+ip+\\\':\\\'+port+\\\'/realtime/\\\'+name_log);\\n\\t\\t\\tvar regex = new RegExp(expression);\\t\\t\\n\\t\\t\\tweb2py_comet(\\\'ws://\\\'+ip+\\\':\\\'+port+\\\'/realtime/\\\'+name_log,\\n\\t\\t\\tfunction(e){\\n\\t\\t\\t\\tdata=eval(\\\'(\\\'+oTable.fnAddData(e.data.split(regex).slice(1, -1))+\\\')\\\')\\n\\t\\n\\t\\t\\t\\t});\\n        \\t\\t}\\n\\t\\t );\\n\\n\\t\\t\\n\\t}\\n\\t\\n\\n\\tfunction loadTable(log_id)\\n\\n\\t{\\n\\n\\t\\tajax(\\\'getTypeTable/\\\'+log_id,[],\\\'typetable\\\')\\n\\t\\t\\n\\n\\t}\\n\\n        $("#button").click( function()\\n           {\\n             \\tvar oTable;\\n\\t\\toTable=$(\\\'#tablelog\\\').dataTable( {\\n\\t\\t"sScrollY": "600px",\\n        \\t"bPaginate": false,\\n        \\t"bScrollCollapse": true\\n\\t\\t\\t\\t\\t} );\\n\\t\\toTable.fnSort( [ [0,\\\'desc\\\'] ] );\\n\\n\\t\\tvar params = $("input[name=radio]:checked").val();\\n\\t\\t\\n\\n\\t\\tvar data;\\n\\t\\tweb2py_comet(\\\'ws://95.142.163.184:8888/realtime/\\\'+params,\\n\\t\\tfunction(e){\\n\\t\\t\\tdata=eval(\\\'(\\\'+oTable.fnAddData(e.data.split(" "))+\\\')\\\')\\n\\t\\n\\t\\t});\\n\\n           });\\n\\n  \\n\\n\\n\\n\\n </script>\\n\', escape=False)'
p3027
sI90
S"response.write(' \\n      </div>\\n      <!-- content -->\\n\\n      ', escape=False)"
p3028
sI91
S'if right_sidebar_enabled:'
p3029
sI92
S'    response.write(\'\\n          <div id="right_sidebar" \', escape=False)'
p3030
sI93
S'    response.write(XML(right_sidebar_style))'
p3031
sI94
S'    response.write(\' >\\n            <div style="padding: 4px;">\\n              \', escape=False)'
p3032
sI95
S"    response.write('Content Right Sidebar', escape=False)"
p3033
ssg3006
S'()'
p3034
sg3008
S'<module>'
p3035
sasS'pyver'
p3036
S'Python 2.7.2+: /usr/bin/python'
p3037
sS'session'
p3038
g56
(g57
g58
NtRp3039
(dp3040
g61
(dp3041
sg63
(lp3042
g56
(g65
g58
NtRp3043
(dp3044
g61
(dp3045
g69
I5
ssg70
Nsg63
(lp3046
g56
(g72
g58
NtRp3047
(dp3048
g61
(dp3049
sg70
g3043
sg63
(lp3050
g56
(g77
g58
NtRp3051
(dp3052
g61
(dp3053
g81
g82
ssg70
g3047
sg63
(lp3054
S'auth'
p3055
asbag56
(g77
g58
NtRp3056
(dp3057
g61
(dp3058
g88
g89
ssg70
g3047
sg63
(lp3059
S':'
asbag56
(g77
g58
NtRp3060
(dp3061
g61
(dp3062
sg70
g3047
sg63
(lp3063
g56
(g57
g58
NtRp3064
(dp3065
g61
(dp3066
g69
I5
ssg70
g3060
sg63
(lp3067
g56
(g65
g58
NtRp3068
(dp3069
g61
(dp3070
g69
I4
ssg70
Nsg63
(lp3071
g56
(g72
g58
NtRp3072
(dp3073
g61
(dp3074
sg70
g3068
sg63
(lp3075
g56
(g77
g58
NtRp3076
(dp3077
g61
(dp3078
g81
g82
ssg70
g3072
sg63
(lp3079
S'expiration'
p3080
asbag56
(g77
g58
NtRp3081
(dp3082
g61
(dp3083
g88
g89
ssg70
g3072
sg63
(lp3084
S':'
asbag56
(g77
g58
NtRp3085
(dp3086
g61
(dp3087
sg70
g3072
sg63
(lp3088
g56
(g57
g58
NtRp3089
(dp3090
g61
(dp3091
g69
I4
ssg70
g3085
sg63
(lp3092
S'2592000'
p3093
asbasbasbag56
(g72
g58
NtRp3094
(dp3095
g61
(dp3096
sg70
g3068
sg63
(lp3097
g56
(g77
g58
NtRp3098
(dp3099
g61
(dp3100
g81
g82
ssg70
g3094
sg63
(lp3101
S'hmac_key'
p3102
asbag56
(g77
g58
NtRp3103
(dp3104
g61
(dp3105
g88
g89
ssg70
g3094
sg63
(lp3106
S':'
asbag56
(g77
g58
NtRp3107
(dp3108
g61
(dp3109
sg70
g3094
sg63
(lp3110
g56
(g57
g58
NtRp3111
(dp3112
g61
(dp3113
g69
I4
ssg70
g3107
sg63
(lp3114
S'8454e122-c616-40c1-9040-a7973410e7b5'
p3115
asbasbasbag56
(g72
g58
NtRp3116
(dp3117
g61
(dp3118
sg70
g3068
sg63
(lp3119
g56
(g77
g58
NtRp3120
(dp3121
g61
(dp3122
g81
g82
ssg70
g3116
sg63
(lp3123
S'last_visit'
p3124
asbag56
(g77
g58
NtRp3125
(dp3126
g61
(dp3127
g88
g89
ssg70
g3116
sg63
(lp3128
S':'
asbag56
(g77
g58
NtRp3129
(dp3130
g61
(dp3131
sg70
g3116
sg63
(lp3132
g56
(g57
g58
NtRp3133
(dp3134
g61
(dp3135
g69
I4
ssg70
g3129
sg63
(lp3136
S'datetime.datetime(2012, 5, 27, 8, 55, 33, 377220)'
p3137
asbasbasbag56
(g72
g58
NtRp3138
(dp3139
g61
(dp3140
sg70
g3068
sg63
(lp3141
g56
(g77
g58
NtRp3142
(dp3143
g61
(dp3144
g81
g82
ssg70
g3138
sg63
(lp3145
S'remember'
p3146
asbag56
(g77
g58
NtRp3147
(dp3148
g61
(dp3149
g88
g89
ssg70
g3138
sg63
(lp3150
S':'
asbag56
(g77
g58
NtRp3151
(dp3152
g61
(dp3153
sg70
g3138
sg63
(lp3154
g56
(g57
g58
NtRp3155
(dp3156
g61
(dp3157
g69
I4
ssg70
g3151
sg63
(lp3158
g99
asbasbasbag56
(g72
g58
NtRp3159
(dp3160
g61
(dp3161
sg70
g3068
sg63
(lp3162
g56
(g77
g58
NtRp3163
(dp3164
g61
(dp3165
g81
g82
ssg70
g3159
sg63
(lp3166
S'user'
p3167
asbag56
(g77
g58
NtRp3168
(dp3169
g61
(dp3170
g88
g89
ssg70
g3159
sg63
(lp3171
S':'
asbag56
(g77
g58
NtRp3172
(dp3173
g61
(dp3174
sg70
g3159
sg63
(lp3175
g56
(g57
g58
NtRp3176
(dp3177
g61
(dp3178
g69
I4
ssg70
g3172
sg63
(lp3179
g56
(g65
g58
NtRp3180
(dp3181
g61
(dp3182
g69
I3
ssg70
Nsg63
(lp3183
g56
(g72
g58
NtRp3184
(dp3185
g61
(dp3186
sg70
g3180
sg63
(lp3187
g56
(g77
g58
NtRp3188
(dp3189
g61
(dp3190
g81
g82
ssg70
g3184
sg63
(lp3191
S'email'
p3192
asbag56
(g77
g58
NtRp3193
(dp3194
g61
(dp3195
g88
g89
ssg70
g3184
sg63
(lp3196
S':'
asbag56
(g77
g58
NtRp3197
(dp3198
g61
(dp3199
sg70
g3184
sg63
(lp3200
g56
(g57
g58
NtRp3201
(dp3202
g61
(dp3203
g69
I3
ssg70
g3197
sg63
(lp3204
S'josedesoto@gmail.com'
p3205
asbasbasbag56
(g72
g58
NtRp3206
(dp3207
g61
(dp3208
sg70
g3180
sg63
(lp3209
g56
(g77
g58
NtRp3210
(dp3211
g61
(dp3212
g81
g82
ssg70
g3206
sg63
(lp3213
S'first_name'
p3214
asbag56
(g77
g58
NtRp3215
(dp3216
g61
(dp3217
g88
g89
ssg70
g3206
sg63
(lp3218
S':'
asbag56
(g77
g58
NtRp3219
(dp3220
g61
(dp3221
sg70
g3206
sg63
(lp3222
g56
(g57
g58
NtRp3223
(dp3224
g61
(dp3225
g69
I3
ssg70
g3219
sg63
(lp3226
S'jose'
p3227
asbasbasbag56
(g72
g58
NtRp3228
(dp3229
g61
(dp3230
sg70
g3180
sg63
(lp3231
g56
(g77
g58
NtRp3232
(dp3233
g61
(dp3234
g81
g82
ssg70
g3228
sg63
(lp3235
S'id'
p3236
asbag56
(g77
g58
NtRp3237
(dp3238
g61
(dp3239
g88
g89
ssg70
g3228
sg63
(lp3240
S':'
asbag56
(g77
g58
NtRp3241
(dp3242
g61
(dp3243
sg70
g3228
sg63
(lp3244
g56
(g57
g58
NtRp3245
(dp3246
g61
(dp3247
g69
I3
ssg70
g3241
sg63
(lp3248
S'1'
asbasbasbag56
(g72
g58
NtRp3249
(dp3250
g61
(dp3251
sg70
g3180
sg63
(lp3252
g56
(g77
g58
NtRp3253
(dp3254
g61
(dp3255
g81
g82
ssg70
g3249
sg63
(lp3256
S'last_name'
p3257
asbag56
(g77
g58
NtRp3258
(dp3259
g61
(dp3260
g88
g89
ssg70
g3249
sg63
(lp3261
S':'
asbag56
(g77
g58
NtRp3262
(dp3263
g61
(dp3264
sg70
g3249
sg63
(lp3265
g56
(g57
g58
NtRp3266
(dp3267
g61
(dp3268
g69
I3
ssg70
g3262
sg63
(lp3269
S'jose'
p3270
asbasbasbag56
(g72
g58
NtRp3271
(dp3272
g61
(dp3273
sg70
g3180
sg63
(lp3274
g56
(g77
g58
NtRp3275
(dp3276
g61
(dp3277
g81
g82
ssg70
g3271
sg63
(lp3278
S'password'
p3279
asbag56
(g77
g58
NtRp3280
(dp3281
g61
(dp3282
g88
g89
ssg70
g3271
sg63
(lp3283
S':'
asbag56
(g77
g58
NtRp3284
(dp3285
g61
(dp3286
sg70
g3271
sg63
(lp3287
g56
(g57
g58
NtRp3288
(dp3289
g61
(dp3290
g69
I3
ssg70
g3284
sg63
(lp3291
S'2b32eaa2baa0c63b755a4cde1e4dda83'
p3292
asbasbasbag56
(g72
g58
NtRp3293
(dp3294
g61
(dp3295
sg70
g3180
sg63
(lp3296
g56
(g77
g58
NtRp3297
(dp3298
g61
(dp3299
g81
g82
ssg70
g3293
sg63
(lp3300
S'registration_key'
p3301
asbag56
(g77
g58
NtRp3302
(dp3303
g61
(dp3304
g88
g89
ssg70
g3293
sg63
(lp3305
S':'
asbag56
(g77
g58
NtRp3306
(dp3307
g61
(dp3308
sg70
g3293
sg63
(lp3309
g56
(g57
g58
NtRp3310
(dp3311
g61
(dp3312
g69
I3
ssg70
g3306
sg63
(lp3313
S''
asbasbasbag56
(g72
g58
NtRp3314
(dp3315
g61
(dp3316
sg70
g3180
sg63
(lp3317
g56
(g77
g58
NtRp3318
(dp3319
g61
(dp3320
g81
g82
ssg70
g3314
sg63
(lp3321
S'reset_password_key'
p3322
asbag56
(g77
g58
NtRp3323
(dp3324
g61
(dp3325
g88
g89
ssg70
g3314
sg63
(lp3326
S':'
asbag56
(g77
g58
NtRp3327
(dp3328
g61
(dp3329
sg70
g3314
sg63
(lp3330
g56
(g57
g58
NtRp3331
(dp3332
g61
(dp3333
g69
I3
ssg70
g3327
sg63
(lp3334
S''
asbasbasbasbasbasbasbasbasbasbasbag56
(g72
g58
NtRp3335
(dp3336
g61
(dp3337
sg70
g3043
sg63
(lp3338
g56
(g77
g58
NtRp3339
(dp3340
g61
(dp3341
g81
g82
ssg70
g3335
sg63
(lp3342
S'last_query'
p3343
asbag56
(g77
g58
NtRp3344
(dp3345
g61
(dp3346
g88
g89
ssg70
g3335
sg63
(lp3347
S':'
asbag56
(g77
g58
NtRp3348
(dp3349
g61
(dp3350
sg70
g3335
sg63
(lp3351
g56
(g57
g58
NtRp3352
(dp3353
g61
(dp3354
g69
I5
ssg70
g3348
sg63
(lp3355
S'db((db.t_log.id==1)&(db.t_log.type_log==db.t_type_log.id)).select(db.t_type_log.html_table)'
p3356
asbasbasbasbasbsS'etype'
p3357
S"<type 'exceptions.NameError'>"
p3358
sS'date'
p3359
S'Sun May 27 15:54:14 2012'
p3360
sS'response'
p3361
g56
(g57
g58
NtRp3362
(dp3363
g61
(dp3364
sg63
(lp3365
g56
(g65
g58
NtRp3366
(dp3367
g61
(dp3368
g69
I5
ssg70
Nsg63
(lp3369
g56
(g72
g58
NtRp3370
(dp3371
g61
(dp3372
sg70
g3366
sg63
(lp3373
g56
(g77
g58
NtRp3374
(dp3375
g61
(dp3376
g81
g82
ssg70
g3370
sg63
(lp3377
g154
asbag56
(g77
g58
NtRp3378
(dp3379
g61
(dp3380
g88
g89
ssg70
g3370
sg63
(lp3381
S':'
asbag56
(g77
g58
NtRp3382
(dp3383
g61
(dp3384
sg70
g3370
sg63
(lp3385
g56
(g57
g58
NtRp3386
(dp3387
g61
(dp3388
g69
I5
ssg70
g3382
sg63
(lp3389
S'<cStringIO.StringO object at 0x3ad38f0>'
p3390
asbasbasbag56
(g72
g58
NtRp3391
(dp3392
g61
(dp3393
sg70
g3366
sg63
(lp3394
g56
(g77
g58
NtRp3395
(dp3396
g61
(dp3397
g81
g82
ssg70
g3391
sg63
(lp3398
g220
asbag56
(g77
g58
NtRp3399
(dp3400
g61
(dp3401
g88
g89
ssg70
g3391
sg63
(lp3402
S':'
asbag56
(g77
g58
NtRp3403
(dp3404
g61
(dp3405
sg70
g3391
sg63
(lp3406
g56
(g57
g58
NtRp3407
(dp3408
g61
(dp3409
g69
I5
ssg70
g3403
sg63
(lp3410
g56
(g65
g58
NtRp3411
(dp3412
g61
(dp3413
g69
I4
ssg70
Nsg63
(lp3414
g56
(g72
g58
NtRp3415
(dp3416
g61
(dp3417
sg70
g3411
sg63
(lp3418
g56
(g77
g58
NtRp3419
(dp3420
g61
(dp3421
g81
g82
ssg70
g3415
sg63
(lp3422
S'session_id_streamlog'
p3423
asbag56
(g77
g58
NtRp3424
(dp3425
g61
(dp3426
g88
g89
ssg70
g3415
sg63
(lp3427
S':'
asbag56
(g77
g58
NtRp3428
(dp3429
g61
(dp3430
sg70
g3415
sg63
(lp3431
g56
(g57
g58
NtRp3432
(dp3433
g61
(dp3434
g69
I4
ssg70
g3428
sg63
(lp3435
g56
(g65
g58
NtRp3436
(dp3437
g61
(dp3438
g69
I3
ssg70
Nsg63
(lp3439
g56
(g72
g58
NtRp3440
(dp3441
g61
(dp3442
sg70
g3436
sg63
(lp3443
g56
(g77
g58
NtRp3444
(dp3445
g61
(dp3446
g81
g82
ssg70
g3440
sg63
(lp3447
g270
asbag56
(g77
g58
NtRp3448
(dp3449
g61
(dp3450
g88
g89
ssg70
g3440
sg63
(lp3451
S':'
asbag56
(g77
g58
NtRp3452
(dp3453
g61
(dp3454
sg70
g3440
sg63
(lp3455
g56
(g57
g58
NtRp3456
(dp3457
g61
(dp3458
g69
I3
ssg70
g3452
sg63
(lp3459
S''
asbasbasbag56
(g72
g58
NtRp3460
(dp3461
g61
(dp3462
sg70
g3436
sg63
(lp3463
g56
(g77
g58
NtRp3464
(dp3465
g61
(dp3466
g81
g82
ssg70
g3460
sg63
(lp3467
g291
asbag56
(g77
g58
NtRp3468
(dp3469
g61
(dp3470
g88
g89
ssg70
g3460
sg63
(lp3471
S':'
asbag56
(g77
g58
NtRp3472
(dp3473
g61
(dp3474
sg70
g3460
sg63
(lp3475
g56
(g57
g58
NtRp3476
(dp3477
g61
(dp3478
g69
I3
ssg70
g3472
sg63
(lp3479
S''
asbasbasbag56
(g72
g58
NtRp3480
(dp3481
g61
(dp3482
sg70
g3436
sg63
(lp3483
g56
(g77
g58
NtRp3484
(dp3485
g61
(dp3486
g81
g82
ssg70
g3480
sg63
(lp3487
g312
asbag56
(g77
g58
NtRp3488
(dp3489
g61
(dp3490
g88
g89
ssg70
g3480
sg63
(lp3491
S':'
asbag56
(g77
g58
NtRp3492
(dp3493
g61
(dp3494
sg70
g3480
sg63
(lp3495
g56
(g57
g58
NtRp3496
(dp3497
g61
(dp3498
g69
I3
ssg70
g3492
sg63
(lp3499
S''
asbasbasbag56
(g72
g58
NtRp3500
(dp3501
g61
(dp3502
sg70
g3436
sg63
(lp3503
g56
(g77
g58
NtRp3504
(dp3505
g61
(dp3506
g81
g82
ssg70
g3500
sg63
(lp3507
g333
asbag56
(g77
g58
NtRp3508
(dp3509
g61
(dp3510
g88
g89
ssg70
g3500
sg63
(lp3511
S':'
asbag56
(g77
g58
NtRp3512
(dp3513
g61
(dp3514
sg70
g3500
sg63
(lp3515
g56
(g57
g58
NtRp3516
(dp3517
g61
(dp3518
g69
I3
ssg70
g3512
sg63
(lp3519
S''
asbasbasbag56
(g72
g58
NtRp3520
(dp3521
g61
(dp3522
sg70
g3436
sg63
(lp3523
g56
(g77
g58
NtRp3524
(dp3525
g61
(dp3526
g81
g82
ssg70
g3520
sg63
(lp3527
g354
asbag56
(g77
g58
NtRp3528
(dp3529
g61
(dp3530
g88
g89
ssg70
g3520
sg63
(lp3531
S':'
asbag56
(g77
g58
NtRp3532
(dp3533
g61
(dp3534
sg70
g3520
sg63
(lp3535
g56
(g57
g58
NtRp3536
(dp3537
g61
(dp3538
g69
I3
ssg70
g3532
sg63
(lp3539
S''
asbasbasbag56
(g72
g58
NtRp3540
(dp3541
g61
(dp3542
sg70
g3436
sg63
(lp3543
g56
(g77
g58
NtRp3544
(dp3545
g61
(dp3546
g81
g82
ssg70
g3540
sg63
(lp3547
g375
asbag56
(g77
g58
NtRp3548
(dp3549
g61
(dp3550
g88
g89
ssg70
g3540
sg63
(lp3551
S':'
asbag56
(g77
g58
NtRp3552
(dp3553
g61
(dp3554
sg70
g3540
sg63
(lp3555
g56
(g57
g58
NtRp3556
(dp3557
g61
(dp3558
g69
I3
ssg70
g3552
sg63
(lp3559
S'/'
asbasbasbag56
(g72
g58
NtRp3560
(dp3561
g61
(dp3562
sg70
g3436
sg63
(lp3563
g56
(g77
g58
NtRp3564
(dp3565
g61
(dp3566
g81
g82
ssg70
g3560
sg63
(lp3567
g396
asbag56
(g77
g58
NtRp3568
(dp3569
g61
(dp3570
g88
g89
ssg70
g3560
sg63
(lp3571
S':'
asbag56
(g77
g58
NtRp3572
(dp3573
g61
(dp3574
sg70
g3560
sg63
(lp3575
g56
(g57
g58
NtRp3576
(dp3577
g61
(dp3578
g69
I3
ssg70
g3572
sg63
(lp3579
S''
asbasbasbag56
(g72
g58
NtRp3580
(dp3581
g61
(dp3582
sg70
g3436
sg63
(lp3583
g56
(g77
g58
NtRp3584
(dp3585
g61
(dp3586
g81
g82
ssg70
g3580
sg63
(lp3587
g417
asbag56
(g77
g58
NtRp3588
(dp3589
g61
(dp3590
g88
g89
ssg70
g3580
sg63
(lp3591
S':'
asbag56
(g77
g58
NtRp3592
(dp3593
g61
(dp3594
sg70
g3580
sg63
(lp3595
g56
(g57
g58
NtRp3596
(dp3597
g61
(dp3598
g69
I3
ssg70
g3592
sg63
(lp3599
S''
asbasbasbasbasbasbasbasbasbasbasbag56
(g72
g58
NtRp3600
(dp3601
g61
(dp3602
sg70
g3366
sg63
(lp3603
g56
(g77
g58
NtRp3604
(dp3605
g61
(dp3606
g81
g82
ssg70
g3600
sg63
(lp3607
S'files'
p3608
asbag56
(g77
g58
NtRp3609
(dp3610
g61
(dp3611
g88
g89
ssg70
g3600
sg63
(lp3612
S':'
asbag56
(g77
g58
NtRp3613
(dp3614
g61
(dp3615
sg70
g3600
sg63
(lp3616
g56
(g57
g58
NtRp3617
(dp3618
g61
(dp3619
g69
I5
ssg70
g3613
sg63
(lp3620
g56
(g65
g58
NtRp3621
(dp3622
g61
(dp3623
g69
I4
ssg70
Nsg63
(lp3624
g56
(g72
g58
NtRp3625
(dp3626
g61
(dp3627
sg70
g3621
sg63
(lp3628
g56
(g77
g58
NtRp3629
(dp3630
g61
(dp3631
sg70
g3625
sg63
(lp3632
g56
(g57
g58
NtRp3633
(dp3634
g61
(dp3635
g69
I4
ssg70
g3629
sg63
(lp3636
S'/streamlog/static/js/jquery.js'
p3637
asbasbasbag56
(g72
g58
NtRp3638
(dp3639
g61
(dp3640
sg70
g3621
sg63
(lp3641
g56
(g77
g58
NtRp3642
(dp3643
g61
(dp3644
sg70
g3638
sg63
(lp3645
g56
(g57
g58
NtRp3646
(dp3647
g61
(dp3648
g69
I4
ssg70
g3642
sg63
(lp3649
S'/streamlog/static/css/anytime.css'
p3650
asbasbasbag56
(g72
g58
NtRp3651
(dp3652
g61
(dp3653
sg70
g3621
sg63
(lp3654
g56
(g77
g58
NtRp3655
(dp3656
g61
(dp3657
sg70
g3651
sg63
(lp3658
g56
(g57
g58
NtRp3659
(dp3660
g61
(dp3661
g69
I4
ssg70
g3655
sg63
(lp3662
S'/streamlog/static/js/anytime.js'
p3663
asbasbasbag56
(g72
g58
NtRp3664
(dp3665
g61
(dp3666
sg70
g3621
sg63
(lp3667
g56
(g77
g58
NtRp3668
(dp3669
g61
(dp3670
sg70
g3664
sg63
(lp3671
g56
(g57
g58
NtRp3672
(dp3673
g61
(dp3674
g69
I4
ssg70
g3668
sg63
(lp3675
S'/streamlog/static/css/demo_table.css'
p3676
asbasbasbag56
(g72
g58
NtRp3677
(dp3678
g61
(dp3679
sg70
g3621
sg63
(lp3680
g56
(g77
g58
NtRp3681
(dp3682
g61
(dp3683
sg70
g3677
sg63
(lp3684
g56
(g57
g58
NtRp3685
(dp3686
g61
(dp3687
g69
I4
ssg70
g3681
sg63
(lp3688
S'/streamlog/static/js/jquery.dataTables.min.js'
p3689
asbasbasbag56
(g72
g58
NtRp3690
(dp3691
g61
(dp3692
sg70
g3621
sg63
(lp3693
g56
(g77
g58
NtRp3694
(dp3695
g61
(dp3696
sg70
g3690
sg63
(lp3697
g56
(g57
g58
NtRp3698
(dp3699
g61
(dp3700
g69
I4
ssg70
g3694
sg63
(lp3701
S'/streamlog/static/css/base.css'
p3702
asbasbasbag56
(g72
g58
NtRp3703
(dp3704
g61
(dp3705
sg70
g3621
sg63
(lp3706
g56
(g77
g58
NtRp3707
(dp3708
g61
(dp3709
sg70
g3703
sg63
(lp3710
g56
(g57
g58
NtRp3711
(dp3712
g61
(dp3713
g69
I4
ssg70
g3707
sg63
(lp3714
S'/streamlog/static/css/superfish.css'
p3715
asbasbasbag56
(g72
g58
NtRp3716
(dp3717
g61
(dp3718
sg70
g3621
sg63
(lp3719
g56
(g77
g58
NtRp3720
(dp3721
g61
(dp3722
sg70
g3716
sg63
(lp3723
g56
(g57
g58
NtRp3724
(dp3725
g61
(dp3726
g69
I4
ssg70
g3720
sg63
(lp3727
S'/streamlog/static/js/superfish.js'
p3728
asbasbasbasbasbasbasbag56
(g72
g58
NtRp3729
(dp3730
g61
(dp3731
sg70
g3366
sg63
(lp3732
g56
(g77
g58
NtRp3733
(dp3734
g61
(dp3735
g81
g82
ssg70
g3729
sg63
(lp3736
S'flash'
p3737
asbag56
(g77
g58
NtRp3738
(dp3739
g61
(dp3740
g88
g89
ssg70
g3729
sg63
(lp3741
S':'
asbag56
(g77
g58
NtRp3742
(dp3743
g61
(dp3744
sg70
g3729
sg63
(lp3745
g56
(g57
g58
NtRp3746
(dp3747
g61
(dp3748
g69
I5
ssg70
g3742
sg63
(lp3749
S''
asbasbasbag56
(g72
g58
NtRp3750
(dp3751
g61
(dp3752
sg70
g3366
sg63
(lp3753
g56
(g77
g58
NtRp3754
(dp3755
g61
(dp3756
g81
g82
ssg70
g3750
sg63
(lp3757
S'generic_patterns'
p3758
asbag56
(g77
g58
NtRp3759
(dp3760
g61
(dp3761
g88
g89
ssg70
g3750
sg63
(lp3762
S':'
asbag56
(g77
g58
NtRp3763
(dp3764
g61
(dp3765
sg70
g3750
sg63
(lp3766
g56
(g57
g58
NtRp3767
(dp3768
g61
(dp3769
g69
I5
ssg70
g3763
sg63
(lp3770
g56
(g65
g58
NtRp3771
(dp3772
g61
(dp3773
g69
I4
ssg70
Nsg63
(lp3774
g56
(g72
g58
NtRp3775
(dp3776
g61
(dp3777
sg70
g3771
sg63
(lp3778
g56
(g77
g58
NtRp3779
(dp3780
g61
(dp3781
sg70
g3775
sg63
(lp3782
g56
(g57
g58
NtRp3783
(dp3784
g61
(dp3785
g69
I4
ssg70
g3779
sg63
(lp3786
S'*'
asbasbasbasbasbasbasbag56
(g72
g58
NtRp3787
(dp3788
g61
(dp3789
sg70
g3366
sg63
(lp3790
g56
(g77
g58
NtRp3791
(dp3792
g61
(dp3793
g81
g82
ssg70
g3787
sg63
(lp3794
S'headers'
p3795
asbag56
(g77
g58
NtRp3796
(dp3797
g61
(dp3798
g88
g89
ssg70
g3787
sg63
(lp3799
S':'
asbag56
(g77
g58
NtRp3800
(dp3801
g61
(dp3802
sg70
g3787
sg63
(lp3803
g56
(g57
g58
NtRp3804
(dp3805
g61
(dp3806
g69
I5
ssg70
g3800
sg63
(lp3807
g56
(g65
g58
NtRp3808
(dp3809
g61
(dp3810
g69
I4
ssg70
Nsg63
(lp3811
g56
(g72
g58
NtRp3812
(dp3813
g61
(dp3814
sg70
g3808
sg63
(lp3815
g56
(g77
g58
NtRp3816
(dp3817
g61
(dp3818
g81
g82
ssg70
g3812
sg63
(lp3819
S'Cache-Control'
p3820
asbag56
(g77
g58
NtRp3821
(dp3822
g61
(dp3823
g88
g89
ssg70
g3812
sg63
(lp3824
S':'
asbag56
(g77
g58
NtRp3825
(dp3826
g61
(dp3827
sg70
g3812
sg63
(lp3828
g56
(g57
g58
NtRp3829
(dp3830
g61
(dp3831
g69
I4
ssg70
g3825
sg63
(lp3832
S'no-store, no-cache, must-revalidate, post-check=0, pre-check=0'
p3833
asbasbasbag56
(g72
g58
NtRp3834
(dp3835
g61
(dp3836
sg70
g3808
sg63
(lp3837
g56
(g77
g58
NtRp3838
(dp3839
g61
(dp3840
g81
g82
ssg70
g3834
sg63
(lp3841
S'Content-Type'
p3842
asbag56
(g77
g58
NtRp3843
(dp3844
g61
(dp3845
g88
g89
ssg70
g3834
sg63
(lp3846
S':'
asbag56
(g77
g58
NtRp3847
(dp3848
g61
(dp3849
sg70
g3834
sg63
(lp3850
g56
(g57
g58
NtRp3851
(dp3852
g61
(dp3853
g69
I4
ssg70
g3847
sg63
(lp3854
S'text/html; charset=utf-8'
p3855
asbasbasbag56
(g72
g58
NtRp3856
(dp3857
g61
(dp3858
sg70
g3808
sg63
(lp3859
g56
(g77
g58
NtRp3860
(dp3861
g61
(dp3862
g81
g82
ssg70
g3856
sg63
(lp3863
S'Expires'
p3864
asbag56
(g77
g58
NtRp3865
(dp3866
g61
(dp3867
g88
g89
ssg70
g3856
sg63
(lp3868
S':'
asbag56
(g77
g58
NtRp3869
(dp3870
g61
(dp3871
sg70
g3856
sg63
(lp3872
g56
(g57
g58
NtRp3873
(dp3874
g61
(dp3875
g69
I4
ssg70
g3869
sg63
(lp3876
S'Sun, 27 May 2012 08:54:14 GMT'
p3877
asbasbasbag56
(g72
g58
NtRp3878
(dp3879
g61
(dp3880
sg70
g3808
sg63
(lp3881
g56
(g77
g58
NtRp3882
(dp3883
g61
(dp3884
g81
g82
ssg70
g3878
sg63
(lp3885
S'Pragma'
p3886
asbag56
(g77
g58
NtRp3887
(dp3888
g61
(dp3889
g88
g89
ssg70
g3878
sg63
(lp3890
S':'
asbag56
(g77
g58
NtRp3891
(dp3892
g61
(dp3893
sg70
g3878
sg63
(lp3894
g56
(g57
g58
NtRp3895
(dp3896
g61
(dp3897
g69
I4
ssg70
g3891
sg63
(lp3898
S'no-cache'
p3899
asbasbasbag56
(g72
g58
NtRp3900
(dp3901
g61
(dp3902
sg70
g3808
sg63
(lp3903
g56
(g77
g58
NtRp3904
(dp3905
g61
(dp3906
g81
g82
ssg70
g3900
sg63
(lp3907
S'X-Powered-By'
p3908
asbag56
(g77
g58
NtRp3909
(dp3910
g61
(dp3911
g88
g89
ssg70
g3900
sg63
(lp3912
S':'
asbag56
(g77
g58
NtRp3913
(dp3914
g61
(dp3915
sg70
g3900
sg63
(lp3916
g56
(g57
g58
NtRp3917
(dp3918
g61
(dp3919
g69
I4
ssg70
g3913
sg63
(lp3920
S'web2py'
p3921
asbasbasbasbasbasbasbag56
(g72
g58
NtRp3922
(dp3923
g61
(dp3924
sg70
g3366
sg63
(lp3925
g56
(g77
g58
NtRp3926
(dp3927
g61
(dp3928
g81
g82
ssg70
g3922
sg63
(lp3929
S'menu'
p3930
asbag56
(g77
g58
NtRp3931
(dp3932
g61
(dp3933
g88
g89
ssg70
g3922
sg63
(lp3934
S':'
asbag56
(g77
g58
NtRp3935
(dp3936
g61
(dp3937
sg70
g3922
sg63
(lp3938
g56
(g57
g58
NtRp3939
(dp3940
g61
(dp3941
g69
I5
ssg70
g3935
sg63
(lp3942
g56
(g65
g58
NtRp3943
(dp3944
g61
(dp3945
g69
I4
ssg70
Nsg63
(lp3946
g56
(g72
g58
NtRp3947
(dp3948
g61
(dp3949
sg70
g3943
sg63
(lp3950
g56
(g77
g58
NtRp3951
(dp3952
g61
(dp3953
sg70
g3947
sg63
(lp3954
g56
(g57
g58
NtRp3955
(dp3956
g61
(dp3957
g69
I4
ssg70
g3951
sg63
(lp3958
g56
(g65
g58
NtRp3959
(dp3960
g61
(dp3961
g69
I3
ssg70
Nsg63
(lp3962
g56
(g72
g58
NtRp3963
(dp3964
g61
(dp3965
sg70
g3959
sg63
(lp3966
g56
(g77
g58
NtRp3967
(dp3968
g61
(dp3969
sg70
g3963
sg63
(lp3970
g56
(g57
g58
NtRp3971
(dp3972
g61
(dp3973
g69
I3
ssg70
g3967
sg63
(lp3974
cgluon.languages
lazyT_unpickle
p3975
(S't\x05\x00\x00\x00Index'
tRp3976
asbasbasbag56
(g72
g58
NtRp3977
(dp3978
g61
(dp3979
sg70
g3959
sg63
(lp3980
g56
(g77
g58
NtRp3981
(dp3982
g61
(dp3983
sg70
g3977
sg63
(lp3984
g56
(g57
g58
NtRp3985
(dp3986
g61
(dp3987
g69
I3
ssg70
g3981
sg63
(lp3988
g99
asbasbasbag56
(g72
g58
NtRp3989
(dp3990
g61
(dp3991
sg70
g3959
sg63
(lp3992
g56
(g77
g58
NtRp3993
(dp3994
g61
(dp3995
sg70
g3989
sg63
(lp3996
g56
(g57
g58
NtRp3997
(dp3998
g61
(dp3999
g69
I3
ssg70
g3993
sg63
(lp4000
S'/streamlog/default/index'
p4001
asbasbasbag56
(g72
g58
NtRp4002
(dp4003
g61
(dp4004
sg70
g3959
sg63
(lp4005
g56
(g77
g58
NtRp4006
(dp4007
g61
(dp4008
sg70
g4002
sg63
(lp4009
g56
(g57
g58
NtRp4010
(dp4011
g61
(dp4012
g69
I3
ssg70
g4006
sg63
(lp4013
g56
(g65
g58
NtRp4014
(dp4015
g61
(dp4016
g69
I2
ssg70
Nsg63
(lp4017
sbasbasbasbasbasbasbasbag56
(g72
g58
NtRp4018
(dp4019
g61
(dp4020
sg70
g3943
sg63
(lp4021
g56
(g77
g58
NtRp4022
(dp4023
g61
(dp4024
sg70
g4018
sg63
(lp4025
g56
(g57
g58
NtRp4026
(dp4027
g61
(dp4028
g69
I4
ssg70
g4022
sg63
(lp4029
g56
(g65
g58
NtRp4030
(dp4031
g61
(dp4032
g69
I3
ssg70
Nsg63
(lp4033
g56
(g72
g58
NtRp4034
(dp4035
g61
(dp4036
sg70
g4030
sg63
(lp4037
g56
(g77
g58
NtRp4038
(dp4039
g61
(dp4040
sg70
g4034
sg63
(lp4041
g56
(g57
g58
NtRp4042
(dp4043
g61
(dp4044
g69
I3
ssg70
g4038
sg63
(lp4045
g3975
(S't\x06\x00\x00\x00Manage'
tRp4046
asbasbasbag56
(g72
g58
NtRp4047
(dp4048
g61
(dp4049
sg70
g4030
sg63
(lp4050
g56
(g77
g58
NtRp4051
(dp4052
g61
(dp4053
sg70
g4047
sg63
(lp4054
g56
(g57
g58
NtRp4055
(dp4056
g61
(dp4057
g69
I3
ssg70
g4051
sg63
(lp4058
g99
asbasbasbag56
(g72
g58
NtRp4059
(dp4060
g61
(dp4061
sg70
g4030
sg63
(lp4062
g56
(g77
g58
NtRp4063
(dp4064
g61
(dp4065
sg70
g4059
sg63
(lp4066
g56
(g57
g58
NtRp4067
(dp4068
g61
(dp4069
g69
I3
ssg70
g4063
sg63
(lp4070
S'None'
p4071
asbasbasbag56
(g72
g58
NtRp4072
(dp4073
g61
(dp4074
sg70
g4030
sg63
(lp4075
g56
(g77
g58
NtRp4076
(dp4077
g61
(dp4078
sg70
g4072
sg63
(lp4079
g56
(g57
g58
NtRp4080
(dp4081
g61
(dp4082
g69
I3
ssg70
g4076
sg63
(lp4083
g56
(g65
g58
NtRp4084
(dp4085
g61
(dp4086
g69
I2
ssg70
Nsg63
(lp4087
g56
(g72
g58
NtRp4088
(dp4089
g61
(dp4090
sg70
g4084
sg63
(lp4091
g56
(g77
g58
NtRp4092
(dp4093
g61
(dp4094
sg70
g4088
sg63
(lp4095
g56
(g57
g58
NtRp4096
(dp4097
g61
(dp4098
g69
I2
ssg70
g4092
sg63
(lp4099
g56
(g65
g58
NtRp4100
(dp4101
g61
(dp4102
g69
I1
ssg70
Nsg63
(lp4103
g56
(g72
g58
NtRp4104
(dp4105
g61
(dp4106
sg70
g4100
sg63
(lp4107
g56
(g77
g58
NtRp4108
(dp4109
g61
(dp4110
sg70
g4104
sg63
(lp4111
g56
(g57
g58
NtRp4112
(dp4113
g61
(dp4114
g69
I1
ssg70
g4108
sg63
(lp4115
g3975
(S't\x04\x00\x00\x00Logs'
tRp4116
asbasbasbag56
(g72
g58
NtRp4117
(dp4118
g61
(dp4119
sg70
g4100
sg63
(lp4120
g56
(g77
g58
NtRp4121
(dp4122
g61
(dp4123
sg70
g4117
sg63
(lp4124
g56
(g57
g58
NtRp4125
(dp4126
g61
(dp4127
g69
I1
ssg70
g4121
sg63
(lp4128
I00
asbasbasbag56
(g72
g58
NtRp4129
(dp4130
g61
(dp4131
sg70
g4100
sg63
(lp4132
g56
(g77
g58
NtRp4133
(dp4134
g61
(dp4135
sg70
g4129
sg63
(lp4136
g56
(g57
g58
NtRp4137
(dp4138
g61
(dp4139
g69
I1
ssg70
g4133
sg63
(lp4140
S'/streamlog/default/log_manage'
p4141
asbasbasbag56
(g72
g58
NtRp4142
(dp4143
g61
(dp4144
sg70
g4100
sg63
(lp4145
g56
(g77
g58
NtRp4146
(dp4147
g61
(dp4148
sg70
g4142
sg63
(lp4149
g56
(g57
g58
NtRp4150
(dp4151
g61
(dp4152
g69
I1
ssg70
g4146
sg63
(lp4153
(lp4154
asbasbasbasbasbasbasbag56
(g72
g58
NtRp4155
(dp4156
g61
(dp4157
sg70
g4084
sg63
(lp4158
g56
(g77
g58
NtRp4159
(dp4160
g61
(dp4161
sg70
g4155
sg63
(lp4162
g56
(g57
g58
NtRp4163
(dp4164
g61
(dp4165
g69
I2
ssg70
g4159
sg63
(lp4166
g56
(g65
g58
NtRp4167
(dp4168
g61
(dp4169
g69
I1
ssg70
Nsg63
(lp4170
g56
(g72
g58
NtRp4171
(dp4172
g61
(dp4173
sg70
g4167
sg63
(lp4174
g56
(g77
g58
NtRp4175
(dp4176
g61
(dp4177
sg70
g4171
sg63
(lp4178
g56
(g57
g58
NtRp4179
(dp4180
g61
(dp4181
g69
I1
ssg70
g4175
sg63
(lp4182
g3975
(S't\x07\x00\x00\x00Servers'
tRp4183
asbasbasbag56
(g72
g58
NtRp4184
(dp4185
g61
(dp4186
sg70
g4167
sg63
(lp4187
g56
(g77
g58
NtRp4188
(dp4189
g61
(dp4190
sg70
g4184
sg63
(lp4191
g56
(g57
g58
NtRp4192
(dp4193
g61
(dp4194
g69
I1
ssg70
g4188
sg63
(lp4195
I00
asbasbasbag56
(g72
g58
NtRp4196
(dp4197
g61
(dp4198
sg70
g4167
sg63
(lp4199
g56
(g77
g58
NtRp4200
(dp4201
g61
(dp4202
sg70
g4196
sg63
(lp4203
g56
(g57
g58
NtRp4204
(dp4205
g61
(dp4206
g69
I1
ssg70
g4200
sg63
(lp4207
S'/streamlog/default/server_manage'
p4208
asbasbasbag56
(g72
g58
NtRp4209
(dp4210
g61
(dp4211
sg70
g4167
sg63
(lp4212
g56
(g77
g58
NtRp4213
(dp4214
g61
(dp4215
sg70
g4209
sg63
(lp4216
g56
(g57
g58
NtRp4217
(dp4218
g61
(dp4219
g69
I1
ssg70
g4213
sg63
(lp4220
(lp4221
asbasbasbasbasbasbasbag56
(g72
g58
NtRp4222
(dp4223
g61
(dp4224
sg70
g4084
sg63
(lp4225
g56
(g77
g58
NtRp4226
(dp4227
g61
(dp4228
sg70
g4222
sg63
(lp4229
g56
(g57
g58
NtRp4230
(dp4231
g61
(dp4232
g69
I2
ssg70
g4226
sg63
(lp4233
g56
(g65
g58
NtRp4234
(dp4235
g61
(dp4236
g69
I1
ssg70
Nsg63
(lp4237
g56
(g72
g58
NtRp4238
(dp4239
g61
(dp4240
sg70
g4234
sg63
(lp4241
g56
(g77
g58
NtRp4242
(dp4243
g61
(dp4244
sg70
g4238
sg63
(lp4245
g56
(g57
g58
NtRp4246
(dp4247
g61
(dp4248
g69
I1
ssg70
g4242
sg63
(lp4249
g3975
(S't\x08\x00\x00\x00Projects'
tRp4250
asbasbasbag56
(g72
g58
NtRp4251
(dp4252
g61
(dp4253
sg70
g4234
sg63
(lp4254
g56
(g77
g58
NtRp4255
(dp4256
g61
(dp4257
sg70
g4251
sg63
(lp4258
g56
(g57
g58
NtRp4259
(dp4260
g61
(dp4261
g69
I1
ssg70
g4255
sg63
(lp4262
I00
asbasbasbag56
(g72
g58
NtRp4263
(dp4264
g61
(dp4265
sg70
g4234
sg63
(lp4266
g56
(g77
g58
NtRp4267
(dp4268
g61
(dp4269
sg70
g4263
sg63
(lp4270
g56
(g57
g58
NtRp4271
(dp4272
g61
(dp4273
g69
I1
ssg70
g4267
sg63
(lp4274
S'/streamlog/default/project_manage'
p4275
asbasbasbag56
(g72
g58
NtRp4276
(dp4277
g61
(dp4278
sg70
g4234
sg63
(lp4279
g56
(g77
g58
NtRp4280
(dp4281
g61
(dp4282
sg70
g4276
sg63
(lp4283
g56
(g57
g58
NtRp4284
(dp4285
g61
(dp4286
g69
I1
ssg70
g4280
sg63
(lp4287
(lp4288
asbasbasbasbasbasbasbag56
(g72
g58
NtRp4289
(dp4290
g61
(dp4291
sg70
g4084
sg63
(lp4292
g56
(g77
g58
NtRp4293
(dp4294
g61
(dp4295
sg70
g4289
sg63
(lp4296
g56
(g57
g58
NtRp4297
(dp4298
g61
(dp4299
g69
I2
ssg70
g4293
sg63
(lp4300
g56
(g65
g58
NtRp4301
(dp4302
g61
(dp4303
g69
I1
ssg70
Nsg63
(lp4304
g56
(g72
g58
NtRp4305
(dp4306
g61
(dp4307
sg70
g4301
sg63
(lp4308
g56
(g77
g58
NtRp4309
(dp4310
g61
(dp4311
sg70
g4305
sg63
(lp4312
g56
(g57
g58
NtRp4313
(dp4314
g61
(dp4315
g69
I1
ssg70
g4309
sg63
(lp4316
g3975
(S's\t\x00\x00\x00Type Logs'
tRp4317
asbasbasbag56
(g72
g58
NtRp4318
(dp4319
g61
(dp4320
sg70
g4301
sg63
(lp4321
g56
(g77
g58
NtRp4322
(dp4323
g61
(dp4324
sg70
g4318
sg63
(lp4325
g56
(g57
g58
NtRp4326
(dp4327
g61
(dp4328
g69
I1
ssg70
g4322
sg63
(lp4329
I00
asbasbasbag56
(g72
g58
NtRp4330
(dp4331
g61
(dp4332
sg70
g4301
sg63
(lp4333
g56
(g77
g58
NtRp4334
(dp4335
g61
(dp4336
sg70
g4330
sg63
(lp4337
g56
(g57
g58
NtRp4338
(dp4339
g61
(dp4340
g69
I1
ssg70
g4334
sg63
(lp4341
S'/streamlog/default/type_log_manage'
p4342
asbasbasbag56
(g72
g58
NtRp4343
(dp4344
g61
(dp4345
sg70
g4301
sg63
(lp4346
g56
(g77
g58
NtRp4347
(dp4348
g61
(dp4349
sg70
g4343
sg63
(lp4350
g56
(g57
g58
NtRp4351
(dp4352
g61
(dp4353
g69
I1
ssg70
g4347
sg63
(lp4354
(lp4355
asbasbasbasbasbasbasbasbasbasbasbasbasbasbasbasbasbasbasbag56
(g72
g58
NtRp4356
(dp4357
g61
(dp4358
sg70
g3366
sg63
(lp4359
g56
(g77
g58
NtRp4360
(dp4361
g61
(dp4362
g81
g82
ssg70
g4356
sg63
(lp4363
S'meta'
p4364
asbag56
(g77
g58
NtRp4365
(dp4366
g61
(dp4367
g88
g89
ssg70
g4356
sg63
(lp4368
S':'
asbag56
(g77
g58
NtRp4369
(dp4370
g61
(dp4371
sg70
g4356
sg63
(lp4372
g56
(g57
g58
NtRp4373
(dp4374
g61
(dp4375
g69
I5
ssg70
g4369
sg63
(lp4376
g56
(g65
g58
NtRp4377
(dp4378
g61
(dp4379
g69
I4
ssg70
Nsg63
(lp4380
g56
(g72
g58
NtRp4381
(dp4382
g61
(dp4383
sg70
g4377
sg63
(lp4384
g56
(g77
g58
NtRp4385
(dp4386
g61
(dp4387
g81
g82
ssg70
g4381
sg63
(lp4388
S'author'
p4389
asbag56
(g77
g58
NtRp4390
(dp4391
g61
(dp4392
g88
g89
ssg70
g4381
sg63
(lp4393
S':'
asbag56
(g77
g58
NtRp4394
(dp4395
g61
(dp4396
sg70
g4381
sg63
(lp4397
g56
(g57
g58
NtRp4398
(dp4399
g61
(dp4400
g69
I4
ssg70
g4394
sg63
(lp4401
S'Jose de Soto <josedesoto@gmail.com>'
p4402
asbasbasbag56
(g72
g58
NtRp4403
(dp4404
g61
(dp4405
sg70
g4377
sg63
(lp4406
g56
(g77
g58
NtRp4407
(dp4408
g61
(dp4409
g81
g82
ssg70
g4403
sg63
(lp4410
S'copyright'
p4411
asbag56
(g77
g58
NtRp4412
(dp4413
g61
(dp4414
g88
g89
ssg70
g4403
sg63
(lp4415
S':'
asbag56
(g77
g58
NtRp4416
(dp4417
g61
(dp4418
sg70
g4403
sg63
(lp4419
g56
(g57
g58
NtRp4420
(dp4421
g61
(dp4422
g69
I4
ssg70
g4416
sg63
(lp4423
S'Copyright 2011'
p4424
asbasbasbag56
(g72
g58
NtRp4425
(dp4426
g61
(dp4427
sg70
g4377
sg63
(lp4428
g56
(g77
g58
NtRp4429
(dp4430
g61
(dp4431
g81
g82
ssg70
g4425
sg63
(lp4432
S'description'
p4433
asbag56
(g77
g58
NtRp4434
(dp4435
g61
(dp4436
g88
g89
ssg70
g4425
sg63
(lp4437
S':'
asbag56
(g77
g58
NtRp4438
(dp4439
g61
(dp4440
sg70
g4425
sg63
(lp4441
g56
(g57
g58
NtRp4442
(dp4443
g61
(dp4444
g69
I4
ssg70
g4438
sg63
(lp4445
S'a cool new app'
p4446
asbasbasbag56
(g72
g58
NtRp4447
(dp4448
g61
(dp4449
sg70
g4377
sg63
(lp4450
g56
(g77
g58
NtRp4451
(dp4452
g61
(dp4453
g81
g82
ssg70
g4447
sg63
(lp4454
S'generator'
p4455
asbag56
(g77
g58
NtRp4456
(dp4457
g61
(dp4458
g88
g89
ssg70
g4447
sg63
(lp4459
S':'
asbag56
(g77
g58
NtRp4460
(dp4461
g61
(dp4462
sg70
g4447
sg63
(lp4463
g56
(g57
g58
NtRp4464
(dp4465
g61
(dp4466
g69
I4
ssg70
g4460
sg63
(lp4467
S'Web2py Web Framework'
p4468
asbasbasbag56
(g72
g58
NtRp4469
(dp4470
g61
(dp4471
sg70
g4377
sg63
(lp4472
g56
(g77
g58
NtRp4473
(dp4474
g61
(dp4475
g81
g82
ssg70
g4469
sg63
(lp4476
S'keywords'
p4477
asbag56
(g77
g58
NtRp4478
(dp4479
g61
(dp4480
g88
g89
ssg70
g4469
sg63
(lp4481
S':'
asbag56
(g77
g58
NtRp4482
(dp4483
g61
(dp4484
sg70
g4469
sg63
(lp4485
g56
(g57
g58
NtRp4486
(dp4487
g61
(dp4488
g69
I4
ssg70
g4482
sg63
(lp4489
S'web2py, python, framework'
p4490
asbasbasbasbasbasbasbag56
(g72
g58
NtRp4491
(dp4492
g61
(dp4493
sg70
g3366
sg63
(lp4494
g56
(g77
g58
NtRp4495
(dp4496
g61
(dp4497
g81
g82
ssg70
g4491
sg63
(lp4498
S'postprocessing'
p4499
asbag56
(g77
g58
NtRp4500
(dp4501
g61
(dp4502
g88
g89
ssg70
g4491
sg63
(lp4503
S':'
asbag56
(g77
g58
NtRp4504
(dp4505
g61
(dp4506
sg70
g4491
sg63
(lp4507
g56
(g57
g58
NtRp4508
(dp4509
g61
(dp4510
g69
I5
ssg70
g4504
sg63
(lp4511
g56
(g65
g58
NtRp4512
(dp4513
g61
(dp4514
g69
I4
ssg70
Nsg63
(lp4515
sbasbasbasbag56
(g72
g58
NtRp4516
(dp4517
g61
(dp4518
sg70
g3366
sg63
(lp4519
g56
(g77
g58
NtRp4520
(dp4521
g61
(dp4522
g81
g82
ssg70
g4516
sg63
(lp4523
S'session_file'
p4524
asbag56
(g77
g58
NtRp4525
(dp4526
g61
(dp4527
g88
g89
ssg70
g4516
sg63
(lp4528
S':'
asbag56
(g77
g58
NtRp4529
(dp4530
g61
(dp4531
sg70
g4516
sg63
(lp4532
g56
(g57
g58
NtRp4533
(dp4534
g61
(dp4535
g69
I5
ssg70
g4529
sg63
(lp4536
S"<open file '/home/jose/DESARROLLO/web2py199/applications/streamlog/sessions/127.0.0.1-610b0c7d-3f6f-4500-a76a-b095fb30f7fd', mode 'rb+' at 0x32ed150>"
p4537
asbasbasbag56
(g72
g58
NtRp4538
(dp4539
g61
(dp4540
sg70
g3366
sg63
(lp4541
g56
(g77
g58
NtRp4542
(dp4543
g61
(dp4544
g81
g82
ssg70
g4538
sg63
(lp4545
S'session_filename'
p4546
asbag56
(g77
g58
NtRp4547
(dp4548
g61
(dp4549
g88
g89
ssg70
g4538
sg63
(lp4550
S':'
asbag56
(g77
g58
NtRp4551
(dp4552
g61
(dp4553
sg70
g4538
sg63
(lp4554
g56
(g57
g58
NtRp4555
(dp4556
g61
(dp4557
g69
I5
ssg70
g4551
sg63
(lp4558
S'/home/jose/DESARROLLO/web2py199/applications/streamlog/sessions/127.0.0.1-610b0c7d-3f6f-4500-a76a-b095fb30f7fd'
p4559
asbasbasbag56
(g72
g58
NtRp4560
(dp4561
g61
(dp4562
sg70
g3366
sg63
(lp4563
g56
(g77
g58
NtRp4564
(dp4565
g61
(dp4566
g81
g82
ssg70
g4560
sg63
(lp4567
S'session_id'
p4568
asbag56
(g77
g58
NtRp4569
(dp4570
g61
(dp4571
g88
g89
ssg70
g4560
sg63
(lp4572
S':'
asbag56
(g77
g58
NtRp4573
(dp4574
g61
(dp4575
sg70
g4560
sg63
(lp4576
g56
(g57
g58
NtRp4577
(dp4578
g61
(dp4579
g69
I5
ssg70
g4573
sg63
(lp4580
S'127.0.0.1-610b0c7d-3f6f-4500-a76a-b095fb30f7fd'
p4581
asbasbasbag56
(g72
g58
NtRp4582
(dp4583
g61
(dp4584
sg70
g3366
sg63
(lp4585
g56
(g77
g58
NtRp4586
(dp4587
g61
(dp4588
g81
g82
ssg70
g4582
sg63
(lp4589
S'session_id_name'
p4590
asbag56
(g77
g58
NtRp4591
(dp4592
g61
(dp4593
g88
g89
ssg70
g4582
sg63
(lp4594
S':'
asbag56
(g77
g58
NtRp4595
(dp4596
g61
(dp4597
sg70
g4582
sg63
(lp4598
g56
(g57
g58
NtRp4599
(dp4600
g61
(dp4601
g69
I5
ssg70
g4595
sg63
(lp4602
g3423
asbasbasbag56
(g72
g58
NtRp4603
(dp4604
g61
(dp4605
sg70
g3366
sg63
(lp4606
g56
(g77
g58
NtRp4607
(dp4608
g61
(dp4609
g81
g82
ssg70
g4603
sg63
(lp4610
S'session_locked'
p4611
asbag56
(g77
g58
NtRp4612
(dp4613
g61
(dp4614
g88
g89
ssg70
g4603
sg63
(lp4615
S':'
asbag56
(g77
g58
NtRp4616
(dp4617
g61
(dp4618
sg70
g4603
sg63
(lp4619
g56
(g57
g58
NtRp4620
(dp4621
g61
(dp4622
g69
I5
ssg70
g4616
sg63
(lp4623
g1654
asbasbasbag56
(g72
g58
NtRp4624
(dp4625
g61
(dp4626
sg70
g3366
sg63
(lp4627
g56
(g77
g58
NtRp4628
(dp4629
g61
(dp4630
g81
g82
ssg70
g4624
sg63
(lp4631
S'session_new'
p4632
asbag56
(g77
g58
NtRp4633
(dp4634
g61
(dp4635
g88
g89
ssg70
g4624
sg63
(lp4636
S':'
asbag56
(g77
g58
NtRp4637
(dp4638
g61
(dp4639
sg70
g4624
sg63
(lp4640
g56
(g57
g58
NtRp4641
(dp4642
g61
(dp4643
g69
I5
ssg70
g4637
sg63
(lp4644
g99
asbasbasbag56
(g72
g58
NtRp4645
(dp4646
g61
(dp4647
sg70
g3366
sg63
(lp4648
g56
(g77
g58
NtRp4649
(dp4650
g61
(dp4651
g81
g82
ssg70
g4645
sg63
(lp4652
S'status'
p4653
asbag56
(g77
g58
NtRp4654
(dp4655
g61
(dp4656
g88
g89
ssg70
g4645
sg63
(lp4657
S':'
asbag56
(g77
g58
NtRp4658
(dp4659
g61
(dp4660
sg70
g4645
sg63
(lp4661
g56
(g57
g58
NtRp4662
(dp4663
g61
(dp4664
g69
I5
ssg70
g4658
sg63
(lp4665
S'200'
p4666
asbasbasbag56
(g72
g58
NtRp4667
(dp4668
g61
(dp4669
sg70
g3366
sg63
(lp4670
g56
(g77
g58
NtRp4671
(dp4672
g61
(dp4673
g81
g82
ssg70
g4667
sg63
(lp4674
S'subtitle'
p4675
asbag56
(g77
g58
NtRp4676
(dp4677
g61
(dp4678
g88
g89
ssg70
g4667
sg63
(lp4679
S':'
asbag56
(g77
g58
NtRp4680
(dp4681
g61
(dp4682
sg70
g4667
sg63
(lp4683
g56
(g57
g58
NtRp4684
(dp4685
g61
(dp4686
g69
I5
ssg70
g4680
sg63
(lp4687
g3975
(S's\x12\x00\x00\x00Stream Log Client!'
tRp4688
asbasbasbag56
(g72
g58
NtRp4689
(dp4690
g61
(dp4691
sg70
g3366
sg63
(lp4692
g56
(g77
g58
NtRp4693
(dp4694
g61
(dp4695
g81
g82
ssg70
g4689
sg63
(lp4696
S'title'
p4697
asbag56
(g77
g58
NtRp4698
(dp4699
g61
(dp4700
g88
g89
ssg70
g4689
sg63
(lp4701
S':'
asbag56
(g77
g58
NtRp4702
(dp4703
g61
(dp4704
sg70
g4689
sg63
(lp4705
g56
(g57
g58
NtRp4706
(dp4707
g61
(dp4708
g69
I5
ssg70
g4702
sg63
(lp4709
g121
asbasbasbag56
(g72
g58
NtRp4710
(dp4711
g61
(dp4712
sg70
g3366
sg63
(lp4713
g56
(g77
g58
NtRp4714
(dp4715
g61
(dp4716
g81
g82
ssg70
g4710
sg63
(lp4717
g2298
asbag56
(g77
g58
NtRp4718
(dp4719
g61
(dp4720
g88
g89
ssg70
g4710
sg63
(lp4721
S':'
asbag56
(g77
g58
NtRp4722
(dp4723
g61
(dp4724
sg70
g4710
sg63
(lp4725
g56
(g57
g58
NtRp4726
(dp4727
g61
(dp4728
g69
I5
ssg70
g4722
sg63
(lp4729
g2311
asbasbasbag56
(g72
g58
NtRp4730
(dp4731
g61
(dp4732
sg70
g3366
sg63
(lp4733
g56
(g77
g58
NtRp4734
(dp4735
g61
(dp4736
g81
g82
ssg70
g4730
sg63
(lp4737
S'view'
p4738
asbag56
(g77
g58
NtRp4739
(dp4740
g61
(dp4741
g88
g89
ssg70
g4730
sg63
(lp4742
S':'
asbag56
(g77
g58
NtRp4743
(dp4744
g61
(dp4745
sg70
g4730
sg63
(lp4746
g56
(g57
g58
NtRp4747
(dp4748
g61
(dp4749
g69
I5
ssg70
g4743
sg63
(lp4750
S'default/index.html'
p4751
asbasbasbasbasbsS'locals'
p4752
(dp4753
S'Service'
p4754
S"<class 'gluon.tools.Service'>"
p4755
sS'OBJECT'
p4756
S"<class 'gluon.html.OBJECT'>"
p4757
sS'SQLDB'
p4758
S"<class 'gluon.dal.DAL'>"
p4759
sg3038
S"<Storage {'last_query': 'db((db.t_log.id==1)&(db...login]': '8ec5ccfe-0283-4bb3-b47f-297ab4079879'}>"
p4760
sS'LINK'
p4761
S"<class 'gluon.html.LINK'>"
p4762
sS'BR'
p4763
S"<class 'gluon.html.BR'>"
p4764
sS'local_import'
p4765
S'<function <lambda>>'
p4766
sS'OPTGROUP'
p4767
S"<class 'gluon.html.OPTGROUP'>"
p4768
sS'PRE'
p4769
S"<class 'gluon.html.PRE'>"
p4770
sS'IS_INT_IN_RANGE'
p4771
S"<class 'gluon.validators.IS_INT_IN_RANGE'>"
p4772
sS'left_sidebar_enabled'
p4773
g99
sS'IS_LOWER'
p4774
S"<class 'gluon.validators.IS_LOWER'>"
p4775
sS'IS_STRONG'
p4776
S"<class 'gluon.validators.IS_STRONG'>"
p4777
sS'datetime'
p4778
S"<module 'datetime' from '/usr/lib/python2.7/lib-dynload/datetime.so'>"
p4779
sS'cache'
p4780
S'<gluon.cache.Cache object>'
p4781
sS'IS_IN_DB'
p4782
S"<class 'gluon.validators.IS_IN_DB'>"
p4783
sS'TAG'
p4784
S'<gluon.html.__TAG__ object>'
p4785
sS'SQLField'
p4786
S"<class 'gluon.dal.Field'>"
p4787
sS'mail'
p4788
S'<gluon.tools.Mail object>'
p4789
sS'BODY'
p4790
S"<class 'gluon.html.BODY'>"
p4791
sS'IS_DATE_IN_RANGE'
p4792
S"<class 'gluon.validators.IS_DATE_IN_RANGE'>"
p4793
sS'TH'
p4794
S"<class 'gluon.html.TH'>"
p4795
sS'URL'
p4796
S'<function URL>'
p4797
sS'__file__'
p4798
S"'/home/jose/DESARROLLO/web2py199/applications/streamlog/views/default/index.html'"
p4799
sS'db'
p4800
S"<DAL {'auth_event': <Table {'origin': <gluon.dal..., 'id': <gluon.dal.Field object at 0x2c11d10>}>}>"
p4801
sS'auth'
p4802
S'<gluon.tools.Auth object>'
p4803
sS'P'
S"<class 'gluon.html.P'>"
p4804
sS'TFOOT'
p4805
S"<class 'gluon.html.TFOOT'>"
p4806
sS'XHTML'
p4807
S"<class 'gluon.html.XHTML'>"
p4808
sg2207
S'datetime.datetime(2012, 5, 27, 15, 54, 14, 285167)'
p4809
sS'ON'
p4810
g1654
sS'OL'
p4811
S"<class 'gluon.html.OL'>"
p4812
sS'TEXTAREA'
p4813
S"<class 'gluon.html.TEXTAREA'>"
p4814
sS'MENU'
p4815
S"<class 'gluon.html.MENU'>"
p4816
sS'LOAD'
p4817
S'<gluon.compileapp.LoadFactory object>'
p4818
sS'CODE'
p4819
S"<class 'gluon.html.CODE'>"
p4820
sS'HTTP'
p4821
S"<class 'gluon.http.HTTP'>"
p4822
sS'HR'
p4823
S"<class 'gluon.html.HR'>"
p4824
sS'IS_DATETIME'
p4825
S"<class 'gluon.validators.IS_DATETIME'>"
p4826
sS'HEAD'
p4827
S"<class 'gluon.html.HEAD'>"
p4828
sS'LABEL'
p4829
S"<class 'gluon.html.LABEL'>"
p4830
sS'CLEANUP'
p4831
S"<class 'gluon.validators.CLEANUP'>"
p4832
sS'plugins'
p4833
S'<gluon.tools.PluginManager object>'
p4834
sS'SELECT'
p4835
S"<class 'gluon.html.SELECT'>"
p4836
sS'use_janrain'
p4837
S'<function use_janrain>'
p4838
sS'CENTER'
p4839
S"<class 'gluon.html.CENTER'>"
p4840
sS'prettydate'
p4841
S'<function prettydate>'
p4842
sS'Crud'
p4843
S"<class 'gluon.tools.Crud'>"
p4844
sS'Auth'
p4845
S"<class 'gluon.tools.Auth'>"
p4846
sS'__builtins__'
p4847
S"{'ArithmeticError': <type 'exceptions.ArithmeticError'>, 'AssertionError': <type 'exceptions.AssertionError'>, 'AttributeError': <type 'exceptions.AttributeError'>, 'BaseException': <type 'exceptions.BaseException'>, 'BufferError': <type 'exceptions.BufferError'>, 'BytesWarning': <type 'exceptions.BytesWarning'>, 'DeprecationWarning': <type 'exceptions.DeprecationWarning'>, 'EOFError': <type 'exceptions.EOFError'>, 'Ellipsis': Ellipsis, 'EnvironmentError': <type 'exceptions.EnvironmentError'>, ...}"
p4848
sS'HTML'
p4849
S"<class 'gluon.html.HTML'>"
p4850
sS'SQLFORM'
p4851
S"<class 'gluon.sqlhtml.SQLFORM'>"
p4852
sS'EM'
p4853
S"<class 'gluon.html.EM'>"
p4854
sS'redirect'
p4855
S'<function redirect>'
p4856
sS'FIELDSET'
p4857
S"<class 'gluon.html.FIELDSET'>"
p4858
sS'IS_EQUAL_TO'
p4859
S"<class 'gluon.validators.IS_EQUAL_TO'>"
p4860
sS'embed64'
p4861
S'<function embed64>'
p4862
sS'IS_LIST_OF'
p4863
S"<class 'gluon.validators.IS_LIST_OF'>"
p4864
sS'INPUT'
p4865
S"<class 'gluon.html.INPUT'>"
p4866
sS'EMBED'
p4867
S"<class 'gluon.html.EMBED'>"
p4868
sS'FORM'
p4869
S"<class 'gluon.html.FORM'>"
p4870
sS'width_content'
p4871
S"'100%'"
p4872
sS'H2'
p4873
S"<class 'gluon.html.H2'>"
p4874
sS'H3'
p4875
S"<class 'gluon.html.H3'>"
p4876
sS'BUTTON'
p4877
S"<class 'gluon.html.BUTTON'>"
p4878
sS'H1'
p4879
S"<class 'gluon.html.H1'>"
p4880
sS'H6'
p4881
S"<class 'gluon.html.H6'>"
p4882
sS'H4'
p4883
S"<class 'gluon.html.H4'>"
p4884
sS'H5'
p4885
S"<class 'gluon.html.H5'>"
p4886
sS'UL'
p4887
S"<class 'gluon.html.UL'>"
p4888
sS'IS_UPPER'
p4889
S"<class 'gluon.validators.IS_UPPER'>"
p4890
sS'xmlescape'
p4891
S'<function xmlescape>'
p4892
sS'IS_TIME'
p4893
S"<class 'gluon.validators.IS_TIME'>"
p4894
sS'OPTION'
p4895
S"<class 'gluon.html.OPTION'>"
p4896
sS'TITLE'
p4897
S"<class 'gluon.html.TITLE'>"
p4898
sS'CRYPT'
p4899
S"<class 'gluon.validators.CRYPT'>"
p4900
sS'IS_EMPTY_OR'
p4901
S"<class 'gluon.validators.IS_EMPTY_OR'>"
p4902
sS'MARKMIN'
p4903
S"<class 'gluon.html.MARKMIN'>"
p4904
sS'message'
p4905
S"<lazyT 'Hello World2'>"
p4906
sS'COL'
p4907
S"<class 'gluon.html.COL'>"
p4908
sS'service'
p4909
S'<gluon.tools.Service object>'
p4910
sS'SCRIPT'
p4911
S"<class 'gluon.html.SCRIPT'>"
p4912
sS'TABLE'
p4913
S"<class 'gluon.html.TABLE'>"
p4914
sS'IS_IPV4'
p4915
S"<class 'gluon.validators.IS_IPV4'>"
p4916
sS'IS_LENGTH'
p4917
S"<class 'gluon.validators.IS_LENGTH'>"
p4918
sS'XML'
p4919
S"<class 'gluon.html.XML'>"
p4920
sS'B'
S"<class 'gluon.html.B'>"
p4921
sS'form'
p4922
S'<gluon.html.DIV object>'
p4923
sS'SQLTABLE'
p4924
S"<class 'gluon.sqlhtml.SQLTABLE'>"
p4925
sS'IS_MATCH'
p4926
S"<class 'gluon.validators.IS_MATCH'>"
p4927
sS'IS_ALPHANUMERIC'
p4928
S"<class 'gluon.validators.IS_ALPHANUMERIC'>"
p4929
sS'me'
p4930
S'1'
sS'SPAN'
p4931
S"<class 'gluon.html.SPAN'>"
p4932
sS'IS_SLUG'
p4933
S"<class 'gluon.validators.IS_SLUG'>"
p4934
sS'BEAUTIFY'
p4935
S"<class 'gluon.html.BEAUTIFY'>"
p4936
sS'META'
p4937
S"<class 'gluon.html.META'>"
p4938
sS'IS_DATE'
p4939
S"<class 'gluon.validators.IS_DATE'>"
p4940
sS'IS_EMAIL'
p4941
S"<class 'gluon.validators.IS_EMAIL'>"
p4942
sS'IS_NOT_EMPTY'
p4943
S"<class 'gluon.validators.IS_NOT_EMPTY'>"
p4944
sS'IS_FLOAT_IN_RANGE'
p4945
S"<class 'gluon.validators.IS_FLOAT_IN_RANGE'>"
p4946
sS'TBODY'
p4947
S"<class 'gluon.html.TBODY'>"
p4948
sS'CAT'
p4949
S"<class 'gluon.html.CAT'>"
p4950
sS'Field'
p4951
S"<class 'gluon.dal.Field'>"
p4952
sS'DIV'
p4953
S"<class 'gluon.html.DIV'>"
p4954
sS'LEGEND'
p4955
S"<class 'gluon.html.LEGEND'>"
p4956
sS'IMG'
p4957
S"<class 'gluon.html.IMG'>"
p4958
sS'COLGROUP'
p4959
S"<class 'gluon.html.COLGROUP'>"
p4960
sS'DAL'
p4961
S"<class 'gluon.dal.DAL'>"
p4962
sS'TT'
p4963
S"<class 'gluon.html.TT'>"
p4964
sS'TR'
p4965
S"<class 'gluon.html.TR'>"
p4966
sS'LI'
p4967
S"<class 'gluon.html.LI'>"
p4968
sS'right_sidebar_enabled'
p4969
g99
sS'IFRAME'
p4970
S"<class 'gluon.html.IFRAME'>"
p4971
sS'TD'
p4972
S"<class 'gluon.html.TD'>"
p4973
sS'PluginManager'
p4974
S"<class 'gluon.tools.PluginManager'>"
p4975
sS'IS_URL'
p4976
S"<class 'gluon.validators.IS_URL'>"
p4977
sS'A'
S"<class 'gluon.html.A'>"
p4978
sS'STYLE'
p4979
S"<class 'gluon.html.STYLE'>"
p4980
sS'IS_DATETIME_IN_RANGE'
p4981
S"<class 'gluon.validators.IS_DATETIME_IN_RANGE'>"
p4982
sS'IS_IMAGE'
p4983
S"<class 'gluon.validators.IS_IMAGE'>"
p4984
sS'I'
S"<class 'gluon.html.I'>"
p4985
sS'crud'
p4986
S'<gluon.tools.Crud object>'
p4987
sS'right_sidebar_style'
p4988
S'\'style="display: none;"\''
p4989
sS'IS_NOT_IN_DB'
p4990
S"<class 'gluon.validators.IS_NOT_IN_DB'>"
p4991
sg3361
S"<Storage {'body': <cStringIO.StringO object at 0...da> at 0x2a31848>, 'view': 'default/index.html'}>"
p4992
sS'THEAD'
p4993
S"<class 'gluon.html.THEAD'>"
p4994
sS'IS_NULL_OR'
p4995
S"<class 'gluon.validators.IS_EMPTY_OR'>"
p4996
sS'left_sidebar_style'
p4997
S'\'style="display: none;"\''
p4998
sg55
S"<Storage {'body': <cStringIO.StringO object at 0..._vars': <Storage {}>, 'post_vars': <Storage {}>}>"
p4999
sS'IS_EXPR'
p5000
S"<class 'gluon.validators.IS_EXPR'>"
p5001
sS'T'
S'<gluon.languages.translator object>'
p5002
sS'IS_IN_SET'
p5003
S"<class 'gluon.validators.IS_IN_SET'>"
p5004
sS'IS_UPLOAD_FILENAME'
p5005
S"<class 'gluon.validators.IS_UPLOAD_FILENAME'>"
p5006
sS'style_content'
p5007
S'\'style="width: 100%"\''
p5008
sS'IS_DECIMAL_IN_RANGE'
p5009
S"<class 'gluon.validators.IS_DECIMAL_IN_RANGE'>"
p5010
sssS'traceback'
p5011
S'Traceback (most recent call last):\n  File "/home/jose/DESARROLLO/web2py199/gluon/restricted.py", line 194, in restricted\n    exec ccode in environment\n  File "/home/jose/DESARROLLO/web2py199/applications/streamlog/views/default/index.html", line 88, in <module>\nNameError: name \'log_id\' is not defined\n'
p5012
s.