(dp1
S'output'
p2
S''
sS'layer'
p3
S'/home/jose/DESARROLLO/web2py199/applications/streamlog/controllers/default.py'
p4
sS'code'
p5
S'# -*- coding: utf-8 -*-\n# this file is released under public domain and you can use without limitations\n\n#########################################################################\n## This is a samples controller\n## - index is the default action of any application\n## - user is required for authentication and authorization\n## - download is for downloading files uploaded in the db (does streaming)\n## - call exposes all registered services (none by default)\n#########################################################################\n\n\n\ndef index():\n    """\n    example action using the internationalization operator T and flash\n    rendered by views/default/index.html or views/generic.html\n    """\n    return dict(message=T(\'Hello World2\'))\n\n\ndef choose_log():\n    """\n    example action using the internationalization operator T and flash\n    rendered by views/default/index.html or views/generic.html\n    """\n    \n    \n    return dict(message="log")\n\n\ndef type_table():\n    """\n    example action using the internationalization operator T and flash\n    rendered by views/default/index.html or views/generic.html\n    """\n    \n    table=\'<table cellpadding="0" cellspacing="0" border="0" class="display" id="tablelog"> \\\n    <thead> \\\n        <tr> \\\n            <th>IP</th> \\\n            <th>hyphen</th> \\\n            <th>userid</th> \\\n            <th>Time Request</th> \\\n        <th>Request Time</th> \\\n        <th>Status Code</th> \\\n        <th>Size Object</th> \\\n        </tr>\\\n    </thead> \\\n    <tfoot> \\\n        <tr> \\\n            <th>IP</th> \\\n            <th>hyphen</th> \\\n            <th>userid</th>\\\n            <th>Time Request</th> \\\n        <th>Request Time</th> \\\n        <th>Status Code</th> \\\n        <th>Size Object</th> \\\n        </tr>  \\\n    </tfoot>  \\\n        <tbody> \\\n        </tbody> \\\n    </table>\'\n    \n    return table\n\n\ndef user():\n    """\n    exposes:\n    http://..../[app]/default/user/login\n    http://..../[app]/default/user/logout\n    http://..../[app]/default/user/register\n    http://..../[app]/default/user/profile\n    http://..../[app]/default/user/retrieve_password\n    http://..../[app]/default/user/change_password\n    use @auth.requires_login()\n        @auth.requires_membership(\'group name\')\n        @auth.requires_permission(\'read\',\'table name\',record_id)\n    to decorate functions that need access control\n    """\n    return dict(form=auth())\n\ndef error():\n    return dict()\n\n\ndef project_manage():\n    \n    query=(db.t_project.user==me)\n    form = SQLFORM.smartgrid(db.t_project,constraints=dict(t_project=query))\n    #form = SQLFORM.smartgrid(db.t_project)\n    return locals()\n\n\n#@auth.requires_login()\ndef server_manage():\n\n    query=db((db.t_project.user==me)&(db.t_server.project==db.t_project.id))\n    #query=(db.t_project.id==1)\n    #query=(db.t_server.project==1)\n    #query=(db.t_project.id==db.t_server.project)\n    form = SQLFORM.smartgrid(db.t_server,constraints=dict(t_server=query))\n    #form = SQLFORM.smartgrid(db.t_server)\n    return locals()\n\n#@auth.requires_login()\ndef log_manage():\n    #works\n    #db.t_log.id.readable=False\n    db.t_server.id.readable=False\n    db.t_server.name.readable=False\n    db.t_server.IP.readable=False\n    db.t_server.port.readable=False\n    db.t_server.description.readable=False\n\n\t\n    """\n\tqueries=[]\nif arg1 == "x": queries.append(db.table.field == x)\nif arg2 == "y": queries.append(db.table.otherfield == y)\n# many conditions here....\nquery = reduce(lambda a,b:(a&b),queries)\ndb(query).select()\n\t"""\n\n    #query=(db.t_server.user==me)&(db.t_server.id==db.t_log.server)\n\n    #form = SQLFORM.smartgrid(db.t_log,constraints=dict(t_log=query), selectable=True,searchable=False, csv=False,showbuttontext=True,onupdate=auth.archive)\n    form = SQLFORM.smartgrid(db.t_log)\n    return locals()\n\n\n\ndef download():\n    """\n    allows downloading of uploaded files\n    http://..../[app]/default/download/[filename]\n    """\n    return response.download(request,db)\n\n\ndef call():\n    """\n    exposes services. for example:\n    http://..../[app]/default/call/jsonrpc\n    decorate with @services.jsonrpc the functions to expose\n    supports xml, json, xmlrpc, jsonrpc, amfrpc, rss, csv\n    """\n    return service()\n\n\n@auth.requires_signature()\ndef data():\n    """\n    http://..../[app]/default/data/tables\n    http://..../[app]/default/data/create/[table]\n    http://..../[app]/default/data/read/[table]/[id]\n    http://..../[app]/default/data/update/[table]/[id]\n    http://..../[app]/default/data/delete/[table]/[id]\n    http://..../[app]/default/data/select/[table]\n    http://..../[app]/default/data/search/[table]\n    but URLs bust be signed, i.e. linked with\n      A(\'table\',_href=URL(\'data/tables\',user_signature=True))\n    or with the signed load operator\n      LOAD(\'default\',\'data.load\',args=\'tables\',ajax=True,user_signature=True)\n    """\n    return dict(form=crud())\n\nresponse._vars=response._caller(server_manage)\n'
p6
sS'snapshot'
p7
(dp8
S'exception'
p9
(dp10
S'__module__'
p11
S"'sqlite3'"
p12
sS'__getslice__'
p13
S"<method-wrapper '__getslice__' of OperationalError object>"
p14
sS'__str__'
p15
S"<method-wrapper '__str__' of OperationalError object>"
p16
sS'__reduce__'
p17
S'<built-in method __reduce__ of OperationalError object>'
p18
sS'__dict__'
p19
S'{}'
p20
sS'__sizeof__'
p21
S'<built-in method __sizeof__ of OperationalError object>'
p22
sS'__weakref__'
p23
S'None'
p24
sS'__init__'
p25
S"<method-wrapper '__init__' of OperationalError object>"
p26
sS'__setattr__'
p27
S"<method-wrapper '__setattr__' of OperationalError object>"
p28
sS'__reduce_ex__'
p29
S'<built-in method __reduce_ex__ of OperationalError object>'
p30
sS'__new__'
p31
S'<built-in method __new__ of type object>'
p32
sS'__format__'
p33
S'<built-in method __format__ of OperationalError object>'
p34
sS'__class__'
p35
S"<class 'sqlite3.OperationalError'>"
p36
sS'__doc__'
p37
S'None'
p38
sS'__getitem__'
p39
S"<method-wrapper '__getitem__' of OperationalError object>"
p40
sS'__setstate__'
p41
S'<built-in method __setstate__ of OperationalError object>'
p42
sS'__getattribute__'
p43
S"<method-wrapper '__getattribute__' of OperationalError object>"
p44
sS'args'
p45
S'(\'near "<": syntax error\',)'
p46
sS'__subclasshook__'
p47
S'<built-in method __subclasshook__ of type object>'
p48
sS'__unicode__'
p49
S'<built-in method __unicode__ of OperationalError object>'
p50
sS'__delattr__'
p51
S"<method-wrapper '__delattr__' of OperationalError object>"
p52
sS'__repr__'
p53
S"<method-wrapper '__repr__' of OperationalError object>"
p54
sS'__hash__'
p55
S"<method-wrapper '__hash__' of OperationalError object>"
p56
ssS'evalue'
p57
S'near "<": syntax error'
p58
sS'request'
p59
ccopy_reg
_reconstructor
p60
(cgluon.html
BEAUTIFY
p61
c__builtin__
object
p62
NtRp63
(dp64
S'attributes'
p65
(dp66
sS'components'
p67
(lp68
g60
(cgluon.html
TABLE
p69
g62
NtRp70
(dp71
g65
(dp72
S'level'
p73
I5
ssS'parent'
p74
Nsg67
(lp75
g60
(cgluon.html
TR
p76
g62
NtRp77
(dp78
g65
(dp79
sg74
g70
sg67
(lp80
g60
(cgluon.html
TD
p81
g62
NtRp82
(dp83
g65
(dp84
S'_style'
p85
S'font-weight:bold;'
p86
ssg74
g77
sg67
(lp87
S'ajax'
p88
asbag60
(g81
g62
NtRp89
(dp90
g65
(dp91
S'_valign'
p92
S'top'
p93
ssg74
g77
sg67
(lp94
S':'
asbag60
(g81
g62
NtRp95
(dp96
g65
(dp97
sg74
g77
sg67
(lp98
g60
(g61
g62
NtRp99
(dp100
g65
(dp101
g73
I5
ssg74
g95
sg67
(lp102
S'False'
p103
asbasbasbag60
(g76
g62
NtRp104
(dp105
g65
(dp106
sg74
g70
sg67
(lp107
g60
(g81
g62
NtRp108
(dp109
g65
(dp110
g85
g86
ssg74
g104
sg67
(lp111
S'application'
p112
asbag60
(g81
g62
NtRp113
(dp114
g65
(dp115
g92
g93
ssg74
g104
sg67
(lp116
S':'
asbag60
(g81
g62
NtRp117
(dp118
g65
(dp119
sg74
g104
sg67
(lp120
g60
(g61
g62
NtRp121
(dp122
g65
(dp123
g73
I5
ssg74
g117
sg67
(lp124
S'streamlog'
p125
asbasbasbag60
(g76
g62
NtRp126
(dp127
g65
(dp128
sg74
g70
sg67
(lp129
g60
(g81
g62
NtRp130
(dp131
g65
(dp132
g85
g86
ssg74
g126
sg67
(lp133
g45
asbag60
(g81
g62
NtRp134
(dp135
g65
(dp136
g92
g93
ssg74
g126
sg67
(lp137
S':'
asbag60
(g81
g62
NtRp138
(dp139
g65
(dp140
sg74
g126
sg67
(lp141
g60
(g61
g62
NtRp142
(dp143
g65
(dp144
g73
I5
ssg74
g138
sg67
(lp145
g60
(g69
g62
NtRp146
(dp147
g65
(dp148
g73
I4
ssg74
Nsg67
(lp149
g60
(g76
g62
NtRp150
(dp151
g65
(dp152
sg74
g146
sg67
(lp153
g60
(g81
g62
NtRp154
(dp155
g65
(dp156
sg74
g150
sg67
(lp157
g60
(g61
g62
NtRp158
(dp159
g65
(dp160
g73
I4
ssg74
g154
sg67
(lp161
S't_server'
p162
asbasbasbasbasbasbasbag60
(g76
g62
NtRp163
(dp164
g65
(dp165
sg74
g70
sg67
(lp166
g60
(g81
g62
NtRp167
(dp168
g65
(dp169
g85
g86
ssg74
g163
sg67
(lp170
S'body'
p171
asbag60
(g81
g62
NtRp172
(dp173
g65
(dp174
g92
g93
ssg74
g163
sg67
(lp175
S':'
asbag60
(g81
g62
NtRp176
(dp177
g65
(dp178
sg74
g163
sg67
(lp179
g60
(g61
g62
NtRp180
(dp181
g65
(dp182
g73
I5
ssg74
g176
sg67
(lp183
S'<cStringIO.StringO object at 0x353c7d8>'
p184
asbasbasbag60
(g76
g62
NtRp185
(dp186
g65
(dp187
sg74
g70
sg67
(lp188
g60
(g81
g62
NtRp189
(dp190
g65
(dp191
g85
g86
ssg74
g185
sg67
(lp192
S'client'
p193
asbag60
(g81
g62
NtRp194
(dp195
g65
(dp196
g92
g93
ssg74
g185
sg67
(lp197
S':'
asbag60
(g81
g62
NtRp198
(dp199
g65
(dp200
sg74
g185
sg67
(lp201
g60
(g61
g62
NtRp202
(dp203
g65
(dp204
g73
I5
ssg74
g198
sg67
(lp205
S'127.0.0.1'
p206
asbasbasbag60
(g76
g62
NtRp207
(dp208
g65
(dp209
sg74
g70
sg67
(lp210
g60
(g81
g62
NtRp211
(dp212
g65
(dp213
g85
g86
ssg74
g207
sg67
(lp214
S'controller'
p215
asbag60
(g81
g62
NtRp216
(dp217
g65
(dp218
g92
g93
ssg74
g207
sg67
(lp219
S':'
asbag60
(g81
g62
NtRp220
(dp221
g65
(dp222
sg74
g207
sg67
(lp223
g60
(g61
g62
NtRp224
(dp225
g65
(dp226
g73
I5
ssg74
g220
sg67
(lp227
S'default'
p228
asbasbasbag60
(g76
g62
NtRp229
(dp230
g65
(dp231
sg74
g70
sg67
(lp232
g60
(g81
g62
NtRp233
(dp234
g65
(dp235
g85
g86
ssg74
g229
sg67
(lp236
S'cookies'
p237
asbag60
(g81
g62
NtRp238
(dp239
g65
(dp240
g92
g93
ssg74
g229
sg67
(lp241
S':'
asbag60
(g81
g62
NtRp242
(dp243
g65
(dp244
sg74
g229
sg67
(lp245
g60
(g61
g62
NtRp246
(dp247
g65
(dp248
g73
I5
ssg74
g242
sg67
(lp249
g60
(g69
g62
NtRp250
(dp251
g65
(dp252
g73
I4
ssg74
Nsg67
(lp253
g60
(g76
g62
NtRp254
(dp255
g65
(dp256
sg74
g250
sg67
(lp257
g60
(g81
g62
NtRp258
(dp259
g65
(dp260
g85
g86
ssg74
g254
sg67
(lp261
S'session_id_admin'
p262
asbag60
(g81
g62
NtRp263
(dp264
g65
(dp265
g92
g93
ssg74
g254
sg67
(lp266
S':'
asbag60
(g81
g62
NtRp267
(dp268
g65
(dp269
sg74
g254
sg67
(lp270
g60
(g61
g62
NtRp271
(dp272
g65
(dp273
g73
I4
ssg74
g267
sg67
(lp274
g60
(g69
g62
NtRp275
(dp276
g65
(dp277
g73
I3
ssg74
Nsg67
(lp278
g60
(g76
g62
NtRp279
(dp280
g65
(dp281
sg74
g275
sg67
(lp282
g60
(g81
g62
NtRp283
(dp284
g65
(dp285
g85
g86
ssg74
g279
sg67
(lp286
S'comment'
p287
asbag60
(g81
g62
NtRp288
(dp289
g65
(dp290
g92
g93
ssg74
g279
sg67
(lp291
S':'
asbag60
(g81
g62
NtRp292
(dp293
g65
(dp294
sg74
g279
sg67
(lp295
g60
(g61
g62
NtRp296
(dp297
g65
(dp298
g73
I3
ssg74
g292
sg67
(lp299
S''
asbasbasbag60
(g76
g62
NtRp300
(dp301
g65
(dp302
sg74
g275
sg67
(lp303
g60
(g81
g62
NtRp304
(dp305
g65
(dp306
g85
g86
ssg74
g300
sg67
(lp307
S'domain'
p308
asbag60
(g81
g62
NtRp309
(dp310
g65
(dp311
g92
g93
ssg74
g300
sg67
(lp312
S':'
asbag60
(g81
g62
NtRp313
(dp314
g65
(dp315
sg74
g300
sg67
(lp316
g60
(g61
g62
NtRp317
(dp318
g65
(dp319
g73
I3
ssg74
g313
sg67
(lp320
S''
asbasbasbag60
(g76
g62
NtRp321
(dp322
g65
(dp323
sg74
g275
sg67
(lp324
g60
(g81
g62
NtRp325
(dp326
g65
(dp327
g85
g86
ssg74
g321
sg67
(lp328
S'expires'
p329
asbag60
(g81
g62
NtRp330
(dp331
g65
(dp332
g92
g93
ssg74
g321
sg67
(lp333
S':'
asbag60
(g81
g62
NtRp334
(dp335
g65
(dp336
sg74
g321
sg67
(lp337
g60
(g61
g62
NtRp338
(dp339
g65
(dp340
g73
I3
ssg74
g334
sg67
(lp341
S''
asbasbasbag60
(g76
g62
NtRp342
(dp343
g65
(dp344
sg74
g275
sg67
(lp345
g60
(g81
g62
NtRp346
(dp347
g65
(dp348
g85
g86
ssg74
g342
sg67
(lp349
S'httponly'
p350
asbag60
(g81
g62
NtRp351
(dp352
g65
(dp353
g92
g93
ssg74
g342
sg67
(lp354
S':'
asbag60
(g81
g62
NtRp355
(dp356
g65
(dp357
sg74
g342
sg67
(lp358
g60
(g61
g62
NtRp359
(dp360
g65
(dp361
g73
I3
ssg74
g355
sg67
(lp362
S''
asbasbasbag60
(g76
g62
NtRp363
(dp364
g65
(dp365
sg74
g275
sg67
(lp366
g60
(g81
g62
NtRp367
(dp368
g65
(dp369
g85
g86
ssg74
g363
sg67
(lp370
S'max-age'
p371
asbag60
(g81
g62
NtRp372
(dp373
g65
(dp374
g92
g93
ssg74
g363
sg67
(lp375
S':'
asbag60
(g81
g62
NtRp376
(dp377
g65
(dp378
sg74
g363
sg67
(lp379
g60
(g61
g62
NtRp380
(dp381
g65
(dp382
g73
I3
ssg74
g376
sg67
(lp383
S''
asbasbasbag60
(g76
g62
NtRp384
(dp385
g65
(dp386
sg74
g275
sg67
(lp387
g60
(g81
g62
NtRp388
(dp389
g65
(dp390
g85
g86
ssg74
g384
sg67
(lp391
S'path'
p392
asbag60
(g81
g62
NtRp393
(dp394
g65
(dp395
g92
g93
ssg74
g384
sg67
(lp396
S':'
asbag60
(g81
g62
NtRp397
(dp398
g65
(dp399
sg74
g384
sg67
(lp400
g60
(g61
g62
NtRp401
(dp402
g65
(dp403
g73
I3
ssg74
g397
sg67
(lp404
S''
asbasbasbag60
(g76
g62
NtRp405
(dp406
g65
(dp407
sg74
g275
sg67
(lp408
g60
(g81
g62
NtRp409
(dp410
g65
(dp411
g85
g86
ssg74
g405
sg67
(lp412
S'secure'
p413
asbag60
(g81
g62
NtRp414
(dp415
g65
(dp416
g92
g93
ssg74
g405
sg67
(lp417
S':'
asbag60
(g81
g62
NtRp418
(dp419
g65
(dp420
sg74
g405
sg67
(lp421
g60
(g61
g62
NtRp422
(dp423
g65
(dp424
g73
I3
ssg74
g418
sg67
(lp425
S''
asbasbasbag60
(g76
g62
NtRp426
(dp427
g65
(dp428
sg74
g275
sg67
(lp429
g60
(g81
g62
NtRp430
(dp431
g65
(dp432
g85
g86
ssg74
g426
sg67
(lp433
S'version'
p434
asbag60
(g81
g62
NtRp435
(dp436
g65
(dp437
g92
g93
ssg74
g426
sg67
(lp438
S':'
asbag60
(g81
g62
NtRp439
(dp440
g65
(dp441
sg74
g426
sg67
(lp442
g60
(g61
g62
NtRp443
(dp444
g65
(dp445
g73
I3
ssg74
g439
sg67
(lp446
S''
asbasbasbasbasbasbasbag60
(g76
g62
NtRp447
(dp448
g65
(dp449
sg74
g250
sg67
(lp450
g60
(g81
g62
NtRp451
(dp452
g65
(dp453
g85
g86
ssg74
g447
sg67
(lp454
S'session_id_streamlog'
p455
asbag60
(g81
g62
NtRp456
(dp457
g65
(dp458
g92
g93
ssg74
g447
sg67
(lp459
S':'
asbag60
(g81
g62
NtRp460
(dp461
g65
(dp462
sg74
g447
sg67
(lp463
g60
(g61
g62
NtRp464
(dp465
g65
(dp466
g73
I4
ssg74
g460
sg67
(lp467
g60
(g69
g62
NtRp468
(dp469
g65
(dp470
g73
I3
ssg74
Nsg67
(lp471
g60
(g76
g62
NtRp472
(dp473
g65
(dp474
sg74
g468
sg67
(lp475
g60
(g81
g62
NtRp476
(dp477
g65
(dp478
g85
g86
ssg74
g472
sg67
(lp479
g287
asbag60
(g81
g62
NtRp480
(dp481
g65
(dp482
g92
g93
ssg74
g472
sg67
(lp483
S':'
asbag60
(g81
g62
NtRp484
(dp485
g65
(dp486
sg74
g472
sg67
(lp487
g60
(g61
g62
NtRp488
(dp489
g65
(dp490
g73
I3
ssg74
g484
sg67
(lp491
S''
asbasbasbag60
(g76
g62
NtRp492
(dp493
g65
(dp494
sg74
g468
sg67
(lp495
g60
(g81
g62
NtRp496
(dp497
g65
(dp498
g85
g86
ssg74
g492
sg67
(lp499
g308
asbag60
(g81
g62
NtRp500
(dp501
g65
(dp502
g92
g93
ssg74
g492
sg67
(lp503
S':'
asbag60
(g81
g62
NtRp504
(dp505
g65
(dp506
sg74
g492
sg67
(lp507
g60
(g61
g62
NtRp508
(dp509
g65
(dp510
g73
I3
ssg74
g504
sg67
(lp511
S''
asbasbasbag60
(g76
g62
NtRp512
(dp513
g65
(dp514
sg74
g468
sg67
(lp515
g60
(g81
g62
NtRp516
(dp517
g65
(dp518
g85
g86
ssg74
g512
sg67
(lp519
g329
asbag60
(g81
g62
NtRp520
(dp521
g65
(dp522
g92
g93
ssg74
g512
sg67
(lp523
S':'
asbag60
(g81
g62
NtRp524
(dp525
g65
(dp526
sg74
g512
sg67
(lp527
g60
(g61
g62
NtRp528
(dp529
g65
(dp530
g73
I3
ssg74
g524
sg67
(lp531
S''
asbasbasbag60
(g76
g62
NtRp532
(dp533
g65
(dp534
sg74
g468
sg67
(lp535
g60
(g81
g62
NtRp536
(dp537
g65
(dp538
g85
g86
ssg74
g532
sg67
(lp539
g350
asbag60
(g81
g62
NtRp540
(dp541
g65
(dp542
g92
g93
ssg74
g532
sg67
(lp543
S':'
asbag60
(g81
g62
NtRp544
(dp545
g65
(dp546
sg74
g532
sg67
(lp547
g60
(g61
g62
NtRp548
(dp549
g65
(dp550
g73
I3
ssg74
g544
sg67
(lp551
S''
asbasbasbag60
(g76
g62
NtRp552
(dp553
g65
(dp554
sg74
g468
sg67
(lp555
g60
(g81
g62
NtRp556
(dp557
g65
(dp558
g85
g86
ssg74
g552
sg67
(lp559
g371
asbag60
(g81
g62
NtRp560
(dp561
g65
(dp562
g92
g93
ssg74
g552
sg67
(lp563
S':'
asbag60
(g81
g62
NtRp564
(dp565
g65
(dp566
sg74
g552
sg67
(lp567
g60
(g61
g62
NtRp568
(dp569
g65
(dp570
g73
I3
ssg74
g564
sg67
(lp571
S''
asbasbasbag60
(g76
g62
NtRp572
(dp573
g65
(dp574
sg74
g468
sg67
(lp575
g60
(g81
g62
NtRp576
(dp577
g65
(dp578
g85
g86
ssg74
g572
sg67
(lp579
g392
asbag60
(g81
g62
NtRp580
(dp581
g65
(dp582
g92
g93
ssg74
g572
sg67
(lp583
S':'
asbag60
(g81
g62
NtRp584
(dp585
g65
(dp586
sg74
g572
sg67
(lp587
g60
(g61
g62
NtRp588
(dp589
g65
(dp590
g73
I3
ssg74
g584
sg67
(lp591
S''
asbasbasbag60
(g76
g62
NtRp592
(dp593
g65
(dp594
sg74
g468
sg67
(lp595
g60
(g81
g62
NtRp596
(dp597
g65
(dp598
g85
g86
ssg74
g592
sg67
(lp599
g413
asbag60
(g81
g62
NtRp600
(dp601
g65
(dp602
g92
g93
ssg74
g592
sg67
(lp603
S':'
asbag60
(g81
g62
NtRp604
(dp605
g65
(dp606
sg74
g592
sg67
(lp607
g60
(g61
g62
NtRp608
(dp609
g65
(dp610
g73
I3
ssg74
g604
sg67
(lp611
S''
asbasbasbag60
(g76
g62
NtRp612
(dp613
g65
(dp614
sg74
g468
sg67
(lp615
g60
(g81
g62
NtRp616
(dp617
g65
(dp618
g85
g86
ssg74
g612
sg67
(lp619
g434
asbag60
(g81
g62
NtRp620
(dp621
g65
(dp622
g92
g93
ssg74
g612
sg67
(lp623
S':'
asbag60
(g81
g62
NtRp624
(dp625
g65
(dp626
sg74
g612
sg67
(lp627
g60
(g61
g62
NtRp628
(dp629
g65
(dp630
g73
I3
ssg74
g624
sg67
(lp631
S''
asbasbasbasbasbasbasbag60
(g76
g62
NtRp632
(dp633
g65
(dp634
sg74
g250
sg67
(lp635
g60
(g81
g62
NtRp636
(dp637
g65
(dp638
g85
g86
ssg74
g632
sg67
(lp639
S'session_id_test3'
p640
asbag60
(g81
g62
NtRp641
(dp642
g65
(dp643
g92
g93
ssg74
g632
sg67
(lp644
S':'
asbag60
(g81
g62
NtRp645
(dp646
g65
(dp647
sg74
g632
sg67
(lp648
g60
(g61
g62
NtRp649
(dp650
g65
(dp651
g73
I4
ssg74
g645
sg67
(lp652
g60
(g69
g62
NtRp653
(dp654
g65
(dp655
g73
I3
ssg74
Nsg67
(lp656
g60
(g76
g62
NtRp657
(dp658
g65
(dp659
sg74
g653
sg67
(lp660
g60
(g81
g62
NtRp661
(dp662
g65
(dp663
g85
g86
ssg74
g657
sg67
(lp664
g287
asbag60
(g81
g62
NtRp665
(dp666
g65
(dp667
g92
g93
ssg74
g657
sg67
(lp668
S':'
asbag60
(g81
g62
NtRp669
(dp670
g65
(dp671
sg74
g657
sg67
(lp672
g60
(g61
g62
NtRp673
(dp674
g65
(dp675
g73
I3
ssg74
g669
sg67
(lp676
S''
asbasbasbag60
(g76
g62
NtRp677
(dp678
g65
(dp679
sg74
g653
sg67
(lp680
g60
(g81
g62
NtRp681
(dp682
g65
(dp683
g85
g86
ssg74
g677
sg67
(lp684
g308
asbag60
(g81
g62
NtRp685
(dp686
g65
(dp687
g92
g93
ssg74
g677
sg67
(lp688
S':'
asbag60
(g81
g62
NtRp689
(dp690
g65
(dp691
sg74
g677
sg67
(lp692
g60
(g61
g62
NtRp693
(dp694
g65
(dp695
g73
I3
ssg74
g689
sg67
(lp696
S''
asbasbasbag60
(g76
g62
NtRp697
(dp698
g65
(dp699
sg74
g653
sg67
(lp700
g60
(g81
g62
NtRp701
(dp702
g65
(dp703
g85
g86
ssg74
g697
sg67
(lp704
g329
asbag60
(g81
g62
NtRp705
(dp706
g65
(dp707
g92
g93
ssg74
g697
sg67
(lp708
S':'
asbag60
(g81
g62
NtRp709
(dp710
g65
(dp711
sg74
g697
sg67
(lp712
g60
(g61
g62
NtRp713
(dp714
g65
(dp715
g73
I3
ssg74
g709
sg67
(lp716
S''
asbasbasbag60
(g76
g62
NtRp717
(dp718
g65
(dp719
sg74
g653
sg67
(lp720
g60
(g81
g62
NtRp721
(dp722
g65
(dp723
g85
g86
ssg74
g717
sg67
(lp724
g350
asbag60
(g81
g62
NtRp725
(dp726
g65
(dp727
g92
g93
ssg74
g717
sg67
(lp728
S':'
asbag60
(g81
g62
NtRp729
(dp730
g65
(dp731
sg74
g717
sg67
(lp732
g60
(g61
g62
NtRp733
(dp734
g65
(dp735
g73
I3
ssg74
g729
sg67
(lp736
S''
asbasbasbag60
(g76
g62
NtRp737
(dp738
g65
(dp739
sg74
g653
sg67
(lp740
g60
(g81
g62
NtRp741
(dp742
g65
(dp743
g85
g86
ssg74
g737
sg67
(lp744
g371
asbag60
(g81
g62
NtRp745
(dp746
g65
(dp747
g92
g93
ssg74
g737
sg67
(lp748
S':'
asbag60
(g81
g62
NtRp749
(dp750
g65
(dp751
sg74
g737
sg67
(lp752
g60
(g61
g62
NtRp753
(dp754
g65
(dp755
g73
I3
ssg74
g749
sg67
(lp756
S''
asbasbasbag60
(g76
g62
NtRp757
(dp758
g65
(dp759
sg74
g653
sg67
(lp760
g60
(g81
g62
NtRp761
(dp762
g65
(dp763
g85
g86
ssg74
g757
sg67
(lp764
g392
asbag60
(g81
g62
NtRp765
(dp766
g65
(dp767
g92
g93
ssg74
g757
sg67
(lp768
S':'
asbag60
(g81
g62
NtRp769
(dp770
g65
(dp771
sg74
g757
sg67
(lp772
g60
(g61
g62
NtRp773
(dp774
g65
(dp775
g73
I3
ssg74
g769
sg67
(lp776
S''
asbasbasbag60
(g76
g62
NtRp777
(dp778
g65
(dp779
sg74
g653
sg67
(lp780
g60
(g81
g62
NtRp781
(dp782
g65
(dp783
g85
g86
ssg74
g777
sg67
(lp784
g413
asbag60
(g81
g62
NtRp785
(dp786
g65
(dp787
g92
g93
ssg74
g777
sg67
(lp788
S':'
asbag60
(g81
g62
NtRp789
(dp790
g65
(dp791
sg74
g777
sg67
(lp792
g60
(g61
g62
NtRp793
(dp794
g65
(dp795
g73
I3
ssg74
g789
sg67
(lp796
S''
asbasbasbag60
(g76
g62
NtRp797
(dp798
g65
(dp799
sg74
g653
sg67
(lp800
g60
(g81
g62
NtRp801
(dp802
g65
(dp803
g85
g86
ssg74
g797
sg67
(lp804
g434
asbag60
(g81
g62
NtRp805
(dp806
g65
(dp807
g92
g93
ssg74
g797
sg67
(lp808
S':'
asbag60
(g81
g62
NtRp809
(dp810
g65
(dp811
sg74
g797
sg67
(lp812
g60
(g61
g62
NtRp813
(dp814
g65
(dp815
g73
I3
ssg74
g809
sg67
(lp816
S''
asbasbasbasbasbasbasbasbasbasbasbag60
(g76
g62
NtRp817
(dp818
g65
(dp819
sg74
g70
sg67
(lp820
g60
(g81
g62
NtRp821
(dp822
g65
(dp823
g85
g86
ssg74
g817
sg67
(lp824
S'env'
p825
asbag60
(g81
g62
NtRp826
(dp827
g65
(dp828
g92
g93
ssg74
g817
sg67
(lp829
S':'
asbag60
(g81
g62
NtRp830
(dp831
g65
(dp832
sg74
g817
sg67
(lp833
g60
(g61
g62
NtRp834
(dp835
g65
(dp836
g73
I5
ssg74
g830
sg67
(lp837
g60
(g69
g62
NtRp838
(dp839
g65
(dp840
g73
I4
ssg74
Nsg67
(lp841
g60
(g76
g62
NtRp842
(dp843
g65
(dp844
sg74
g838
sg67
(lp845
g60
(g81
g62
NtRp846
(dp847
g65
(dp848
g85
g86
ssg74
g842
sg67
(lp849
S'app_folders'
p850
asbag60
(g81
g62
NtRp851
(dp852
g65
(dp853
g92
g93
ssg74
g842
sg67
(lp854
S':'
asbag60
(g81
g62
NtRp855
(dp856
g65
(dp857
sg74
g842
sg67
(lp858
g60
(g61
g62
NtRp859
(dp860
g65
(dp861
g73
I4
ssg74
g855
sg67
(lp862
S"set(['/home/jose/DESARROLLO/web2py199/applications/streamlog/', '/home/jose/DESARROLLO/web2py199/applications/admin/'])"
p863
asbasbasbag60
(g76
g62
NtRp864
(dp865
g65
(dp866
sg74
g838
sg67
(lp867
g60
(g81
g62
NtRp868
(dp869
g65
(dp870
g85
g86
ssg74
g864
sg67
(lp871
S'applications_parent'
p872
asbag60
(g81
g62
NtRp873
(dp874
g65
(dp875
g92
g93
ssg74
g864
sg67
(lp876
S':'
asbag60
(g81
g62
NtRp877
(dp878
g65
(dp879
sg74
g864
sg67
(lp880
g60
(g61
g62
NtRp881
(dp882
g65
(dp883
g73
I4
ssg74
g877
sg67
(lp884
S'/home/jose/DESARROLLO/web2py199'
p885
asbasbasbag60
(g76
g62
NtRp886
(dp887
g65
(dp888
sg74
g838
sg67
(lp889
g60
(g81
g62
NtRp890
(dp891
g65
(dp892
g85
g86
ssg74
g886
sg67
(lp893
S'cmd_args'
p894
asbag60
(g81
g62
NtRp895
(dp896
g65
(dp897
g92
g93
ssg74
g886
sg67
(lp898
S':'
asbag60
(g81
g62
NtRp899
(dp900
g65
(dp901
sg74
g886
sg67
(lp902
g60
(g61
g62
NtRp903
(dp904
g65
(dp905
g73
I4
ssg74
g899
sg67
(lp906
g60
(g69
g62
NtRp907
(dp908
g65
(dp909
g73
I3
ssg74
Nsg67
(lp910
sbasbasbasbag60
(g76
g62
NtRp911
(dp912
g65
(dp913
sg74
g838
sg67
(lp914
g60
(g81
g62
NtRp915
(dp916
g65
(dp917
g85
g86
ssg74
g911
sg67
(lp918
S'cmd_options'
p919
asbag60
(g81
g62
NtRp920
(dp921
g65
(dp922
g92
g93
ssg74
g911
sg67
(lp923
S':'
asbag60
(g81
g62
NtRp924
(dp925
g65
(dp926
sg74
g911
sg67
(lp927
g60
(g61
g62
NtRp928
(dp929
g65
(dp930
g73
I4
ssg74
g924
sg67
(lp931
S"<Values at 0x1c79f80: {'verbose': False, 'ip': '127.0.0.1', 'shutdown_timeout': 5, 'taskbar': False, 'nocron': False, 'pid_filename': 'httpserver.pid', 'maxthreads': None, 'softcron': False, 'server_name': 'jose', 'bpython': False, 'nogui': False, 'port': 8000, 'extcron': False, 'debuglevel': 30, 'test': None, 'folder': '/home/jose/DESARROLLO/web2py199', 'config': '', 'import_models': False, 'winservice': '', 'shell': None, 'run': '', 'log_filename': 'httpserver.log', 'args': [''], 'ssl_ca_certificate': None, 'scheduler': None, 'profiler_filename': None, 'ssl_private_key': '', 'password': 't', 'request_queue_size': 5, 'ssl_certificate': '', 'cronjob': False, 'plain': False, 'quiet': False, 'interfaces': None, 'minthreads': None, 'timeout': 10, 'numthreads': None, 'nobanner': False}>"
p932
asbasbasbag60
(g76
g62
NtRp933
(dp934
g65
(dp935
sg74
g838
sg67
(lp936
g60
(g81
g62
NtRp937
(dp938
g65
(dp939
g85
g86
ssg74
g933
sg67
(lp940
S'db_sessions'
p941
asbag60
(g81
g62
NtRp942
(dp943
g65
(dp944
g92
g93
ssg74
g933
sg67
(lp945
S':'
asbag60
(g81
g62
NtRp946
(dp947
g65
(dp948
sg74
g933
sg67
(lp949
g60
(g61
g62
NtRp950
(dp951
g65
(dp952
g73
I4
ssg74
g946
sg67
(lp953
S'set([])'
p954
asbasbasbag60
(g76
g62
NtRp955
(dp956
g65
(dp957
sg74
g838
sg67
(lp958
g60
(g81
g62
NtRp959
(dp960
g65
(dp961
g85
g86
ssg74
g955
sg67
(lp962
S'debugging'
p963
asbag60
(g81
g62
NtRp964
(dp965
g65
(dp966
g92
g93
ssg74
g955
sg67
(lp967
S':'
asbag60
(g81
g62
NtRp968
(dp969
g65
(dp970
sg74
g955
sg67
(lp971
g60
(g61
g62
NtRp972
(dp973
g65
(dp974
g73
I4
ssg74
g968
sg67
(lp975
g103
asbasbasbag60
(g76
g62
NtRp976
(dp977
g65
(dp978
sg74
g838
sg67
(lp979
g60
(g81
g62
NtRp980
(dp981
g65
(dp982
g85
g86
ssg74
g976
sg67
(lp983
S'gluon_parent'
p984
asbag60
(g81
g62
NtRp985
(dp986
g65
(dp987
g92
g93
ssg74
g976
sg67
(lp988
S':'
asbag60
(g81
g62
NtRp989
(dp990
g65
(dp991
sg74
g976
sg67
(lp992
g60
(g61
g62
NtRp993
(dp994
g65
(dp995
g73
I4
ssg74
g989
sg67
(lp996
S'/home/jose/DESARROLLO/web2py199'
p997
asbasbasbag60
(g76
g62
NtRp998
(dp999
g65
(dp1000
sg74
g838
sg67
(lp1001
g60
(g81
g62
NtRp1002
(dp1003
g65
(dp1004
g85
g86
ssg74
g998
sg67
(lp1005
S'http_accept'
p1006
asbag60
(g81
g62
NtRp1007
(dp1008
g65
(dp1009
g92
g93
ssg74
g998
sg67
(lp1010
S':'
asbag60
(g81
g62
NtRp1011
(dp1012
g65
(dp1013
sg74
g998
sg67
(lp1014
g60
(g61
g62
NtRp1015
(dp1016
g65
(dp1017
g73
I4
ssg74
g1011
sg67
(lp1018
S'text/html,application/xhtml+xml,application/xml;q=0.9,*/*;q=0.8'
p1019
asbasbasbag60
(g76
g62
NtRp1020
(dp1021
g65
(dp1022
sg74
g838
sg67
(lp1023
g60
(g81
g62
NtRp1024
(dp1025
g65
(dp1026
g85
g86
ssg74
g1020
sg67
(lp1027
S'http_accept_encoding'
p1028
asbag60
(g81
g62
NtRp1029
(dp1030
g65
(dp1031
g92
g93
ssg74
g1020
sg67
(lp1032
S':'
asbag60
(g81
g62
NtRp1033
(dp1034
g65
(dp1035
sg74
g1020
sg67
(lp1036
g60
(g61
g62
NtRp1037
(dp1038
g65
(dp1039
g73
I4
ssg74
g1033
sg67
(lp1040
S'gzip, deflate'
p1041
asbasbasbag60
(g76
g62
NtRp1042
(dp1043
g65
(dp1044
sg74
g838
sg67
(lp1045
g60
(g81
g62
NtRp1046
(dp1047
g65
(dp1048
g85
g86
ssg74
g1042
sg67
(lp1049
S'http_accept_language'
p1050
asbag60
(g81
g62
NtRp1051
(dp1052
g65
(dp1053
g92
g93
ssg74
g1042
sg67
(lp1054
S':'
asbag60
(g81
g62
NtRp1055
(dp1056
g65
(dp1057
sg74
g1042
sg67
(lp1058
g60
(g61
g62
NtRp1059
(dp1060
g65
(dp1061
g73
I4
ssg74
g1055
sg67
(lp1062
S'en-us,en;q=0.5'
p1063
asbasbasbag60
(g76
g62
NtRp1064
(dp1065
g65
(dp1066
sg74
g838
sg67
(lp1067
g60
(g81
g62
NtRp1068
(dp1069
g65
(dp1070
g85
g86
ssg74
g1064
sg67
(lp1071
S'http_cache_control'
p1072
asbag60
(g81
g62
NtRp1073
(dp1074
g65
(dp1075
g92
g93
ssg74
g1064
sg67
(lp1076
S':'
asbag60
(g81
g62
NtRp1077
(dp1078
g65
(dp1079
sg74
g1064
sg67
(lp1080
g60
(g61
g62
NtRp1081
(dp1082
g65
(dp1083
g73
I4
ssg74
g1077
sg67
(lp1084
S'max-age=0'
p1085
asbasbasbag60
(g76
g62
NtRp1086
(dp1087
g65
(dp1088
sg74
g838
sg67
(lp1089
g60
(g81
g62
NtRp1090
(dp1091
g65
(dp1092
g85
g86
ssg74
g1086
sg67
(lp1093
S'http_connection'
p1094
asbag60
(g81
g62
NtRp1095
(dp1096
g65
(dp1097
g92
g93
ssg74
g1086
sg67
(lp1098
S':'
asbag60
(g81
g62
NtRp1099
(dp1100
g65
(dp1101
sg74
g1086
sg67
(lp1102
g60
(g61
g62
NtRp1103
(dp1104
g65
(dp1105
g73
I4
ssg74
g1099
sg67
(lp1106
S'keep-alive'
p1107
asbasbasbag60
(g76
g62
NtRp1108
(dp1109
g65
(dp1110
sg74
g838
sg67
(lp1111
g60
(g81
g62
NtRp1112
(dp1113
g65
(dp1114
g85
g86
ssg74
g1108
sg67
(lp1115
S'http_cookie'
p1116
asbag60
(g81
g62
NtRp1117
(dp1118
g65
(dp1119
g92
g93
ssg74
g1108
sg67
(lp1120
S':'
asbag60
(g81
g62
NtRp1121
(dp1122
g65
(dp1123
sg74
g1108
sg67
(lp1124
g60
(g61
g62
NtRp1125
(dp1126
g65
(dp1127
g73
I4
ssg74
g1121
sg67
(lp1128
S'session_id_streamlog=127.0.0.1-610b0c7d-3f6f-4500-a76a-b095fb30f7fd; session_id_admin=127.0.0.1-87ac9729-f9fb-412b-aa6d-428ca5932487; session_id_test3=127.0.0.1-380e7b29-b635-4690-b9ca-812870d6a061'
p1129
asbasbasbag60
(g76
g62
NtRp1130
(dp1131
g65
(dp1132
sg74
g838
sg67
(lp1133
g60
(g81
g62
NtRp1134
(dp1135
g65
(dp1136
g85
g86
ssg74
g1130
sg67
(lp1137
S'http_host'
p1138
asbag60
(g81
g62
NtRp1139
(dp1140
g65
(dp1141
g92
g93
ssg74
g1130
sg67
(lp1142
S':'
asbag60
(g81
g62
NtRp1143
(dp1144
g65
(dp1145
sg74
g1130
sg67
(lp1146
g60
(g61
g62
NtRp1147
(dp1148
g65
(dp1149
g73
I4
ssg74
g1143
sg67
(lp1150
S'localhost:8000'
p1151
asbasbasbag60
(g76
g62
NtRp1152
(dp1153
g65
(dp1154
sg74
g838
sg67
(lp1155
g60
(g81
g62
NtRp1156
(dp1157
g65
(dp1158
g85
g86
ssg74
g1152
sg67
(lp1159
S'http_user_agent'
p1160
asbag60
(g81
g62
NtRp1161
(dp1162
g65
(dp1163
g92
g93
ssg74
g1152
sg67
(lp1164
S':'
asbag60
(g81
g62
NtRp1165
(dp1166
g65
(dp1167
sg74
g1152
sg67
(lp1168
g60
(g61
g62
NtRp1169
(dp1170
g65
(dp1171
g73
I4
ssg74
g1165
sg67
(lp1172
S'Mozilla/5.0 (X11; Ubuntu; Linux x86_64; rv:12.0) Gecko/20100101 Firefox/12.0'
p1173
asbasbasbag60
(g76
g62
NtRp1174
(dp1175
g65
(dp1176
sg74
g838
sg67
(lp1177
g60
(g81
g62
NtRp1178
(dp1179
g65
(dp1180
g85
g86
ssg74
g1174
sg67
(lp1181
S'is_jython'
p1182
asbag60
(g81
g62
NtRp1183
(dp1184
g65
(dp1185
g92
g93
ssg74
g1174
sg67
(lp1186
S':'
asbag60
(g81
g62
NtRp1187
(dp1188
g65
(dp1189
sg74
g1174
sg67
(lp1190
g60
(g61
g62
NtRp1191
(dp1192
g65
(dp1193
g73
I4
ssg74
g1187
sg67
(lp1194
g103
asbasbasbag60
(g76
g62
NtRp1195
(dp1196
g65
(dp1197
sg74
g838
sg67
(lp1198
g60
(g81
g62
NtRp1199
(dp1200
g65
(dp1201
g85
g86
ssg74
g1195
sg67
(lp1202
S'path_info'
p1203
asbag60
(g81
g62
NtRp1204
(dp1205
g65
(dp1206
g92
g93
ssg74
g1195
sg67
(lp1207
S':'
asbag60
(g81
g62
NtRp1208
(dp1209
g65
(dp1210
sg74
g1195
sg67
(lp1211
g60
(g61
g62
NtRp1212
(dp1213
g65
(dp1214
g73
I4
ssg74
g1208
sg67
(lp1215
S'/streamlog/default/server_manage'
p1216
asbasbasbag60
(g76
g62
NtRp1217
(dp1218
g65
(dp1219
sg74
g838
sg67
(lp1220
g60
(g81
g62
NtRp1221
(dp1222
g65
(dp1223
g85
g86
ssg74
g1217
sg67
(lp1224
S'query_string'
p1225
asbag60
(g81
g62
NtRp1226
(dp1227
g65
(dp1228
g92
g93
ssg74
g1217
sg67
(lp1229
S':'
asbag60
(g81
g62
NtRp1230
(dp1231
g65
(dp1232
sg74
g1217
sg67
(lp1233
g60
(g61
g62
NtRp1234
(dp1235
g65
(dp1236
g73
I4
ssg74
g1230
sg67
(lp1237
S''
asbasbasbag60
(g76
g62
NtRp1238
(dp1239
g65
(dp1240
sg74
g838
sg67
(lp1241
g60
(g81
g62
NtRp1242
(dp1243
g65
(dp1244
g85
g86
ssg74
g1238
sg67
(lp1245
S'remote_addr'
p1246
asbag60
(g81
g62
NtRp1247
(dp1248
g65
(dp1249
g92
g93
ssg74
g1238
sg67
(lp1250
S':'
asbag60
(g81
g62
NtRp1251
(dp1252
g65
(dp1253
sg74
g1238
sg67
(lp1254
g60
(g61
g62
NtRp1255
(dp1256
g65
(dp1257
g73
I4
ssg74
g1251
sg67
(lp1258
g206
asbasbasbag60
(g76
g62
NtRp1259
(dp1260
g65
(dp1261
sg74
g838
sg67
(lp1262
g60
(g81
g62
NtRp1263
(dp1264
g65
(dp1265
g85
g86
ssg74
g1259
sg67
(lp1266
S'remote_port'
p1267
asbag60
(g81
g62
NtRp1268
(dp1269
g65
(dp1270
g92
g93
ssg74
g1259
sg67
(lp1271
S':'
asbag60
(g81
g62
NtRp1272
(dp1273
g65
(dp1274
sg74
g1259
sg67
(lp1275
g60
(g61
g62
NtRp1276
(dp1277
g65
(dp1278
g73
I4
ssg74
g1272
sg67
(lp1279
S'33625'
p1280
asbasbasbag60
(g76
g62
NtRp1281
(dp1282
g65
(dp1283
sg74
g838
sg67
(lp1284
g60
(g81
g62
NtRp1285
(dp1286
g65
(dp1287
g85
g86
ssg74
g1281
sg67
(lp1288
S'request_method'
p1289
asbag60
(g81
g62
NtRp1290
(dp1291
g65
(dp1292
g92
g93
ssg74
g1281
sg67
(lp1293
S':'
asbag60
(g81
g62
NtRp1294
(dp1295
g65
(dp1296
sg74
g1281
sg67
(lp1297
g60
(g61
g62
NtRp1298
(dp1299
g65
(dp1300
g73
I4
ssg74
g1294
sg67
(lp1301
S'GET'
p1302
asbasbasbag60
(g76
g62
NtRp1303
(dp1304
g65
(dp1305
sg74
g838
sg67
(lp1306
g60
(g81
g62
NtRp1307
(dp1308
g65
(dp1309
g85
g86
ssg74
g1303
sg67
(lp1310
S'script_name'
p1311
asbag60
(g81
g62
NtRp1312
(dp1313
g65
(dp1314
g92
g93
ssg74
g1303
sg67
(lp1315
S':'
asbag60
(g81
g62
NtRp1316
(dp1317
g65
(dp1318
sg74
g1303
sg67
(lp1319
g60
(g61
g62
NtRp1320
(dp1321
g65
(dp1322
g73
I4
ssg74
g1316
sg67
(lp1323
S''
asbasbasbag60
(g76
g62
NtRp1324
(dp1325
g65
(dp1326
sg74
g838
sg67
(lp1327
g60
(g81
g62
NtRp1328
(dp1329
g65
(dp1330
g85
g86
ssg74
g1324
sg67
(lp1331
S'server_name'
p1332
asbag60
(g81
g62
NtRp1333
(dp1334
g65
(dp1335
g92
g93
ssg74
g1324
sg67
(lp1336
S':'
asbag60
(g81
g62
NtRp1337
(dp1338
g65
(dp1339
sg74
g1324
sg67
(lp1340
g60
(g61
g62
NtRp1341
(dp1342
g65
(dp1343
g73
I4
ssg74
g1337
sg67
(lp1344
S'jose'
p1345
asbasbasbag60
(g76
g62
NtRp1346
(dp1347
g65
(dp1348
sg74
g838
sg67
(lp1349
g60
(g81
g62
NtRp1350
(dp1351
g65
(dp1352
g85
g86
ssg74
g1346
sg67
(lp1353
S'server_port'
p1354
asbag60
(g81
g62
NtRp1355
(dp1356
g65
(dp1357
g92
g93
ssg74
g1346
sg67
(lp1358
S':'
asbag60
(g81
g62
NtRp1359
(dp1360
g65
(dp1361
sg74
g1346
sg67
(lp1362
g60
(g61
g62
NtRp1363
(dp1364
g65
(dp1365
g73
I4
ssg74
g1359
sg67
(lp1366
S'8000'
p1367
asbasbasbag60
(g76
g62
NtRp1368
(dp1369
g65
(dp1370
sg74
g838
sg67
(lp1371
g60
(g81
g62
NtRp1372
(dp1373
g65
(dp1374
g85
g86
ssg74
g1368
sg67
(lp1375
S'server_protocol'
p1376
asbag60
(g81
g62
NtRp1377
(dp1378
g65
(dp1379
g92
g93
ssg74
g1368
sg67
(lp1380
S':'
asbag60
(g81
g62
NtRp1381
(dp1382
g65
(dp1383
sg74
g1368
sg67
(lp1384
g60
(g61
g62
NtRp1385
(dp1386
g65
(dp1387
g73
I4
ssg74
g1381
sg67
(lp1388
S'HTTP/1.1'
p1389
asbasbasbag60
(g76
g62
NtRp1390
(dp1391
g65
(dp1392
sg74
g838
sg67
(lp1393
g60
(g81
g62
NtRp1394
(dp1395
g65
(dp1396
g85
g86
ssg74
g1390
sg67
(lp1397
S'server_software'
p1398
asbag60
(g81
g62
NtRp1399
(dp1400
g65
(dp1401
g92
g93
ssg74
g1390
sg67
(lp1402
S':'
asbag60
(g81
g62
NtRp1403
(dp1404
g65
(dp1405
sg74
g1390
sg67
(lp1406
g60
(g61
g62
NtRp1407
(dp1408
g65
(dp1409
g73
I4
ssg74
g1403
sg67
(lp1410
S'Rocket 1.2.4'
p1411
asbasbasbag60
(g76
g62
NtRp1412
(dp1413
g65
(dp1414
sg74
g838
sg67
(lp1415
g60
(g81
g62
NtRp1416
(dp1417
g65
(dp1418
g85
g86
ssg74
g1412
sg67
(lp1419
S'web2py_crontype'
p1420
asbag60
(g81
g62
NtRp1421
(dp1422
g65
(dp1423
g92
g93
ssg74
g1412
sg67
(lp1424
S':'
asbag60
(g81
g62
NtRp1425
(dp1426
g65
(dp1427
sg74
g1412
sg67
(lp1428
g60
(g61
g62
NtRp1429
(dp1430
g65
(dp1431
g73
I4
ssg74
g1425
sg67
(lp1432
S'hard'
p1433
asbasbasbag60
(g76
g62
NtRp1434
(dp1435
g65
(dp1436
sg74
g838
sg67
(lp1437
g60
(g81
g62
NtRp1438
(dp1439
g65
(dp1440
g85
g86
ssg74
g1434
sg67
(lp1441
S'web2py_path'
p1442
asbag60
(g81
g62
NtRp1443
(dp1444
g65
(dp1445
g92
g93
ssg74
g1434
sg67
(lp1446
S':'
asbag60
(g81
g62
NtRp1447
(dp1448
g65
(dp1449
sg74
g1434
sg67
(lp1450
g60
(g61
g62
NtRp1451
(dp1452
g65
(dp1453
g73
I4
ssg74
g1447
sg67
(lp1454
g885
asbasbasbag60
(g76
g62
NtRp1455
(dp1456
g65
(dp1457
sg74
g838
sg67
(lp1458
g60
(g81
g62
NtRp1459
(dp1460
g65
(dp1461
g85
g86
ssg74
g1455
sg67
(lp1462
S'web2py_version'
p1463
asbag60
(g81
g62
NtRp1464
(dp1465
g65
(dp1466
g92
g93
ssg74
g1455
sg67
(lp1467
S':'
asbag60
(g81
g62
NtRp1468
(dp1469
g65
(dp1470
sg74
g1455
sg67
(lp1471
g60
(g61
g62
NtRp1472
(dp1473
g65
(dp1474
g73
I4
ssg74
g1468
sg67
(lp1475
g60
(g69
g62
NtRp1476
(dp1477
g65
(dp1478
g73
I3
ssg74
Nsg67
(lp1479
g60
(g76
g62
NtRp1480
(dp1481
g65
(dp1482
sg74
g1476
sg67
(lp1483
g60
(g81
g62
NtRp1484
(dp1485
g65
(dp1486
sg74
g1480
sg67
(lp1487
g60
(g61
g62
NtRp1488
(dp1489
g65
(dp1490
g73
I3
ssg74
g1484
sg67
(lp1491
S'1'
asbasbasbag60
(g76
g62
NtRp1492
(dp1493
g65
(dp1494
sg74
g1476
sg67
(lp1495
g60
(g81
g62
NtRp1496
(dp1497
g65
(dp1498
sg74
g1492
sg67
(lp1499
g60
(g61
g62
NtRp1500
(dp1501
g65
(dp1502
g73
I3
ssg74
g1496
sg67
(lp1503
S'99'
p1504
asbasbasbag60
(g76
g62
NtRp1505
(dp1506
g65
(dp1507
sg74
g1476
sg67
(lp1508
g60
(g81
g62
NtRp1509
(dp1510
g65
(dp1511
sg74
g1505
sg67
(lp1512
g60
(g61
g62
NtRp1513
(dp1514
g65
(dp1515
g73
I3
ssg74
g1509
sg67
(lp1516
S'2'
asbasbasbag60
(g76
g62
NtRp1517
(dp1518
g65
(dp1519
sg74
g1476
sg67
(lp1520
g60
(g81
g62
NtRp1521
(dp1522
g65
(dp1523
sg74
g1517
sg67
(lp1524
g60
(g61
g62
NtRp1525
(dp1526
g65
(dp1527
g73
I3
ssg74
g1521
sg67
(lp1528
S'datetime.datetime(2011, 9, 26, 6, 55, 33)'
p1529
asbasbasbag60
(g76
g62
NtRp1530
(dp1531
g65
(dp1532
sg74
g1476
sg67
(lp1533
g60
(g81
g62
NtRp1534
(dp1535
g65
(dp1536
sg74
g1530
sg67
(lp1537
g60
(g61
g62
NtRp1538
(dp1539
g65
(dp1540
g73
I3
ssg74
g1534
sg67
(lp1541
S'stable'
p1542
asbasbasbasbasbasbasbag60
(g76
g62
NtRp1543
(dp1544
g65
(dp1545
sg74
g838
sg67
(lp1546
g60
(g81
g62
NtRp1547
(dp1548
g65
(dp1549
g85
g86
ssg74
g1543
sg67
(lp1550
S'wsgi_errors'
p1551
asbag60
(g81
g62
NtRp1552
(dp1553
g65
(dp1554
g92
g93
ssg74
g1543
sg67
(lp1555
S':'
asbag60
(g81
g62
NtRp1556
(dp1557
g65
(dp1558
sg74
g1543
sg67
(lp1559
g60
(g61
g62
NtRp1560
(dp1561
g65
(dp1562
g73
I4
ssg74
g1556
sg67
(lp1563
S"<open file '<stderr>', mode 'w' at 0x7f84db3ff270>"
p1564
asbasbasbag60
(g76
g62
NtRp1565
(dp1566
g65
(dp1567
sg74
g838
sg67
(lp1568
g60
(g81
g62
NtRp1569
(dp1570
g65
(dp1571
g85
g86
ssg74
g1565
sg67
(lp1572
S'wsgi_file_wrapper'
p1573
asbag60
(g81
g62
NtRp1574
(dp1575
g65
(dp1576
g92
g93
ssg74
g1565
sg67
(lp1577
S':'
asbag60
(g81
g62
NtRp1578
(dp1579
g65
(dp1580
sg74
g1565
sg67
(lp1581
g60
(g61
g62
NtRp1582
(dp1583
g65
(dp1584
g73
I4
ssg74
g1578
sg67
(lp1585
S'<class wsgiref.util.FileWrapper at 0x1b96d50>'
p1586
asbasbasbag60
(g76
g62
NtRp1587
(dp1588
g65
(dp1589
sg74
g838
sg67
(lp1590
g60
(g81
g62
NtRp1591
(dp1592
g65
(dp1593
g85
g86
ssg74
g1587
sg67
(lp1594
S'wsgi_input'
p1595
asbag60
(g81
g62
NtRp1596
(dp1597
g65
(dp1598
g92
g93
ssg74
g1587
sg67
(lp1599
S':'
asbag60
(g81
g62
NtRp1600
(dp1601
g65
(dp1602
sg74
g1587
sg67
(lp1603
g60
(g61
g62
NtRp1604
(dp1605
g65
(dp1606
g73
I4
ssg74
g1600
sg67
(lp1607
S'<socket._fileobject object at 0x33fa8d0>'
p1608
asbasbasbag60
(g76
g62
NtRp1609
(dp1610
g65
(dp1611
sg74
g838
sg67
(lp1612
g60
(g81
g62
NtRp1613
(dp1614
g65
(dp1615
g85
g86
ssg74
g1609
sg67
(lp1616
S'wsgi_multiprocess'
p1617
asbag60
(g81
g62
NtRp1618
(dp1619
g65
(dp1620
g92
g93
ssg74
g1609
sg67
(lp1621
S':'
asbag60
(g81
g62
NtRp1622
(dp1623
g65
(dp1624
sg74
g1609
sg67
(lp1625
g60
(g61
g62
NtRp1626
(dp1627
g65
(dp1628
g73
I4
ssg74
g1622
sg67
(lp1629
g103
asbasbasbag60
(g76
g62
NtRp1630
(dp1631
g65
(dp1632
sg74
g838
sg67
(lp1633
g60
(g81
g62
NtRp1634
(dp1635
g65
(dp1636
g85
g86
ssg74
g1630
sg67
(lp1637
S'wsgi_multithread'
p1638
asbag60
(g81
g62
NtRp1639
(dp1640
g65
(dp1641
g92
g93
ssg74
g1630
sg67
(lp1642
S':'
asbag60
(g81
g62
NtRp1643
(dp1644
g65
(dp1645
sg74
g1630
sg67
(lp1646
g60
(g61
g62
NtRp1647
(dp1648
g65
(dp1649
g73
I4
ssg74
g1643
sg67
(lp1650
S'True'
p1651
asbasbasbag60
(g76
g62
NtRp1652
(dp1653
g65
(dp1654
sg74
g838
sg67
(lp1655
g60
(g81
g62
NtRp1656
(dp1657
g65
(dp1658
g85
g86
ssg74
g1652
sg67
(lp1659
S'wsgi_run_once'
p1660
asbag60
(g81
g62
NtRp1661
(dp1662
g65
(dp1663
g92
g93
ssg74
g1652
sg67
(lp1664
S':'
asbag60
(g81
g62
NtRp1665
(dp1666
g65
(dp1667
sg74
g1652
sg67
(lp1668
g60
(g61
g62
NtRp1669
(dp1670
g65
(dp1671
g73
I4
ssg74
g1665
sg67
(lp1672
g103
asbasbasbag60
(g76
g62
NtRp1673
(dp1674
g65
(dp1675
sg74
g838
sg67
(lp1676
g60
(g81
g62
NtRp1677
(dp1678
g65
(dp1679
g85
g86
ssg74
g1673
sg67
(lp1680
S'wsgi_url_scheme'
p1681
asbag60
(g81
g62
NtRp1682
(dp1683
g65
(dp1684
g92
g93
ssg74
g1673
sg67
(lp1685
S':'
asbag60
(g81
g62
NtRp1686
(dp1687
g65
(dp1688
sg74
g1673
sg67
(lp1689
g60
(g61
g62
NtRp1690
(dp1691
g65
(dp1692
g73
I4
ssg74
g1686
sg67
(lp1693
S'http'
p1694
asbasbasbag60
(g76
g62
NtRp1695
(dp1696
g65
(dp1697
sg74
g838
sg67
(lp1698
g60
(g81
g62
NtRp1699
(dp1700
g65
(dp1701
g85
g86
ssg74
g1695
sg67
(lp1702
S'wsgi_version'
p1703
asbag60
(g81
g62
NtRp1704
(dp1705
g65
(dp1706
g92
g93
ssg74
g1695
sg67
(lp1707
S':'
asbag60
(g81
g62
NtRp1708
(dp1709
g65
(dp1710
sg74
g1695
sg67
(lp1711
g60
(g61
g62
NtRp1712
(dp1713
g65
(dp1714
g73
I4
ssg74
g1708
sg67
(lp1715
g60
(g69
g62
NtRp1716
(dp1717
g65
(dp1718
g73
I3
ssg74
Nsg67
(lp1719
g60
(g76
g62
NtRp1720
(dp1721
g65
(dp1722
sg74
g1716
sg67
(lp1723
g60
(g81
g62
NtRp1724
(dp1725
g65
(dp1726
sg74
g1720
sg67
(lp1727
g60
(g61
g62
NtRp1728
(dp1729
g65
(dp1730
g73
I3
ssg74
g1724
sg67
(lp1731
S'1'
asbasbasbag60
(g76
g62
NtRp1732
(dp1733
g65
(dp1734
sg74
g1716
sg67
(lp1735
g60
(g81
g62
NtRp1736
(dp1737
g65
(dp1738
sg74
g1732
sg67
(lp1739
g60
(g61
g62
NtRp1740
(dp1741
g65
(dp1742
g73
I3
ssg74
g1736
sg67
(lp1743
S'0'
asbasbasbasbasbasbasbasbasbasbasbag60
(g76
g62
NtRp1744
(dp1745
g65
(dp1746
sg74
g70
sg67
(lp1747
g60
(g81
g62
NtRp1748
(dp1749
g65
(dp1750
g85
g86
ssg74
g1744
sg67
(lp1751
S'extension'
p1752
asbag60
(g81
g62
NtRp1753
(dp1754
g65
(dp1755
g92
g93
ssg74
g1744
sg67
(lp1756
S':'
asbag60
(g81
g62
NtRp1757
(dp1758
g65
(dp1759
sg74
g1744
sg67
(lp1760
g60
(g61
g62
NtRp1761
(dp1762
g65
(dp1763
g73
I5
ssg74
g1757
sg67
(lp1764
S'html'
p1765
asbasbasbag60
(g76
g62
NtRp1766
(dp1767
g65
(dp1768
sg74
g70
sg67
(lp1769
g60
(g81
g62
NtRp1770
(dp1771
g65
(dp1772
g85
g86
ssg74
g1766
sg67
(lp1773
S'folder'
p1774
asbag60
(g81
g62
NtRp1775
(dp1776
g65
(dp1777
g92
g93
ssg74
g1766
sg67
(lp1778
S':'
asbag60
(g81
g62
NtRp1779
(dp1780
g65
(dp1781
sg74
g1766
sg67
(lp1782
g60
(g61
g62
NtRp1783
(dp1784
g65
(dp1785
g73
I5
ssg74
g1779
sg67
(lp1786
S'/home/jose/DESARROLLO/web2py199/applications/streamlog/'
p1787
asbasbasbag60
(g76
g62
NtRp1788
(dp1789
g65
(dp1790
sg74
g70
sg67
(lp1791
g60
(g81
g62
NtRp1792
(dp1793
g65
(dp1794
g85
g86
ssg74
g1788
sg67
(lp1795
S'function'
p1796
asbag60
(g81
g62
NtRp1797
(dp1798
g65
(dp1799
g92
g93
ssg74
g1788
sg67
(lp1800
S':'
asbag60
(g81
g62
NtRp1801
(dp1802
g65
(dp1803
sg74
g1788
sg67
(lp1804
g60
(g61
g62
NtRp1805
(dp1806
g65
(dp1807
g73
I5
ssg74
g1801
sg67
(lp1808
S'server_manage'
p1809
asbasbasbag60
(g76
g62
NtRp1810
(dp1811
g65
(dp1812
sg74
g70
sg67
(lp1813
g60
(g81
g62
NtRp1814
(dp1815
g65
(dp1816
g85
g86
ssg74
g1810
sg67
(lp1817
S'get_vars'
p1818
asbag60
(g81
g62
NtRp1819
(dp1820
g65
(dp1821
g92
g93
ssg74
g1810
sg67
(lp1822
S':'
asbag60
(g81
g62
NtRp1823
(dp1824
g65
(dp1825
sg74
g1810
sg67
(lp1826
g60
(g61
g62
NtRp1827
(dp1828
g65
(dp1829
g73
I5
ssg74
g1823
sg67
(lp1830
g60
(g69
g62
NtRp1831
(dp1832
g65
(dp1833
g73
I4
ssg74
Nsg67
(lp1834
sbasbasbasbag60
(g76
g62
NtRp1835
(dp1836
g65
(dp1837
sg74
g70
sg67
(lp1838
g60
(g81
g62
NtRp1839
(dp1840
g65
(dp1841
g85
g86
ssg74
g1835
sg67
(lp1842
S'global_settings'
p1843
asbag60
(g81
g62
NtRp1844
(dp1845
g65
(dp1846
g92
g93
ssg74
g1835
sg67
(lp1847
S':'
asbag60
(g81
g62
NtRp1848
(dp1849
g65
(dp1850
sg74
g1835
sg67
(lp1851
g60
(g61
g62
NtRp1852
(dp1853
g65
(dp1854
g73
I5
ssg74
g1848
sg67
(lp1855
g60
(g69
g62
NtRp1856
(dp1857
g65
(dp1858
g73
I4
ssg74
Nsg67
(lp1859
g60
(g76
g62
NtRp1860
(dp1861
g65
(dp1862
sg74
g1856
sg67
(lp1863
g60
(g81
g62
NtRp1864
(dp1865
g65
(dp1866
g85
g86
ssg74
g1860
sg67
(lp1867
g850
asbag60
(g81
g62
NtRp1868
(dp1869
g65
(dp1870
g92
g93
ssg74
g1860
sg67
(lp1871
S':'
asbag60
(g81
g62
NtRp1872
(dp1873
g65
(dp1874
sg74
g1860
sg67
(lp1875
g60
(g61
g62
NtRp1876
(dp1877
g65
(dp1878
g73
I4
ssg74
g1872
sg67
(lp1879
S"set(['/home/jose/DESARROLLO/web2py199/applications/streamlog/', '/home/jose/DESARROLLO/web2py199/applications/admin/'])"
p1880
asbasbasbag60
(g76
g62
NtRp1881
(dp1882
g65
(dp1883
sg74
g1856
sg67
(lp1884
g60
(g81
g62
NtRp1885
(dp1886
g65
(dp1887
g85
g86
ssg74
g1881
sg67
(lp1888
g872
asbag60
(g81
g62
NtRp1889
(dp1890
g65
(dp1891
g92
g93
ssg74
g1881
sg67
(lp1892
S':'
asbag60
(g81
g62
NtRp1893
(dp1894
g65
(dp1895
sg74
g1881
sg67
(lp1896
g60
(g61
g62
NtRp1897
(dp1898
g65
(dp1899
g73
I4
ssg74
g1893
sg67
(lp1900
g885
asbasbasbag60
(g76
g62
NtRp1901
(dp1902
g65
(dp1903
sg74
g1856
sg67
(lp1904
g60
(g81
g62
NtRp1905
(dp1906
g65
(dp1907
g85
g86
ssg74
g1901
sg67
(lp1908
g894
asbag60
(g81
g62
NtRp1909
(dp1910
g65
(dp1911
g92
g93
ssg74
g1901
sg67
(lp1912
S':'
asbag60
(g81
g62
NtRp1913
(dp1914
g65
(dp1915
sg74
g1901
sg67
(lp1916
g60
(g61
g62
NtRp1917
(dp1918
g65
(dp1919
g73
I4
ssg74
g1913
sg67
(lp1920
g60
(g69
g62
NtRp1921
(dp1922
g65
(dp1923
g73
I3
ssg74
Nsg67
(lp1924
sbasbasbasbag60
(g76
g62
NtRp1925
(dp1926
g65
(dp1927
sg74
g1856
sg67
(lp1928
g60
(g81
g62
NtRp1929
(dp1930
g65
(dp1931
g85
g86
ssg74
g1925
sg67
(lp1932
g919
asbag60
(g81
g62
NtRp1933
(dp1934
g65
(dp1935
g92
g93
ssg74
g1925
sg67
(lp1936
S':'
asbag60
(g81
g62
NtRp1937
(dp1938
g65
(dp1939
sg74
g1925
sg67
(lp1940
g60
(g61
g62
NtRp1941
(dp1942
g65
(dp1943
g73
I4
ssg74
g1937
sg67
(lp1944
S"<Values at 0x1c79f80: {'verbose': False, 'ip': '127.0.0.1', 'shutdown_timeout': 5, 'taskbar': False, 'nocron': False, 'pid_filename': 'httpserver.pid', 'maxthreads': None, 'softcron': False, 'server_name': 'jose', 'bpython': False, 'nogui': False, 'port': 8000, 'extcron': False, 'debuglevel': 30, 'test': None, 'folder': '/home/jose/DESARROLLO/web2py199', 'config': '', 'import_models': False, 'winservice': '', 'shell': None, 'run': '', 'log_filename': 'httpserver.log', 'args': [''], 'ssl_ca_certificate': None, 'scheduler': None, 'profiler_filename': None, 'ssl_private_key': '', 'password': 't', 'request_queue_size': 5, 'ssl_certificate': '', 'cronjob': False, 'plain': False, 'quiet': False, 'interfaces': None, 'minthreads': None, 'timeout': 10, 'numthreads': None, 'nobanner': False}>"
p1945
asbasbasbag60
(g76
g62
NtRp1946
(dp1947
g65
(dp1948
sg74
g1856
sg67
(lp1949
g60
(g81
g62
NtRp1950
(dp1951
g65
(dp1952
g85
g86
ssg74
g1946
sg67
(lp1953
g941
asbag60
(g81
g62
NtRp1954
(dp1955
g65
(dp1956
g92
g93
ssg74
g1946
sg67
(lp1957
S':'
asbag60
(g81
g62
NtRp1958
(dp1959
g65
(dp1960
sg74
g1946
sg67
(lp1961
g60
(g61
g62
NtRp1962
(dp1963
g65
(dp1964
g73
I4
ssg74
g1958
sg67
(lp1965
S'set([])'
p1966
asbasbasbag60
(g76
g62
NtRp1967
(dp1968
g65
(dp1969
sg74
g1856
sg67
(lp1970
g60
(g81
g62
NtRp1971
(dp1972
g65
(dp1973
g85
g86
ssg74
g1967
sg67
(lp1974
g963
asbag60
(g81
g62
NtRp1975
(dp1976
g65
(dp1977
g92
g93
ssg74
g1967
sg67
(lp1978
S':'
asbag60
(g81
g62
NtRp1979
(dp1980
g65
(dp1981
sg74
g1967
sg67
(lp1982
g60
(g61
g62
NtRp1983
(dp1984
g65
(dp1985
g73
I4
ssg74
g1979
sg67
(lp1986
g103
asbasbasbag60
(g76
g62
NtRp1987
(dp1988
g65
(dp1989
sg74
g1856
sg67
(lp1990
g60
(g81
g62
NtRp1991
(dp1992
g65
(dp1993
g85
g86
ssg74
g1987
sg67
(lp1994
g984
asbag60
(g81
g62
NtRp1995
(dp1996
g65
(dp1997
g92
g93
ssg74
g1987
sg67
(lp1998
S':'
asbag60
(g81
g62
NtRp1999
(dp2000
g65
(dp2001
sg74
g1987
sg67
(lp2002
g60
(g61
g62
NtRp2003
(dp2004
g65
(dp2005
g73
I4
ssg74
g1999
sg67
(lp2006
g997
asbasbasbag60
(g76
g62
NtRp2007
(dp2008
g65
(dp2009
sg74
g1856
sg67
(lp2010
g60
(g81
g62
NtRp2011
(dp2012
g65
(dp2013
g85
g86
ssg74
g2007
sg67
(lp2014
g1182
asbag60
(g81
g62
NtRp2015
(dp2016
g65
(dp2017
g92
g93
ssg74
g2007
sg67
(lp2018
S':'
asbag60
(g81
g62
NtRp2019
(dp2020
g65
(dp2021
sg74
g2007
sg67
(lp2022
g60
(g61
g62
NtRp2023
(dp2024
g65
(dp2025
g73
I4
ssg74
g2019
sg67
(lp2026
g103
asbasbasbag60
(g76
g62
NtRp2027
(dp2028
g65
(dp2029
sg74
g1856
sg67
(lp2030
g60
(g81
g62
NtRp2031
(dp2032
g65
(dp2033
g85
g86
ssg74
g2027
sg67
(lp2034
g1420
asbag60
(g81
g62
NtRp2035
(dp2036
g65
(dp2037
g92
g93
ssg74
g2027
sg67
(lp2038
S':'
asbag60
(g81
g62
NtRp2039
(dp2040
g65
(dp2041
sg74
g2027
sg67
(lp2042
g60
(g61
g62
NtRp2043
(dp2044
g65
(dp2045
g73
I4
ssg74
g2039
sg67
(lp2046
g1433
asbasbasbag60
(g76
g62
NtRp2047
(dp2048
g65
(dp2049
sg74
g1856
sg67
(lp2050
g60
(g81
g62
NtRp2051
(dp2052
g65
(dp2053
g85
g86
ssg74
g2047
sg67
(lp2054
g1463
asbag60
(g81
g62
NtRp2055
(dp2056
g65
(dp2057
g92
g93
ssg74
g2047
sg67
(lp2058
S':'
asbag60
(g81
g62
NtRp2059
(dp2060
g65
(dp2061
sg74
g2047
sg67
(lp2062
g60
(g61
g62
NtRp2063
(dp2064
g65
(dp2065
g73
I4
ssg74
g2059
sg67
(lp2066
g60
(g69
g62
NtRp2067
(dp2068
g65
(dp2069
g73
I3
ssg74
Nsg67
(lp2070
g60
(g76
g62
NtRp2071
(dp2072
g65
(dp2073
sg74
g2067
sg67
(lp2074
g60
(g81
g62
NtRp2075
(dp2076
g65
(dp2077
sg74
g2071
sg67
(lp2078
g60
(g61
g62
NtRp2079
(dp2080
g65
(dp2081
g73
I3
ssg74
g2075
sg67
(lp2082
S'1'
asbasbasbag60
(g76
g62
NtRp2083
(dp2084
g65
(dp2085
sg74
g2067
sg67
(lp2086
g60
(g81
g62
NtRp2087
(dp2088
g65
(dp2089
sg74
g2083
sg67
(lp2090
g60
(g61
g62
NtRp2091
(dp2092
g65
(dp2093
g73
I3
ssg74
g2087
sg67
(lp2094
S'99'
p2095
asbasbasbag60
(g76
g62
NtRp2096
(dp2097
g65
(dp2098
sg74
g2067
sg67
(lp2099
g60
(g81
g62
NtRp2100
(dp2101
g65
(dp2102
sg74
g2096
sg67
(lp2103
g60
(g61
g62
NtRp2104
(dp2105
g65
(dp2106
g73
I3
ssg74
g2100
sg67
(lp2107
S'2'
asbasbasbag60
(g76
g62
NtRp2108
(dp2109
g65
(dp2110
sg74
g2067
sg67
(lp2111
g60
(g81
g62
NtRp2112
(dp2113
g65
(dp2114
sg74
g2108
sg67
(lp2115
g60
(g61
g62
NtRp2116
(dp2117
g65
(dp2118
g73
I3
ssg74
g2112
sg67
(lp2119
S'datetime.datetime(2011, 9, 26, 6, 55, 33)'
p2120
asbasbasbag60
(g76
g62
NtRp2121
(dp2122
g65
(dp2123
sg74
g2067
sg67
(lp2124
g60
(g81
g62
NtRp2125
(dp2126
g65
(dp2127
sg74
g2121
sg67
(lp2128
g60
(g61
g62
NtRp2129
(dp2130
g65
(dp2131
g73
I3
ssg74
g2125
sg67
(lp2132
g1542
asbasbasbasbasbasbasbasbasbasbasbag60
(g76
g62
NtRp2133
(dp2134
g65
(dp2135
sg74
g70
sg67
(lp2136
g60
(g81
g62
NtRp2137
(dp2138
g65
(dp2139
g85
g86
ssg74
g2133
sg67
(lp2140
S'is_https'
p2141
asbag60
(g81
g62
NtRp2142
(dp2143
g65
(dp2144
g92
g93
ssg74
g2133
sg67
(lp2145
S':'
asbag60
(g81
g62
NtRp2146
(dp2147
g65
(dp2148
sg74
g2133
sg67
(lp2149
g60
(g61
g62
NtRp2150
(dp2151
g65
(dp2152
g73
I5
ssg74
g2146
sg67
(lp2153
g103
asbasbasbag60
(g76
g62
NtRp2154
(dp2155
g65
(dp2156
sg74
g70
sg67
(lp2157
g60
(g81
g62
NtRp2158
(dp2159
g65
(dp2160
g85
g86
ssg74
g2154
sg67
(lp2161
S'is_local'
p2162
asbag60
(g81
g62
NtRp2163
(dp2164
g65
(dp2165
g92
g93
ssg74
g2154
sg67
(lp2166
S':'
asbag60
(g81
g62
NtRp2167
(dp2168
g65
(dp2169
sg74
g2154
sg67
(lp2170
g60
(g61
g62
NtRp2171
(dp2172
g65
(dp2173
g73
I5
ssg74
g2167
sg67
(lp2174
g1651
asbasbasbag60
(g76
g62
NtRp2175
(dp2176
g65
(dp2177
sg74
g70
sg67
(lp2178
g60
(g81
g62
NtRp2179
(dp2180
g65
(dp2181
g85
g86
ssg74
g2175
sg67
(lp2182
S'is_restful'
p2183
asbag60
(g81
g62
NtRp2184
(dp2185
g65
(dp2186
g92
g93
ssg74
g2175
sg67
(lp2187
S':'
asbag60
(g81
g62
NtRp2188
(dp2189
g65
(dp2190
sg74
g2175
sg67
(lp2191
g60
(g61
g62
NtRp2192
(dp2193
g65
(dp2194
g73
I5
ssg74
g2188
sg67
(lp2195
g103
asbasbasbag60
(g76
g62
NtRp2196
(dp2197
g65
(dp2198
sg74
g70
sg67
(lp2199
g60
(g81
g62
NtRp2200
(dp2201
g65
(dp2202
g85
g86
ssg74
g2196
sg67
(lp2203
S'now'
p2204
asbag60
(g81
g62
NtRp2205
(dp2206
g65
(dp2207
g92
g93
ssg74
g2196
sg67
(lp2208
S':'
asbag60
(g81
g62
NtRp2209
(dp2210
g65
(dp2211
sg74
g2196
sg67
(lp2212
g60
(g61
g62
NtRp2213
(dp2214
g65
(dp2215
g73
I5
ssg74
g2209
sg67
(lp2216
S'datetime.datetime(2012, 5, 26, 14, 34, 50, 251200)'
p2217
asbasbasbag60
(g76
g62
NtRp2218
(dp2219
g65
(dp2220
sg74
g70
sg67
(lp2221
g60
(g81
g62
NtRp2222
(dp2223
g65
(dp2224
g85
g86
ssg74
g2218
sg67
(lp2225
S'post_vars'
p2226
asbag60
(g81
g62
NtRp2227
(dp2228
g65
(dp2229
g92
g93
ssg74
g2218
sg67
(lp2230
S':'
asbag60
(g81
g62
NtRp2231
(dp2232
g65
(dp2233
sg74
g2218
sg67
(lp2234
g60
(g61
g62
NtRp2235
(dp2236
g65
(dp2237
g73
I5
ssg74
g2231
sg67
(lp2238
g60
(g69
g62
NtRp2239
(dp2240
g65
(dp2241
g73
I4
ssg74
Nsg67
(lp2242
sbasbasbasbag60
(g76
g62
NtRp2243
(dp2244
g65
(dp2245
sg74
g70
sg67
(lp2246
g60
(g81
g62
NtRp2247
(dp2248
g65
(dp2249
g85
g86
ssg74
g2243
sg67
(lp2250
S'url'
p2251
asbag60
(g81
g62
NtRp2252
(dp2253
g65
(dp2254
g92
g93
ssg74
g2243
sg67
(lp2255
S':'
asbag60
(g81
g62
NtRp2256
(dp2257
g65
(dp2258
sg74
g2243
sg67
(lp2259
g60
(g61
g62
NtRp2260
(dp2261
g65
(dp2262
g73
I5
ssg74
g2256
sg67
(lp2263
S'/streamlog/default/server_manage'
p2264
asbasbasbag60
(g76
g62
NtRp2265
(dp2266
g65
(dp2267
sg74
g70
sg67
(lp2268
g60
(g81
g62
NtRp2269
(dp2270
g65
(dp2271
g85
g86
ssg74
g2265
sg67
(lp2272
S'utcnow'
p2273
asbag60
(g81
g62
NtRp2274
(dp2275
g65
(dp2276
g92
g93
ssg74
g2265
sg67
(lp2277
S':'
asbag60
(g81
g62
NtRp2278
(dp2279
g65
(dp2280
sg74
g2265
sg67
(lp2281
g60
(g61
g62
NtRp2282
(dp2283
g65
(dp2284
g73
I5
ssg74
g2278
sg67
(lp2285
S'datetime.datetime(2012, 5, 26, 7, 34, 50, 251256)'
p2286
asbasbasbag60
(g76
g62
NtRp2287
(dp2288
g65
(dp2289
sg74
g70
sg67
(lp2290
g60
(g81
g62
NtRp2291
(dp2292
g65
(dp2293
g85
g86
ssg74
g2287
sg67
(lp2294
S'uuid'
p2295
asbag60
(g81
g62
NtRp2296
(dp2297
g65
(dp2298
g92
g93
ssg74
g2287
sg67
(lp2299
S':'
asbag60
(g81
g62
NtRp2300
(dp2301
g65
(dp2302
sg74
g2287
sg67
(lp2303
g60
(g61
g62
NtRp2304
(dp2305
g65
(dp2306
g73
I5
ssg74
g2300
sg67
(lp2307
S'streamlog/127.0.0.1.2012-05-26.14-34-50.3da8429b-49f8-43f8-b1ed-ef9ef542df40'
p2308
asbasbasbag60
(g76
g62
NtRp2309
(dp2310
g65
(dp2311
sg74
g70
sg67
(lp2312
g60
(g81
g62
NtRp2313
(dp2314
g65
(dp2315
g85
g86
ssg74
g2309
sg67
(lp2316
S'vars'
p2317
asbag60
(g81
g62
NtRp2318
(dp2319
g65
(dp2320
g92
g93
ssg74
g2309
sg67
(lp2321
S':'
asbag60
(g81
g62
NtRp2322
(dp2323
g65
(dp2324
sg74
g2309
sg67
(lp2325
g60
(g61
g62
NtRp2326
(dp2327
g65
(dp2328
g73
I5
ssg74
g2322
sg67
(lp2329
g60
(g69
g62
NtRp2330
(dp2331
g65
(dp2332
g73
I4
ssg74
Nsg67
(lp2333
g60
(g76
g62
NtRp2334
(dp2335
g65
(dp2336
sg74
g2330
sg67
(lp2337
g60
(g81
g62
NtRp2338
(dp2339
g65
(dp2340
g85
g86
ssg74
g2334
sg67
(lp2341
S'records'
p2342
asbag60
(g81
g62
NtRp2343
(dp2344
g65
(dp2345
g92
g93
ssg74
g2334
sg67
(lp2346
S':'
asbag60
(g81
g62
NtRp2347
(dp2348
g65
(dp2349
sg74
g2334
sg67
(lp2350
g60
(g61
g62
NtRp2351
(dp2352
g65
(dp2353
g73
I4
ssg74
g2347
sg67
(lp2354
g60
(g69
g62
NtRp2355
(dp2356
g65
(dp2357
g73
I3
ssg74
Nsg67
(lp2358
sbasbasbasbasbasbasbasbag60
(g76
g62
NtRp2359
(dp2360
g65
(dp2361
sg74
g70
sg67
(lp2362
g60
(g81
g62
NtRp2363
(dp2364
g65
(dp2365
g85
g86
ssg74
g2359
sg67
(lp2366
S'wsgi'
p2367
asbag60
(g81
g62
NtRp2368
(dp2369
g65
(dp2370
g92
g93
ssg74
g2359
sg67
(lp2371
S':'
asbag60
(g81
g62
NtRp2372
(dp2373
g65
(dp2374
sg74
g2359
sg67
(lp2375
g60
(g61
g62
NtRp2376
(dp2377
g65
(dp2378
g73
I5
ssg74
g2372
sg67
(lp2379
g60
(g69
g62
NtRp2380
(dp2381
g65
(dp2382
g73
I4
ssg74
Nsg67
(lp2383
g60
(g76
g62
NtRp2384
(dp2385
g65
(dp2386
sg74
g2380
sg67
(lp2387
g60
(g81
g62
NtRp2388
(dp2389
g65
(dp2390
g85
g86
ssg74
g2384
sg67
(lp2391
S'environ'
p2392
asbag60
(g81
g62
NtRp2393
(dp2394
g65
(dp2395
g92
g93
ssg74
g2384
sg67
(lp2396
S':'
asbag60
(g81
g62
NtRp2397
(dp2398
g65
(dp2399
sg74
g2384
sg67
(lp2400
g60
(g61
g62
NtRp2401
(dp2402
g65
(dp2403
g73
I4
ssg74
g2397
sg67
(lp2404
g60
(g69
g62
NtRp2405
(dp2406
g65
(dp2407
g73
I3
ssg74
Nsg67
(lp2408
g60
(g76
g62
NtRp2409
(dp2410
g65
(dp2411
sg74
g2405
sg67
(lp2412
g60
(g81
g62
NtRp2413
(dp2414
g65
(dp2415
g85
g86
ssg74
g2409
sg67
(lp2416
S'HTTP_ACCEPT'
p2417
asbag60
(g81
g62
NtRp2418
(dp2419
g65
(dp2420
g92
g93
ssg74
g2409
sg67
(lp2421
S':'
asbag60
(g81
g62
NtRp2422
(dp2423
g65
(dp2424
sg74
g2409
sg67
(lp2425
g60
(g61
g62
NtRp2426
(dp2427
g65
(dp2428
g73
I3
ssg74
g2422
sg67
(lp2429
g1019
asbasbasbag60
(g76
g62
NtRp2430
(dp2431
g65
(dp2432
sg74
g2405
sg67
(lp2433
g60
(g81
g62
NtRp2434
(dp2435
g65
(dp2436
g85
g86
ssg74
g2430
sg67
(lp2437
S'HTTP_ACCEPT_ENCODING'
p2438
asbag60
(g81
g62
NtRp2439
(dp2440
g65
(dp2441
g92
g93
ssg74
g2430
sg67
(lp2442
S':'
asbag60
(g81
g62
NtRp2443
(dp2444
g65
(dp2445
sg74
g2430
sg67
(lp2446
g60
(g61
g62
NtRp2447
(dp2448
g65
(dp2449
g73
I3
ssg74
g2443
sg67
(lp2450
g1041
asbasbasbag60
(g76
g62
NtRp2451
(dp2452
g65
(dp2453
sg74
g2405
sg67
(lp2454
g60
(g81
g62
NtRp2455
(dp2456
g65
(dp2457
g85
g86
ssg74
g2451
sg67
(lp2458
S'HTTP_ACCEPT_LANGUAGE'
p2459
asbag60
(g81
g62
NtRp2460
(dp2461
g65
(dp2462
g92
g93
ssg74
g2451
sg67
(lp2463
S':'
asbag60
(g81
g62
NtRp2464
(dp2465
g65
(dp2466
sg74
g2451
sg67
(lp2467
g60
(g61
g62
NtRp2468
(dp2469
g65
(dp2470
g73
I3
ssg74
g2464
sg67
(lp2471
g1063
asbasbasbag60
(g76
g62
NtRp2472
(dp2473
g65
(dp2474
sg74
g2405
sg67
(lp2475
g60
(g81
g62
NtRp2476
(dp2477
g65
(dp2478
g85
g86
ssg74
g2472
sg67
(lp2479
S'HTTP_CACHE_CONTROL'
p2480
asbag60
(g81
g62
NtRp2481
(dp2482
g65
(dp2483
g92
g93
ssg74
g2472
sg67
(lp2484
S':'
asbag60
(g81
g62
NtRp2485
(dp2486
g65
(dp2487
sg74
g2472
sg67
(lp2488
g60
(g61
g62
NtRp2489
(dp2490
g65
(dp2491
g73
I3
ssg74
g2485
sg67
(lp2492
g1085
asbasbasbag60
(g76
g62
NtRp2493
(dp2494
g65
(dp2495
sg74
g2405
sg67
(lp2496
g60
(g81
g62
NtRp2497
(dp2498
g65
(dp2499
g85
g86
ssg74
g2493
sg67
(lp2500
S'HTTP_CONNECTION'
p2501
asbag60
(g81
g62
NtRp2502
(dp2503
g65
(dp2504
g92
g93
ssg74
g2493
sg67
(lp2505
S':'
asbag60
(g81
g62
NtRp2506
(dp2507
g65
(dp2508
sg74
g2493
sg67
(lp2509
g60
(g61
g62
NtRp2510
(dp2511
g65
(dp2512
g73
I3
ssg74
g2506
sg67
(lp2513
g1107
asbasbasbag60
(g76
g62
NtRp2514
(dp2515
g65
(dp2516
sg74
g2405
sg67
(lp2517
g60
(g81
g62
NtRp2518
(dp2519
g65
(dp2520
g85
g86
ssg74
g2514
sg67
(lp2521
S'HTTP_COOKIE'
p2522
asbag60
(g81
g62
NtRp2523
(dp2524
g65
(dp2525
g92
g93
ssg74
g2514
sg67
(lp2526
S':'
asbag60
(g81
g62
NtRp2527
(dp2528
g65
(dp2529
sg74
g2514
sg67
(lp2530
g60
(g61
g62
NtRp2531
(dp2532
g65
(dp2533
g73
I3
ssg74
g2527
sg67
(lp2534
g1129
asbasbasbag60
(g76
g62
NtRp2535
(dp2536
g65
(dp2537
sg74
g2405
sg67
(lp2538
g60
(g81
g62
NtRp2539
(dp2540
g65
(dp2541
g85
g86
ssg74
g2535
sg67
(lp2542
S'HTTP_HOST'
p2543
asbag60
(g81
g62
NtRp2544
(dp2545
g65
(dp2546
g92
g93
ssg74
g2535
sg67
(lp2547
S':'
asbag60
(g81
g62
NtRp2548
(dp2549
g65
(dp2550
sg74
g2535
sg67
(lp2551
g60
(g61
g62
NtRp2552
(dp2553
g65
(dp2554
g73
I3
ssg74
g2548
sg67
(lp2555
g1151
asbasbasbag60
(g76
g62
NtRp2556
(dp2557
g65
(dp2558
sg74
g2405
sg67
(lp2559
g60
(g81
g62
NtRp2560
(dp2561
g65
(dp2562
g85
g86
ssg74
g2556
sg67
(lp2563
S'HTTP_USER_AGENT'
p2564
asbag60
(g81
g62
NtRp2565
(dp2566
g65
(dp2567
g92
g93
ssg74
g2556
sg67
(lp2568
S':'
asbag60
(g81
g62
NtRp2569
(dp2570
g65
(dp2571
sg74
g2556
sg67
(lp2572
g60
(g61
g62
NtRp2573
(dp2574
g65
(dp2575
g73
I3
ssg74
g2569
sg67
(lp2576
g1173
asbasbasbag60
(g76
g62
NtRp2577
(dp2578
g65
(dp2579
sg74
g2405
sg67
(lp2580
g60
(g81
g62
NtRp2581
(dp2582
g65
(dp2583
g85
g86
ssg74
g2577
sg67
(lp2584
S'PATH_INFO'
p2585
asbag60
(g81
g62
NtRp2586
(dp2587
g65
(dp2588
g92
g93
ssg74
g2577
sg67
(lp2589
S':'
asbag60
(g81
g62
NtRp2590
(dp2591
g65
(dp2592
sg74
g2577
sg67
(lp2593
g60
(g61
g62
NtRp2594
(dp2595
g65
(dp2596
g73
I3
ssg74
g2590
sg67
(lp2597
g1216
asbasbasbag60
(g76
g62
NtRp2598
(dp2599
g65
(dp2600
sg74
g2405
sg67
(lp2601
g60
(g81
g62
NtRp2602
(dp2603
g65
(dp2604
g85
g86
ssg74
g2598
sg67
(lp2605
S'QUERY_STRING'
p2606
asbag60
(g81
g62
NtRp2607
(dp2608
g65
(dp2609
g92
g93
ssg74
g2598
sg67
(lp2610
S':'
asbag60
(g81
g62
NtRp2611
(dp2612
g65
(dp2613
sg74
g2598
sg67
(lp2614
g60
(g61
g62
NtRp2615
(dp2616
g65
(dp2617
g73
I3
ssg74
g2611
sg67
(lp2618
S''
asbasbasbag60
(g76
g62
NtRp2619
(dp2620
g65
(dp2621
sg74
g2405
sg67
(lp2622
g60
(g81
g62
NtRp2623
(dp2624
g65
(dp2625
g85
g86
ssg74
g2619
sg67
(lp2626
S'REMOTE_ADDR'
p2627
asbag60
(g81
g62
NtRp2628
(dp2629
g65
(dp2630
g92
g93
ssg74
g2619
sg67
(lp2631
S':'
asbag60
(g81
g62
NtRp2632
(dp2633
g65
(dp2634
sg74
g2619
sg67
(lp2635
g60
(g61
g62
NtRp2636
(dp2637
g65
(dp2638
g73
I3
ssg74
g2632
sg67
(lp2639
g206
asbasbasbag60
(g76
g62
NtRp2640
(dp2641
g65
(dp2642
sg74
g2405
sg67
(lp2643
g60
(g81
g62
NtRp2644
(dp2645
g65
(dp2646
g85
g86
ssg74
g2640
sg67
(lp2647
S'REMOTE_PORT'
p2648
asbag60
(g81
g62
NtRp2649
(dp2650
g65
(dp2651
g92
g93
ssg74
g2640
sg67
(lp2652
S':'
asbag60
(g81
g62
NtRp2653
(dp2654
g65
(dp2655
sg74
g2640
sg67
(lp2656
g60
(g61
g62
NtRp2657
(dp2658
g65
(dp2659
g73
I3
ssg74
g2653
sg67
(lp2660
g1280
asbasbasbag60
(g76
g62
NtRp2661
(dp2662
g65
(dp2663
sg74
g2405
sg67
(lp2664
g60
(g81
g62
NtRp2665
(dp2666
g65
(dp2667
g85
g86
ssg74
g2661
sg67
(lp2668
S'REQUEST_METHOD'
p2669
asbag60
(g81
g62
NtRp2670
(dp2671
g65
(dp2672
g92
g93
ssg74
g2661
sg67
(lp2673
S':'
asbag60
(g81
g62
NtRp2674
(dp2675
g65
(dp2676
sg74
g2661
sg67
(lp2677
g60
(g61
g62
NtRp2678
(dp2679
g65
(dp2680
g73
I3
ssg74
g2674
sg67
(lp2681
g1302
asbasbasbag60
(g76
g62
NtRp2682
(dp2683
g65
(dp2684
sg74
g2405
sg67
(lp2685
g60
(g81
g62
NtRp2686
(dp2687
g65
(dp2688
g85
g86
ssg74
g2682
sg67
(lp2689
S'SCRIPT_NAME'
p2690
asbag60
(g81
g62
NtRp2691
(dp2692
g65
(dp2693
g92
g93
ssg74
g2682
sg67
(lp2694
S':'
asbag60
(g81
g62
NtRp2695
(dp2696
g65
(dp2697
sg74
g2682
sg67
(lp2698
g60
(g61
g62
NtRp2699
(dp2700
g65
(dp2701
g73
I3
ssg74
g2695
sg67
(lp2702
S''
asbasbasbag60
(g76
g62
NtRp2703
(dp2704
g65
(dp2705
sg74
g2405
sg67
(lp2706
g60
(g81
g62
NtRp2707
(dp2708
g65
(dp2709
g85
g86
ssg74
g2703
sg67
(lp2710
S'SERVER_NAME'
p2711
asbag60
(g81
g62
NtRp2712
(dp2713
g65
(dp2714
g92
g93
ssg74
g2703
sg67
(lp2715
S':'
asbag60
(g81
g62
NtRp2716
(dp2717
g65
(dp2718
sg74
g2703
sg67
(lp2719
g60
(g61
g62
NtRp2720
(dp2721
g65
(dp2722
g73
I3
ssg74
g2716
sg67
(lp2723
g1345
asbasbasbag60
(g76
g62
NtRp2724
(dp2725
g65
(dp2726
sg74
g2405
sg67
(lp2727
g60
(g81
g62
NtRp2728
(dp2729
g65
(dp2730
g85
g86
ssg74
g2724
sg67
(lp2731
S'SERVER_PORT'
p2732
asbag60
(g81
g62
NtRp2733
(dp2734
g65
(dp2735
g92
g93
ssg74
g2724
sg67
(lp2736
S':'
asbag60
(g81
g62
NtRp2737
(dp2738
g65
(dp2739
sg74
g2724
sg67
(lp2740
g60
(g61
g62
NtRp2741
(dp2742
g65
(dp2743
g73
I3
ssg74
g2737
sg67
(lp2744
g1367
asbasbasbag60
(g76
g62
NtRp2745
(dp2746
g65
(dp2747
sg74
g2405
sg67
(lp2748
g60
(g81
g62
NtRp2749
(dp2750
g65
(dp2751
g85
g86
ssg74
g2745
sg67
(lp2752
S'SERVER_PROTOCOL'
p2753
asbag60
(g81
g62
NtRp2754
(dp2755
g65
(dp2756
g92
g93
ssg74
g2745
sg67
(lp2757
S':'
asbag60
(g81
g62
NtRp2758
(dp2759
g65
(dp2760
sg74
g2745
sg67
(lp2761
g60
(g61
g62
NtRp2762
(dp2763
g65
(dp2764
g73
I3
ssg74
g2758
sg67
(lp2765
g1389
asbasbasbag60
(g76
g62
NtRp2766
(dp2767
g65
(dp2768
sg74
g2405
sg67
(lp2769
g60
(g81
g62
NtRp2770
(dp2771
g65
(dp2772
g85
g86
ssg74
g2766
sg67
(lp2773
S'SERVER_SOFTWARE'
p2774
asbag60
(g81
g62
NtRp2775
(dp2776
g65
(dp2777
g92
g93
ssg74
g2766
sg67
(lp2778
S':'
asbag60
(g81
g62
NtRp2779
(dp2780
g65
(dp2781
sg74
g2766
sg67
(lp2782
g60
(g61
g62
NtRp2783
(dp2784
g65
(dp2785
g73
I3
ssg74
g2779
sg67
(lp2786
g1411
asbasbasbag60
(g76
g62
NtRp2787
(dp2788
g65
(dp2789
sg74
g2405
sg67
(lp2790
g60
(g81
g62
NtRp2791
(dp2792
g65
(dp2793
g85
g86
ssg74
g2787
sg67
(lp2794
S'wsgi.errors'
p2795
asbag60
(g81
g62
NtRp2796
(dp2797
g65
(dp2798
g92
g93
ssg74
g2787
sg67
(lp2799
S':'
asbag60
(g81
g62
NtRp2800
(dp2801
g65
(dp2802
sg74
g2787
sg67
(lp2803
g60
(g61
g62
NtRp2804
(dp2805
g65
(dp2806
g73
I3
ssg74
g2800
sg67
(lp2807
S"<open file '<stderr>', mode 'w' at 0x7f84db3ff270>"
p2808
asbasbasbag60
(g76
g62
NtRp2809
(dp2810
g65
(dp2811
sg74
g2405
sg67
(lp2812
g60
(g81
g62
NtRp2813
(dp2814
g65
(dp2815
g85
g86
ssg74
g2809
sg67
(lp2816
S'wsgi.file_wrapper'
p2817
asbag60
(g81
g62
NtRp2818
(dp2819
g65
(dp2820
g92
g93
ssg74
g2809
sg67
(lp2821
S':'
asbag60
(g81
g62
NtRp2822
(dp2823
g65
(dp2824
sg74
g2809
sg67
(lp2825
g60
(g61
g62
NtRp2826
(dp2827
g65
(dp2828
g73
I3
ssg74
g2822
sg67
(lp2829
S'<class wsgiref.util.FileWrapper at 0x1b96d50>'
p2830
asbasbasbag60
(g76
g62
NtRp2831
(dp2832
g65
(dp2833
sg74
g2405
sg67
(lp2834
g60
(g81
g62
NtRp2835
(dp2836
g65
(dp2837
g85
g86
ssg74
g2831
sg67
(lp2838
S'wsgi.input'
p2839
asbag60
(g81
g62
NtRp2840
(dp2841
g65
(dp2842
g92
g93
ssg74
g2831
sg67
(lp2843
S':'
asbag60
(g81
g62
NtRp2844
(dp2845
g65
(dp2846
sg74
g2831
sg67
(lp2847
g60
(g61
g62
NtRp2848
(dp2849
g65
(dp2850
g73
I3
ssg74
g2844
sg67
(lp2851
S'<cStringIO.StringO object at 0x353c7d8>'
p2852
asbasbasbag60
(g76
g62
NtRp2853
(dp2854
g65
(dp2855
sg74
g2405
sg67
(lp2856
g60
(g81
g62
NtRp2857
(dp2858
g65
(dp2859
g85
g86
ssg74
g2853
sg67
(lp2860
S'wsgi.multiprocess'
p2861
asbag60
(g81
g62
NtRp2862
(dp2863
g65
(dp2864
g92
g93
ssg74
g2853
sg67
(lp2865
S':'
asbag60
(g81
g62
NtRp2866
(dp2867
g65
(dp2868
sg74
g2853
sg67
(lp2869
g60
(g61
g62
NtRp2870
(dp2871
g65
(dp2872
g73
I3
ssg74
g2866
sg67
(lp2873
g103
asbasbasbag60
(g76
g62
NtRp2874
(dp2875
g65
(dp2876
sg74
g2405
sg67
(lp2877
g60
(g81
g62
NtRp2878
(dp2879
g65
(dp2880
g85
g86
ssg74
g2874
sg67
(lp2881
S'wsgi.multithread'
p2882
asbag60
(g81
g62
NtRp2883
(dp2884
g65
(dp2885
g92
g93
ssg74
g2874
sg67
(lp2886
S':'
asbag60
(g81
g62
NtRp2887
(dp2888
g65
(dp2889
sg74
g2874
sg67
(lp2890
g60
(g61
g62
NtRp2891
(dp2892
g65
(dp2893
g73
I3
ssg74
g2887
sg67
(lp2894
g1651
asbasbasbag60
(g76
g62
NtRp2895
(dp2896
g65
(dp2897
sg74
g2405
sg67
(lp2898
g60
(g81
g62
NtRp2899
(dp2900
g65
(dp2901
g85
g86
ssg74
g2895
sg67
(lp2902
S'wsgi.run_once'
p2903
asbag60
(g81
g62
NtRp2904
(dp2905
g65
(dp2906
g92
g93
ssg74
g2895
sg67
(lp2907
S':'
asbag60
(g81
g62
NtRp2908
(dp2909
g65
(dp2910
sg74
g2895
sg67
(lp2911
g60
(g61
g62
NtRp2912
(dp2913
g65
(dp2914
g73
I3
ssg74
g2908
sg67
(lp2915
g103
asbasbasbag60
(g76
g62
NtRp2916
(dp2917
g65
(dp2918
sg74
g2405
sg67
(lp2919
g60
(g81
g62
NtRp2920
(dp2921
g65
(dp2922
g85
g86
ssg74
g2916
sg67
(lp2923
S'wsgi.url_scheme'
p2924
asbag60
(g81
g62
NtRp2925
(dp2926
g65
(dp2927
g92
g93
ssg74
g2916
sg67
(lp2928
S':'
asbag60
(g81
g62
NtRp2929
(dp2930
g65
(dp2931
sg74
g2916
sg67
(lp2932
g60
(g61
g62
NtRp2933
(dp2934
g65
(dp2935
g73
I3
ssg74
g2929
sg67
(lp2936
g1694
asbasbasbag60
(g76
g62
NtRp2937
(dp2938
g65
(dp2939
sg74
g2405
sg67
(lp2940
g60
(g81
g62
NtRp2941
(dp2942
g65
(dp2943
g85
g86
ssg74
g2937
sg67
(lp2944
S'wsgi.version'
p2945
asbag60
(g81
g62
NtRp2946
(dp2947
g65
(dp2948
g92
g93
ssg74
g2937
sg67
(lp2949
S':'
asbag60
(g81
g62
NtRp2950
(dp2951
g65
(dp2952
sg74
g2937
sg67
(lp2953
g60
(g61
g62
NtRp2954
(dp2955
g65
(dp2956
g73
I3
ssg74
g2950
sg67
(lp2957
S'1'
asbasbasbasbasbasbasbasbasbasbasbasbasbsS'frames'
p2958
(lp2959
(dp2960
S'file'
p2961
S'/home/jose/DESARROLLO/web2py199/gluon/restricted.py'
p2962
sS'dump'
p2963
(dp2964
S'environment'
p2965
S"{'A': <class 'gluon.html.A'>, 'Auth': <class 'gluon.tools.Auth'>, 'B': <class 'gluon.html.B'>, 'BEAUTIFY': <class 'gluon.html.BEAUTIFY'>, 'BODY': <class 'gluon.html.BODY'>, 'BR': <class 'gluon.html.BR'>, 'BUTTON': <class 'gluon.html.BUTTON'>, 'CAT': <class 'gluon.html.CAT'>, 'CENTER': <class 'gluon.html.CENTER'>, 'CLEANUP': <class 'gluon.validators.CLEANUP'>, ...}"
p2966
sS'ccode'
p2967
S'<code object <module> at 0x3537d30, file "/home/...tions/streamlog/controllers/default.py", line 14>'
p2968
ssS'lnum'
p2969
I194
sS'lines'
p2970
(dp2971
I192
S'        else:'
p2972
sI193
S'            ccode = compile2(code,layer)'
p2973
sI194
S'        exec ccode in environment'
p2974
sI195
S'    except HTTP:'
p2975
sI196
S'        raise'
p2976
sI197
S'    except Exception, error:'
p2977
sI198
S'        # XXX Show exception in Wing IDE if running in debugger'
p2978
sI189
S'    try:'
p2979
sI190
S'        if type(code) == types.CodeType:'
p2980
sI191
S'            ccode = code'
p2981
ssS'call'
p2982
S"(code='# -*- coding: utf-8 -*-\\n# this file is released ...\\n\\nresponse._vars=response._caller(server_manage)\\n', environment={'A': <class 'gluon.html.A'>, 'Auth': <class 'gluon.tools.Auth'>, 'B': <class 'gluon.html.B'>, 'BEAUTIFY': <class 'gluon.html.BEAUTIFY'>, 'BODY': <class 'gluon.html.BODY'>, 'BR': <class 'gluon.html.BR'>, 'BUTTON': <class 'gluon.html.BUTTON'>, 'CAT': <class 'gluon.html.CAT'>, 'CENTER': <class 'gluon.html.CENTER'>, 'CLEANUP': <class 'gluon.validators.CLEANUP'>, ...}, layer='/home/jose/DESARROLLO/web2py199/applications/streamlog/controllers/default.py')"
p2983
sS'func'
p2984
S'restricted'
p2985
sa(dp2986
g2961
S'/home/jose/DESARROLLO/web2py199/applications/streamlog/controllers/default.py'
p2987
sg2963
(dp2988
sg2969
I170
sg2970
(dp2989
I160
S'    http://..../[app]/default/data/delete/[table]/[id]'
p2990
sI161
S'    http://..../[app]/default/data/select/[table]'
p2991
sI162
S'    http://..../[app]/default/data/search/[table]'
p2992
sI163
S'    but URLs bust be signed, i.e. linked with'
p2993
sI164
S"      A('table',_href=URL('data/tables',user_signature=True))"
p2994
sI165
S'    or with the signed load operator'
p2995
sI166
S"      LOAD('default','data.load',args='tables',ajax=True,user_signature=True)"
p2996
sI167
S'    """'
p2997
sI168
S'    return dict(form=crud())'
p2998
sI159
S'    http://..../[app]/default/data/update/[table]/[id]'
p2999
ssg2982
S'()'
p3000
sg2984
S'<module>'
p3001
sa(dp3002
g2961
S'/home/jose/DESARROLLO/web2py199/gluon/globals.py'
p3003
sg2963
(dp3004
S'self'
p3005
S'undefined'
p3006
sS'f'
S'<function server_manage>'
p3007
ssg2969
I149
sg2970
(dp3008
I144
S'        self.meta = Storage()      # used by web2py_ajax.html'
p3009
sI145
S'        self.menu = []             # used by the default view layout'
p3010
sI146
S'        self.files = []            # used by web2py_ajax.html'
p3011
sI147
S'        self.generic_patterns = [] # patterns to allow generic views'
p3012
sI148
S'        self._vars = None'
p3013
sI149
S'        self._caller = lambda f: f()'
p3014
sI150
S'        self._view_environment = None'
p3015
sI151
S'        self._custom_commit = None'
p3016
sI152
S'        self._custom_rollback = None'
p3017
sI153
S''
ssg2982
S'(f=<function server_manage>)'
p3018
sg2984
S'<lambda>'
p3019
sa(dp3020
g2961
S'/home/jose/DESARROLLO/web2py199/applications/streamlog/controllers/default.py'
p3021
sg2963
(dp3022
S't_server'
p3023
g3006
sS'form'
p3024
g3006
sS'global SQLFORM'
p3025
S"<class 'gluon.sqlhtml.SQLFORM'>"
p3026
sS'global db'
p3027
S"<DAL {'auth_event': <Table {'origin': <gluon.dal..., 'id': <gluon.dal.Field object at 0x35553d0>}>}>"
p3028
sS'query'
p3029
S'<gluon.dal.Set object>'
p3030
sS'SQLFORM.smartgrid'
p3031
S'<function smartgrid>'
p3032
sS'db.t_server'
p3033
S"<Table {'project': <gluon.dal.Field object at 0x...ription': <gluon.dal.Field object at 0x29520d0>}>"
p3034
sS'builtindict'
p3035
S"<type 'dict'>"
p3036
sS'constraints'
p3037
g3006
ssg2969
I103
sg2970
(dp3038
I98
S''
sI99
S'    query=db((db.t_project.user==me)&(db.t_server.project==db.t_project.id))'
p3039
sI100
S'    #query=(db.t_project.id==1)'
p3040
sI101
S'    #query=(db.t_server.project==1)'
p3041
sI102
S'    #query=(db.t_project.id==db.t_server.project)'
p3042
sI103
S'    form = SQLFORM.smartgrid(db.t_server,constraints=dict(t_server=query))'
p3043
sI104
S'    #form = SQLFORM.smartgrid(db.t_server)'
p3044
sI105
S'    return locals()'
p3045
sI106
S''
sI107
S'#@auth.requires_login()'
p3046
ssg2982
S'()'
p3047
sg2984
S'server_manage'
p3048
sa(dp3049
g2961
S'/home/jose/DESARROLLO/web2py199/gluon/sqlhtml.py'
p3050
sg2963
(dp3051
S'user_signature'
p3052
g1651
sS'kwargs'
p3053
g20
ssg2969
I1821
sg2970
(dp3054
I1824
S'                                 _href=URL(args=request.args[:args])))'
p3055
sI1825
S"            grid.insert(0,DIV(H3(*breadcrumbs),_class='web2py_breadcrumbs'))"
p3056
sI1816
S'            if linked_tables is None or tablename in linked_tables:'
p3057
sI1817
S"                args0 = tablename+'.'+fieldname"
p3058
sI1818
S'                links.append(lambda row,t=T(tablename),args=args,args0=args0:\\'
p3059
sI1819
S'                                 A(SPAN(t),_href=URL(args=request.args[:args]+[args0,row.id])))'
p3060
sI1820
S'        grid=SQLFORM.grid(query,args=request.args[:args],links=links,'
p3061
sI1821
S'                          user_signature=user_signature,**kwargs)'
p3062
sI1822
S'        if isinstance(grid,DIV):'
p3063
sI1823
S'            breadcrumbs.append(A(T(table._tablename),'
p3064
ssg2982
S"(table=<Table {'project': <gluon.dal.Field object at 0x...ription': <gluon.dal.Field object at 0x29520d0>}>, constraints={'t_server': <gluon.dal.Set object>}, links=[<function <lambda>>], linked_tables=None, user_signature=True, **kwargs={})"
p3065
sg2984
S'smartgrid'
p3066
sa(dp3067
g2961
S'/home/jose/DESARROLLO/web2py199/gluon/sqlhtml.py'
p3068
sg2963
(dp3069
S'dbset.select'
p3070
S'<bound method Set.select of <gluon.dal.Set object>>'
p3071
sS'orderby'
p3072
S'None'
p3073
sS'rows'
p3074
g3006
sS'fields'
p3075
S'[<gluon.dal.Field object>, <gluon.dal.Field object>, <gluon.dal.Field object>, <gluon.dal.Field object>, <gluon.dal.Field object>, <gluon.dal.Field object>]'
p3076
sS'limitby'
p3077
S'None'
p3078
sS'dbset'
p3079
S'<gluon.dal.Set object>'
p3080
sS'left'
p3081
S'None'
p3082
ssg2969
I1640
sg2970
(dp3083
I1635
S'            if page<npages-1:'
p3084
sI1636
S"                paginator.append(LI(self_link('>>',npages-1)))"
p3085
sI1637
S'        else:'
p3086
sI1638
S'            limitby = None'
p3087
sI1639
S''
sI1640
S'        rows = dbset.select(left=left,orderby=orderby,limitby=limitby,*fields)'
p3088
sI1641
S"        if not searchable and not rows: return DIV(T('No records found'))"
p3089
sI1642
S'        if rows:'
p3090
sI1643
S'            htmltable = TABLE(THEAD(head))'
p3091
sI1644
S'            tbody = TBODY()'
p3092
ssg2982
S"(query=<gluon.dal.Query object>, fields=[<gluon.dal.Field object>, <gluon.dal.Field object>, <gluon.dal.Field object>, <gluon.dal.Field object>, <gluon.dal.Field object>, <gluon.dal.Field object>], field_id=<gluon.dal.Field object>, left=None, headers={}, columns=None, orderby=None, searchable=True, sortable=True, paginate=20, deletable=True, editable=True, details=True, selectable=None, create=True, csv=True, links=[<function <lambda>>], upload=<function <lambda>>, args=['t_server'], user_signature=True, maxtextlengths={}, maxtextlength=20, onvalidation=None, oncreate=None, onupdate=None, ondelete=None, sorter_icons=('[^]', '[v]'), ui={'button': 'button', 'buttonadd': 'icon plus', 'buttonback': 'icon leftarrow', 'buttondelete': 'icon trash', 'buttonedit': 'icon pen', 'buttonexport': 'icon downarrow', 'buttontable': 'icon rightarrow', 'buttontext': 'buttontext button', 'buttonview': 'icon magnifier', 'content': '', ...}, showbuttontext=True, _class='web2py_grid', formname='web2py_grid')"
p3093
sg2984
S'grid'
p3094
sa(dp3095
g2961
S'/home/jose/DESARROLLO/web2py199/gluon/dal.py'
p3096
sg2963
(dp3097
S'self.query'
p3098
S'<gluon.dal.Query object>'
p3099
sS'fields'
p3100
S'(<gluon.dal.Field object>, <gluon.dal.Field object>, <gluon.dal.Field object>, <gluon.dal.Field object>, <gluon.dal.Field object>, <gluon.dal.Field object>)'
p3101
sS'self'
p3102
S'<gluon.dal.Set object>'
p3103
sS'self.db._adapter.select'
p3104
S'<bound method SQLiteAdapter.select of <gluon.dal.SQLiteAdapter object>>'
p3105
sS'self.db._adapter'
p3106
S'<gluon.dal.SQLiteAdapter object>'
p3107
sS'attributes'
p3108
S"{'left': None, 'limitby': None, 'orderby': None}"
p3109
sS'self.db'
p3110
S"<DAL {'auth_event': <Table {'origin': <gluon.dal..., 'id': <gluon.dal.Field object at 0x35553d0>}>}>"
p3111
ssg2969
I5697
sg2970
(dp3112
I5696
S'    def select(self, *fields, **attributes):'
p3113
sI5697
S'        return self.db._adapter.select(self.query,fields,attributes)'
p3114
sI5698
S''
sI5699
S'    def delete(self):'
p3115
sI5700
S'        tablename=self.db._adapter.get_table(self.query)'
p3116
sI5701
S'        self.delete_uploaded_files()'
p3117
sI5692
S''
sI5693
S'    def count(self,distinct=None):'
p3118
sI5694
S'        return self.db._adapter.count(self.query,distinct)'
p3119
sI5695
S''
ssg2982
S"(self=<gluon.dal.Set object>, *fields=(<gluon.dal.Field object>, <gluon.dal.Field object>, <gluon.dal.Field object>, <gluon.dal.Field object>, <gluon.dal.Field object>, <gluon.dal.Field object>), **attributes={'left': None, 'limitby': None, 'orderby': None})"
p3120
sg2984
S'select'
p3121
sa(dp3122
g2961
S'/home/jose/DESARROLLO/web2py199/gluon/dal.py'
p3123
sg2963
(dp3124
S'rows'
p3125
g3006
sS'response'
p3126
S'<function response>'
p3127
sS'sql'
p3128
S"'SELECT  t_server.id, t_server.project, t_server....id > 0) AND <gluon.dal.Set object at 0x2944810>);'"
p3129
ssg2969
I1233
sg2970
(dp3130
I1228
S"            del attributes['cache']"
p3131
sI1229
S"            key = self.uri + '/' + sql"
p3132
sI1230
S'            key = (key<=200) and key or hashlib.md5(key).hexdigest()'
p3133
sI1231
S'            rows = cache_model(key, lambda: response(sql), time_expire)'
p3134
sI1232
S'        else:'
p3135
sI1233
S'            rows = response(sql)'
p3136
sI1234
S'        if isinstance(rows,tuple):'
p3137
sI1235
S'            rows = list(rows)'
p3138
sI1236
S"        limitby = attributes.get('limitby',None) or (0,)"
p3139
sI1237
S'        rows = self.rowslice(rows,limitby[0],None)'
p3140
ssg2982
S"(self=<gluon.dal.SQLiteAdapter object>, query=<gluon.dal.Query object>, fields=(<gluon.dal.Field object>, <gluon.dal.Field object>, <gluon.dal.Field object>, <gluon.dal.Field object>, <gluon.dal.Field object>, <gluon.dal.Field object>), attributes={'left': None, 'limitby': None, 'orderby': None})"
p3141
sg2984
g3121
sa(dp3142
g2961
S'/home/jose/DESARROLLO/web2py199/gluon/dal.py'
p3143
sg2963
(dp3144
S'self'
p3145
S'<gluon.dal.SQLiteAdapter object>'
p3146
sS'self.execute'
p3147
S'<bound method SQLiteAdapter.execute of <gluon.dal.SQLiteAdapter object>>'
p3148
sS'sql'
p3149
S"'SELECT  t_server.id, t_server.project, t_server....id > 0) AND <gluon.dal.Set object at 0x2944810>);'"
p3150
ssg2969
I1223
sg2970
(dp3151
I1218
S'    def select(self,query,fields,attributes):'
p3152
sI1219
S'        """'
p3153
sI1220
S'        Always returns a Rows object, even if it may be empty'
p3154
sI1221
S'        """'
p3155
sI1222
S'        def response(sql):'
p3156
sI1223
S'            self.execute(sql)'
p3157
sI1224
S'            return self.cursor.fetchall()'
p3158
sI1225
S'        sql = self._select(query,fields,attributes)'
p3159
sI1226
S"        if attributes.get('cache', None):"
p3160
sI1227
S"            (cache_model, time_expire) = attributes['cache']"
p3161
ssg2982
S"(sql='SELECT  t_server.id, t_server.project, t_server....id > 0) AND <gluon.dal.Set object at 0x2944810>);')"
p3162
sg2984
S'response'
p3163
sa(dp3164
g2961
S'/home/jose/DESARROLLO/web2py199/gluon/dal.py'
p3165
sg2963
(dp3166
S'a'
S"('SELECT  t_server.id, t_server.project, t_server....id > 0) AND <gluon.dal.Set object at 0x2944810>);',)"
p3167
sS'self'
p3168
S'<gluon.dal.SQLiteAdapter object>'
p3169
sS'b'
g20
sS'self.log_execute'
p3170
S'<bound method SQLiteAdapter.log_execute of <gluon.dal.SQLiteAdapter object>>'
p3171
ssg2969
I1309
sg2970
(dp3172
I1312
S'        if isinstance(obj,CALLABLETYPES):'
p3173
sI1313
S'            obj = obj()'
p3174
sI1304
S'        ret = self.cursor.execute(*a,**b)'
p3175
sI1305
S'        self.db._timings.append((a[0],time.time()-t0))'
p3176
sI1306
S'        return ret'
p3177
sI1307
S''
sI1308
S'    def execute(self,*a,**b):'
p3178
sI1309
S'        return self.log_execute(*a, **b)'
p3179
sI1310
S''
sI1311
S'    def represent(self, obj, fieldtype):'
p3180
ssg2982
S"(self=<gluon.dal.SQLiteAdapter object>, *a=('SELECT  t_server.id, t_server.project, t_server....id > 0) AND <gluon.dal.Set object at 0x2944810>);',), **b={})"
p3181
sg2984
S'execute'
p3182
sa(dp3183
g2961
S'/home/jose/DESARROLLO/web2py199/gluon/dal.py'
p3184
sg2963
(dp3185
S'a'
S"('SELECT  t_server.id, t_server.project, t_server....id > 0) AND <gluon.dal.Set object at 0x2944810>);',)"
p3186
sS'b'
g20
sS'self'
p3187
S'<gluon.dal.SQLiteAdapter object>'
p3188
sS'ret'
p3189
g3006
sS'self.cursor'
p3190
S'<sqlite3.Cursor object>'
p3191
sS'self.cursor.execute'
p3192
S'<built-in method execute of sqlite3.Cursor object>'
p3193
ssg2969
I1304
sg2970
(dp3194
I1299
S'        self.execute(query)'
p3195
sI1300
S''
sI1301
S'    def log_execute(self,*a,**b):'
p3196
sI1302
S'        self.db._lastsql = a[0]'
p3197
sI1303
S'        t0 = time.time()'
p3198
sI1304
S'        ret = self.cursor.execute(*a,**b)'
p3199
sI1305
S'        self.db._timings.append((a[0],time.time()-t0))'
p3200
sI1306
S'        return ret'
p3201
sI1307
S''
sI1308
S'    def execute(self,*a,**b):'
p3202
ssg2982
S"(self=<gluon.dal.SQLiteAdapter object>, *a=('SELECT  t_server.id, t_server.project, t_server....id > 0) AND <gluon.dal.Set object at 0x2944810>);',), **b={})"
p3203
sg2984
S'log_execute'
p3204
sasS'pyver'
p3205
S'Python 2.7.2+: /usr/bin/python'
p3206
sS'session'
p3207
g60
(g61
g62
NtRp3208
(dp3209
g65
(dp3210
sg67
(lp3211
g60
(g69
g62
NtRp3212
(dp3213
g65
(dp3214
g73
I5
ssg74
Nsg67
(lp3215
g60
(g76
g62
NtRp3216
(dp3217
g65
(dp3218
sg74
g3212
sg67
(lp3219
g60
(g81
g62
NtRp3220
(dp3221
g65
(dp3222
g85
g86
ssg74
g3216
sg67
(lp3223
S'auth'
p3224
asbag60
(g81
g62
NtRp3225
(dp3226
g65
(dp3227
g92
g93
ssg74
g3216
sg67
(lp3228
S':'
asbag60
(g81
g62
NtRp3229
(dp3230
g65
(dp3231
sg74
g3216
sg67
(lp3232
g60
(g61
g62
NtRp3233
(dp3234
g65
(dp3235
g73
I5
ssg74
g3229
sg67
(lp3236
g60
(g69
g62
NtRp3237
(dp3238
g65
(dp3239
g73
I4
ssg74
Nsg67
(lp3240
g60
(g76
g62
NtRp3241
(dp3242
g65
(dp3243
sg74
g3237
sg67
(lp3244
g60
(g81
g62
NtRp3245
(dp3246
g65
(dp3247
g85
g86
ssg74
g3241
sg67
(lp3248
S'expiration'
p3249
asbag60
(g81
g62
NtRp3250
(dp3251
g65
(dp3252
g92
g93
ssg74
g3241
sg67
(lp3253
S':'
asbag60
(g81
g62
NtRp3254
(dp3255
g65
(dp3256
sg74
g3241
sg67
(lp3257
g60
(g61
g62
NtRp3258
(dp3259
g65
(dp3260
g73
I4
ssg74
g3254
sg67
(lp3261
S'3600'
p3262
asbasbasbag60
(g76
g62
NtRp3263
(dp3264
g65
(dp3265
sg74
g3237
sg67
(lp3266
g60
(g81
g62
NtRp3267
(dp3268
g65
(dp3269
g85
g86
ssg74
g3263
sg67
(lp3270
S'hmac_key'
p3271
asbag60
(g81
g62
NtRp3272
(dp3273
g65
(dp3274
g92
g93
ssg74
g3263
sg67
(lp3275
S':'
asbag60
(g81
g62
NtRp3276
(dp3277
g65
(dp3278
sg74
g3263
sg67
(lp3279
g60
(g61
g62
NtRp3280
(dp3281
g65
(dp3282
g73
I4
ssg74
g3276
sg67
(lp3283
S'4939d400-e4c9-4a5c-be3b-b030e1657229'
p3284
asbasbasbag60
(g76
g62
NtRp3285
(dp3286
g65
(dp3287
sg74
g3237
sg67
(lp3288
g60
(g81
g62
NtRp3289
(dp3290
g65
(dp3291
g85
g86
ssg74
g3285
sg67
(lp3292
S'last_visit'
p3293
asbag60
(g81
g62
NtRp3294
(dp3295
g65
(dp3296
g92
g93
ssg74
g3285
sg67
(lp3297
S':'
asbag60
(g81
g62
NtRp3298
(dp3299
g65
(dp3300
sg74
g3285
sg67
(lp3301
g60
(g61
g62
NtRp3302
(dp3303
g65
(dp3304
g73
I4
ssg74
g3298
sg67
(lp3305
S'datetime.datetime(2012, 5, 26, 14, 32, 3, 907462)'
p3306
asbasbasbag60
(g76
g62
NtRp3307
(dp3308
g65
(dp3309
sg74
g3237
sg67
(lp3310
g60
(g81
g62
NtRp3311
(dp3312
g65
(dp3313
g85
g86
ssg74
g3307
sg67
(lp3314
S'user'
p3315
asbag60
(g81
g62
NtRp3316
(dp3317
g65
(dp3318
g92
g93
ssg74
g3307
sg67
(lp3319
S':'
asbag60
(g81
g62
NtRp3320
(dp3321
g65
(dp3322
sg74
g3307
sg67
(lp3323
g60
(g61
g62
NtRp3324
(dp3325
g65
(dp3326
g73
I4
ssg74
g3320
sg67
(lp3327
g60
(g69
g62
NtRp3328
(dp3329
g65
(dp3330
g73
I3
ssg74
Nsg67
(lp3331
g60
(g76
g62
NtRp3332
(dp3333
g65
(dp3334
sg74
g3328
sg67
(lp3335
g60
(g81
g62
NtRp3336
(dp3337
g65
(dp3338
g85
g86
ssg74
g3332
sg67
(lp3339
S'email'
p3340
asbag60
(g81
g62
NtRp3341
(dp3342
g65
(dp3343
g92
g93
ssg74
g3332
sg67
(lp3344
S':'
asbag60
(g81
g62
NtRp3345
(dp3346
g65
(dp3347
sg74
g3332
sg67
(lp3348
g60
(g61
g62
NtRp3349
(dp3350
g65
(dp3351
g73
I3
ssg74
g3345
sg67
(lp3352
S'josedesoto@gmail.com'
p3353
asbasbasbag60
(g76
g62
NtRp3354
(dp3355
g65
(dp3356
sg74
g3328
sg67
(lp3357
g60
(g81
g62
NtRp3358
(dp3359
g65
(dp3360
g85
g86
ssg74
g3354
sg67
(lp3361
S'first_name'
p3362
asbag60
(g81
g62
NtRp3363
(dp3364
g65
(dp3365
g92
g93
ssg74
g3354
sg67
(lp3366
S':'
asbag60
(g81
g62
NtRp3367
(dp3368
g65
(dp3369
sg74
g3354
sg67
(lp3370
g60
(g61
g62
NtRp3371
(dp3372
g65
(dp3373
g73
I3
ssg74
g3367
sg67
(lp3374
S'jose'
p3375
asbasbasbag60
(g76
g62
NtRp3376
(dp3377
g65
(dp3378
sg74
g3328
sg67
(lp3379
g60
(g81
g62
NtRp3380
(dp3381
g65
(dp3382
g85
g86
ssg74
g3376
sg67
(lp3383
S'id'
p3384
asbag60
(g81
g62
NtRp3385
(dp3386
g65
(dp3387
g92
g93
ssg74
g3376
sg67
(lp3388
S':'
asbag60
(g81
g62
NtRp3389
(dp3390
g65
(dp3391
sg74
g3376
sg67
(lp3392
g60
(g61
g62
NtRp3393
(dp3394
g65
(dp3395
g73
I3
ssg74
g3389
sg67
(lp3396
S'1'
asbasbasbag60
(g76
g62
NtRp3397
(dp3398
g65
(dp3399
sg74
g3328
sg67
(lp3400
g60
(g81
g62
NtRp3401
(dp3402
g65
(dp3403
g85
g86
ssg74
g3397
sg67
(lp3404
S'last_name'
p3405
asbag60
(g81
g62
NtRp3406
(dp3407
g65
(dp3408
g92
g93
ssg74
g3397
sg67
(lp3409
S':'
asbag60
(g81
g62
NtRp3410
(dp3411
g65
(dp3412
sg74
g3397
sg67
(lp3413
g60
(g61
g62
NtRp3414
(dp3415
g65
(dp3416
g73
I3
ssg74
g3410
sg67
(lp3417
S'jose'
p3418
asbasbasbag60
(g76
g62
NtRp3419
(dp3420
g65
(dp3421
sg74
g3328
sg67
(lp3422
g60
(g81
g62
NtRp3423
(dp3424
g65
(dp3425
g85
g86
ssg74
g3419
sg67
(lp3426
S'password'
p3427
asbag60
(g81
g62
NtRp3428
(dp3429
g65
(dp3430
g92
g93
ssg74
g3419
sg67
(lp3431
S':'
asbag60
(g81
g62
NtRp3432
(dp3433
g65
(dp3434
sg74
g3419
sg67
(lp3435
g60
(g61
g62
NtRp3436
(dp3437
g65
(dp3438
g73
I3
ssg74
g3432
sg67
(lp3439
S'2b32eaa2baa0c63b755a4cde1e4dda83'
p3440
asbasbasbag60
(g76
g62
NtRp3441
(dp3442
g65
(dp3443
sg74
g3328
sg67
(lp3444
g60
(g81
g62
NtRp3445
(dp3446
g65
(dp3447
g85
g86
ssg74
g3441
sg67
(lp3448
S'registration_key'
p3449
asbag60
(g81
g62
NtRp3450
(dp3451
g65
(dp3452
g92
g93
ssg74
g3441
sg67
(lp3453
S':'
asbag60
(g81
g62
NtRp3454
(dp3455
g65
(dp3456
sg74
g3441
sg67
(lp3457
g60
(g61
g62
NtRp3458
(dp3459
g65
(dp3460
g73
I3
ssg74
g3454
sg67
(lp3461
S''
asbasbasbag60
(g76
g62
NtRp3462
(dp3463
g65
(dp3464
sg74
g3328
sg67
(lp3465
g60
(g81
g62
NtRp3466
(dp3467
g65
(dp3468
g85
g86
ssg74
g3462
sg67
(lp3469
S'reset_password_key'
p3470
asbag60
(g81
g62
NtRp3471
(dp3472
g65
(dp3473
g92
g93
ssg74
g3462
sg67
(lp3474
S':'
asbag60
(g81
g62
NtRp3475
(dp3476
g65
(dp3477
sg74
g3462
sg67
(lp3478
g60
(g61
g62
NtRp3479
(dp3480
g65
(dp3481
g73
I3
ssg74
g3475
sg67
(lp3482
S''
asbasbasbasbasbasbasbasbasbasbasbag60
(g76
g62
NtRp3483
(dp3484
g65
(dp3485
sg74
g3212
sg67
(lp3486
g60
(g81
g62
NtRp3487
(dp3488
g65
(dp3489
g85
g86
ssg74
g3483
sg67
(lp3490
S'last_query'
p3491
asbag60
(g81
g62
NtRp3492
(dp3493
g65
(dp3494
g92
g93
ssg74
g3483
sg67
(lp3495
S':'
asbag60
(g81
g62
NtRp3496
(dp3497
g65
(dp3498
sg74
g3483
sg67
(lp3499
g60
(g61
g62
NtRp3500
(dp3501
g65
(dp3502
g73
I5
ssg74
g3496
sg67
(lp3503
S'(db.t_project.user==me)&(db.t_server.project==db.t_project.id)'
p3504
asbasbasbasbasbsS'etype'
p3505
S"<class 'sqlite3.OperationalError'>"
p3506
sS'date'
p3507
S'Sat May 26 14:34:50 2012'
p3508
sg3163
g60
(g61
g62
NtRp3509
(dp3510
g65
(dp3511
sg67
(lp3512
g60
(g69
g62
NtRp3513
(dp3514
g65
(dp3515
g73
I5
ssg74
Nsg67
(lp3516
g60
(g76
g62
NtRp3517
(dp3518
g65
(dp3519
sg74
g3513
sg67
(lp3520
g60
(g81
g62
NtRp3521
(dp3522
g65
(dp3523
g85
g86
ssg74
g3517
sg67
(lp3524
g171
asbag60
(g81
g62
NtRp3525
(dp3526
g65
(dp3527
g92
g93
ssg74
g3517
sg67
(lp3528
S':'
asbag60
(g81
g62
NtRp3529
(dp3530
g65
(dp3531
sg74
g3517
sg67
(lp3532
g60
(g61
g62
NtRp3533
(dp3534
g65
(dp3535
g73
I5
ssg74
g3529
sg67
(lp3536
S'<cStringIO.StringO object at 0x353c650>'
p3537
asbasbasbag60
(g76
g62
NtRp3538
(dp3539
g65
(dp3540
sg74
g3513
sg67
(lp3541
g60
(g81
g62
NtRp3542
(dp3543
g65
(dp3544
g85
g86
ssg74
g3538
sg67
(lp3545
g237
asbag60
(g81
g62
NtRp3546
(dp3547
g65
(dp3548
g92
g93
ssg74
g3538
sg67
(lp3549
S':'
asbag60
(g81
g62
NtRp3550
(dp3551
g65
(dp3552
sg74
g3538
sg67
(lp3553
g60
(g61
g62
NtRp3554
(dp3555
g65
(dp3556
g73
I5
ssg74
g3550
sg67
(lp3557
g60
(g69
g62
NtRp3558
(dp3559
g65
(dp3560
g73
I4
ssg74
Nsg67
(lp3561
g60
(g76
g62
NtRp3562
(dp3563
g65
(dp3564
sg74
g3558
sg67
(lp3565
g60
(g81
g62
NtRp3566
(dp3567
g65
(dp3568
g85
g86
ssg74
g3562
sg67
(lp3569
S'session_id_streamlog'
p3570
asbag60
(g81
g62
NtRp3571
(dp3572
g65
(dp3573
g92
g93
ssg74
g3562
sg67
(lp3574
S':'
asbag60
(g81
g62
NtRp3575
(dp3576
g65
(dp3577
sg74
g3562
sg67
(lp3578
g60
(g61
g62
NtRp3579
(dp3580
g65
(dp3581
g73
I4
ssg74
g3575
sg67
(lp3582
g60
(g69
g62
NtRp3583
(dp3584
g65
(dp3585
g73
I3
ssg74
Nsg67
(lp3586
g60
(g76
g62
NtRp3587
(dp3588
g65
(dp3589
sg74
g3583
sg67
(lp3590
g60
(g81
g62
NtRp3591
(dp3592
g65
(dp3593
g85
g86
ssg74
g3587
sg67
(lp3594
g287
asbag60
(g81
g62
NtRp3595
(dp3596
g65
(dp3597
g92
g93
ssg74
g3587
sg67
(lp3598
S':'
asbag60
(g81
g62
NtRp3599
(dp3600
g65
(dp3601
sg74
g3587
sg67
(lp3602
g60
(g61
g62
NtRp3603
(dp3604
g65
(dp3605
g73
I3
ssg74
g3599
sg67
(lp3606
S''
asbasbasbag60
(g76
g62
NtRp3607
(dp3608
g65
(dp3609
sg74
g3583
sg67
(lp3610
g60
(g81
g62
NtRp3611
(dp3612
g65
(dp3613
g85
g86
ssg74
g3607
sg67
(lp3614
g308
asbag60
(g81
g62
NtRp3615
(dp3616
g65
(dp3617
g92
g93
ssg74
g3607
sg67
(lp3618
S':'
asbag60
(g81
g62
NtRp3619
(dp3620
g65
(dp3621
sg74
g3607
sg67
(lp3622
g60
(g61
g62
NtRp3623
(dp3624
g65
(dp3625
g73
I3
ssg74
g3619
sg67
(lp3626
S''
asbasbasbag60
(g76
g62
NtRp3627
(dp3628
g65
(dp3629
sg74
g3583
sg67
(lp3630
g60
(g81
g62
NtRp3631
(dp3632
g65
(dp3633
g85
g86
ssg74
g3627
sg67
(lp3634
g329
asbag60
(g81
g62
NtRp3635
(dp3636
g65
(dp3637
g92
g93
ssg74
g3627
sg67
(lp3638
S':'
asbag60
(g81
g62
NtRp3639
(dp3640
g65
(dp3641
sg74
g3627
sg67
(lp3642
g60
(g61
g62
NtRp3643
(dp3644
g65
(dp3645
g73
I3
ssg74
g3639
sg67
(lp3646
S''
asbasbasbag60
(g76
g62
NtRp3647
(dp3648
g65
(dp3649
sg74
g3583
sg67
(lp3650
g60
(g81
g62
NtRp3651
(dp3652
g65
(dp3653
g85
g86
ssg74
g3647
sg67
(lp3654
g350
asbag60
(g81
g62
NtRp3655
(dp3656
g65
(dp3657
g92
g93
ssg74
g3647
sg67
(lp3658
S':'
asbag60
(g81
g62
NtRp3659
(dp3660
g65
(dp3661
sg74
g3647
sg67
(lp3662
g60
(g61
g62
NtRp3663
(dp3664
g65
(dp3665
g73
I3
ssg74
g3659
sg67
(lp3666
S''
asbasbasbag60
(g76
g62
NtRp3667
(dp3668
g65
(dp3669
sg74
g3583
sg67
(lp3670
g60
(g81
g62
NtRp3671
(dp3672
g65
(dp3673
g85
g86
ssg74
g3667
sg67
(lp3674
g371
asbag60
(g81
g62
NtRp3675
(dp3676
g65
(dp3677
g92
g93
ssg74
g3667
sg67
(lp3678
S':'
asbag60
(g81
g62
NtRp3679
(dp3680
g65
(dp3681
sg74
g3667
sg67
(lp3682
g60
(g61
g62
NtRp3683
(dp3684
g65
(dp3685
g73
I3
ssg74
g3679
sg67
(lp3686
S''
asbasbasbag60
(g76
g62
NtRp3687
(dp3688
g65
(dp3689
sg74
g3583
sg67
(lp3690
g60
(g81
g62
NtRp3691
(dp3692
g65
(dp3693
g85
g86
ssg74
g3687
sg67
(lp3694
g392
asbag60
(g81
g62
NtRp3695
(dp3696
g65
(dp3697
g92
g93
ssg74
g3687
sg67
(lp3698
S':'
asbag60
(g81
g62
NtRp3699
(dp3700
g65
(dp3701
sg74
g3687
sg67
(lp3702
g60
(g61
g62
NtRp3703
(dp3704
g65
(dp3705
g73
I3
ssg74
g3699
sg67
(lp3706
S'/'
asbasbasbag60
(g76
g62
NtRp3707
(dp3708
g65
(dp3709
sg74
g3583
sg67
(lp3710
g60
(g81
g62
NtRp3711
(dp3712
g65
(dp3713
g85
g86
ssg74
g3707
sg67
(lp3714
g413
asbag60
(g81
g62
NtRp3715
(dp3716
g65
(dp3717
g92
g93
ssg74
g3707
sg67
(lp3718
S':'
asbag60
(g81
g62
NtRp3719
(dp3720
g65
(dp3721
sg74
g3707
sg67
(lp3722
g60
(g61
g62
NtRp3723
(dp3724
g65
(dp3725
g73
I3
ssg74
g3719
sg67
(lp3726
S''
asbasbasbag60
(g76
g62
NtRp3727
(dp3728
g65
(dp3729
sg74
g3583
sg67
(lp3730
g60
(g81
g62
NtRp3731
(dp3732
g65
(dp3733
g85
g86
ssg74
g3727
sg67
(lp3734
g434
asbag60
(g81
g62
NtRp3735
(dp3736
g65
(dp3737
g92
g93
ssg74
g3727
sg67
(lp3738
S':'
asbag60
(g81
g62
NtRp3739
(dp3740
g65
(dp3741
sg74
g3727
sg67
(lp3742
g60
(g61
g62
NtRp3743
(dp3744
g65
(dp3745
g73
I3
ssg74
g3739
sg67
(lp3746
S''
asbasbasbasbasbasbasbasbasbasbasbag60
(g76
g62
NtRp3747
(dp3748
g65
(dp3749
sg74
g3513
sg67
(lp3750
g60
(g81
g62
NtRp3751
(dp3752
g65
(dp3753
g85
g86
ssg74
g3747
sg67
(lp3754
S'files'
p3755
asbag60
(g81
g62
NtRp3756
(dp3757
g65
(dp3758
g92
g93
ssg74
g3747
sg67
(lp3759
S':'
asbag60
(g81
g62
NtRp3760
(dp3761
g65
(dp3762
sg74
g3747
sg67
(lp3763
g60
(g61
g62
NtRp3764
(dp3765
g65
(dp3766
g73
I5
ssg74
g3760
sg67
(lp3767
g60
(g69
g62
NtRp3768
(dp3769
g65
(dp3770
g73
I4
ssg74
Nsg67
(lp3771
sbasbasbasbag60
(g76
g62
NtRp3772
(dp3773
g65
(dp3774
sg74
g3513
sg67
(lp3775
g60
(g81
g62
NtRp3776
(dp3777
g65
(dp3778
g85
g86
ssg74
g3772
sg67
(lp3779
S'flash'
p3780
asbag60
(g81
g62
NtRp3781
(dp3782
g65
(dp3783
g92
g93
ssg74
g3772
sg67
(lp3784
S':'
asbag60
(g81
g62
NtRp3785
(dp3786
g65
(dp3787
sg74
g3772
sg67
(lp3788
g60
(g61
g62
NtRp3789
(dp3790
g65
(dp3791
g73
I5
ssg74
g3785
sg67
(lp3792
S''
asbasbasbag60
(g76
g62
NtRp3793
(dp3794
g65
(dp3795
sg74
g3513
sg67
(lp3796
g60
(g81
g62
NtRp3797
(dp3798
g65
(dp3799
g85
g86
ssg74
g3793
sg67
(lp3800
S'generic_patterns'
p3801
asbag60
(g81
g62
NtRp3802
(dp3803
g65
(dp3804
g92
g93
ssg74
g3793
sg67
(lp3805
S':'
asbag60
(g81
g62
NtRp3806
(dp3807
g65
(dp3808
sg74
g3793
sg67
(lp3809
g60
(g61
g62
NtRp3810
(dp3811
g65
(dp3812
g73
I5
ssg74
g3806
sg67
(lp3813
g60
(g69
g62
NtRp3814
(dp3815
g65
(dp3816
g73
I4
ssg74
Nsg67
(lp3817
g60
(g76
g62
NtRp3818
(dp3819
g65
(dp3820
sg74
g3814
sg67
(lp3821
g60
(g81
g62
NtRp3822
(dp3823
g65
(dp3824
sg74
g3818
sg67
(lp3825
g60
(g61
g62
NtRp3826
(dp3827
g65
(dp3828
g73
I4
ssg74
g3822
sg67
(lp3829
S'*'
asbasbasbasbasbasbasbag60
(g76
g62
NtRp3830
(dp3831
g65
(dp3832
sg74
g3513
sg67
(lp3833
g60
(g81
g62
NtRp3834
(dp3835
g65
(dp3836
g85
g86
ssg74
g3830
sg67
(lp3837
S'headers'
p3838
asbag60
(g81
g62
NtRp3839
(dp3840
g65
(dp3841
g92
g93
ssg74
g3830
sg67
(lp3842
S':'
asbag60
(g81
g62
NtRp3843
(dp3844
g65
(dp3845
sg74
g3830
sg67
(lp3846
g60
(g61
g62
NtRp3847
(dp3848
g65
(dp3849
g73
I5
ssg74
g3843
sg67
(lp3850
g60
(g69
g62
NtRp3851
(dp3852
g65
(dp3853
g73
I4
ssg74
Nsg67
(lp3854
g60
(g76
g62
NtRp3855
(dp3856
g65
(dp3857
sg74
g3851
sg67
(lp3858
g60
(g81
g62
NtRp3859
(dp3860
g65
(dp3861
g85
g86
ssg74
g3855
sg67
(lp3862
S'Cache-Control'
p3863
asbag60
(g81
g62
NtRp3864
(dp3865
g65
(dp3866
g92
g93
ssg74
g3855
sg67
(lp3867
S':'
asbag60
(g81
g62
NtRp3868
(dp3869
g65
(dp3870
sg74
g3855
sg67
(lp3871
g60
(g61
g62
NtRp3872
(dp3873
g65
(dp3874
g73
I4
ssg74
g3868
sg67
(lp3875
S'no-store, no-cache, must-revalidate, post-check=0, pre-check=0'
p3876
asbasbasbag60
(g76
g62
NtRp3877
(dp3878
g65
(dp3879
sg74
g3851
sg67
(lp3880
g60
(g81
g62
NtRp3881
(dp3882
g65
(dp3883
g85
g86
ssg74
g3877
sg67
(lp3884
S'Content-Type'
p3885
asbag60
(g81
g62
NtRp3886
(dp3887
g65
(dp3888
g92
g93
ssg74
g3877
sg67
(lp3889
S':'
asbag60
(g81
g62
NtRp3890
(dp3891
g65
(dp3892
sg74
g3877
sg67
(lp3893
g60
(g61
g62
NtRp3894
(dp3895
g65
(dp3896
g73
I4
ssg74
g3890
sg67
(lp3897
S'text/html; charset=utf-8'
p3898
asbasbasbag60
(g76
g62
NtRp3899
(dp3900
g65
(dp3901
sg74
g3851
sg67
(lp3902
g60
(g81
g62
NtRp3903
(dp3904
g65
(dp3905
g85
g86
ssg74
g3899
sg67
(lp3906
S'Expires'
p3907
asbag60
(g81
g62
NtRp3908
(dp3909
g65
(dp3910
g92
g93
ssg74
g3899
sg67
(lp3911
S':'
asbag60
(g81
g62
NtRp3912
(dp3913
g65
(dp3914
sg74
g3899
sg67
(lp3915
g60
(g61
g62
NtRp3916
(dp3917
g65
(dp3918
g73
I4
ssg74
g3912
sg67
(lp3919
S'Sat, 26 May 2012 07:34:50 GMT'
p3920
asbasbasbag60
(g76
g62
NtRp3921
(dp3922
g65
(dp3923
sg74
g3851
sg67
(lp3924
g60
(g81
g62
NtRp3925
(dp3926
g65
(dp3927
g85
g86
ssg74
g3921
sg67
(lp3928
S'Pragma'
p3929
asbag60
(g81
g62
NtRp3930
(dp3931
g65
(dp3932
g92
g93
ssg74
g3921
sg67
(lp3933
S':'
asbag60
(g81
g62
NtRp3934
(dp3935
g65
(dp3936
sg74
g3921
sg67
(lp3937
g60
(g61
g62
NtRp3938
(dp3939
g65
(dp3940
g73
I4
ssg74
g3934
sg67
(lp3941
S'no-cache'
p3942
asbasbasbag60
(g76
g62
NtRp3943
(dp3944
g65
(dp3945
sg74
g3851
sg67
(lp3946
g60
(g81
g62
NtRp3947
(dp3948
g65
(dp3949
g85
g86
ssg74
g3943
sg67
(lp3950
S'X-Powered-By'
p3951
asbag60
(g81
g62
NtRp3952
(dp3953
g65
(dp3954
g92
g93
ssg74
g3943
sg67
(lp3955
S':'
asbag60
(g81
g62
NtRp3956
(dp3957
g65
(dp3958
sg74
g3943
sg67
(lp3959
g60
(g61
g62
NtRp3960
(dp3961
g65
(dp3962
g73
I4
ssg74
g3956
sg67
(lp3963
S'web2py'
p3964
asbasbasbasbasbasbasbag60
(g76
g62
NtRp3965
(dp3966
g65
(dp3967
sg74
g3513
sg67
(lp3968
g60
(g81
g62
NtRp3969
(dp3970
g65
(dp3971
g85
g86
ssg74
g3965
sg67
(lp3972
S'menu'
p3973
asbag60
(g81
g62
NtRp3974
(dp3975
g65
(dp3976
g92
g93
ssg74
g3965
sg67
(lp3977
S':'
asbag60
(g81
g62
NtRp3978
(dp3979
g65
(dp3980
sg74
g3965
sg67
(lp3981
g60
(g61
g62
NtRp3982
(dp3983
g65
(dp3984
g73
I5
ssg74
g3978
sg67
(lp3985
g60
(g69
g62
NtRp3986
(dp3987
g65
(dp3988
g73
I4
ssg74
Nsg67
(lp3989
g60
(g76
g62
NtRp3990
(dp3991
g65
(dp3992
sg74
g3986
sg67
(lp3993
g60
(g81
g62
NtRp3994
(dp3995
g65
(dp3996
sg74
g3990
sg67
(lp3997
g60
(g61
g62
NtRp3998
(dp3999
g65
(dp4000
g73
I4
ssg74
g3994
sg67
(lp4001
g60
(g69
g62
NtRp4002
(dp4003
g65
(dp4004
g73
I3
ssg74
Nsg67
(lp4005
g60
(g76
g62
NtRp4006
(dp4007
g65
(dp4008
sg74
g4002
sg67
(lp4009
g60
(g81
g62
NtRp4010
(dp4011
g65
(dp4012
sg74
g4006
sg67
(lp4013
g60
(g61
g62
NtRp4014
(dp4015
g65
(dp4016
g73
I3
ssg74
g4010
sg67
(lp4017
cgluon.languages
lazyT_unpickle
p4018
(S's\n\x00\x00\x00Clear Page'
tRp4019
asbasbasbag60
(g76
g62
NtRp4020
(dp4021
g65
(dp4022
sg74
g4002
sg67
(lp4023
g60
(g81
g62
NtRp4024
(dp4025
g65
(dp4026
sg74
g4020
sg67
(lp4027
g60
(g61
g62
NtRp4028
(dp4029
g65
(dp4030
g73
I3
ssg74
g4024
sg67
(lp4031
g103
asbasbasbag60
(g76
g62
NtRp4032
(dp4033
g65
(dp4034
sg74
g4002
sg67
(lp4035
g60
(g81
g62
NtRp4036
(dp4037
g65
(dp4038
sg74
g4032
sg67
(lp4039
g60
(g61
g62
NtRp4040
(dp4041
g65
(dp4042
g73
I3
ssg74
g4036
sg67
(lp4043
S'/streamlog/default/index'
p4044
asbasbasbag60
(g76
g62
NtRp4045
(dp4046
g65
(dp4047
sg74
g4002
sg67
(lp4048
g60
(g81
g62
NtRp4049
(dp4050
g65
(dp4051
sg74
g4045
sg67
(lp4052
g60
(g61
g62
NtRp4053
(dp4054
g65
(dp4055
g73
I3
ssg74
g4049
sg67
(lp4056
g60
(g69
g62
NtRp4057
(dp4058
g65
(dp4059
g73
I2
ssg74
Nsg67
(lp4060
sbasbasbasbasbasbasbasbag60
(g76
g62
NtRp4061
(dp4062
g65
(dp4063
sg74
g3986
sg67
(lp4064
g60
(g81
g62
NtRp4065
(dp4066
g65
(dp4067
sg74
g4061
sg67
(lp4068
g60
(g61
g62
NtRp4069
(dp4070
g65
(dp4071
g73
I4
ssg74
g4065
sg67
(lp4072
g60
(g69
g62
NtRp4073
(dp4074
g65
(dp4075
g73
I3
ssg74
Nsg67
(lp4076
g60
(g76
g62
NtRp4077
(dp4078
g65
(dp4079
sg74
g4073
sg67
(lp4080
g60
(g81
g62
NtRp4081
(dp4082
g65
(dp4083
sg74
g4077
sg67
(lp4084
g60
(g61
g62
NtRp4085
(dp4086
g65
(dp4087
g73
I3
ssg74
g4081
sg67
(lp4088
g4018
(S's\x0e\x00\x00\x00Manage Servers'
tRp4089
asbasbasbag60
(g76
g62
NtRp4090
(dp4091
g65
(dp4092
sg74
g4073
sg67
(lp4093
g60
(g81
g62
NtRp4094
(dp4095
g65
(dp4096
sg74
g4090
sg67
(lp4097
g60
(g61
g62
NtRp4098
(dp4099
g65
(dp4100
g73
I3
ssg74
g4094
sg67
(lp4101
g103
asbasbasbag60
(g76
g62
NtRp4102
(dp4103
g65
(dp4104
sg74
g4073
sg67
(lp4105
g60
(g81
g62
NtRp4106
(dp4107
g65
(dp4108
sg74
g4102
sg67
(lp4109
g60
(g61
g62
NtRp4110
(dp4111
g65
(dp4112
g73
I3
ssg74
g4106
sg67
(lp4113
S'/streamlog/default/server_manage'
p4114
asbasbasbag60
(g76
g62
NtRp4115
(dp4116
g65
(dp4117
sg74
g4073
sg67
(lp4118
g60
(g81
g62
NtRp4119
(dp4120
g65
(dp4121
sg74
g4115
sg67
(lp4122
g60
(g61
g62
NtRp4123
(dp4124
g65
(dp4125
g73
I3
ssg74
g4119
sg67
(lp4126
g60
(g69
g62
NtRp4127
(dp4128
g65
(dp4129
g73
I2
ssg74
Nsg67
(lp4130
sbasbasbasbasbasbasbasbag60
(g76
g62
NtRp4131
(dp4132
g65
(dp4133
sg74
g3986
sg67
(lp4134
g60
(g81
g62
NtRp4135
(dp4136
g65
(dp4137
sg74
g4131
sg67
(lp4138
g60
(g61
g62
NtRp4139
(dp4140
g65
(dp4141
g73
I4
ssg74
g4135
sg67
(lp4142
g60
(g69
g62
NtRp4143
(dp4144
g65
(dp4145
g73
I3
ssg74
Nsg67
(lp4146
g60
(g76
g62
NtRp4147
(dp4148
g65
(dp4149
sg74
g4143
sg67
(lp4150
g60
(g81
g62
NtRp4151
(dp4152
g65
(dp4153
sg74
g4147
sg67
(lp4154
g60
(g61
g62
NtRp4155
(dp4156
g65
(dp4157
g73
I3
ssg74
g4151
sg67
(lp4158
g4018
(S's\x0b\x00\x00\x00Manage Logs'
tRp4159
asbasbasbag60
(g76
g62
NtRp4160
(dp4161
g65
(dp4162
sg74
g4143
sg67
(lp4163
g60
(g81
g62
NtRp4164
(dp4165
g65
(dp4166
sg74
g4160
sg67
(lp4167
g60
(g61
g62
NtRp4168
(dp4169
g65
(dp4170
g73
I3
ssg74
g4164
sg67
(lp4171
g103
asbasbasbag60
(g76
g62
NtRp4172
(dp4173
g65
(dp4174
sg74
g4143
sg67
(lp4175
g60
(g81
g62
NtRp4176
(dp4177
g65
(dp4178
sg74
g4172
sg67
(lp4179
g60
(g61
g62
NtRp4180
(dp4181
g65
(dp4182
g73
I3
ssg74
g4176
sg67
(lp4183
S'/streamlog/default/log_manage'
p4184
asbasbasbag60
(g76
g62
NtRp4185
(dp4186
g65
(dp4187
sg74
g4143
sg67
(lp4188
g60
(g81
g62
NtRp4189
(dp4190
g65
(dp4191
sg74
g4185
sg67
(lp4192
g60
(g61
g62
NtRp4193
(dp4194
g65
(dp4195
g73
I3
ssg74
g4189
sg67
(lp4196
g60
(g69
g62
NtRp4197
(dp4198
g65
(dp4199
g73
I2
ssg74
Nsg67
(lp4200
sbasbasbasbasbasbasbasbag60
(g76
g62
NtRp4201
(dp4202
g65
(dp4203
sg74
g3986
sg67
(lp4204
g60
(g81
g62
NtRp4205
(dp4206
g65
(dp4207
sg74
g4201
sg67
(lp4208
g60
(g61
g62
NtRp4209
(dp4210
g65
(dp4211
g73
I4
ssg74
g4205
sg67
(lp4212
g60
(g69
g62
NtRp4213
(dp4214
g65
(dp4215
g73
I3
ssg74
Nsg67
(lp4216
g60
(g76
g62
NtRp4217
(dp4218
g65
(dp4219
sg74
g4213
sg67
(lp4220
g60
(g81
g62
NtRp4221
(dp4222
g65
(dp4223
sg74
g4217
sg67
(lp4224
g60
(g61
g62
NtRp4225
(dp4226
g65
(dp4227
g73
I3
ssg74
g4221
sg67
(lp4228
g4018
(S's\x0f\x00\x00\x00Manage Projects'
tRp4229
asbasbasbag60
(g76
g62
NtRp4230
(dp4231
g65
(dp4232
sg74
g4213
sg67
(lp4233
g60
(g81
g62
NtRp4234
(dp4235
g65
(dp4236
sg74
g4230
sg67
(lp4237
g60
(g61
g62
NtRp4238
(dp4239
g65
(dp4240
g73
I3
ssg74
g4234
sg67
(lp4241
g103
asbasbasbag60
(g76
g62
NtRp4242
(dp4243
g65
(dp4244
sg74
g4213
sg67
(lp4245
g60
(g81
g62
NtRp4246
(dp4247
g65
(dp4248
sg74
g4242
sg67
(lp4249
g60
(g61
g62
NtRp4250
(dp4251
g65
(dp4252
g73
I3
ssg74
g4246
sg67
(lp4253
S'/streamlog/default/project_manage'
p4254
asbasbasbag60
(g76
g62
NtRp4255
(dp4256
g65
(dp4257
sg74
g4213
sg67
(lp4258
g60
(g81
g62
NtRp4259
(dp4260
g65
(dp4261
sg74
g4255
sg67
(lp4262
g60
(g61
g62
NtRp4263
(dp4264
g65
(dp4265
g73
I3
ssg74
g4259
sg67
(lp4266
g60
(g69
g62
NtRp4267
(dp4268
g65
(dp4269
g73
I2
ssg74
Nsg67
(lp4270
sbasbasbasbasbasbasbasbasbasbasbasbag60
(g76
g62
NtRp4271
(dp4272
g65
(dp4273
sg74
g3513
sg67
(lp4274
g60
(g81
g62
NtRp4275
(dp4276
g65
(dp4277
g85
g86
ssg74
g4271
sg67
(lp4278
S'meta'
p4279
asbag60
(g81
g62
NtRp4280
(dp4281
g65
(dp4282
g92
g93
ssg74
g4271
sg67
(lp4283
S':'
asbag60
(g81
g62
NtRp4284
(dp4285
g65
(dp4286
sg74
g4271
sg67
(lp4287
g60
(g61
g62
NtRp4288
(dp4289
g65
(dp4290
g73
I5
ssg74
g4284
sg67
(lp4291
g60
(g69
g62
NtRp4292
(dp4293
g65
(dp4294
g73
I4
ssg74
Nsg67
(lp4295
g60
(g76
g62
NtRp4296
(dp4297
g65
(dp4298
sg74
g4292
sg67
(lp4299
g60
(g81
g62
NtRp4300
(dp4301
g65
(dp4302
g85
g86
ssg74
g4296
sg67
(lp4303
S'author'
p4304
asbag60
(g81
g62
NtRp4305
(dp4306
g65
(dp4307
g92
g93
ssg74
g4296
sg67
(lp4308
S':'
asbag60
(g81
g62
NtRp4309
(dp4310
g65
(dp4311
sg74
g4296
sg67
(lp4312
g60
(g61
g62
NtRp4313
(dp4314
g65
(dp4315
g73
I4
ssg74
g4309
sg67
(lp4316
S'Jose de Soto <josedesoto@gmail.com>'
p4317
asbasbasbag60
(g76
g62
NtRp4318
(dp4319
g65
(dp4320
sg74
g4292
sg67
(lp4321
g60
(g81
g62
NtRp4322
(dp4323
g65
(dp4324
g85
g86
ssg74
g4318
sg67
(lp4325
S'copyright'
p4326
asbag60
(g81
g62
NtRp4327
(dp4328
g65
(dp4329
g92
g93
ssg74
g4318
sg67
(lp4330
S':'
asbag60
(g81
g62
NtRp4331
(dp4332
g65
(dp4333
sg74
g4318
sg67
(lp4334
g60
(g61
g62
NtRp4335
(dp4336
g65
(dp4337
g73
I4
ssg74
g4331
sg67
(lp4338
S'Copyright 2011'
p4339
asbasbasbag60
(g76
g62
NtRp4340
(dp4341
g65
(dp4342
sg74
g4292
sg67
(lp4343
g60
(g81
g62
NtRp4344
(dp4345
g65
(dp4346
g85
g86
ssg74
g4340
sg67
(lp4347
S'description'
p4348
asbag60
(g81
g62
NtRp4349
(dp4350
g65
(dp4351
g92
g93
ssg74
g4340
sg67
(lp4352
S':'
asbag60
(g81
g62
NtRp4353
(dp4354
g65
(dp4355
sg74
g4340
sg67
(lp4356
g60
(g61
g62
NtRp4357
(dp4358
g65
(dp4359
g73
I4
ssg74
g4353
sg67
(lp4360
S'a cool new app'
p4361
asbasbasbag60
(g76
g62
NtRp4362
(dp4363
g65
(dp4364
sg74
g4292
sg67
(lp4365
g60
(g81
g62
NtRp4366
(dp4367
g65
(dp4368
g85
g86
ssg74
g4362
sg67
(lp4369
S'generator'
p4370
asbag60
(g81
g62
NtRp4371
(dp4372
g65
(dp4373
g92
g93
ssg74
g4362
sg67
(lp4374
S':'
asbag60
(g81
g62
NtRp4375
(dp4376
g65
(dp4377
sg74
g4362
sg67
(lp4378
g60
(g61
g62
NtRp4379
(dp4380
g65
(dp4381
g73
I4
ssg74
g4375
sg67
(lp4382
S'Web2py Web Framework'
p4383
asbasbasbag60
(g76
g62
NtRp4384
(dp4385
g65
(dp4386
sg74
g4292
sg67
(lp4387
g60
(g81
g62
NtRp4388
(dp4389
g65
(dp4390
g85
g86
ssg74
g4384
sg67
(lp4391
S'keywords'
p4392
asbag60
(g81
g62
NtRp4393
(dp4394
g65
(dp4395
g92
g93
ssg74
g4384
sg67
(lp4396
S':'
asbag60
(g81
g62
NtRp4397
(dp4398
g65
(dp4399
sg74
g4384
sg67
(lp4400
g60
(g61
g62
NtRp4401
(dp4402
g65
(dp4403
g73
I4
ssg74
g4397
sg67
(lp4404
S'web2py, python, framework'
p4405
asbasbasbasbasbasbasbag60
(g76
g62
NtRp4406
(dp4407
g65
(dp4408
sg74
g3513
sg67
(lp4409
g60
(g81
g62
NtRp4410
(dp4411
g65
(dp4412
g85
g86
ssg74
g4406
sg67
(lp4413
S'postprocessing'
p4414
asbag60
(g81
g62
NtRp4415
(dp4416
g65
(dp4417
g92
g93
ssg74
g4406
sg67
(lp4418
S':'
asbag60
(g81
g62
NtRp4419
(dp4420
g65
(dp4421
sg74
g4406
sg67
(lp4422
g60
(g61
g62
NtRp4423
(dp4424
g65
(dp4425
g73
I5
ssg74
g4419
sg67
(lp4426
g60
(g69
g62
NtRp4427
(dp4428
g65
(dp4429
g73
I4
ssg74
Nsg67
(lp4430
sbasbasbasbag60
(g76
g62
NtRp4431
(dp4432
g65
(dp4433
sg74
g3513
sg67
(lp4434
g60
(g81
g62
NtRp4435
(dp4436
g65
(dp4437
g85
g86
ssg74
g4431
sg67
(lp4438
S'session_file'
p4439
asbag60
(g81
g62
NtRp4440
(dp4441
g65
(dp4442
g92
g93
ssg74
g4431
sg67
(lp4443
S':'
asbag60
(g81
g62
NtRp4444
(dp4445
g65
(dp4446
sg74
g4431
sg67
(lp4447
g60
(g61
g62
NtRp4448
(dp4449
g65
(dp4450
g73
I5
ssg74
g4444
sg67
(lp4451
S"<open file '/home/jose/DESARROLLO/web2py199/applications/streamlog/sessions/127.0.0.1-610b0c7d-3f6f-4500-a76a-b095fb30f7fd', mode 'rb+' at 0x2a4c660>"
p4452
asbasbasbag60
(g76
g62
NtRp4453
(dp4454
g65
(dp4455
sg74
g3513
sg67
(lp4456
g60
(g81
g62
NtRp4457
(dp4458
g65
(dp4459
g85
g86
ssg74
g4453
sg67
(lp4460
S'session_filename'
p4461
asbag60
(g81
g62
NtRp4462
(dp4463
g65
(dp4464
g92
g93
ssg74
g4453
sg67
(lp4465
S':'
asbag60
(g81
g62
NtRp4466
(dp4467
g65
(dp4468
sg74
g4453
sg67
(lp4469
g60
(g61
g62
NtRp4470
(dp4471
g65
(dp4472
g73
I5
ssg74
g4466
sg67
(lp4473
S'/home/jose/DESARROLLO/web2py199/applications/streamlog/sessions/127.0.0.1-610b0c7d-3f6f-4500-a76a-b095fb30f7fd'
p4474
asbasbasbag60
(g76
g62
NtRp4475
(dp4476
g65
(dp4477
sg74
g3513
sg67
(lp4478
g60
(g81
g62
NtRp4479
(dp4480
g65
(dp4481
g85
g86
ssg74
g4475
sg67
(lp4482
S'session_id'
p4483
asbag60
(g81
g62
NtRp4484
(dp4485
g65
(dp4486
g92
g93
ssg74
g4475
sg67
(lp4487
S':'
asbag60
(g81
g62
NtRp4488
(dp4489
g65
(dp4490
sg74
g4475
sg67
(lp4491
g60
(g61
g62
NtRp4492
(dp4493
g65
(dp4494
g73
I5
ssg74
g4488
sg67
(lp4495
S'127.0.0.1-610b0c7d-3f6f-4500-a76a-b095fb30f7fd'
p4496
asbasbasbag60
(g76
g62
NtRp4497
(dp4498
g65
(dp4499
sg74
g3513
sg67
(lp4500
g60
(g81
g62
NtRp4501
(dp4502
g65
(dp4503
g85
g86
ssg74
g4497
sg67
(lp4504
S'session_id_name'
p4505
asbag60
(g81
g62
NtRp4506
(dp4507
g65
(dp4508
g92
g93
ssg74
g4497
sg67
(lp4509
S':'
asbag60
(g81
g62
NtRp4510
(dp4511
g65
(dp4512
sg74
g4497
sg67
(lp4513
g60
(g61
g62
NtRp4514
(dp4515
g65
(dp4516
g73
I5
ssg74
g4510
sg67
(lp4517
g3570
asbasbasbag60
(g76
g62
NtRp4518
(dp4519
g65
(dp4520
sg74
g3513
sg67
(lp4521
g60
(g81
g62
NtRp4522
(dp4523
g65
(dp4524
g85
g86
ssg74
g4518
sg67
(lp4525
S'session_locked'
p4526
asbag60
(g81
g62
NtRp4527
(dp4528
g65
(dp4529
g92
g93
ssg74
g4518
sg67
(lp4530
S':'
asbag60
(g81
g62
NtRp4531
(dp4532
g65
(dp4533
sg74
g4518
sg67
(lp4534
g60
(g61
g62
NtRp4535
(dp4536
g65
(dp4537
g73
I5
ssg74
g4531
sg67
(lp4538
g1651
asbasbasbag60
(g76
g62
NtRp4539
(dp4540
g65
(dp4541
sg74
g3513
sg67
(lp4542
g60
(g81
g62
NtRp4543
(dp4544
g65
(dp4545
g85
g86
ssg74
g4539
sg67
(lp4546
S'session_new'
p4547
asbag60
(g81
g62
NtRp4548
(dp4549
g65
(dp4550
g92
g93
ssg74
g4539
sg67
(lp4551
S':'
asbag60
(g81
g62
NtRp4552
(dp4553
g65
(dp4554
sg74
g4539
sg67
(lp4555
g60
(g61
g62
NtRp4556
(dp4557
g65
(dp4558
g73
I5
ssg74
g4552
sg67
(lp4559
g103
asbasbasbag60
(g76
g62
NtRp4560
(dp4561
g65
(dp4562
sg74
g3513
sg67
(lp4563
g60
(g81
g62
NtRp4564
(dp4565
g65
(dp4566
g85
g86
ssg74
g4560
sg67
(lp4567
S'status'
p4568
asbag60
(g81
g62
NtRp4569
(dp4570
g65
(dp4571
g92
g93
ssg74
g4560
sg67
(lp4572
S':'
asbag60
(g81
g62
NtRp4573
(dp4574
g65
(dp4575
sg74
g4560
sg67
(lp4576
g60
(g61
g62
NtRp4577
(dp4578
g65
(dp4579
g73
I5
ssg74
g4573
sg67
(lp4580
S'200'
p4581
asbasbasbag60
(g76
g62
NtRp4582
(dp4583
g65
(dp4584
sg74
g3513
sg67
(lp4585
g60
(g81
g62
NtRp4586
(dp4587
g65
(dp4588
g85
g86
ssg74
g4582
sg67
(lp4589
S'subtitle'
p4590
asbag60
(g81
g62
NtRp4591
(dp4592
g65
(dp4593
g92
g93
ssg74
g4582
sg67
(lp4594
S':'
asbag60
(g81
g62
NtRp4595
(dp4596
g65
(dp4597
sg74
g4582
sg67
(lp4598
g60
(g61
g62
NtRp4599
(dp4600
g65
(dp4601
g73
I5
ssg74
g4595
sg67
(lp4602
g4018
(S's\x12\x00\x00\x00Stream Log Client!'
tRp4603
asbasbasbag60
(g76
g62
NtRp4604
(dp4605
g65
(dp4606
sg74
g3513
sg67
(lp4607
g60
(g81
g62
NtRp4608
(dp4609
g65
(dp4610
g85
g86
ssg74
g4604
sg67
(lp4611
S'title'
p4612
asbag60
(g81
g62
NtRp4613
(dp4614
g65
(dp4615
g92
g93
ssg74
g4604
sg67
(lp4616
S':'
asbag60
(g81
g62
NtRp4617
(dp4618
g65
(dp4619
sg74
g4604
sg67
(lp4620
g60
(g61
g62
NtRp4621
(dp4622
g65
(dp4623
g73
I5
ssg74
g4617
sg67
(lp4624
g125
asbasbasbag60
(g76
g62
NtRp4625
(dp4626
g65
(dp4627
sg74
g3513
sg67
(lp4628
g60
(g81
g62
NtRp4629
(dp4630
g65
(dp4631
g85
g86
ssg74
g4625
sg67
(lp4632
g2295
asbag60
(g81
g62
NtRp4633
(dp4634
g65
(dp4635
g92
g93
ssg74
g4625
sg67
(lp4636
S':'
asbag60
(g81
g62
NtRp4637
(dp4638
g65
(dp4639
sg74
g4625
sg67
(lp4640
g60
(g61
g62
NtRp4641
(dp4642
g65
(dp4643
g73
I5
ssg74
g4637
sg67
(lp4644
g2308
asbasbasbag60
(g76
g62
NtRp4645
(dp4646
g65
(dp4647
sg74
g3513
sg67
(lp4648
g60
(g81
g62
NtRp4649
(dp4650
g65
(dp4651
g85
g86
ssg74
g4645
sg67
(lp4652
S'view'
p4653
asbag60
(g81
g62
NtRp4654
(dp4655
g65
(dp4656
g92
g93
ssg74
g4645
sg67
(lp4657
S':'
asbag60
(g81
g62
NtRp4658
(dp4659
g65
(dp4660
sg74
g4645
sg67
(lp4661
g60
(g61
g62
NtRp4662
(dp4663
g65
(dp4664
g73
I5
ssg74
g4658
sg67
(lp4665
S'default/server_manage.html'
p4666
asbasbasbasbasbsS'locals'
p4667
(dp4668
S'a'
S"('SELECT  t_server.id, t_server.project, t_server....id > 0) AND <gluon.dal.Set object at 0x2944810>);',)"
p4669
sS'self'
p4670
S'<gluon.dal.SQLiteAdapter object>'
p4671
sS'b'
g20
sS't0'
p4672
S'1338017690.271725'
p4673
sssS'traceback'
p4674
S'Traceback (most recent call last):\n  File "/home/jose/DESARROLLO/web2py199/gluon/restricted.py", line 194, in restricted\n    exec ccode in environment\n  File "/home/jose/DESARROLLO/web2py199/applications/streamlog/controllers/default.py", line 170, in <module>\n  File "/home/jose/DESARROLLO/web2py199/gluon/globals.py", line 149, in <lambda>\n    self._caller = lambda f: f()\n  File "/home/jose/DESARROLLO/web2py199/applications/streamlog/controllers/default.py", line 103, in server_manage\n    form = SQLFORM.smartgrid(db.t_server,constraints=dict(t_server=query))\n  File "/home/jose/DESARROLLO/web2py199/gluon/sqlhtml.py", line 1821, in smartgrid\n    user_signature=user_signature,**kwargs)\n  File "/home/jose/DESARROLLO/web2py199/gluon/sqlhtml.py", line 1640, in grid\n    rows = dbset.select(left=left,orderby=orderby,limitby=limitby,*fields)\n  File "/home/jose/DESARROLLO/web2py199/gluon/dal.py", line 5697, in select\n    return self.db._adapter.select(self.query,fields,attributes)\n  File "/home/jose/DESARROLLO/web2py199/gluon/dal.py", line 1233, in select\n    rows = response(sql)\n  File "/home/jose/DESARROLLO/web2py199/gluon/dal.py", line 1223, in response\n    self.execute(sql)\n  File "/home/jose/DESARROLLO/web2py199/gluon/dal.py", line 1309, in execute\n    return self.log_execute(*a, **b)\n  File "/home/jose/DESARROLLO/web2py199/gluon/dal.py", line 1304, in log_execute\n    ret = self.cursor.execute(*a,**b)\nOperationalError: near "<": syntax error\n'
p4675
s.