(dp1
S'output'
p2
S''
sS'layer'
p3
S'/home/jose/DESARROLLO/web2py199/applications/streamlog/controllers/default.py'
p4
sS'code'
p5
S'# -*- coding: utf-8 -*-\n# this file is released under public domain and you can use without limitations\n\n#########################################################################\n## This is a samples controller\n## - index is the default action of any application\n## - user is required for authentication and authorization\n## - download is for downloading files uploaded in the db (does streaming)\n## - call exposes all registered services (none by default)\n#########################################################################\n\n\n\ndef index():\n    """\n    example action using the internationalization operator T and flash\n    rendered by views/default/index.html or views/generic.html\n    """\n    db.t_log.id.readable=False\n    db.t_log.server.readable=False\n    \n    db.t_log.type_log.readable=False\n    links = [lambda row:  INPUT(_type=\'button\',_value=\'Load Table\', _onclick=\'loadTable(\'+str(row.id)+\')\')]\n    links += [lambda row:  INPUT(_type=\'button\',_value=\'START STREAM\', _onclick=\'createStream(\'+str(row.id)+\')\')]\n    form=SQLFORM.grid(db.t_log, selectable=False, csv=False,create=False, deletable=False, editable=False, links=links, user_signature=False)\n    return dict(message=T(\'Hello World2\'), form=form)\n\n\ndef getConnectionData():\n    \n    id_log=request.args[0]\n    ip=\'\'\n    port=\'\'\n    name_log=\'\'\n    \n    data_connection=db((db.t_log.id==id_log)&(db.t_log.server==db.t_server.id)).select(db.t_log.name,db.t_server.IP,db.t_server.port)\n  \n    for row in data_connection:\n        ip=row.t_server.IP\n        port=row.t_server.port\n        name_log=row.t_log.name\n        \n    \n    regex=db((db.t_log.id==id_log)&(db.t_log.type_log==db.t_type_log.id)).select()\n    \n    regex_code=\'\'\n    for row in regex:\n        regex_code=row.t_type_log.regex_code\n    \n    return response.json([{\'name_log\': name_log,\'IP\': ip,\'port\': port,\'regex\': regex_code}])\n\ndef choose_log():\n    """\n    example action using the internationalization operator T and flash\n    rendered by views/default/index.html or views/generic.html\n    """\n    \n    \n    return dict(message="log")\n\n\ndef getTypeTable():\n    """\n    example action using the internationalization operator T and flash\n    rendered by views/default/index.html or views/generic.html\n    """\n    table=\'\'\n    id_log=request.args[0]\n    type_table=db((db.t_log.id==id_log)&(db.t_log.type_log==db.t_type_log.id)).select(db.t_type_log.html_table)\n    for row in type_table:\n        table=row.html_table\n        \n    \'\'\'\n    table=\'<table cellpadding="0" cellspacing="0" border="0" class="display" id="tablelog"> \\\n    <thead> \\\n        <tr> \\\n            <th>IP</th> \\\n            <th>hyphen</th> \\\n            <th>userid</th> \\\n            <th>Time Request</th> \\\n        <th>Request Time</th> \\\n        <th>Status Code</th> \\\n        <th>Size Object</th> \\\n        </tr>\\\n    </thead> \\\n    <tfoot> \\\n        <tr> \\\n            <th>IP</th> \\\n            <th>hyphen</th> \\\n            <th>userid</th>\\\n            <th>Time Request</th> \\\n        <th>Request Time</th> \\\n        <th>Status Code</th> \\\n        <th>Size Object</th> \\\n        </tr>  \\\n    </tfoot>  \\\n        <tbody> \\\n        </tbody> \\\n    </table>\'\n    \'\'\'\n    \n    return table\n\n\ndef user():\n    """\n    exposes:\n    http://..../[app]/default/user/login\n    http://..../[app]/default/user/logout\n    http://..../[app]/default/user/register\n    http://..../[app]/default/user/profile\n    http://..../[app]/default/user/retrieve_password\n    http://..../[app]/default/user/change_password\n    use @auth.requires_login()\n        @auth.requires_membership(\'group name\')\n        @auth.requires_permission(\'read\',\'table name\',record_id)\n    to decorate functions that need access control\n    """\n    return dict(form=auth())\n\ndef error():\n    return dict()\n\n\ndef project_manage():\n    \n    form = SQLFORM.smartgrid(db.t_project)\n    return locals()\n\n\n\ndef server_manage():\n\n    form=SQLFORM.grid(db.t_server)\n    return locals()\n\ndef log_manage():\n \n    #form = SQLFORM.smartgrid(db.t_log,constraints=dict(t_log=query), selectable=True,searchable=False, csv=False,showbuttontext=True,onupdate=auth.archive)\n    #form = SQLFORM.smartgrid(db.t_log)\n    form=SQLFORM.grid(db.t_log)\n    return locals()\n\ndef type_log_manage():\n\n    form=SQLFORM.grid(db.t_type_log)\n    return locals()\n\ndef download():\n    """\n    allows downloading of uploaded files\n    http://..../[app]/default/download/[filename]\n    """\n    return response.download(request,db)\n\n\ndef call():\n    """\n    exposes services. for example:\n    http://..../[app]/default/call/jsonrpc\n    decorate with @services.jsonrpc the functions to expose\n    supports xml, json, xmlrpc, jsonrpc, amfrpc, rss, csv\n    """\n    return service()\n\n\n@auth.requires_signature()\ndef data():\n    """\n    http://..../[app]/default/data/tables\n    http://..../[app]/default/data/create/[table]\n    http://..../[app]/default/data/read/[table]/[id]\n    http://..../[app]/default/data/update/[table]/[id]\n    http://..../[app]/default/data/delete/[table]/[id]\n    http://..../[app]/default/data/select/[table]\n    http://..../[app]/default/data/search/[table]\n    but URLs bust be signed, i.e. linked with\n      A(\'table\',_href=URL(\'data/tables\',user_signature=True))\n    or with the signed load operator\n      LOAD(\'default\',\'data.load\',args=\'tables\',ajax=True,user_signature=True)\n    """\n    return dict(form=crud())\n\nresponse._vars=response._caller(type_log_manage)\n'
p6
sS'snapshot'
p7
(dp8
S'exception'
p9
(dp10
S'__module__'
p11
S"'sqlite3'"
p12
sS'__getslice__'
p13
S"<method-wrapper '__getslice__' of OperationalError object>"
p14
sS'__str__'
p15
S"<method-wrapper '__str__' of OperationalError object>"
p16
sS'__reduce__'
p17
S'<built-in method __reduce__ of OperationalError object>'
p18
sS'__dict__'
p19
S'{}'
p20
sS'__sizeof__'
p21
S'<built-in method __sizeof__ of OperationalError object>'
p22
sS'__weakref__'
p23
S'None'
p24
sS'__init__'
p25
S"<method-wrapper '__init__' of OperationalError object>"
p26
sS'__setattr__'
p27
S"<method-wrapper '__setattr__' of OperationalError object>"
p28
sS'__reduce_ex__'
p29
S'<built-in method __reduce_ex__ of OperationalError object>'
p30
sS'__new__'
p31
S'<built-in method __new__ of type object>'
p32
sS'__format__'
p33
S'<built-in method __format__ of OperationalError object>'
p34
sS'__class__'
p35
S"<class 'sqlite3.OperationalError'>"
p36
sS'__doc__'
p37
S'None'
p38
sS'__getitem__'
p39
S"<method-wrapper '__getitem__' of OperationalError object>"
p40
sS'__setstate__'
p41
S'<built-in method __setstate__ of OperationalError object>'
p42
sS'__getattribute__'
p43
S"<method-wrapper '__getattribute__' of OperationalError object>"
p44
sS'args'
p45
S"('no such table: t_type_log',)"
p46
sS'__subclasshook__'
p47
S'<built-in method __subclasshook__ of type object>'
p48
sS'__unicode__'
p49
S'<built-in method __unicode__ of OperationalError object>'
p50
sS'__delattr__'
p51
S"<method-wrapper '__delattr__' of OperationalError object>"
p52
sS'__repr__'
p53
S"<method-wrapper '__repr__' of OperationalError object>"
p54
sS'__hash__'
p55
S"<method-wrapper '__hash__' of OperationalError object>"
p56
ssS'evalue'
p57
S'no such table: t_type_log'
p58
sS'request'
p59
ccopy_reg
_reconstructor
p60
(cgluon.html
BEAUTIFY
p61
c__builtin__
object
p62
NtRp63
(dp64
S'attributes'
p65
(dp66
sS'components'
p67
(lp68
g60
(cgluon.html
TABLE
p69
g62
NtRp70
(dp71
g65
(dp72
S'level'
p73
I5
ssS'parent'
p74
Nsg67
(lp75
g60
(cgluon.html
TR
p76
g62
NtRp77
(dp78
g65
(dp79
sg74
g70
sg67
(lp80
g60
(cgluon.html
TD
p81
g62
NtRp82
(dp83
g65
(dp84
S'_style'
p85
S'font-weight:bold;'
p86
ssg74
g77
sg67
(lp87
S'ajax'
p88
asbag60
(g81
g62
NtRp89
(dp90
g65
(dp91
S'_valign'
p92
S'top'
p93
ssg74
g77
sg67
(lp94
S':'
asbag60
(g81
g62
NtRp95
(dp96
g65
(dp97
sg74
g77
sg67
(lp98
g60
(g61
g62
NtRp99
(dp100
g65
(dp101
g73
I5
ssg74
g95
sg67
(lp102
S'False'
p103
asbasbasbag60
(g76
g62
NtRp104
(dp105
g65
(dp106
sg74
g70
sg67
(lp107
g60
(g81
g62
NtRp108
(dp109
g65
(dp110
g85
g86
ssg74
g104
sg67
(lp111
S'application'
p112
asbag60
(g81
g62
NtRp113
(dp114
g65
(dp115
g92
g93
ssg74
g104
sg67
(lp116
S':'
asbag60
(g81
g62
NtRp117
(dp118
g65
(dp119
sg74
g104
sg67
(lp120
g60
(g61
g62
NtRp121
(dp122
g65
(dp123
g73
I5
ssg74
g117
sg67
(lp124
S'streamlog'
p125
asbasbasbag60
(g76
g62
NtRp126
(dp127
g65
(dp128
sg74
g70
sg67
(lp129
g60
(g81
g62
NtRp130
(dp131
g65
(dp132
g85
g86
ssg74
g126
sg67
(lp133
g45
asbag60
(g81
g62
NtRp134
(dp135
g65
(dp136
g92
g93
ssg74
g126
sg67
(lp137
S':'
asbag60
(g81
g62
NtRp138
(dp139
g65
(dp140
sg74
g126
sg67
(lp141
g60
(g61
g62
NtRp142
(dp143
g65
(dp144
g73
I5
ssg74
g138
sg67
(lp145
g60
(g69
g62
NtRp146
(dp147
g65
(dp148
g73
I4
ssg74
Nsg67
(lp149
sbasbasbasbag60
(g76
g62
NtRp150
(dp151
g65
(dp152
sg74
g70
sg67
(lp153
g60
(g81
g62
NtRp154
(dp155
g65
(dp156
g85
g86
ssg74
g150
sg67
(lp157
S'body'
p158
asbag60
(g81
g62
NtRp159
(dp160
g65
(dp161
g92
g93
ssg74
g150
sg67
(lp162
S':'
asbag60
(g81
g62
NtRp163
(dp164
g65
(dp165
sg74
g150
sg67
(lp166
g60
(g61
g62
NtRp167
(dp168
g65
(dp169
g73
I5
ssg74
g163
sg67
(lp170
S'<cStringIO.StringO object at 0x3b0b030>'
p171
asbasbasbag60
(g76
g62
NtRp172
(dp173
g65
(dp174
sg74
g70
sg67
(lp175
g60
(g81
g62
NtRp176
(dp177
g65
(dp178
g85
g86
ssg74
g172
sg67
(lp179
S'client'
p180
asbag60
(g81
g62
NtRp181
(dp182
g65
(dp183
g92
g93
ssg74
g172
sg67
(lp184
S':'
asbag60
(g81
g62
NtRp185
(dp186
g65
(dp187
sg74
g172
sg67
(lp188
g60
(g61
g62
NtRp189
(dp190
g65
(dp191
g73
I5
ssg74
g185
sg67
(lp192
S'127.0.0.1'
p193
asbasbasbag60
(g76
g62
NtRp194
(dp195
g65
(dp196
sg74
g70
sg67
(lp197
g60
(g81
g62
NtRp198
(dp199
g65
(dp200
g85
g86
ssg74
g194
sg67
(lp201
S'controller'
p202
asbag60
(g81
g62
NtRp203
(dp204
g65
(dp205
g92
g93
ssg74
g194
sg67
(lp206
S':'
asbag60
(g81
g62
NtRp207
(dp208
g65
(dp209
sg74
g194
sg67
(lp210
g60
(g61
g62
NtRp211
(dp212
g65
(dp213
g73
I5
ssg74
g207
sg67
(lp214
S'default'
p215
asbasbasbag60
(g76
g62
NtRp216
(dp217
g65
(dp218
sg74
g70
sg67
(lp219
g60
(g81
g62
NtRp220
(dp221
g65
(dp222
g85
g86
ssg74
g216
sg67
(lp223
S'cookies'
p224
asbag60
(g81
g62
NtRp225
(dp226
g65
(dp227
g92
g93
ssg74
g216
sg67
(lp228
S':'
asbag60
(g81
g62
NtRp229
(dp230
g65
(dp231
sg74
g216
sg67
(lp232
g60
(g61
g62
NtRp233
(dp234
g65
(dp235
g73
I5
ssg74
g229
sg67
(lp236
g60
(g69
g62
NtRp237
(dp238
g65
(dp239
g73
I4
ssg74
Nsg67
(lp240
g60
(g76
g62
NtRp241
(dp242
g65
(dp243
sg74
g237
sg67
(lp244
g60
(g81
g62
NtRp245
(dp246
g65
(dp247
g85
g86
ssg74
g241
sg67
(lp248
S'session_id_admin'
p249
asbag60
(g81
g62
NtRp250
(dp251
g65
(dp252
g92
g93
ssg74
g241
sg67
(lp253
S':'
asbag60
(g81
g62
NtRp254
(dp255
g65
(dp256
sg74
g241
sg67
(lp257
g60
(g61
g62
NtRp258
(dp259
g65
(dp260
g73
I4
ssg74
g254
sg67
(lp261
g60
(g69
g62
NtRp262
(dp263
g65
(dp264
g73
I3
ssg74
Nsg67
(lp265
g60
(g76
g62
NtRp266
(dp267
g65
(dp268
sg74
g262
sg67
(lp269
g60
(g81
g62
NtRp270
(dp271
g65
(dp272
g85
g86
ssg74
g266
sg67
(lp273
S'comment'
p274
asbag60
(g81
g62
NtRp275
(dp276
g65
(dp277
g92
g93
ssg74
g266
sg67
(lp278
S':'
asbag60
(g81
g62
NtRp279
(dp280
g65
(dp281
sg74
g266
sg67
(lp282
g60
(g61
g62
NtRp283
(dp284
g65
(dp285
g73
I3
ssg74
g279
sg67
(lp286
S''
asbasbasbag60
(g76
g62
NtRp287
(dp288
g65
(dp289
sg74
g262
sg67
(lp290
g60
(g81
g62
NtRp291
(dp292
g65
(dp293
g85
g86
ssg74
g287
sg67
(lp294
S'domain'
p295
asbag60
(g81
g62
NtRp296
(dp297
g65
(dp298
g92
g93
ssg74
g287
sg67
(lp299
S':'
asbag60
(g81
g62
NtRp300
(dp301
g65
(dp302
sg74
g287
sg67
(lp303
g60
(g61
g62
NtRp304
(dp305
g65
(dp306
g73
I3
ssg74
g300
sg67
(lp307
S''
asbasbasbag60
(g76
g62
NtRp308
(dp309
g65
(dp310
sg74
g262
sg67
(lp311
g60
(g81
g62
NtRp312
(dp313
g65
(dp314
g85
g86
ssg74
g308
sg67
(lp315
S'expires'
p316
asbag60
(g81
g62
NtRp317
(dp318
g65
(dp319
g92
g93
ssg74
g308
sg67
(lp320
S':'
asbag60
(g81
g62
NtRp321
(dp322
g65
(dp323
sg74
g308
sg67
(lp324
g60
(g61
g62
NtRp325
(dp326
g65
(dp327
g73
I3
ssg74
g321
sg67
(lp328
S''
asbasbasbag60
(g76
g62
NtRp329
(dp330
g65
(dp331
sg74
g262
sg67
(lp332
g60
(g81
g62
NtRp333
(dp334
g65
(dp335
g85
g86
ssg74
g329
sg67
(lp336
S'httponly'
p337
asbag60
(g81
g62
NtRp338
(dp339
g65
(dp340
g92
g93
ssg74
g329
sg67
(lp341
S':'
asbag60
(g81
g62
NtRp342
(dp343
g65
(dp344
sg74
g329
sg67
(lp345
g60
(g61
g62
NtRp346
(dp347
g65
(dp348
g73
I3
ssg74
g342
sg67
(lp349
S''
asbasbasbag60
(g76
g62
NtRp350
(dp351
g65
(dp352
sg74
g262
sg67
(lp353
g60
(g81
g62
NtRp354
(dp355
g65
(dp356
g85
g86
ssg74
g350
sg67
(lp357
S'max-age'
p358
asbag60
(g81
g62
NtRp359
(dp360
g65
(dp361
g92
g93
ssg74
g350
sg67
(lp362
S':'
asbag60
(g81
g62
NtRp363
(dp364
g65
(dp365
sg74
g350
sg67
(lp366
g60
(g61
g62
NtRp367
(dp368
g65
(dp369
g73
I3
ssg74
g363
sg67
(lp370
S''
asbasbasbag60
(g76
g62
NtRp371
(dp372
g65
(dp373
sg74
g262
sg67
(lp374
g60
(g81
g62
NtRp375
(dp376
g65
(dp377
g85
g86
ssg74
g371
sg67
(lp378
S'path'
p379
asbag60
(g81
g62
NtRp380
(dp381
g65
(dp382
g92
g93
ssg74
g371
sg67
(lp383
S':'
asbag60
(g81
g62
NtRp384
(dp385
g65
(dp386
sg74
g371
sg67
(lp387
g60
(g61
g62
NtRp388
(dp389
g65
(dp390
g73
I3
ssg74
g384
sg67
(lp391
S''
asbasbasbag60
(g76
g62
NtRp392
(dp393
g65
(dp394
sg74
g262
sg67
(lp395
g60
(g81
g62
NtRp396
(dp397
g65
(dp398
g85
g86
ssg74
g392
sg67
(lp399
S'secure'
p400
asbag60
(g81
g62
NtRp401
(dp402
g65
(dp403
g92
g93
ssg74
g392
sg67
(lp404
S':'
asbag60
(g81
g62
NtRp405
(dp406
g65
(dp407
sg74
g392
sg67
(lp408
g60
(g61
g62
NtRp409
(dp410
g65
(dp411
g73
I3
ssg74
g405
sg67
(lp412
S''
asbasbasbag60
(g76
g62
NtRp413
(dp414
g65
(dp415
sg74
g262
sg67
(lp416
g60
(g81
g62
NtRp417
(dp418
g65
(dp419
g85
g86
ssg74
g413
sg67
(lp420
S'version'
p421
asbag60
(g81
g62
NtRp422
(dp423
g65
(dp424
g92
g93
ssg74
g413
sg67
(lp425
S':'
asbag60
(g81
g62
NtRp426
(dp427
g65
(dp428
sg74
g413
sg67
(lp429
g60
(g61
g62
NtRp430
(dp431
g65
(dp432
g73
I3
ssg74
g426
sg67
(lp433
S''
asbasbasbasbasbasbasbag60
(g76
g62
NtRp434
(dp435
g65
(dp436
sg74
g237
sg67
(lp437
g60
(g81
g62
NtRp438
(dp439
g65
(dp440
g85
g86
ssg74
g434
sg67
(lp441
S'session_id_streamlog'
p442
asbag60
(g81
g62
NtRp443
(dp444
g65
(dp445
g92
g93
ssg74
g434
sg67
(lp446
S':'
asbag60
(g81
g62
NtRp447
(dp448
g65
(dp449
sg74
g434
sg67
(lp450
g60
(g61
g62
NtRp451
(dp452
g65
(dp453
g73
I4
ssg74
g447
sg67
(lp454
g60
(g69
g62
NtRp455
(dp456
g65
(dp457
g73
I3
ssg74
Nsg67
(lp458
g60
(g76
g62
NtRp459
(dp460
g65
(dp461
sg74
g455
sg67
(lp462
g60
(g81
g62
NtRp463
(dp464
g65
(dp465
g85
g86
ssg74
g459
sg67
(lp466
g274
asbag60
(g81
g62
NtRp467
(dp468
g65
(dp469
g92
g93
ssg74
g459
sg67
(lp470
S':'
asbag60
(g81
g62
NtRp471
(dp472
g65
(dp473
sg74
g459
sg67
(lp474
g60
(g61
g62
NtRp475
(dp476
g65
(dp477
g73
I3
ssg74
g471
sg67
(lp478
S''
asbasbasbag60
(g76
g62
NtRp479
(dp480
g65
(dp481
sg74
g455
sg67
(lp482
g60
(g81
g62
NtRp483
(dp484
g65
(dp485
g85
g86
ssg74
g479
sg67
(lp486
g295
asbag60
(g81
g62
NtRp487
(dp488
g65
(dp489
g92
g93
ssg74
g479
sg67
(lp490
S':'
asbag60
(g81
g62
NtRp491
(dp492
g65
(dp493
sg74
g479
sg67
(lp494
g60
(g61
g62
NtRp495
(dp496
g65
(dp497
g73
I3
ssg74
g491
sg67
(lp498
S''
asbasbasbag60
(g76
g62
NtRp499
(dp500
g65
(dp501
sg74
g455
sg67
(lp502
g60
(g81
g62
NtRp503
(dp504
g65
(dp505
g85
g86
ssg74
g499
sg67
(lp506
g316
asbag60
(g81
g62
NtRp507
(dp508
g65
(dp509
g92
g93
ssg74
g499
sg67
(lp510
S':'
asbag60
(g81
g62
NtRp511
(dp512
g65
(dp513
sg74
g499
sg67
(lp514
g60
(g61
g62
NtRp515
(dp516
g65
(dp517
g73
I3
ssg74
g511
sg67
(lp518
S''
asbasbasbag60
(g76
g62
NtRp519
(dp520
g65
(dp521
sg74
g455
sg67
(lp522
g60
(g81
g62
NtRp523
(dp524
g65
(dp525
g85
g86
ssg74
g519
sg67
(lp526
g337
asbag60
(g81
g62
NtRp527
(dp528
g65
(dp529
g92
g93
ssg74
g519
sg67
(lp530
S':'
asbag60
(g81
g62
NtRp531
(dp532
g65
(dp533
sg74
g519
sg67
(lp534
g60
(g61
g62
NtRp535
(dp536
g65
(dp537
g73
I3
ssg74
g531
sg67
(lp538
S''
asbasbasbag60
(g76
g62
NtRp539
(dp540
g65
(dp541
sg74
g455
sg67
(lp542
g60
(g81
g62
NtRp543
(dp544
g65
(dp545
g85
g86
ssg74
g539
sg67
(lp546
g358
asbag60
(g81
g62
NtRp547
(dp548
g65
(dp549
g92
g93
ssg74
g539
sg67
(lp550
S':'
asbag60
(g81
g62
NtRp551
(dp552
g65
(dp553
sg74
g539
sg67
(lp554
g60
(g61
g62
NtRp555
(dp556
g65
(dp557
g73
I3
ssg74
g551
sg67
(lp558
S''
asbasbasbag60
(g76
g62
NtRp559
(dp560
g65
(dp561
sg74
g455
sg67
(lp562
g60
(g81
g62
NtRp563
(dp564
g65
(dp565
g85
g86
ssg74
g559
sg67
(lp566
g379
asbag60
(g81
g62
NtRp567
(dp568
g65
(dp569
g92
g93
ssg74
g559
sg67
(lp570
S':'
asbag60
(g81
g62
NtRp571
(dp572
g65
(dp573
sg74
g559
sg67
(lp574
g60
(g61
g62
NtRp575
(dp576
g65
(dp577
g73
I3
ssg74
g571
sg67
(lp578
S''
asbasbasbag60
(g76
g62
NtRp579
(dp580
g65
(dp581
sg74
g455
sg67
(lp582
g60
(g81
g62
NtRp583
(dp584
g65
(dp585
g85
g86
ssg74
g579
sg67
(lp586
g400
asbag60
(g81
g62
NtRp587
(dp588
g65
(dp589
g92
g93
ssg74
g579
sg67
(lp590
S':'
asbag60
(g81
g62
NtRp591
(dp592
g65
(dp593
sg74
g579
sg67
(lp594
g60
(g61
g62
NtRp595
(dp596
g65
(dp597
g73
I3
ssg74
g591
sg67
(lp598
S''
asbasbasbag60
(g76
g62
NtRp599
(dp600
g65
(dp601
sg74
g455
sg67
(lp602
g60
(g81
g62
NtRp603
(dp604
g65
(dp605
g85
g86
ssg74
g599
sg67
(lp606
g421
asbag60
(g81
g62
NtRp607
(dp608
g65
(dp609
g92
g93
ssg74
g599
sg67
(lp610
S':'
asbag60
(g81
g62
NtRp611
(dp612
g65
(dp613
sg74
g599
sg67
(lp614
g60
(g61
g62
NtRp615
(dp616
g65
(dp617
g73
I3
ssg74
g611
sg67
(lp618
S''
asbasbasbasbasbasbasbag60
(g76
g62
NtRp619
(dp620
g65
(dp621
sg74
g237
sg67
(lp622
g60
(g81
g62
NtRp623
(dp624
g65
(dp625
g85
g86
ssg74
g619
sg67
(lp626
S'session_id_test3'
p627
asbag60
(g81
g62
NtRp628
(dp629
g65
(dp630
g92
g93
ssg74
g619
sg67
(lp631
S':'
asbag60
(g81
g62
NtRp632
(dp633
g65
(dp634
sg74
g619
sg67
(lp635
g60
(g61
g62
NtRp636
(dp637
g65
(dp638
g73
I4
ssg74
g632
sg67
(lp639
g60
(g69
g62
NtRp640
(dp641
g65
(dp642
g73
I3
ssg74
Nsg67
(lp643
g60
(g76
g62
NtRp644
(dp645
g65
(dp646
sg74
g640
sg67
(lp647
g60
(g81
g62
NtRp648
(dp649
g65
(dp650
g85
g86
ssg74
g644
sg67
(lp651
g274
asbag60
(g81
g62
NtRp652
(dp653
g65
(dp654
g92
g93
ssg74
g644
sg67
(lp655
S':'
asbag60
(g81
g62
NtRp656
(dp657
g65
(dp658
sg74
g644
sg67
(lp659
g60
(g61
g62
NtRp660
(dp661
g65
(dp662
g73
I3
ssg74
g656
sg67
(lp663
S''
asbasbasbag60
(g76
g62
NtRp664
(dp665
g65
(dp666
sg74
g640
sg67
(lp667
g60
(g81
g62
NtRp668
(dp669
g65
(dp670
g85
g86
ssg74
g664
sg67
(lp671
g295
asbag60
(g81
g62
NtRp672
(dp673
g65
(dp674
g92
g93
ssg74
g664
sg67
(lp675
S':'
asbag60
(g81
g62
NtRp676
(dp677
g65
(dp678
sg74
g664
sg67
(lp679
g60
(g61
g62
NtRp680
(dp681
g65
(dp682
g73
I3
ssg74
g676
sg67
(lp683
S''
asbasbasbag60
(g76
g62
NtRp684
(dp685
g65
(dp686
sg74
g640
sg67
(lp687
g60
(g81
g62
NtRp688
(dp689
g65
(dp690
g85
g86
ssg74
g684
sg67
(lp691
g316
asbag60
(g81
g62
NtRp692
(dp693
g65
(dp694
g92
g93
ssg74
g684
sg67
(lp695
S':'
asbag60
(g81
g62
NtRp696
(dp697
g65
(dp698
sg74
g684
sg67
(lp699
g60
(g61
g62
NtRp700
(dp701
g65
(dp702
g73
I3
ssg74
g696
sg67
(lp703
S''
asbasbasbag60
(g76
g62
NtRp704
(dp705
g65
(dp706
sg74
g640
sg67
(lp707
g60
(g81
g62
NtRp708
(dp709
g65
(dp710
g85
g86
ssg74
g704
sg67
(lp711
g337
asbag60
(g81
g62
NtRp712
(dp713
g65
(dp714
g92
g93
ssg74
g704
sg67
(lp715
S':'
asbag60
(g81
g62
NtRp716
(dp717
g65
(dp718
sg74
g704
sg67
(lp719
g60
(g61
g62
NtRp720
(dp721
g65
(dp722
g73
I3
ssg74
g716
sg67
(lp723
S''
asbasbasbag60
(g76
g62
NtRp724
(dp725
g65
(dp726
sg74
g640
sg67
(lp727
g60
(g81
g62
NtRp728
(dp729
g65
(dp730
g85
g86
ssg74
g724
sg67
(lp731
g358
asbag60
(g81
g62
NtRp732
(dp733
g65
(dp734
g92
g93
ssg74
g724
sg67
(lp735
S':'
asbag60
(g81
g62
NtRp736
(dp737
g65
(dp738
sg74
g724
sg67
(lp739
g60
(g61
g62
NtRp740
(dp741
g65
(dp742
g73
I3
ssg74
g736
sg67
(lp743
S''
asbasbasbag60
(g76
g62
NtRp744
(dp745
g65
(dp746
sg74
g640
sg67
(lp747
g60
(g81
g62
NtRp748
(dp749
g65
(dp750
g85
g86
ssg74
g744
sg67
(lp751
g379
asbag60
(g81
g62
NtRp752
(dp753
g65
(dp754
g92
g93
ssg74
g744
sg67
(lp755
S':'
asbag60
(g81
g62
NtRp756
(dp757
g65
(dp758
sg74
g744
sg67
(lp759
g60
(g61
g62
NtRp760
(dp761
g65
(dp762
g73
I3
ssg74
g756
sg67
(lp763
S''
asbasbasbag60
(g76
g62
NtRp764
(dp765
g65
(dp766
sg74
g640
sg67
(lp767
g60
(g81
g62
NtRp768
(dp769
g65
(dp770
g85
g86
ssg74
g764
sg67
(lp771
g400
asbag60
(g81
g62
NtRp772
(dp773
g65
(dp774
g92
g93
ssg74
g764
sg67
(lp775
S':'
asbag60
(g81
g62
NtRp776
(dp777
g65
(dp778
sg74
g764
sg67
(lp779
g60
(g61
g62
NtRp780
(dp781
g65
(dp782
g73
I3
ssg74
g776
sg67
(lp783
S''
asbasbasbag60
(g76
g62
NtRp784
(dp785
g65
(dp786
sg74
g640
sg67
(lp787
g60
(g81
g62
NtRp788
(dp789
g65
(dp790
g85
g86
ssg74
g784
sg67
(lp791
g421
asbag60
(g81
g62
NtRp792
(dp793
g65
(dp794
g92
g93
ssg74
g784
sg67
(lp795
S':'
asbag60
(g81
g62
NtRp796
(dp797
g65
(dp798
sg74
g784
sg67
(lp799
g60
(g61
g62
NtRp800
(dp801
g65
(dp802
g73
I3
ssg74
g796
sg67
(lp803
S''
asbasbasbasbasbasbasbasbasbasbasbag60
(g76
g62
NtRp804
(dp805
g65
(dp806
sg74
g70
sg67
(lp807
g60
(g81
g62
NtRp808
(dp809
g65
(dp810
g85
g86
ssg74
g804
sg67
(lp811
S'env'
p812
asbag60
(g81
g62
NtRp813
(dp814
g65
(dp815
g92
g93
ssg74
g804
sg67
(lp816
S':'
asbag60
(g81
g62
NtRp817
(dp818
g65
(dp819
sg74
g804
sg67
(lp820
g60
(g61
g62
NtRp821
(dp822
g65
(dp823
g73
I5
ssg74
g817
sg67
(lp824
g60
(g69
g62
NtRp825
(dp826
g65
(dp827
g73
I4
ssg74
Nsg67
(lp828
g60
(g76
g62
NtRp829
(dp830
g65
(dp831
sg74
g825
sg67
(lp832
g60
(g81
g62
NtRp833
(dp834
g65
(dp835
g85
g86
ssg74
g829
sg67
(lp836
S'app_folders'
p837
asbag60
(g81
g62
NtRp838
(dp839
g65
(dp840
g92
g93
ssg74
g829
sg67
(lp841
S':'
asbag60
(g81
g62
NtRp842
(dp843
g65
(dp844
sg74
g829
sg67
(lp845
g60
(g61
g62
NtRp846
(dp847
g65
(dp848
g73
I4
ssg74
g842
sg67
(lp849
S"set(['/home/jose/DESARROLLO/web2py199/applications/streamlog/', '/home/jose/DESARROLLO/web2py199/applications/admin/'])"
p850
asbasbasbag60
(g76
g62
NtRp851
(dp852
g65
(dp853
sg74
g825
sg67
(lp854
g60
(g81
g62
NtRp855
(dp856
g65
(dp857
g85
g86
ssg74
g851
sg67
(lp858
S'applications_parent'
p859
asbag60
(g81
g62
NtRp860
(dp861
g65
(dp862
g92
g93
ssg74
g851
sg67
(lp863
S':'
asbag60
(g81
g62
NtRp864
(dp865
g65
(dp866
sg74
g851
sg67
(lp867
g60
(g61
g62
NtRp868
(dp869
g65
(dp870
g73
I4
ssg74
g864
sg67
(lp871
S'/home/jose/DESARROLLO/web2py199'
p872
asbasbasbag60
(g76
g62
NtRp873
(dp874
g65
(dp875
sg74
g825
sg67
(lp876
g60
(g81
g62
NtRp877
(dp878
g65
(dp879
g85
g86
ssg74
g873
sg67
(lp880
S'cmd_args'
p881
asbag60
(g81
g62
NtRp882
(dp883
g65
(dp884
g92
g93
ssg74
g873
sg67
(lp885
S':'
asbag60
(g81
g62
NtRp886
(dp887
g65
(dp888
sg74
g873
sg67
(lp889
g60
(g61
g62
NtRp890
(dp891
g65
(dp892
g73
I4
ssg74
g886
sg67
(lp893
g60
(g69
g62
NtRp894
(dp895
g65
(dp896
g73
I3
ssg74
Nsg67
(lp897
sbasbasbasbag60
(g76
g62
NtRp898
(dp899
g65
(dp900
sg74
g825
sg67
(lp901
g60
(g81
g62
NtRp902
(dp903
g65
(dp904
g85
g86
ssg74
g898
sg67
(lp905
S'cmd_options'
p906
asbag60
(g81
g62
NtRp907
(dp908
g65
(dp909
g92
g93
ssg74
g898
sg67
(lp910
S':'
asbag60
(g81
g62
NtRp911
(dp912
g65
(dp913
sg74
g898
sg67
(lp914
g60
(g61
g62
NtRp915
(dp916
g65
(dp917
g73
I4
ssg74
g911
sg67
(lp918
S"<Values at 0x2a2ff80: {'verbose': False, 'ip': '127.0.0.1', 'shutdown_timeout': 5, 'taskbar': False, 'nocron': False, 'pid_filename': 'httpserver.pid', 'maxthreads': None, 'softcron': False, 'server_name': 'jose', 'bpython': False, 'nogui': False, 'port': 8000, 'extcron': False, 'debuglevel': 30, 'test': None, 'folder': '/home/jose/DESARROLLO/web2py199', 'config': '', 'import_models': False, 'winservice': '', 'shell': None, 'run': '', 'log_filename': 'httpserver.log', 'args': [''], 'ssl_ca_certificate': None, 'scheduler': None, 'profiler_filename': None, 'ssl_private_key': '', 'password': 't', 'request_queue_size': 5, 'ssl_certificate': '', 'cronjob': False, 'plain': False, 'quiet': False, 'interfaces': None, 'minthreads': None, 'timeout': 10, 'numthreads': None, 'nobanner': False}>"
p919
asbasbasbag60
(g76
g62
NtRp920
(dp921
g65
(dp922
sg74
g825
sg67
(lp923
g60
(g81
g62
NtRp924
(dp925
g65
(dp926
g85
g86
ssg74
g920
sg67
(lp927
S'db_sessions'
p928
asbag60
(g81
g62
NtRp929
(dp930
g65
(dp931
g92
g93
ssg74
g920
sg67
(lp932
S':'
asbag60
(g81
g62
NtRp933
(dp934
g65
(dp935
sg74
g920
sg67
(lp936
g60
(g61
g62
NtRp937
(dp938
g65
(dp939
g73
I4
ssg74
g933
sg67
(lp940
S'set([])'
p941
asbasbasbag60
(g76
g62
NtRp942
(dp943
g65
(dp944
sg74
g825
sg67
(lp945
g60
(g81
g62
NtRp946
(dp947
g65
(dp948
g85
g86
ssg74
g942
sg67
(lp949
S'debugging'
p950
asbag60
(g81
g62
NtRp951
(dp952
g65
(dp953
g92
g93
ssg74
g942
sg67
(lp954
S':'
asbag60
(g81
g62
NtRp955
(dp956
g65
(dp957
sg74
g942
sg67
(lp958
g60
(g61
g62
NtRp959
(dp960
g65
(dp961
g73
I4
ssg74
g955
sg67
(lp962
g103
asbasbasbag60
(g76
g62
NtRp963
(dp964
g65
(dp965
sg74
g825
sg67
(lp966
g60
(g81
g62
NtRp967
(dp968
g65
(dp969
g85
g86
ssg74
g963
sg67
(lp970
S'gluon_parent'
p971
asbag60
(g81
g62
NtRp972
(dp973
g65
(dp974
g92
g93
ssg74
g963
sg67
(lp975
S':'
asbag60
(g81
g62
NtRp976
(dp977
g65
(dp978
sg74
g963
sg67
(lp979
g60
(g61
g62
NtRp980
(dp981
g65
(dp982
g73
I4
ssg74
g976
sg67
(lp983
S'/home/jose/DESARROLLO/web2py199'
p984
asbasbasbag60
(g76
g62
NtRp985
(dp986
g65
(dp987
sg74
g825
sg67
(lp988
g60
(g81
g62
NtRp989
(dp990
g65
(dp991
g85
g86
ssg74
g985
sg67
(lp992
S'http_accept'
p993
asbag60
(g81
g62
NtRp994
(dp995
g65
(dp996
g92
g93
ssg74
g985
sg67
(lp997
S':'
asbag60
(g81
g62
NtRp998
(dp999
g65
(dp1000
sg74
g985
sg67
(lp1001
g60
(g61
g62
NtRp1002
(dp1003
g65
(dp1004
g73
I4
ssg74
g998
sg67
(lp1005
S'text/html,application/xhtml+xml,application/xml;q=0.9,*/*;q=0.8'
p1006
asbasbasbag60
(g76
g62
NtRp1007
(dp1008
g65
(dp1009
sg74
g825
sg67
(lp1010
g60
(g81
g62
NtRp1011
(dp1012
g65
(dp1013
g85
g86
ssg74
g1007
sg67
(lp1014
S'http_accept_encoding'
p1015
asbag60
(g81
g62
NtRp1016
(dp1017
g65
(dp1018
g92
g93
ssg74
g1007
sg67
(lp1019
S':'
asbag60
(g81
g62
NtRp1020
(dp1021
g65
(dp1022
sg74
g1007
sg67
(lp1023
g60
(g61
g62
NtRp1024
(dp1025
g65
(dp1026
g73
I4
ssg74
g1020
sg67
(lp1027
S'gzip, deflate'
p1028
asbasbasbag60
(g76
g62
NtRp1029
(dp1030
g65
(dp1031
sg74
g825
sg67
(lp1032
g60
(g81
g62
NtRp1033
(dp1034
g65
(dp1035
g85
g86
ssg74
g1029
sg67
(lp1036
S'http_accept_language'
p1037
asbag60
(g81
g62
NtRp1038
(dp1039
g65
(dp1040
g92
g93
ssg74
g1029
sg67
(lp1041
S':'
asbag60
(g81
g62
NtRp1042
(dp1043
g65
(dp1044
sg74
g1029
sg67
(lp1045
g60
(g61
g62
NtRp1046
(dp1047
g65
(dp1048
g73
I4
ssg74
g1042
sg67
(lp1049
S'en-us,en;q=0.5'
p1050
asbasbasbag60
(g76
g62
NtRp1051
(dp1052
g65
(dp1053
sg74
g825
sg67
(lp1054
g60
(g81
g62
NtRp1055
(dp1056
g65
(dp1057
g85
g86
ssg74
g1051
sg67
(lp1058
S'http_connection'
p1059
asbag60
(g81
g62
NtRp1060
(dp1061
g65
(dp1062
g92
g93
ssg74
g1051
sg67
(lp1063
S':'
asbag60
(g81
g62
NtRp1064
(dp1065
g65
(dp1066
sg74
g1051
sg67
(lp1067
g60
(g61
g62
NtRp1068
(dp1069
g65
(dp1070
g73
I4
ssg74
g1064
sg67
(lp1071
S'keep-alive'
p1072
asbasbasbag60
(g76
g62
NtRp1073
(dp1074
g65
(dp1075
sg74
g825
sg67
(lp1076
g60
(g81
g62
NtRp1077
(dp1078
g65
(dp1079
g85
g86
ssg74
g1073
sg67
(lp1080
S'http_cookie'
p1081
asbag60
(g81
g62
NtRp1082
(dp1083
g65
(dp1084
g92
g93
ssg74
g1073
sg67
(lp1085
S':'
asbag60
(g81
g62
NtRp1086
(dp1087
g65
(dp1088
sg74
g1073
sg67
(lp1089
g60
(g61
g62
NtRp1090
(dp1091
g65
(dp1092
g73
I4
ssg74
g1086
sg67
(lp1093
S'session_id_test3=127.0.0.1-380e7b29-b635-4690-b9ca-812870d6a061; session_id_admin=127.0.0.1-9b4c5961-ad99-4e9d-9992-13f3450e53e5; session_id_streamlog=127.0.0.1-610b0c7d-3f6f-4500-a76a-b095fb30f7fd'
p1094
asbasbasbag60
(g76
g62
NtRp1095
(dp1096
g65
(dp1097
sg74
g825
sg67
(lp1098
g60
(g81
g62
NtRp1099
(dp1100
g65
(dp1101
g85
g86
ssg74
g1095
sg67
(lp1102
S'http_host'
p1103
asbag60
(g81
g62
NtRp1104
(dp1105
g65
(dp1106
g92
g93
ssg74
g1095
sg67
(lp1107
S':'
asbag60
(g81
g62
NtRp1108
(dp1109
g65
(dp1110
sg74
g1095
sg67
(lp1111
g60
(g61
g62
NtRp1112
(dp1113
g65
(dp1114
g73
I4
ssg74
g1108
sg67
(lp1115
S'localhost:8000'
p1116
asbasbasbag60
(g76
g62
NtRp1117
(dp1118
g65
(dp1119
sg74
g825
sg67
(lp1120
g60
(g81
g62
NtRp1121
(dp1122
g65
(dp1123
g85
g86
ssg74
g1117
sg67
(lp1124
S'http_referer'
p1125
asbag60
(g81
g62
NtRp1126
(dp1127
g65
(dp1128
g92
g93
ssg74
g1117
sg67
(lp1129
S':'
asbag60
(g81
g62
NtRp1130
(dp1131
g65
(dp1132
sg74
g1117
sg67
(lp1133
g60
(g61
g62
NtRp1134
(dp1135
g65
(dp1136
g73
I4
ssg74
g1130
sg67
(lp1137
S'http://localhost:8000/streamlog/default/index'
p1138
asbasbasbag60
(g76
g62
NtRp1139
(dp1140
g65
(dp1141
sg74
g825
sg67
(lp1142
g60
(g81
g62
NtRp1143
(dp1144
g65
(dp1145
g85
g86
ssg74
g1139
sg67
(lp1146
S'http_user_agent'
p1147
asbag60
(g81
g62
NtRp1148
(dp1149
g65
(dp1150
g92
g93
ssg74
g1139
sg67
(lp1151
S':'
asbag60
(g81
g62
NtRp1152
(dp1153
g65
(dp1154
sg74
g1139
sg67
(lp1155
g60
(g61
g62
NtRp1156
(dp1157
g65
(dp1158
g73
I4
ssg74
g1152
sg67
(lp1159
S'Mozilla/5.0 (X11; Ubuntu; Linux x86_64; rv:12.0) Gecko/20100101 Firefox/12.0'
p1160
asbasbasbag60
(g76
g62
NtRp1161
(dp1162
g65
(dp1163
sg74
g825
sg67
(lp1164
g60
(g81
g62
NtRp1165
(dp1166
g65
(dp1167
g85
g86
ssg74
g1161
sg67
(lp1168
S'is_jython'
p1169
asbag60
(g81
g62
NtRp1170
(dp1171
g65
(dp1172
g92
g93
ssg74
g1161
sg67
(lp1173
S':'
asbag60
(g81
g62
NtRp1174
(dp1175
g65
(dp1176
sg74
g1161
sg67
(lp1177
g60
(g61
g62
NtRp1178
(dp1179
g65
(dp1180
g73
I4
ssg74
g1174
sg67
(lp1181
g103
asbasbasbag60
(g76
g62
NtRp1182
(dp1183
g65
(dp1184
sg74
g825
sg67
(lp1185
g60
(g81
g62
NtRp1186
(dp1187
g65
(dp1188
g85
g86
ssg74
g1182
sg67
(lp1189
S'path_info'
p1190
asbag60
(g81
g62
NtRp1191
(dp1192
g65
(dp1193
g92
g93
ssg74
g1182
sg67
(lp1194
S':'
asbag60
(g81
g62
NtRp1195
(dp1196
g65
(dp1197
sg74
g1182
sg67
(lp1198
g60
(g61
g62
NtRp1199
(dp1200
g65
(dp1201
g73
I4
ssg74
g1195
sg67
(lp1202
S'/streamlog/default/type_log_manage'
p1203
asbasbasbag60
(g76
g62
NtRp1204
(dp1205
g65
(dp1206
sg74
g825
sg67
(lp1207
g60
(g81
g62
NtRp1208
(dp1209
g65
(dp1210
g85
g86
ssg74
g1204
sg67
(lp1211
S'query_string'
p1212
asbag60
(g81
g62
NtRp1213
(dp1214
g65
(dp1215
g92
g93
ssg74
g1204
sg67
(lp1216
S':'
asbag60
(g81
g62
NtRp1217
(dp1218
g65
(dp1219
sg74
g1204
sg67
(lp1220
g60
(g61
g62
NtRp1221
(dp1222
g65
(dp1223
g73
I4
ssg74
g1217
sg67
(lp1224
S''
asbasbasbag60
(g76
g62
NtRp1225
(dp1226
g65
(dp1227
sg74
g825
sg67
(lp1228
g60
(g81
g62
NtRp1229
(dp1230
g65
(dp1231
g85
g86
ssg74
g1225
sg67
(lp1232
S'remote_addr'
p1233
asbag60
(g81
g62
NtRp1234
(dp1235
g65
(dp1236
g92
g93
ssg74
g1225
sg67
(lp1237
S':'
asbag60
(g81
g62
NtRp1238
(dp1239
g65
(dp1240
sg74
g1225
sg67
(lp1241
g60
(g61
g62
NtRp1242
(dp1243
g65
(dp1244
g73
I4
ssg74
g1238
sg67
(lp1245
g193
asbasbasbag60
(g76
g62
NtRp1246
(dp1247
g65
(dp1248
sg74
g825
sg67
(lp1249
g60
(g81
g62
NtRp1250
(dp1251
g65
(dp1252
g85
g86
ssg74
g1246
sg67
(lp1253
S'remote_port'
p1254
asbag60
(g81
g62
NtRp1255
(dp1256
g65
(dp1257
g92
g93
ssg74
g1246
sg67
(lp1258
S':'
asbag60
(g81
g62
NtRp1259
(dp1260
g65
(dp1261
sg74
g1246
sg67
(lp1262
g60
(g61
g62
NtRp1263
(dp1264
g65
(dp1265
g73
I4
ssg74
g1259
sg67
(lp1266
S'40341'
p1267
asbasbasbag60
(g76
g62
NtRp1268
(dp1269
g65
(dp1270
sg74
g825
sg67
(lp1271
g60
(g81
g62
NtRp1272
(dp1273
g65
(dp1274
g85
g86
ssg74
g1268
sg67
(lp1275
S'request_method'
p1276
asbag60
(g81
g62
NtRp1277
(dp1278
g65
(dp1279
g92
g93
ssg74
g1268
sg67
(lp1280
S':'
asbag60
(g81
g62
NtRp1281
(dp1282
g65
(dp1283
sg74
g1268
sg67
(lp1284
g60
(g61
g62
NtRp1285
(dp1286
g65
(dp1287
g73
I4
ssg74
g1281
sg67
(lp1288
S'GET'
p1289
asbasbasbag60
(g76
g62
NtRp1290
(dp1291
g65
(dp1292
sg74
g825
sg67
(lp1293
g60
(g81
g62
NtRp1294
(dp1295
g65
(dp1296
g85
g86
ssg74
g1290
sg67
(lp1297
S'script_name'
p1298
asbag60
(g81
g62
NtRp1299
(dp1300
g65
(dp1301
g92
g93
ssg74
g1290
sg67
(lp1302
S':'
asbag60
(g81
g62
NtRp1303
(dp1304
g65
(dp1305
sg74
g1290
sg67
(lp1306
g60
(g61
g62
NtRp1307
(dp1308
g65
(dp1309
g73
I4
ssg74
g1303
sg67
(lp1310
S''
asbasbasbag60
(g76
g62
NtRp1311
(dp1312
g65
(dp1313
sg74
g825
sg67
(lp1314
g60
(g81
g62
NtRp1315
(dp1316
g65
(dp1317
g85
g86
ssg74
g1311
sg67
(lp1318
S'server_name'
p1319
asbag60
(g81
g62
NtRp1320
(dp1321
g65
(dp1322
g92
g93
ssg74
g1311
sg67
(lp1323
S':'
asbag60
(g81
g62
NtRp1324
(dp1325
g65
(dp1326
sg74
g1311
sg67
(lp1327
g60
(g61
g62
NtRp1328
(dp1329
g65
(dp1330
g73
I4
ssg74
g1324
sg67
(lp1331
S'jose'
p1332
asbasbasbag60
(g76
g62
NtRp1333
(dp1334
g65
(dp1335
sg74
g825
sg67
(lp1336
g60
(g81
g62
NtRp1337
(dp1338
g65
(dp1339
g85
g86
ssg74
g1333
sg67
(lp1340
S'server_port'
p1341
asbag60
(g81
g62
NtRp1342
(dp1343
g65
(dp1344
g92
g93
ssg74
g1333
sg67
(lp1345
S':'
asbag60
(g81
g62
NtRp1346
(dp1347
g65
(dp1348
sg74
g1333
sg67
(lp1349
g60
(g61
g62
NtRp1350
(dp1351
g65
(dp1352
g73
I4
ssg74
g1346
sg67
(lp1353
S'8000'
p1354
asbasbasbag60
(g76
g62
NtRp1355
(dp1356
g65
(dp1357
sg74
g825
sg67
(lp1358
g60
(g81
g62
NtRp1359
(dp1360
g65
(dp1361
g85
g86
ssg74
g1355
sg67
(lp1362
S'server_protocol'
p1363
asbag60
(g81
g62
NtRp1364
(dp1365
g65
(dp1366
g92
g93
ssg74
g1355
sg67
(lp1367
S':'
asbag60
(g81
g62
NtRp1368
(dp1369
g65
(dp1370
sg74
g1355
sg67
(lp1371
g60
(g61
g62
NtRp1372
(dp1373
g65
(dp1374
g73
I4
ssg74
g1368
sg67
(lp1375
S'HTTP/1.1'
p1376
asbasbasbag60
(g76
g62
NtRp1377
(dp1378
g65
(dp1379
sg74
g825
sg67
(lp1380
g60
(g81
g62
NtRp1381
(dp1382
g65
(dp1383
g85
g86
ssg74
g1377
sg67
(lp1384
S'server_software'
p1385
asbag60
(g81
g62
NtRp1386
(dp1387
g65
(dp1388
g92
g93
ssg74
g1377
sg67
(lp1389
S':'
asbag60
(g81
g62
NtRp1390
(dp1391
g65
(dp1392
sg74
g1377
sg67
(lp1393
g60
(g61
g62
NtRp1394
(dp1395
g65
(dp1396
g73
I4
ssg74
g1390
sg67
(lp1397
S'Rocket 1.2.4'
p1398
asbasbasbag60
(g76
g62
NtRp1399
(dp1400
g65
(dp1401
sg74
g825
sg67
(lp1402
g60
(g81
g62
NtRp1403
(dp1404
g65
(dp1405
g85
g86
ssg74
g1399
sg67
(lp1406
S'web2py_crontype'
p1407
asbag60
(g81
g62
NtRp1408
(dp1409
g65
(dp1410
g92
g93
ssg74
g1399
sg67
(lp1411
S':'
asbag60
(g81
g62
NtRp1412
(dp1413
g65
(dp1414
sg74
g1399
sg67
(lp1415
g60
(g61
g62
NtRp1416
(dp1417
g65
(dp1418
g73
I4
ssg74
g1412
sg67
(lp1419
S'hard'
p1420
asbasbasbag60
(g76
g62
NtRp1421
(dp1422
g65
(dp1423
sg74
g825
sg67
(lp1424
g60
(g81
g62
NtRp1425
(dp1426
g65
(dp1427
g85
g86
ssg74
g1421
sg67
(lp1428
S'web2py_path'
p1429
asbag60
(g81
g62
NtRp1430
(dp1431
g65
(dp1432
g92
g93
ssg74
g1421
sg67
(lp1433
S':'
asbag60
(g81
g62
NtRp1434
(dp1435
g65
(dp1436
sg74
g1421
sg67
(lp1437
g60
(g61
g62
NtRp1438
(dp1439
g65
(dp1440
g73
I4
ssg74
g1434
sg67
(lp1441
g872
asbasbasbag60
(g76
g62
NtRp1442
(dp1443
g65
(dp1444
sg74
g825
sg67
(lp1445
g60
(g81
g62
NtRp1446
(dp1447
g65
(dp1448
g85
g86
ssg74
g1442
sg67
(lp1449
S'web2py_version'
p1450
asbag60
(g81
g62
NtRp1451
(dp1452
g65
(dp1453
g92
g93
ssg74
g1442
sg67
(lp1454
S':'
asbag60
(g81
g62
NtRp1455
(dp1456
g65
(dp1457
sg74
g1442
sg67
(lp1458
g60
(g61
g62
NtRp1459
(dp1460
g65
(dp1461
g73
I4
ssg74
g1455
sg67
(lp1462
g60
(g69
g62
NtRp1463
(dp1464
g65
(dp1465
g73
I3
ssg74
Nsg67
(lp1466
g60
(g76
g62
NtRp1467
(dp1468
g65
(dp1469
sg74
g1463
sg67
(lp1470
g60
(g81
g62
NtRp1471
(dp1472
g65
(dp1473
sg74
g1467
sg67
(lp1474
g60
(g61
g62
NtRp1475
(dp1476
g65
(dp1477
g73
I3
ssg74
g1471
sg67
(lp1478
S'1'
asbasbasbag60
(g76
g62
NtRp1479
(dp1480
g65
(dp1481
sg74
g1463
sg67
(lp1482
g60
(g81
g62
NtRp1483
(dp1484
g65
(dp1485
sg74
g1479
sg67
(lp1486
g60
(g61
g62
NtRp1487
(dp1488
g65
(dp1489
g73
I3
ssg74
g1483
sg67
(lp1490
S'99'
p1491
asbasbasbag60
(g76
g62
NtRp1492
(dp1493
g65
(dp1494
sg74
g1463
sg67
(lp1495
g60
(g81
g62
NtRp1496
(dp1497
g65
(dp1498
sg74
g1492
sg67
(lp1499
g60
(g61
g62
NtRp1500
(dp1501
g65
(dp1502
g73
I3
ssg74
g1496
sg67
(lp1503
S'2'
asbasbasbag60
(g76
g62
NtRp1504
(dp1505
g65
(dp1506
sg74
g1463
sg67
(lp1507
g60
(g81
g62
NtRp1508
(dp1509
g65
(dp1510
sg74
g1504
sg67
(lp1511
g60
(g61
g62
NtRp1512
(dp1513
g65
(dp1514
g73
I3
ssg74
g1508
sg67
(lp1515
S'datetime.datetime(2011, 9, 26, 6, 55, 33)'
p1516
asbasbasbag60
(g76
g62
NtRp1517
(dp1518
g65
(dp1519
sg74
g1463
sg67
(lp1520
g60
(g81
g62
NtRp1521
(dp1522
g65
(dp1523
sg74
g1517
sg67
(lp1524
g60
(g61
g62
NtRp1525
(dp1526
g65
(dp1527
g73
I3
ssg74
g1521
sg67
(lp1528
S'stable'
p1529
asbasbasbasbasbasbasbag60
(g76
g62
NtRp1530
(dp1531
g65
(dp1532
sg74
g825
sg67
(lp1533
g60
(g81
g62
NtRp1534
(dp1535
g65
(dp1536
g85
g86
ssg74
g1530
sg67
(lp1537
S'wsgi_errors'
p1538
asbag60
(g81
g62
NtRp1539
(dp1540
g65
(dp1541
g92
g93
ssg74
g1530
sg67
(lp1542
S':'
asbag60
(g81
g62
NtRp1543
(dp1544
g65
(dp1545
sg74
g1530
sg67
(lp1546
g60
(g61
g62
NtRp1547
(dp1548
g65
(dp1549
g73
I4
ssg74
g1543
sg67
(lp1550
S"<open file '<stderr>', mode 'w' at 0x7faf4eae9270>"
p1551
asbasbasbag60
(g76
g62
NtRp1552
(dp1553
g65
(dp1554
sg74
g825
sg67
(lp1555
g60
(g81
g62
NtRp1556
(dp1557
g65
(dp1558
g85
g86
ssg74
g1552
sg67
(lp1559
S'wsgi_file_wrapper'
p1560
asbag60
(g81
g62
NtRp1561
(dp1562
g65
(dp1563
g92
g93
ssg74
g1552
sg67
(lp1564
S':'
asbag60
(g81
g62
NtRp1565
(dp1566
g65
(dp1567
sg74
g1552
sg67
(lp1568
g60
(g61
g62
NtRp1569
(dp1570
g65
(dp1571
g73
I4
ssg74
g1565
sg67
(lp1572
S'<class wsgiref.util.FileWrapper at 0x294cd50>'
p1573
asbasbasbag60
(g76
g62
NtRp1574
(dp1575
g65
(dp1576
sg74
g825
sg67
(lp1577
g60
(g81
g62
NtRp1578
(dp1579
g65
(dp1580
g85
g86
ssg74
g1574
sg67
(lp1581
S'wsgi_input'
p1582
asbag60
(g81
g62
NtRp1583
(dp1584
g65
(dp1585
g92
g93
ssg74
g1574
sg67
(lp1586
S':'
asbag60
(g81
g62
NtRp1587
(dp1588
g65
(dp1589
sg74
g1574
sg67
(lp1590
g60
(g61
g62
NtRp1591
(dp1592
g65
(dp1593
g73
I4
ssg74
g1587
sg67
(lp1594
S'<socket._fileobject object at 0x48bd050>'
p1595
asbasbasbag60
(g76
g62
NtRp1596
(dp1597
g65
(dp1598
sg74
g825
sg67
(lp1599
g60
(g81
g62
NtRp1600
(dp1601
g65
(dp1602
g85
g86
ssg74
g1596
sg67
(lp1603
S'wsgi_multiprocess'
p1604
asbag60
(g81
g62
NtRp1605
(dp1606
g65
(dp1607
g92
g93
ssg74
g1596
sg67
(lp1608
S':'
asbag60
(g81
g62
NtRp1609
(dp1610
g65
(dp1611
sg74
g1596
sg67
(lp1612
g60
(g61
g62
NtRp1613
(dp1614
g65
(dp1615
g73
I4
ssg74
g1609
sg67
(lp1616
g103
asbasbasbag60
(g76
g62
NtRp1617
(dp1618
g65
(dp1619
sg74
g825
sg67
(lp1620
g60
(g81
g62
NtRp1621
(dp1622
g65
(dp1623
g85
g86
ssg74
g1617
sg67
(lp1624
S'wsgi_multithread'
p1625
asbag60
(g81
g62
NtRp1626
(dp1627
g65
(dp1628
g92
g93
ssg74
g1617
sg67
(lp1629
S':'
asbag60
(g81
g62
NtRp1630
(dp1631
g65
(dp1632
sg74
g1617
sg67
(lp1633
g60
(g61
g62
NtRp1634
(dp1635
g65
(dp1636
g73
I4
ssg74
g1630
sg67
(lp1637
S'True'
p1638
asbasbasbag60
(g76
g62
NtRp1639
(dp1640
g65
(dp1641
sg74
g825
sg67
(lp1642
g60
(g81
g62
NtRp1643
(dp1644
g65
(dp1645
g85
g86
ssg74
g1639
sg67
(lp1646
S'wsgi_run_once'
p1647
asbag60
(g81
g62
NtRp1648
(dp1649
g65
(dp1650
g92
g93
ssg74
g1639
sg67
(lp1651
S':'
asbag60
(g81
g62
NtRp1652
(dp1653
g65
(dp1654
sg74
g1639
sg67
(lp1655
g60
(g61
g62
NtRp1656
(dp1657
g65
(dp1658
g73
I4
ssg74
g1652
sg67
(lp1659
g103
asbasbasbag60
(g76
g62
NtRp1660
(dp1661
g65
(dp1662
sg74
g825
sg67
(lp1663
g60
(g81
g62
NtRp1664
(dp1665
g65
(dp1666
g85
g86
ssg74
g1660
sg67
(lp1667
S'wsgi_url_scheme'
p1668
asbag60
(g81
g62
NtRp1669
(dp1670
g65
(dp1671
g92
g93
ssg74
g1660
sg67
(lp1672
S':'
asbag60
(g81
g62
NtRp1673
(dp1674
g65
(dp1675
sg74
g1660
sg67
(lp1676
g60
(g61
g62
NtRp1677
(dp1678
g65
(dp1679
g73
I4
ssg74
g1673
sg67
(lp1680
S'http'
p1681
asbasbasbag60
(g76
g62
NtRp1682
(dp1683
g65
(dp1684
sg74
g825
sg67
(lp1685
g60
(g81
g62
NtRp1686
(dp1687
g65
(dp1688
g85
g86
ssg74
g1682
sg67
(lp1689
S'wsgi_version'
p1690
asbag60
(g81
g62
NtRp1691
(dp1692
g65
(dp1693
g92
g93
ssg74
g1682
sg67
(lp1694
S':'
asbag60
(g81
g62
NtRp1695
(dp1696
g65
(dp1697
sg74
g1682
sg67
(lp1698
g60
(g61
g62
NtRp1699
(dp1700
g65
(dp1701
g73
I4
ssg74
g1695
sg67
(lp1702
g60
(g69
g62
NtRp1703
(dp1704
g65
(dp1705
g73
I3
ssg74
Nsg67
(lp1706
g60
(g76
g62
NtRp1707
(dp1708
g65
(dp1709
sg74
g1703
sg67
(lp1710
g60
(g81
g62
NtRp1711
(dp1712
g65
(dp1713
sg74
g1707
sg67
(lp1714
g60
(g61
g62
NtRp1715
(dp1716
g65
(dp1717
g73
I3
ssg74
g1711
sg67
(lp1718
S'1'
asbasbasbag60
(g76
g62
NtRp1719
(dp1720
g65
(dp1721
sg74
g1703
sg67
(lp1722
g60
(g81
g62
NtRp1723
(dp1724
g65
(dp1725
sg74
g1719
sg67
(lp1726
g60
(g61
g62
NtRp1727
(dp1728
g65
(dp1729
g73
I3
ssg74
g1723
sg67
(lp1730
S'0'
asbasbasbasbasbasbasbasbasbasbasbag60
(g76
g62
NtRp1731
(dp1732
g65
(dp1733
sg74
g70
sg67
(lp1734
g60
(g81
g62
NtRp1735
(dp1736
g65
(dp1737
g85
g86
ssg74
g1731
sg67
(lp1738
S'extension'
p1739
asbag60
(g81
g62
NtRp1740
(dp1741
g65
(dp1742
g92
g93
ssg74
g1731
sg67
(lp1743
S':'
asbag60
(g81
g62
NtRp1744
(dp1745
g65
(dp1746
sg74
g1731
sg67
(lp1747
g60
(g61
g62
NtRp1748
(dp1749
g65
(dp1750
g73
I5
ssg74
g1744
sg67
(lp1751
S'html'
p1752
asbasbasbag60
(g76
g62
NtRp1753
(dp1754
g65
(dp1755
sg74
g70
sg67
(lp1756
g60
(g81
g62
NtRp1757
(dp1758
g65
(dp1759
g85
g86
ssg74
g1753
sg67
(lp1760
S'folder'
p1761
asbag60
(g81
g62
NtRp1762
(dp1763
g65
(dp1764
g92
g93
ssg74
g1753
sg67
(lp1765
S':'
asbag60
(g81
g62
NtRp1766
(dp1767
g65
(dp1768
sg74
g1753
sg67
(lp1769
g60
(g61
g62
NtRp1770
(dp1771
g65
(dp1772
g73
I5
ssg74
g1766
sg67
(lp1773
S'/home/jose/DESARROLLO/web2py199/applications/streamlog/'
p1774
asbasbasbag60
(g76
g62
NtRp1775
(dp1776
g65
(dp1777
sg74
g70
sg67
(lp1778
g60
(g81
g62
NtRp1779
(dp1780
g65
(dp1781
g85
g86
ssg74
g1775
sg67
(lp1782
S'function'
p1783
asbag60
(g81
g62
NtRp1784
(dp1785
g65
(dp1786
g92
g93
ssg74
g1775
sg67
(lp1787
S':'
asbag60
(g81
g62
NtRp1788
(dp1789
g65
(dp1790
sg74
g1775
sg67
(lp1791
g60
(g61
g62
NtRp1792
(dp1793
g65
(dp1794
g73
I5
ssg74
g1788
sg67
(lp1795
S'type_log_manage'
p1796
asbasbasbag60
(g76
g62
NtRp1797
(dp1798
g65
(dp1799
sg74
g70
sg67
(lp1800
g60
(g81
g62
NtRp1801
(dp1802
g65
(dp1803
g85
g86
ssg74
g1797
sg67
(lp1804
S'get_vars'
p1805
asbag60
(g81
g62
NtRp1806
(dp1807
g65
(dp1808
g92
g93
ssg74
g1797
sg67
(lp1809
S':'
asbag60
(g81
g62
NtRp1810
(dp1811
g65
(dp1812
sg74
g1797
sg67
(lp1813
g60
(g61
g62
NtRp1814
(dp1815
g65
(dp1816
g73
I5
ssg74
g1810
sg67
(lp1817
g60
(g69
g62
NtRp1818
(dp1819
g65
(dp1820
g73
I4
ssg74
Nsg67
(lp1821
sbasbasbasbag60
(g76
g62
NtRp1822
(dp1823
g65
(dp1824
sg74
g70
sg67
(lp1825
g60
(g81
g62
NtRp1826
(dp1827
g65
(dp1828
g85
g86
ssg74
g1822
sg67
(lp1829
S'global_settings'
p1830
asbag60
(g81
g62
NtRp1831
(dp1832
g65
(dp1833
g92
g93
ssg74
g1822
sg67
(lp1834
S':'
asbag60
(g81
g62
NtRp1835
(dp1836
g65
(dp1837
sg74
g1822
sg67
(lp1838
g60
(g61
g62
NtRp1839
(dp1840
g65
(dp1841
g73
I5
ssg74
g1835
sg67
(lp1842
g60
(g69
g62
NtRp1843
(dp1844
g65
(dp1845
g73
I4
ssg74
Nsg67
(lp1846
g60
(g76
g62
NtRp1847
(dp1848
g65
(dp1849
sg74
g1843
sg67
(lp1850
g60
(g81
g62
NtRp1851
(dp1852
g65
(dp1853
g85
g86
ssg74
g1847
sg67
(lp1854
g837
asbag60
(g81
g62
NtRp1855
(dp1856
g65
(dp1857
g92
g93
ssg74
g1847
sg67
(lp1858
S':'
asbag60
(g81
g62
NtRp1859
(dp1860
g65
(dp1861
sg74
g1847
sg67
(lp1862
g60
(g61
g62
NtRp1863
(dp1864
g65
(dp1865
g73
I4
ssg74
g1859
sg67
(lp1866
S"set(['/home/jose/DESARROLLO/web2py199/applications/streamlog/', '/home/jose/DESARROLLO/web2py199/applications/admin/'])"
p1867
asbasbasbag60
(g76
g62
NtRp1868
(dp1869
g65
(dp1870
sg74
g1843
sg67
(lp1871
g60
(g81
g62
NtRp1872
(dp1873
g65
(dp1874
g85
g86
ssg74
g1868
sg67
(lp1875
g859
asbag60
(g81
g62
NtRp1876
(dp1877
g65
(dp1878
g92
g93
ssg74
g1868
sg67
(lp1879
S':'
asbag60
(g81
g62
NtRp1880
(dp1881
g65
(dp1882
sg74
g1868
sg67
(lp1883
g60
(g61
g62
NtRp1884
(dp1885
g65
(dp1886
g73
I4
ssg74
g1880
sg67
(lp1887
g872
asbasbasbag60
(g76
g62
NtRp1888
(dp1889
g65
(dp1890
sg74
g1843
sg67
(lp1891
g60
(g81
g62
NtRp1892
(dp1893
g65
(dp1894
g85
g86
ssg74
g1888
sg67
(lp1895
g881
asbag60
(g81
g62
NtRp1896
(dp1897
g65
(dp1898
g92
g93
ssg74
g1888
sg67
(lp1899
S':'
asbag60
(g81
g62
NtRp1900
(dp1901
g65
(dp1902
sg74
g1888
sg67
(lp1903
g60
(g61
g62
NtRp1904
(dp1905
g65
(dp1906
g73
I4
ssg74
g1900
sg67
(lp1907
g60
(g69
g62
NtRp1908
(dp1909
g65
(dp1910
g73
I3
ssg74
Nsg67
(lp1911
sbasbasbasbag60
(g76
g62
NtRp1912
(dp1913
g65
(dp1914
sg74
g1843
sg67
(lp1915
g60
(g81
g62
NtRp1916
(dp1917
g65
(dp1918
g85
g86
ssg74
g1912
sg67
(lp1919
g906
asbag60
(g81
g62
NtRp1920
(dp1921
g65
(dp1922
g92
g93
ssg74
g1912
sg67
(lp1923
S':'
asbag60
(g81
g62
NtRp1924
(dp1925
g65
(dp1926
sg74
g1912
sg67
(lp1927
g60
(g61
g62
NtRp1928
(dp1929
g65
(dp1930
g73
I4
ssg74
g1924
sg67
(lp1931
S"<Values at 0x2a2ff80: {'verbose': False, 'ip': '127.0.0.1', 'shutdown_timeout': 5, 'taskbar': False, 'nocron': False, 'pid_filename': 'httpserver.pid', 'maxthreads': None, 'softcron': False, 'server_name': 'jose', 'bpython': False, 'nogui': False, 'port': 8000, 'extcron': False, 'debuglevel': 30, 'test': None, 'folder': '/home/jose/DESARROLLO/web2py199', 'config': '', 'import_models': False, 'winservice': '', 'shell': None, 'run': '', 'log_filename': 'httpserver.log', 'args': [''], 'ssl_ca_certificate': None, 'scheduler': None, 'profiler_filename': None, 'ssl_private_key': '', 'password': 't', 'request_queue_size': 5, 'ssl_certificate': '', 'cronjob': False, 'plain': False, 'quiet': False, 'interfaces': None, 'minthreads': None, 'timeout': 10, 'numthreads': None, 'nobanner': False}>"
p1932
asbasbasbag60
(g76
g62
NtRp1933
(dp1934
g65
(dp1935
sg74
g1843
sg67
(lp1936
g60
(g81
g62
NtRp1937
(dp1938
g65
(dp1939
g85
g86
ssg74
g1933
sg67
(lp1940
g928
asbag60
(g81
g62
NtRp1941
(dp1942
g65
(dp1943
g92
g93
ssg74
g1933
sg67
(lp1944
S':'
asbag60
(g81
g62
NtRp1945
(dp1946
g65
(dp1947
sg74
g1933
sg67
(lp1948
g60
(g61
g62
NtRp1949
(dp1950
g65
(dp1951
g73
I4
ssg74
g1945
sg67
(lp1952
S'set([])'
p1953
asbasbasbag60
(g76
g62
NtRp1954
(dp1955
g65
(dp1956
sg74
g1843
sg67
(lp1957
g60
(g81
g62
NtRp1958
(dp1959
g65
(dp1960
g85
g86
ssg74
g1954
sg67
(lp1961
g950
asbag60
(g81
g62
NtRp1962
(dp1963
g65
(dp1964
g92
g93
ssg74
g1954
sg67
(lp1965
S':'
asbag60
(g81
g62
NtRp1966
(dp1967
g65
(dp1968
sg74
g1954
sg67
(lp1969
g60
(g61
g62
NtRp1970
(dp1971
g65
(dp1972
g73
I4
ssg74
g1966
sg67
(lp1973
g103
asbasbasbag60
(g76
g62
NtRp1974
(dp1975
g65
(dp1976
sg74
g1843
sg67
(lp1977
g60
(g81
g62
NtRp1978
(dp1979
g65
(dp1980
g85
g86
ssg74
g1974
sg67
(lp1981
g971
asbag60
(g81
g62
NtRp1982
(dp1983
g65
(dp1984
g92
g93
ssg74
g1974
sg67
(lp1985
S':'
asbag60
(g81
g62
NtRp1986
(dp1987
g65
(dp1988
sg74
g1974
sg67
(lp1989
g60
(g61
g62
NtRp1990
(dp1991
g65
(dp1992
g73
I4
ssg74
g1986
sg67
(lp1993
g984
asbasbasbag60
(g76
g62
NtRp1994
(dp1995
g65
(dp1996
sg74
g1843
sg67
(lp1997
g60
(g81
g62
NtRp1998
(dp1999
g65
(dp2000
g85
g86
ssg74
g1994
sg67
(lp2001
g1169
asbag60
(g81
g62
NtRp2002
(dp2003
g65
(dp2004
g92
g93
ssg74
g1994
sg67
(lp2005
S':'
asbag60
(g81
g62
NtRp2006
(dp2007
g65
(dp2008
sg74
g1994
sg67
(lp2009
g60
(g61
g62
NtRp2010
(dp2011
g65
(dp2012
g73
I4
ssg74
g2006
sg67
(lp2013
g103
asbasbasbag60
(g76
g62
NtRp2014
(dp2015
g65
(dp2016
sg74
g1843
sg67
(lp2017
g60
(g81
g62
NtRp2018
(dp2019
g65
(dp2020
g85
g86
ssg74
g2014
sg67
(lp2021
g1407
asbag60
(g81
g62
NtRp2022
(dp2023
g65
(dp2024
g92
g93
ssg74
g2014
sg67
(lp2025
S':'
asbag60
(g81
g62
NtRp2026
(dp2027
g65
(dp2028
sg74
g2014
sg67
(lp2029
g60
(g61
g62
NtRp2030
(dp2031
g65
(dp2032
g73
I4
ssg74
g2026
sg67
(lp2033
g1420
asbasbasbag60
(g76
g62
NtRp2034
(dp2035
g65
(dp2036
sg74
g1843
sg67
(lp2037
g60
(g81
g62
NtRp2038
(dp2039
g65
(dp2040
g85
g86
ssg74
g2034
sg67
(lp2041
g1450
asbag60
(g81
g62
NtRp2042
(dp2043
g65
(dp2044
g92
g93
ssg74
g2034
sg67
(lp2045
S':'
asbag60
(g81
g62
NtRp2046
(dp2047
g65
(dp2048
sg74
g2034
sg67
(lp2049
g60
(g61
g62
NtRp2050
(dp2051
g65
(dp2052
g73
I4
ssg74
g2046
sg67
(lp2053
g60
(g69
g62
NtRp2054
(dp2055
g65
(dp2056
g73
I3
ssg74
Nsg67
(lp2057
g60
(g76
g62
NtRp2058
(dp2059
g65
(dp2060
sg74
g2054
sg67
(lp2061
g60
(g81
g62
NtRp2062
(dp2063
g65
(dp2064
sg74
g2058
sg67
(lp2065
g60
(g61
g62
NtRp2066
(dp2067
g65
(dp2068
g73
I3
ssg74
g2062
sg67
(lp2069
S'1'
asbasbasbag60
(g76
g62
NtRp2070
(dp2071
g65
(dp2072
sg74
g2054
sg67
(lp2073
g60
(g81
g62
NtRp2074
(dp2075
g65
(dp2076
sg74
g2070
sg67
(lp2077
g60
(g61
g62
NtRp2078
(dp2079
g65
(dp2080
g73
I3
ssg74
g2074
sg67
(lp2081
S'99'
p2082
asbasbasbag60
(g76
g62
NtRp2083
(dp2084
g65
(dp2085
sg74
g2054
sg67
(lp2086
g60
(g81
g62
NtRp2087
(dp2088
g65
(dp2089
sg74
g2083
sg67
(lp2090
g60
(g61
g62
NtRp2091
(dp2092
g65
(dp2093
g73
I3
ssg74
g2087
sg67
(lp2094
S'2'
asbasbasbag60
(g76
g62
NtRp2095
(dp2096
g65
(dp2097
sg74
g2054
sg67
(lp2098
g60
(g81
g62
NtRp2099
(dp2100
g65
(dp2101
sg74
g2095
sg67
(lp2102
g60
(g61
g62
NtRp2103
(dp2104
g65
(dp2105
g73
I3
ssg74
g2099
sg67
(lp2106
S'datetime.datetime(2011, 9, 26, 6, 55, 33)'
p2107
asbasbasbag60
(g76
g62
NtRp2108
(dp2109
g65
(dp2110
sg74
g2054
sg67
(lp2111
g60
(g81
g62
NtRp2112
(dp2113
g65
(dp2114
sg74
g2108
sg67
(lp2115
g60
(g61
g62
NtRp2116
(dp2117
g65
(dp2118
g73
I3
ssg74
g2112
sg67
(lp2119
g1529
asbasbasbasbasbasbasbasbasbasbasbag60
(g76
g62
NtRp2120
(dp2121
g65
(dp2122
sg74
g70
sg67
(lp2123
g60
(g81
g62
NtRp2124
(dp2125
g65
(dp2126
g85
g86
ssg74
g2120
sg67
(lp2127
S'is_https'
p2128
asbag60
(g81
g62
NtRp2129
(dp2130
g65
(dp2131
g92
g93
ssg74
g2120
sg67
(lp2132
S':'
asbag60
(g81
g62
NtRp2133
(dp2134
g65
(dp2135
sg74
g2120
sg67
(lp2136
g60
(g61
g62
NtRp2137
(dp2138
g65
(dp2139
g73
I5
ssg74
g2133
sg67
(lp2140
g103
asbasbasbag60
(g76
g62
NtRp2141
(dp2142
g65
(dp2143
sg74
g70
sg67
(lp2144
g60
(g81
g62
NtRp2145
(dp2146
g65
(dp2147
g85
g86
ssg74
g2141
sg67
(lp2148
S'is_local'
p2149
asbag60
(g81
g62
NtRp2150
(dp2151
g65
(dp2152
g92
g93
ssg74
g2141
sg67
(lp2153
S':'
asbag60
(g81
g62
NtRp2154
(dp2155
g65
(dp2156
sg74
g2141
sg67
(lp2157
g60
(g61
g62
NtRp2158
(dp2159
g65
(dp2160
g73
I5
ssg74
g2154
sg67
(lp2161
g1638
asbasbasbag60
(g76
g62
NtRp2162
(dp2163
g65
(dp2164
sg74
g70
sg67
(lp2165
g60
(g81
g62
NtRp2166
(dp2167
g65
(dp2168
g85
g86
ssg74
g2162
sg67
(lp2169
S'is_restful'
p2170
asbag60
(g81
g62
NtRp2171
(dp2172
g65
(dp2173
g92
g93
ssg74
g2162
sg67
(lp2174
S':'
asbag60
(g81
g62
NtRp2175
(dp2176
g65
(dp2177
sg74
g2162
sg67
(lp2178
g60
(g61
g62
NtRp2179
(dp2180
g65
(dp2181
g73
I5
ssg74
g2175
sg67
(lp2182
g103
asbasbasbag60
(g76
g62
NtRp2183
(dp2184
g65
(dp2185
sg74
g70
sg67
(lp2186
g60
(g81
g62
NtRp2187
(dp2188
g65
(dp2189
g85
g86
ssg74
g2183
sg67
(lp2190
S'now'
p2191
asbag60
(g81
g62
NtRp2192
(dp2193
g65
(dp2194
g92
g93
ssg74
g2183
sg67
(lp2195
S':'
asbag60
(g81
g62
NtRp2196
(dp2197
g65
(dp2198
sg74
g2183
sg67
(lp2199
g60
(g61
g62
NtRp2200
(dp2201
g65
(dp2202
g73
I5
ssg74
g2196
sg67
(lp2203
S'datetime.datetime(2012, 5, 27, 11, 48, 0, 105409)'
p2204
asbasbasbag60
(g76
g62
NtRp2205
(dp2206
g65
(dp2207
sg74
g70
sg67
(lp2208
g60
(g81
g62
NtRp2209
(dp2210
g65
(dp2211
g85
g86
ssg74
g2205
sg67
(lp2212
S'post_vars'
p2213
asbag60
(g81
g62
NtRp2214
(dp2215
g65
(dp2216
g92
g93
ssg74
g2205
sg67
(lp2217
S':'
asbag60
(g81
g62
NtRp2218
(dp2219
g65
(dp2220
sg74
g2205
sg67
(lp2221
g60
(g61
g62
NtRp2222
(dp2223
g65
(dp2224
g73
I5
ssg74
g2218
sg67
(lp2225
g60
(g69
g62
NtRp2226
(dp2227
g65
(dp2228
g73
I4
ssg74
Nsg67
(lp2229
sbasbasbasbag60
(g76
g62
NtRp2230
(dp2231
g65
(dp2232
sg74
g70
sg67
(lp2233
g60
(g81
g62
NtRp2234
(dp2235
g65
(dp2236
g85
g86
ssg74
g2230
sg67
(lp2237
S'url'
p2238
asbag60
(g81
g62
NtRp2239
(dp2240
g65
(dp2241
g92
g93
ssg74
g2230
sg67
(lp2242
S':'
asbag60
(g81
g62
NtRp2243
(dp2244
g65
(dp2245
sg74
g2230
sg67
(lp2246
g60
(g61
g62
NtRp2247
(dp2248
g65
(dp2249
g73
I5
ssg74
g2243
sg67
(lp2250
S'/streamlog/default/type_log_manage'
p2251
asbasbasbag60
(g76
g62
NtRp2252
(dp2253
g65
(dp2254
sg74
g70
sg67
(lp2255
g60
(g81
g62
NtRp2256
(dp2257
g65
(dp2258
g85
g86
ssg74
g2252
sg67
(lp2259
S'utcnow'
p2260
asbag60
(g81
g62
NtRp2261
(dp2262
g65
(dp2263
g92
g93
ssg74
g2252
sg67
(lp2264
S':'
asbag60
(g81
g62
NtRp2265
(dp2266
g65
(dp2267
sg74
g2252
sg67
(lp2268
g60
(g61
g62
NtRp2269
(dp2270
g65
(dp2271
g73
I5
ssg74
g2265
sg67
(lp2272
S'datetime.datetime(2012, 5, 27, 4, 48, 0, 105481)'
p2273
asbasbasbag60
(g76
g62
NtRp2274
(dp2275
g65
(dp2276
sg74
g70
sg67
(lp2277
g60
(g81
g62
NtRp2278
(dp2279
g65
(dp2280
g85
g86
ssg74
g2274
sg67
(lp2281
S'uuid'
p2282
asbag60
(g81
g62
NtRp2283
(dp2284
g65
(dp2285
g92
g93
ssg74
g2274
sg67
(lp2286
S':'
asbag60
(g81
g62
NtRp2287
(dp2288
g65
(dp2289
sg74
g2274
sg67
(lp2290
g60
(g61
g62
NtRp2291
(dp2292
g65
(dp2293
g73
I5
ssg74
g2287
sg67
(lp2294
S'streamlog/127.0.0.1.2012-05-27.11-48-00.45d40e35-9bac-423c-91c6-1ce16c1b603f'
p2295
asbasbasbag60
(g76
g62
NtRp2296
(dp2297
g65
(dp2298
sg74
g70
sg67
(lp2299
g60
(g81
g62
NtRp2300
(dp2301
g65
(dp2302
g85
g86
ssg74
g2296
sg67
(lp2303
S'vars'
p2304
asbag60
(g81
g62
NtRp2305
(dp2306
g65
(dp2307
g92
g93
ssg74
g2296
sg67
(lp2308
S':'
asbag60
(g81
g62
NtRp2309
(dp2310
g65
(dp2311
sg74
g2296
sg67
(lp2312
g60
(g61
g62
NtRp2313
(dp2314
g65
(dp2315
g73
I5
ssg74
g2309
sg67
(lp2316
g60
(g69
g62
NtRp2317
(dp2318
g65
(dp2319
g73
I4
ssg74
Nsg67
(lp2320
g60
(g76
g62
NtRp2321
(dp2322
g65
(dp2323
sg74
g2317
sg67
(lp2324
g60
(g81
g62
NtRp2325
(dp2326
g65
(dp2327
g85
g86
ssg74
g2321
sg67
(lp2328
S'records'
p2329
asbag60
(g81
g62
NtRp2330
(dp2331
g65
(dp2332
g92
g93
ssg74
g2321
sg67
(lp2333
S':'
asbag60
(g81
g62
NtRp2334
(dp2335
g65
(dp2336
sg74
g2321
sg67
(lp2337
g60
(g61
g62
NtRp2338
(dp2339
g65
(dp2340
g73
I4
ssg74
g2334
sg67
(lp2341
g60
(g69
g62
NtRp2342
(dp2343
g65
(dp2344
g73
I3
ssg74
Nsg67
(lp2345
sbasbasbasbasbasbasbasbag60
(g76
g62
NtRp2346
(dp2347
g65
(dp2348
sg74
g70
sg67
(lp2349
g60
(g81
g62
NtRp2350
(dp2351
g65
(dp2352
g85
g86
ssg74
g2346
sg67
(lp2353
S'wsgi'
p2354
asbag60
(g81
g62
NtRp2355
(dp2356
g65
(dp2357
g92
g93
ssg74
g2346
sg67
(lp2358
S':'
asbag60
(g81
g62
NtRp2359
(dp2360
g65
(dp2361
sg74
g2346
sg67
(lp2362
g60
(g61
g62
NtRp2363
(dp2364
g65
(dp2365
g73
I5
ssg74
g2359
sg67
(lp2366
g60
(g69
g62
NtRp2367
(dp2368
g65
(dp2369
g73
I4
ssg74
Nsg67
(lp2370
g60
(g76
g62
NtRp2371
(dp2372
g65
(dp2373
sg74
g2367
sg67
(lp2374
g60
(g81
g62
NtRp2375
(dp2376
g65
(dp2377
g85
g86
ssg74
g2371
sg67
(lp2378
S'environ'
p2379
asbag60
(g81
g62
NtRp2380
(dp2381
g65
(dp2382
g92
g93
ssg74
g2371
sg67
(lp2383
S':'
asbag60
(g81
g62
NtRp2384
(dp2385
g65
(dp2386
sg74
g2371
sg67
(lp2387
g60
(g61
g62
NtRp2388
(dp2389
g65
(dp2390
g73
I4
ssg74
g2384
sg67
(lp2391
g60
(g69
g62
NtRp2392
(dp2393
g65
(dp2394
g73
I3
ssg74
Nsg67
(lp2395
g60
(g76
g62
NtRp2396
(dp2397
g65
(dp2398
sg74
g2392
sg67
(lp2399
g60
(g81
g62
NtRp2400
(dp2401
g65
(dp2402
g85
g86
ssg74
g2396
sg67
(lp2403
S'HTTP_ACCEPT'
p2404
asbag60
(g81
g62
NtRp2405
(dp2406
g65
(dp2407
g92
g93
ssg74
g2396
sg67
(lp2408
S':'
asbag60
(g81
g62
NtRp2409
(dp2410
g65
(dp2411
sg74
g2396
sg67
(lp2412
g60
(g61
g62
NtRp2413
(dp2414
g65
(dp2415
g73
I3
ssg74
g2409
sg67
(lp2416
g1006
asbasbasbag60
(g76
g62
NtRp2417
(dp2418
g65
(dp2419
sg74
g2392
sg67
(lp2420
g60
(g81
g62
NtRp2421
(dp2422
g65
(dp2423
g85
g86
ssg74
g2417
sg67
(lp2424
S'HTTP_ACCEPT_ENCODING'
p2425
asbag60
(g81
g62
NtRp2426
(dp2427
g65
(dp2428
g92
g93
ssg74
g2417
sg67
(lp2429
S':'
asbag60
(g81
g62
NtRp2430
(dp2431
g65
(dp2432
sg74
g2417
sg67
(lp2433
g60
(g61
g62
NtRp2434
(dp2435
g65
(dp2436
g73
I3
ssg74
g2430
sg67
(lp2437
g1028
asbasbasbag60
(g76
g62
NtRp2438
(dp2439
g65
(dp2440
sg74
g2392
sg67
(lp2441
g60
(g81
g62
NtRp2442
(dp2443
g65
(dp2444
g85
g86
ssg74
g2438
sg67
(lp2445
S'HTTP_ACCEPT_LANGUAGE'
p2446
asbag60
(g81
g62
NtRp2447
(dp2448
g65
(dp2449
g92
g93
ssg74
g2438
sg67
(lp2450
S':'
asbag60
(g81
g62
NtRp2451
(dp2452
g65
(dp2453
sg74
g2438
sg67
(lp2454
g60
(g61
g62
NtRp2455
(dp2456
g65
(dp2457
g73
I3
ssg74
g2451
sg67
(lp2458
g1050
asbasbasbag60
(g76
g62
NtRp2459
(dp2460
g65
(dp2461
sg74
g2392
sg67
(lp2462
g60
(g81
g62
NtRp2463
(dp2464
g65
(dp2465
g85
g86
ssg74
g2459
sg67
(lp2466
S'HTTP_CONNECTION'
p2467
asbag60
(g81
g62
NtRp2468
(dp2469
g65
(dp2470
g92
g93
ssg74
g2459
sg67
(lp2471
S':'
asbag60
(g81
g62
NtRp2472
(dp2473
g65
(dp2474
sg74
g2459
sg67
(lp2475
g60
(g61
g62
NtRp2476
(dp2477
g65
(dp2478
g73
I3
ssg74
g2472
sg67
(lp2479
g1072
asbasbasbag60
(g76
g62
NtRp2480
(dp2481
g65
(dp2482
sg74
g2392
sg67
(lp2483
g60
(g81
g62
NtRp2484
(dp2485
g65
(dp2486
g85
g86
ssg74
g2480
sg67
(lp2487
S'HTTP_COOKIE'
p2488
asbag60
(g81
g62
NtRp2489
(dp2490
g65
(dp2491
g92
g93
ssg74
g2480
sg67
(lp2492
S':'
asbag60
(g81
g62
NtRp2493
(dp2494
g65
(dp2495
sg74
g2480
sg67
(lp2496
g60
(g61
g62
NtRp2497
(dp2498
g65
(dp2499
g73
I3
ssg74
g2493
sg67
(lp2500
g1094
asbasbasbag60
(g76
g62
NtRp2501
(dp2502
g65
(dp2503
sg74
g2392
sg67
(lp2504
g60
(g81
g62
NtRp2505
(dp2506
g65
(dp2507
g85
g86
ssg74
g2501
sg67
(lp2508
S'HTTP_HOST'
p2509
asbag60
(g81
g62
NtRp2510
(dp2511
g65
(dp2512
g92
g93
ssg74
g2501
sg67
(lp2513
S':'
asbag60
(g81
g62
NtRp2514
(dp2515
g65
(dp2516
sg74
g2501
sg67
(lp2517
g60
(g61
g62
NtRp2518
(dp2519
g65
(dp2520
g73
I3
ssg74
g2514
sg67
(lp2521
g1116
asbasbasbag60
(g76
g62
NtRp2522
(dp2523
g65
(dp2524
sg74
g2392
sg67
(lp2525
g60
(g81
g62
NtRp2526
(dp2527
g65
(dp2528
g85
g86
ssg74
g2522
sg67
(lp2529
S'HTTP_REFERER'
p2530
asbag60
(g81
g62
NtRp2531
(dp2532
g65
(dp2533
g92
g93
ssg74
g2522
sg67
(lp2534
S':'
asbag60
(g81
g62
NtRp2535
(dp2536
g65
(dp2537
sg74
g2522
sg67
(lp2538
g60
(g61
g62
NtRp2539
(dp2540
g65
(dp2541
g73
I3
ssg74
g2535
sg67
(lp2542
g1138
asbasbasbag60
(g76
g62
NtRp2543
(dp2544
g65
(dp2545
sg74
g2392
sg67
(lp2546
g60
(g81
g62
NtRp2547
(dp2548
g65
(dp2549
g85
g86
ssg74
g2543
sg67
(lp2550
S'HTTP_USER_AGENT'
p2551
asbag60
(g81
g62
NtRp2552
(dp2553
g65
(dp2554
g92
g93
ssg74
g2543
sg67
(lp2555
S':'
asbag60
(g81
g62
NtRp2556
(dp2557
g65
(dp2558
sg74
g2543
sg67
(lp2559
g60
(g61
g62
NtRp2560
(dp2561
g65
(dp2562
g73
I3
ssg74
g2556
sg67
(lp2563
g1160
asbasbasbag60
(g76
g62
NtRp2564
(dp2565
g65
(dp2566
sg74
g2392
sg67
(lp2567
g60
(g81
g62
NtRp2568
(dp2569
g65
(dp2570
g85
g86
ssg74
g2564
sg67
(lp2571
S'PATH_INFO'
p2572
asbag60
(g81
g62
NtRp2573
(dp2574
g65
(dp2575
g92
g93
ssg74
g2564
sg67
(lp2576
S':'
asbag60
(g81
g62
NtRp2577
(dp2578
g65
(dp2579
sg74
g2564
sg67
(lp2580
g60
(g61
g62
NtRp2581
(dp2582
g65
(dp2583
g73
I3
ssg74
g2577
sg67
(lp2584
g1203
asbasbasbag60
(g76
g62
NtRp2585
(dp2586
g65
(dp2587
sg74
g2392
sg67
(lp2588
g60
(g81
g62
NtRp2589
(dp2590
g65
(dp2591
g85
g86
ssg74
g2585
sg67
(lp2592
S'QUERY_STRING'
p2593
asbag60
(g81
g62
NtRp2594
(dp2595
g65
(dp2596
g92
g93
ssg74
g2585
sg67
(lp2597
S':'
asbag60
(g81
g62
NtRp2598
(dp2599
g65
(dp2600
sg74
g2585
sg67
(lp2601
g60
(g61
g62
NtRp2602
(dp2603
g65
(dp2604
g73
I3
ssg74
g2598
sg67
(lp2605
S''
asbasbasbag60
(g76
g62
NtRp2606
(dp2607
g65
(dp2608
sg74
g2392
sg67
(lp2609
g60
(g81
g62
NtRp2610
(dp2611
g65
(dp2612
g85
g86
ssg74
g2606
sg67
(lp2613
S'REMOTE_ADDR'
p2614
asbag60
(g81
g62
NtRp2615
(dp2616
g65
(dp2617
g92
g93
ssg74
g2606
sg67
(lp2618
S':'
asbag60
(g81
g62
NtRp2619
(dp2620
g65
(dp2621
sg74
g2606
sg67
(lp2622
g60
(g61
g62
NtRp2623
(dp2624
g65
(dp2625
g73
I3
ssg74
g2619
sg67
(lp2626
g193
asbasbasbag60
(g76
g62
NtRp2627
(dp2628
g65
(dp2629
sg74
g2392
sg67
(lp2630
g60
(g81
g62
NtRp2631
(dp2632
g65
(dp2633
g85
g86
ssg74
g2627
sg67
(lp2634
S'REMOTE_PORT'
p2635
asbag60
(g81
g62
NtRp2636
(dp2637
g65
(dp2638
g92
g93
ssg74
g2627
sg67
(lp2639
S':'
asbag60
(g81
g62
NtRp2640
(dp2641
g65
(dp2642
sg74
g2627
sg67
(lp2643
g60
(g61
g62
NtRp2644
(dp2645
g65
(dp2646
g73
I3
ssg74
g2640
sg67
(lp2647
g1267
asbasbasbag60
(g76
g62
NtRp2648
(dp2649
g65
(dp2650
sg74
g2392
sg67
(lp2651
g60
(g81
g62
NtRp2652
(dp2653
g65
(dp2654
g85
g86
ssg74
g2648
sg67
(lp2655
S'REQUEST_METHOD'
p2656
asbag60
(g81
g62
NtRp2657
(dp2658
g65
(dp2659
g92
g93
ssg74
g2648
sg67
(lp2660
S':'
asbag60
(g81
g62
NtRp2661
(dp2662
g65
(dp2663
sg74
g2648
sg67
(lp2664
g60
(g61
g62
NtRp2665
(dp2666
g65
(dp2667
g73
I3
ssg74
g2661
sg67
(lp2668
g1289
asbasbasbag60
(g76
g62
NtRp2669
(dp2670
g65
(dp2671
sg74
g2392
sg67
(lp2672
g60
(g81
g62
NtRp2673
(dp2674
g65
(dp2675
g85
g86
ssg74
g2669
sg67
(lp2676
S'SCRIPT_NAME'
p2677
asbag60
(g81
g62
NtRp2678
(dp2679
g65
(dp2680
g92
g93
ssg74
g2669
sg67
(lp2681
S':'
asbag60
(g81
g62
NtRp2682
(dp2683
g65
(dp2684
sg74
g2669
sg67
(lp2685
g60
(g61
g62
NtRp2686
(dp2687
g65
(dp2688
g73
I3
ssg74
g2682
sg67
(lp2689
S''
asbasbasbag60
(g76
g62
NtRp2690
(dp2691
g65
(dp2692
sg74
g2392
sg67
(lp2693
g60
(g81
g62
NtRp2694
(dp2695
g65
(dp2696
g85
g86
ssg74
g2690
sg67
(lp2697
S'SERVER_NAME'
p2698
asbag60
(g81
g62
NtRp2699
(dp2700
g65
(dp2701
g92
g93
ssg74
g2690
sg67
(lp2702
S':'
asbag60
(g81
g62
NtRp2703
(dp2704
g65
(dp2705
sg74
g2690
sg67
(lp2706
g60
(g61
g62
NtRp2707
(dp2708
g65
(dp2709
g73
I3
ssg74
g2703
sg67
(lp2710
g1332
asbasbasbag60
(g76
g62
NtRp2711
(dp2712
g65
(dp2713
sg74
g2392
sg67
(lp2714
g60
(g81
g62
NtRp2715
(dp2716
g65
(dp2717
g85
g86
ssg74
g2711
sg67
(lp2718
S'SERVER_PORT'
p2719
asbag60
(g81
g62
NtRp2720
(dp2721
g65
(dp2722
g92
g93
ssg74
g2711
sg67
(lp2723
S':'
asbag60
(g81
g62
NtRp2724
(dp2725
g65
(dp2726
sg74
g2711
sg67
(lp2727
g60
(g61
g62
NtRp2728
(dp2729
g65
(dp2730
g73
I3
ssg74
g2724
sg67
(lp2731
g1354
asbasbasbag60
(g76
g62
NtRp2732
(dp2733
g65
(dp2734
sg74
g2392
sg67
(lp2735
g60
(g81
g62
NtRp2736
(dp2737
g65
(dp2738
g85
g86
ssg74
g2732
sg67
(lp2739
S'SERVER_PROTOCOL'
p2740
asbag60
(g81
g62
NtRp2741
(dp2742
g65
(dp2743
g92
g93
ssg74
g2732
sg67
(lp2744
S':'
asbag60
(g81
g62
NtRp2745
(dp2746
g65
(dp2747
sg74
g2732
sg67
(lp2748
g60
(g61
g62
NtRp2749
(dp2750
g65
(dp2751
g73
I3
ssg74
g2745
sg67
(lp2752
g1376
asbasbasbag60
(g76
g62
NtRp2753
(dp2754
g65
(dp2755
sg74
g2392
sg67
(lp2756
g60
(g81
g62
NtRp2757
(dp2758
g65
(dp2759
g85
g86
ssg74
g2753
sg67
(lp2760
S'SERVER_SOFTWARE'
p2761
asbag60
(g81
g62
NtRp2762
(dp2763
g65
(dp2764
g92
g93
ssg74
g2753
sg67
(lp2765
S':'
asbag60
(g81
g62
NtRp2766
(dp2767
g65
(dp2768
sg74
g2753
sg67
(lp2769
g60
(g61
g62
NtRp2770
(dp2771
g65
(dp2772
g73
I3
ssg74
g2766
sg67
(lp2773
g1398
asbasbasbag60
(g76
g62
NtRp2774
(dp2775
g65
(dp2776
sg74
g2392
sg67
(lp2777
g60
(g81
g62
NtRp2778
(dp2779
g65
(dp2780
g85
g86
ssg74
g2774
sg67
(lp2781
S'wsgi.errors'
p2782
asbag60
(g81
g62
NtRp2783
(dp2784
g65
(dp2785
g92
g93
ssg74
g2774
sg67
(lp2786
S':'
asbag60
(g81
g62
NtRp2787
(dp2788
g65
(dp2789
sg74
g2774
sg67
(lp2790
g60
(g61
g62
NtRp2791
(dp2792
g65
(dp2793
g73
I3
ssg74
g2787
sg67
(lp2794
S"<open file '<stderr>', mode 'w' at 0x7faf4eae9270>"
p2795
asbasbasbag60
(g76
g62
NtRp2796
(dp2797
g65
(dp2798
sg74
g2392
sg67
(lp2799
g60
(g81
g62
NtRp2800
(dp2801
g65
(dp2802
g85
g86
ssg74
g2796
sg67
(lp2803
S'wsgi.file_wrapper'
p2804
asbag60
(g81
g62
NtRp2805
(dp2806
g65
(dp2807
g92
g93
ssg74
g2796
sg67
(lp2808
S':'
asbag60
(g81
g62
NtRp2809
(dp2810
g65
(dp2811
sg74
g2796
sg67
(lp2812
g60
(g61
g62
NtRp2813
(dp2814
g65
(dp2815
g73
I3
ssg74
g2809
sg67
(lp2816
S'<class wsgiref.util.FileWrapper at 0x294cd50>'
p2817
asbasbasbag60
(g76
g62
NtRp2818
(dp2819
g65
(dp2820
sg74
g2392
sg67
(lp2821
g60
(g81
g62
NtRp2822
(dp2823
g65
(dp2824
g85
g86
ssg74
g2818
sg67
(lp2825
S'wsgi.input'
p2826
asbag60
(g81
g62
NtRp2827
(dp2828
g65
(dp2829
g92
g93
ssg74
g2818
sg67
(lp2830
S':'
asbag60
(g81
g62
NtRp2831
(dp2832
g65
(dp2833
sg74
g2818
sg67
(lp2834
g60
(g61
g62
NtRp2835
(dp2836
g65
(dp2837
g73
I3
ssg74
g2831
sg67
(lp2838
S'<cStringIO.StringO object at 0x3b0b030>'
p2839
asbasbasbag60
(g76
g62
NtRp2840
(dp2841
g65
(dp2842
sg74
g2392
sg67
(lp2843
g60
(g81
g62
NtRp2844
(dp2845
g65
(dp2846
g85
g86
ssg74
g2840
sg67
(lp2847
S'wsgi.multiprocess'
p2848
asbag60
(g81
g62
NtRp2849
(dp2850
g65
(dp2851
g92
g93
ssg74
g2840
sg67
(lp2852
S':'
asbag60
(g81
g62
NtRp2853
(dp2854
g65
(dp2855
sg74
g2840
sg67
(lp2856
g60
(g61
g62
NtRp2857
(dp2858
g65
(dp2859
g73
I3
ssg74
g2853
sg67
(lp2860
g103
asbasbasbag60
(g76
g62
NtRp2861
(dp2862
g65
(dp2863
sg74
g2392
sg67
(lp2864
g60
(g81
g62
NtRp2865
(dp2866
g65
(dp2867
g85
g86
ssg74
g2861
sg67
(lp2868
S'wsgi.multithread'
p2869
asbag60
(g81
g62
NtRp2870
(dp2871
g65
(dp2872
g92
g93
ssg74
g2861
sg67
(lp2873
S':'
asbag60
(g81
g62
NtRp2874
(dp2875
g65
(dp2876
sg74
g2861
sg67
(lp2877
g60
(g61
g62
NtRp2878
(dp2879
g65
(dp2880
g73
I3
ssg74
g2874
sg67
(lp2881
g1638
asbasbasbag60
(g76
g62
NtRp2882
(dp2883
g65
(dp2884
sg74
g2392
sg67
(lp2885
g60
(g81
g62
NtRp2886
(dp2887
g65
(dp2888
g85
g86
ssg74
g2882
sg67
(lp2889
S'wsgi.run_once'
p2890
asbag60
(g81
g62
NtRp2891
(dp2892
g65
(dp2893
g92
g93
ssg74
g2882
sg67
(lp2894
S':'
asbag60
(g81
g62
NtRp2895
(dp2896
g65
(dp2897
sg74
g2882
sg67
(lp2898
g60
(g61
g62
NtRp2899
(dp2900
g65
(dp2901
g73
I3
ssg74
g2895
sg67
(lp2902
g103
asbasbasbag60
(g76
g62
NtRp2903
(dp2904
g65
(dp2905
sg74
g2392
sg67
(lp2906
g60
(g81
g62
NtRp2907
(dp2908
g65
(dp2909
g85
g86
ssg74
g2903
sg67
(lp2910
S'wsgi.url_scheme'
p2911
asbag60
(g81
g62
NtRp2912
(dp2913
g65
(dp2914
g92
g93
ssg74
g2903
sg67
(lp2915
S':'
asbag60
(g81
g62
NtRp2916
(dp2917
g65
(dp2918
sg74
g2903
sg67
(lp2919
g60
(g61
g62
NtRp2920
(dp2921
g65
(dp2922
g73
I3
ssg74
g2916
sg67
(lp2923
g1681
asbasbasbag60
(g76
g62
NtRp2924
(dp2925
g65
(dp2926
sg74
g2392
sg67
(lp2927
g60
(g81
g62
NtRp2928
(dp2929
g65
(dp2930
g85
g86
ssg74
g2924
sg67
(lp2931
S'wsgi.version'
p2932
asbag60
(g81
g62
NtRp2933
(dp2934
g65
(dp2935
g92
g93
ssg74
g2924
sg67
(lp2936
S':'
asbag60
(g81
g62
NtRp2937
(dp2938
g65
(dp2939
sg74
g2924
sg67
(lp2940
g60
(g61
g62
NtRp2941
(dp2942
g65
(dp2943
g73
I3
ssg74
g2937
sg67
(lp2944
S'1'
asbasbasbasbasbasbasbasbasbasbasbasbasbsS'frames'
p2945
(lp2946
(dp2947
S'file'
p2948
S'/home/jose/DESARROLLO/web2py199/gluon/restricted.py'
p2949
sS'dump'
p2950
(dp2951
S'environment'
p2952
S"{'A': <class 'gluon.html.A'>, 'Auth': <class 'gluon.tools.Auth'>, 'B': <class 'gluon.html.B'>, 'BEAUTIFY': <class 'gluon.html.BEAUTIFY'>, 'BODY': <class 'gluon.html.BODY'>, 'BR': <class 'gluon.html.BR'>, 'BUTTON': <class 'gluon.html.BUTTON'>, 'CAT': <class 'gluon.html.CAT'>, 'CENTER': <class 'gluon.html.CENTER'>, 'CLEANUP': <class 'gluon.validators.CLEANUP'>, ...}"
p2953
sS'ccode'
p2954
S'<code object <module> at 0x4ea92b0, file "/home/...tions/streamlog/controllers/default.py", line 14>'
p2955
ssS'lnum'
p2956
I194
sS'lines'
p2957
(dp2958
I192
S'        else:'
p2959
sI193
S'            ccode = compile2(code,layer)'
p2960
sI194
S'        exec ccode in environment'
p2961
sI195
S'    except HTTP:'
p2962
sI196
S'        raise'
p2963
sI197
S'    except Exception, error:'
p2964
sI198
S'        # XXX Show exception in Wing IDE if running in debugger'
p2965
sI189
S'    try:'
p2966
sI190
S'        if type(code) == types.CodeType:'
p2967
sI191
S'            ccode = code'
p2968
ssS'call'
p2969
S"(code='# -*- coding: utf-8 -*-\\n# this file is released ...response._vars=response._caller(type_log_manage)\\n', environment={'A': <class 'gluon.html.A'>, 'Auth': <class 'gluon.tools.Auth'>, 'B': <class 'gluon.html.B'>, 'BEAUTIFY': <class 'gluon.html.BEAUTIFY'>, 'BODY': <class 'gluon.html.BODY'>, 'BR': <class 'gluon.html.BR'>, 'BUTTON': <class 'gluon.html.BUTTON'>, 'CAT': <class 'gluon.html.CAT'>, 'CENTER': <class 'gluon.html.CENTER'>, 'CLEANUP': <class 'gluon.validators.CLEANUP'>, ...}, layer='/home/jose/DESARROLLO/web2py199/applications/streamlog/controllers/default.py')"
p2970
sS'func'
p2971
S'restricted'
p2972
sa(dp2973
g2948
S'/home/jose/DESARROLLO/web2py199/applications/streamlog/controllers/default.py'
p2974
sg2950
(dp2975
sg2956
I184
sg2957
(dp2976
I173
S'    http://..../[app]/default/data/update/[table]/[id]'
p2977
sI174
S'    http://..../[app]/default/data/delete/[table]/[id]'
p2978
sI175
S'    http://..../[app]/default/data/select/[table]'
p2979
sI176
S'    http://..../[app]/default/data/search/[table]'
p2980
sI177
S'    but URLs bust be signed, i.e. linked with'
p2981
sI178
S"      A('table',_href=URL('data/tables',user_signature=True))"
p2982
sI179
S'    or with the signed load operator'
p2983
sI180
S"      LOAD('default','data.load',args='tables',ajax=True,user_signature=True)"
p2984
sI181
S'    """'
p2985
sI182
S'    return dict(form=crud())'
p2986
ssg2969
S'()'
p2987
sg2971
S'<module>'
p2988
sa(dp2989
g2948
S'/home/jose/DESARROLLO/web2py199/gluon/globals.py'
p2990
sg2950
(dp2991
S'self'
p2992
S'undefined'
p2993
sS'f'
S'<function type_log_manage>'
p2994
ssg2956
I149
sg2957
(dp2995
I144
S'        self.meta = Storage()      # used by web2py_ajax.html'
p2996
sI145
S'        self.menu = []             # used by the default view layout'
p2997
sI146
S'        self.files = []            # used by web2py_ajax.html'
p2998
sI147
S'        self.generic_patterns = [] # patterns to allow generic views'
p2999
sI148
S'        self._vars = None'
p3000
sI149
S'        self._caller = lambda f: f()'
p3001
sI150
S'        self._view_environment = None'
p3002
sI151
S'        self._custom_commit = None'
p3003
sI152
S'        self._custom_rollback = None'
p3004
sI153
S''
ssg2969
S'(f=<function type_log_manage>)'
p3005
sg2971
S'<lambda>'
p3006
sa(dp3007
g2948
S'/home/jose/DESARROLLO/web2py199/applications/streamlog/controllers/default.py'
p3008
sg2950
(dp3009
S'SQLFORM.grid'
p3010
S'<function grid>'
p3011
sS'global SQLFORM'
p3012
S"<class 'gluon.sqlhtml.SQLFORM'>"
p3013
sS'global db'
p3014
S"<DAL {'auth_event': <Table {'origin': <gluon.dal..., 'id': <gluon.dal.Field object at 0x3aef950>}>}>"
p3015
sS'form'
p3016
g2993
sS'db.t_type_log'
p3017
S"<Table {'datemodified': <gluon.dal.Field object ...ription': <gluon.dal.Field object at 0x3b00090>}>"
p3018
ssg2956
I146
sg2957
(dp3019
I141
S'    form=SQLFORM.grid(db.t_log)'
p3020
sI142
S'    return locals()'
p3021
sI143
S''
sI144
S'def type_log_manage():'
p3022
sI145
S''
sI146
S'    form=SQLFORM.grid(db.t_type_log)'
p3023
sI147
S'    return locals()'
p3024
sI148
S''
sI149
S'def download():'
p3025
sI150
S'    """'
p3026
ssg2969
S'()'
p3027
sg2971
S'type_log_manage'
p3028
sa(dp3029
g2948
S'/home/jose/DESARROLLO/web2py199/gluon/sqlhtml.py'
p3030
sg2950
(dp3031
S'dbset.select'
p3032
S'<bound method Set.select of <gluon.dal.Set object>>'
p3033
sS'orderby'
p3034
S'None'
p3035
sS'rows'
p3036
g2993
sS'fields'
p3037
S'[<gluon.dal.Field object>, <gluon.dal.Field object>, <gluon.dal.Field object>, <gluon.dal.Field object>, <gluon.dal.Field object>, <gluon.dal.Field object>, <gluon.dal.Field object>]'
p3038
sS'limitby'
p3039
S'None'
p3040
sS'dbset'
p3041
S'<gluon.dal.Set object>'
p3042
sS'left'
p3043
S'None'
p3044
ssg2956
I1640
sg2957
(dp3045
I1635
S'            if page<npages-1:'
p3046
sI1636
S"                paginator.append(LI(self_link('>>',npages-1)))"
p3047
sI1637
S'        else:'
p3048
sI1638
S'            limitby = None'
p3049
sI1639
S''
sI1640
S'        rows = dbset.select(left=left,orderby=orderby,limitby=limitby,*fields)'
p3050
sI1641
S"        if not searchable and not rows: return DIV(T('No records found'))"
p3051
sI1642
S'        if rows:'
p3052
sI1643
S'            htmltable = TABLE(THEAD(head))'
p3053
sI1644
S'            tbody = TBODY()'
p3054
ssg2969
S"(query=<Table {'datemodified': <gluon.dal.Field object ...ription': <gluon.dal.Field object at 0x3b00090>}>, fields=[<gluon.dal.Field object>, <gluon.dal.Field object>, <gluon.dal.Field object>, <gluon.dal.Field object>, <gluon.dal.Field object>, <gluon.dal.Field object>, <gluon.dal.Field object>], field_id=<gluon.dal.Field object>, left=None, headers={}, columns=None, orderby=None, searchable=True, sortable=True, paginate=20, deletable=True, editable=True, details=True, selectable=None, create=True, csv=True, links=None, upload=<function <lambda>>, args=[], user_signature=True, maxtextlengths={}, maxtextlength=20, onvalidation=None, oncreate=None, onupdate=None, ondelete=None, sorter_icons=('[^]', '[v]'), ui={'button': 'button', 'buttonadd': 'icon plus', 'buttonback': 'icon leftarrow', 'buttondelete': 'icon trash', 'buttonedit': 'icon pen', 'buttonexport': 'icon downarrow', 'buttontable': 'icon rightarrow', 'buttontext': 'buttontext button', 'buttonview': 'icon magnifier', 'content': '', ...}, showbuttontext=True, _class='web2py_grid', formname='web2py_grid')"
p3055
sg2971
S'grid'
p3056
sa(dp3057
g2948
S'/home/jose/DESARROLLO/web2py199/gluon/dal.py'
p3058
sg2950
(dp3059
S'self.query'
p3060
S'<gluon.dal.Query object>'
p3061
sS'fields'
p3062
S'(<gluon.dal.Field object>, <gluon.dal.Field object>, <gluon.dal.Field object>, <gluon.dal.Field object>, <gluon.dal.Field object>, <gluon.dal.Field object>, <gluon.dal.Field object>)'
p3063
sS'self'
p3064
S'<gluon.dal.Set object>'
p3065
sS'self.db._adapter.select'
p3066
S'<bound method SQLiteAdapter.select of <gluon.dal.SQLiteAdapter object>>'
p3067
sS'self.db._adapter'
p3068
S'<gluon.dal.SQLiteAdapter object>'
p3069
sS'attributes'
p3070
S"{'left': None, 'limitby': None, 'orderby': None}"
p3071
sS'self.db'
p3072
S"<DAL {'auth_event': <Table {'origin': <gluon.dal..., 'id': <gluon.dal.Field object at 0x3aef950>}>}>"
p3073
ssg2956
I5697
sg2957
(dp3074
I5696
S'    def select(self, *fields, **attributes):'
p3075
sI5697
S'        return self.db._adapter.select(self.query,fields,attributes)'
p3076
sI5698
S''
sI5699
S'    def delete(self):'
p3077
sI5700
S'        tablename=self.db._adapter.get_table(self.query)'
p3078
sI5701
S'        self.delete_uploaded_files()'
p3079
sI5692
S''
sI5693
S'    def count(self,distinct=None):'
p3080
sI5694
S'        return self.db._adapter.count(self.query,distinct)'
p3081
sI5695
S''
ssg2969
S"(self=<gluon.dal.Set object>, *fields=(<gluon.dal.Field object>, <gluon.dal.Field object>, <gluon.dal.Field object>, <gluon.dal.Field object>, <gluon.dal.Field object>, <gluon.dal.Field object>, <gluon.dal.Field object>), **attributes={'left': None, 'limitby': None, 'orderby': None})"
p3082
sg2971
S'select'
p3083
sa(dp3084
g2948
S'/home/jose/DESARROLLO/web2py199/gluon/dal.py'
p3085
sg2950
(dp3086
S'rows'
p3087
g2993
sS'response'
p3088
S'<function response>'
p3089
sS'sql'
p3090
S"'SELECT  t_type_log.id, t_type_log.name, t_type_l...dified FROM t_type_log WHERE (t_type_log.id > 0);'"
p3091
ssg2956
I1233
sg2957
(dp3092
I1228
S"            del attributes['cache']"
p3093
sI1229
S"            key = self.uri + '/' + sql"
p3094
sI1230
S'            key = (key<=200) and key or hashlib.md5(key).hexdigest()'
p3095
sI1231
S'            rows = cache_model(key, lambda: response(sql), time_expire)'
p3096
sI1232
S'        else:'
p3097
sI1233
S'            rows = response(sql)'
p3098
sI1234
S'        if isinstance(rows,tuple):'
p3099
sI1235
S'            rows = list(rows)'
p3100
sI1236
S"        limitby = attributes.get('limitby',None) or (0,)"
p3101
sI1237
S'        rows = self.rowslice(rows,limitby[0],None)'
p3102
ssg2969
S"(self=<gluon.dal.SQLiteAdapter object>, query=<gluon.dal.Query object>, fields=(<gluon.dal.Field object>, <gluon.dal.Field object>, <gluon.dal.Field object>, <gluon.dal.Field object>, <gluon.dal.Field object>, <gluon.dal.Field object>, <gluon.dal.Field object>), attributes={'left': None, 'limitby': None, 'orderby': None})"
p3103
sg2971
g3083
sa(dp3104
g2948
S'/home/jose/DESARROLLO/web2py199/gluon/dal.py'
p3105
sg2950
(dp3106
S'self'
p3107
S'<gluon.dal.SQLiteAdapter object>'
p3108
sS'self.execute'
p3109
S'<bound method SQLiteAdapter.execute of <gluon.dal.SQLiteAdapter object>>'
p3110
sS'sql'
p3111
S"'SELECT  t_type_log.id, t_type_log.name, t_type_l...dified FROM t_type_log WHERE (t_type_log.id > 0);'"
p3112
ssg2956
I1223
sg2957
(dp3113
I1218
S'    def select(self,query,fields,attributes):'
p3114
sI1219
S'        """'
p3115
sI1220
S'        Always returns a Rows object, even if it may be empty'
p3116
sI1221
S'        """'
p3117
sI1222
S'        def response(sql):'
p3118
sI1223
S'            self.execute(sql)'
p3119
sI1224
S'            return self.cursor.fetchall()'
p3120
sI1225
S'        sql = self._select(query,fields,attributes)'
p3121
sI1226
S"        if attributes.get('cache', None):"
p3122
sI1227
S"            (cache_model, time_expire) = attributes['cache']"
p3123
ssg2969
S"(sql='SELECT  t_type_log.id, t_type_log.name, t_type_l...dified FROM t_type_log WHERE (t_type_log.id > 0);')"
p3124
sg2971
S'response'
p3125
sa(dp3126
g2948
S'/home/jose/DESARROLLO/web2py199/gluon/dal.py'
p3127
sg2950
(dp3128
S'a'
S"('SELECT  t_type_log.id, t_type_log.name, t_type_l...dified FROM t_type_log WHERE (t_type_log.id > 0);',)"
p3129
sS'self'
p3130
S'<gluon.dal.SQLiteAdapter object>'
p3131
sS'b'
g20
sS'self.log_execute'
p3132
S'<bound method SQLiteAdapter.log_execute of <gluon.dal.SQLiteAdapter object>>'
p3133
ssg2956
I1309
sg2957
(dp3134
I1312
S'        if isinstance(obj,CALLABLETYPES):'
p3135
sI1313
S'            obj = obj()'
p3136
sI1304
S'        ret = self.cursor.execute(*a,**b)'
p3137
sI1305
S'        self.db._timings.append((a[0],time.time()-t0))'
p3138
sI1306
S'        return ret'
p3139
sI1307
S''
sI1308
S'    def execute(self,*a,**b):'
p3140
sI1309
S'        return self.log_execute(*a, **b)'
p3141
sI1310
S''
sI1311
S'    def represent(self, obj, fieldtype):'
p3142
ssg2969
S"(self=<gluon.dal.SQLiteAdapter object>, *a=('SELECT  t_type_log.id, t_type_log.name, t_type_l...dified FROM t_type_log WHERE (t_type_log.id > 0);',), **b={})"
p3143
sg2971
S'execute'
p3144
sa(dp3145
g2948
S'/home/jose/DESARROLLO/web2py199/gluon/dal.py'
p3146
sg2950
(dp3147
S'a'
S"('SELECT  t_type_log.id, t_type_log.name, t_type_l...dified FROM t_type_log WHERE (t_type_log.id > 0);',)"
p3148
sS'b'
g20
sS'self'
p3149
S'<gluon.dal.SQLiteAdapter object>'
p3150
sS'ret'
p3151
g2993
sS'self.cursor'
p3152
S'<sqlite3.Cursor object>'
p3153
sS'self.cursor.execute'
p3154
S'<built-in method execute of sqlite3.Cursor object>'
p3155
ssg2956
I1304
sg2957
(dp3156
I1299
S'        self.execute(query)'
p3157
sI1300
S''
sI1301
S'    def log_execute(self,*a,**b):'
p3158
sI1302
S'        self.db._lastsql = a[0]'
p3159
sI1303
S'        t0 = time.time()'
p3160
sI1304
S'        ret = self.cursor.execute(*a,**b)'
p3161
sI1305
S'        self.db._timings.append((a[0],time.time()-t0))'
p3162
sI1306
S'        return ret'
p3163
sI1307
S''
sI1308
S'    def execute(self,*a,**b):'
p3164
ssg2969
S"(self=<gluon.dal.SQLiteAdapter object>, *a=('SELECT  t_type_log.id, t_type_log.name, t_type_l...dified FROM t_type_log WHERE (t_type_log.id > 0);',), **b={})"
p3165
sg2971
S'log_execute'
p3166
sasS'pyver'
p3167
S'Python 2.7.2+: /usr/bin/python'
p3168
sS'session'
p3169
g60
(g61
g62
NtRp3170
(dp3171
g65
(dp3172
sg67
(lp3173
g60
(g69
g62
NtRp3174
(dp3175
g65
(dp3176
g73
I5
ssg74
Nsg67
(lp3177
g60
(g76
g62
NtRp3178
(dp3179
g65
(dp3180
sg74
g3174
sg67
(lp3181
g60
(g81
g62
NtRp3182
(dp3183
g65
(dp3184
g85
g86
ssg74
g3178
sg67
(lp3185
S'auth'
p3186
asbag60
(g81
g62
NtRp3187
(dp3188
g65
(dp3189
g92
g93
ssg74
g3178
sg67
(lp3190
S':'
asbag60
(g81
g62
NtRp3191
(dp3192
g65
(dp3193
sg74
g3178
sg67
(lp3194
g60
(g61
g62
NtRp3195
(dp3196
g65
(dp3197
g73
I5
ssg74
g3191
sg67
(lp3198
g60
(g69
g62
NtRp3199
(dp3200
g65
(dp3201
g73
I4
ssg74
Nsg67
(lp3202
g60
(g76
g62
NtRp3203
(dp3204
g65
(dp3205
sg74
g3199
sg67
(lp3206
g60
(g81
g62
NtRp3207
(dp3208
g65
(dp3209
g85
g86
ssg74
g3203
sg67
(lp3210
S'expiration'
p3211
asbag60
(g81
g62
NtRp3212
(dp3213
g65
(dp3214
g92
g93
ssg74
g3203
sg67
(lp3215
S':'
asbag60
(g81
g62
NtRp3216
(dp3217
g65
(dp3218
sg74
g3203
sg67
(lp3219
g60
(g61
g62
NtRp3220
(dp3221
g65
(dp3222
g73
I4
ssg74
g3216
sg67
(lp3223
S'2592000'
p3224
asbasbasbag60
(g76
g62
NtRp3225
(dp3226
g65
(dp3227
sg74
g3199
sg67
(lp3228
g60
(g81
g62
NtRp3229
(dp3230
g65
(dp3231
g85
g86
ssg74
g3225
sg67
(lp3232
S'hmac_key'
p3233
asbag60
(g81
g62
NtRp3234
(dp3235
g65
(dp3236
g92
g93
ssg74
g3225
sg67
(lp3237
S':'
asbag60
(g81
g62
NtRp3238
(dp3239
g65
(dp3240
sg74
g3225
sg67
(lp3241
g60
(g61
g62
NtRp3242
(dp3243
g65
(dp3244
g73
I4
ssg74
g3238
sg67
(lp3245
S'8454e122-c616-40c1-9040-a7973410e7b5'
p3246
asbasbasbag60
(g76
g62
NtRp3247
(dp3248
g65
(dp3249
sg74
g3199
sg67
(lp3250
g60
(g81
g62
NtRp3251
(dp3252
g65
(dp3253
g85
g86
ssg74
g3247
sg67
(lp3254
S'last_visit'
p3255
asbag60
(g81
g62
NtRp3256
(dp3257
g65
(dp3258
g92
g93
ssg74
g3247
sg67
(lp3259
S':'
asbag60
(g81
g62
NtRp3260
(dp3261
g65
(dp3262
sg74
g3247
sg67
(lp3263
g60
(g61
g62
NtRp3264
(dp3265
g65
(dp3266
g73
I4
ssg74
g3260
sg67
(lp3267
S'datetime.datetime(2012, 5, 27, 8, 55, 33, 377220)'
p3268
asbasbasbag60
(g76
g62
NtRp3269
(dp3270
g65
(dp3271
sg74
g3199
sg67
(lp3272
g60
(g81
g62
NtRp3273
(dp3274
g65
(dp3275
g85
g86
ssg74
g3269
sg67
(lp3276
S'remember'
p3277
asbag60
(g81
g62
NtRp3278
(dp3279
g65
(dp3280
g92
g93
ssg74
g3269
sg67
(lp3281
S':'
asbag60
(g81
g62
NtRp3282
(dp3283
g65
(dp3284
sg74
g3269
sg67
(lp3285
g60
(g61
g62
NtRp3286
(dp3287
g65
(dp3288
g73
I4
ssg74
g3282
sg67
(lp3289
g103
asbasbasbag60
(g76
g62
NtRp3290
(dp3291
g65
(dp3292
sg74
g3199
sg67
(lp3293
g60
(g81
g62
NtRp3294
(dp3295
g65
(dp3296
g85
g86
ssg74
g3290
sg67
(lp3297
S'user'
p3298
asbag60
(g81
g62
NtRp3299
(dp3300
g65
(dp3301
g92
g93
ssg74
g3290
sg67
(lp3302
S':'
asbag60
(g81
g62
NtRp3303
(dp3304
g65
(dp3305
sg74
g3290
sg67
(lp3306
g60
(g61
g62
NtRp3307
(dp3308
g65
(dp3309
g73
I4
ssg74
g3303
sg67
(lp3310
g60
(g69
g62
NtRp3311
(dp3312
g65
(dp3313
g73
I3
ssg74
Nsg67
(lp3314
g60
(g76
g62
NtRp3315
(dp3316
g65
(dp3317
sg74
g3311
sg67
(lp3318
g60
(g81
g62
NtRp3319
(dp3320
g65
(dp3321
g85
g86
ssg74
g3315
sg67
(lp3322
S'email'
p3323
asbag60
(g81
g62
NtRp3324
(dp3325
g65
(dp3326
g92
g93
ssg74
g3315
sg67
(lp3327
S':'
asbag60
(g81
g62
NtRp3328
(dp3329
g65
(dp3330
sg74
g3315
sg67
(lp3331
g60
(g61
g62
NtRp3332
(dp3333
g65
(dp3334
g73
I3
ssg74
g3328
sg67
(lp3335
S'josedesoto@gmail.com'
p3336
asbasbasbag60
(g76
g62
NtRp3337
(dp3338
g65
(dp3339
sg74
g3311
sg67
(lp3340
g60
(g81
g62
NtRp3341
(dp3342
g65
(dp3343
g85
g86
ssg74
g3337
sg67
(lp3344
S'first_name'
p3345
asbag60
(g81
g62
NtRp3346
(dp3347
g65
(dp3348
g92
g93
ssg74
g3337
sg67
(lp3349
S':'
asbag60
(g81
g62
NtRp3350
(dp3351
g65
(dp3352
sg74
g3337
sg67
(lp3353
g60
(g61
g62
NtRp3354
(dp3355
g65
(dp3356
g73
I3
ssg74
g3350
sg67
(lp3357
S'jose'
p3358
asbasbasbag60
(g76
g62
NtRp3359
(dp3360
g65
(dp3361
sg74
g3311
sg67
(lp3362
g60
(g81
g62
NtRp3363
(dp3364
g65
(dp3365
g85
g86
ssg74
g3359
sg67
(lp3366
S'id'
p3367
asbag60
(g81
g62
NtRp3368
(dp3369
g65
(dp3370
g92
g93
ssg74
g3359
sg67
(lp3371
S':'
asbag60
(g81
g62
NtRp3372
(dp3373
g65
(dp3374
sg74
g3359
sg67
(lp3375
g60
(g61
g62
NtRp3376
(dp3377
g65
(dp3378
g73
I3
ssg74
g3372
sg67
(lp3379
S'1'
asbasbasbag60
(g76
g62
NtRp3380
(dp3381
g65
(dp3382
sg74
g3311
sg67
(lp3383
g60
(g81
g62
NtRp3384
(dp3385
g65
(dp3386
g85
g86
ssg74
g3380
sg67
(lp3387
S'last_name'
p3388
asbag60
(g81
g62
NtRp3389
(dp3390
g65
(dp3391
g92
g93
ssg74
g3380
sg67
(lp3392
S':'
asbag60
(g81
g62
NtRp3393
(dp3394
g65
(dp3395
sg74
g3380
sg67
(lp3396
g60
(g61
g62
NtRp3397
(dp3398
g65
(dp3399
g73
I3
ssg74
g3393
sg67
(lp3400
S'jose'
p3401
asbasbasbag60
(g76
g62
NtRp3402
(dp3403
g65
(dp3404
sg74
g3311
sg67
(lp3405
g60
(g81
g62
NtRp3406
(dp3407
g65
(dp3408
g85
g86
ssg74
g3402
sg67
(lp3409
S'password'
p3410
asbag60
(g81
g62
NtRp3411
(dp3412
g65
(dp3413
g92
g93
ssg74
g3402
sg67
(lp3414
S':'
asbag60
(g81
g62
NtRp3415
(dp3416
g65
(dp3417
sg74
g3402
sg67
(lp3418
g60
(g61
g62
NtRp3419
(dp3420
g65
(dp3421
g73
I3
ssg74
g3415
sg67
(lp3422
S'2b32eaa2baa0c63b755a4cde1e4dda83'
p3423
asbasbasbag60
(g76
g62
NtRp3424
(dp3425
g65
(dp3426
sg74
g3311
sg67
(lp3427
g60
(g81
g62
NtRp3428
(dp3429
g65
(dp3430
g85
g86
ssg74
g3424
sg67
(lp3431
S'registration_key'
p3432
asbag60
(g81
g62
NtRp3433
(dp3434
g65
(dp3435
g92
g93
ssg74
g3424
sg67
(lp3436
S':'
asbag60
(g81
g62
NtRp3437
(dp3438
g65
(dp3439
sg74
g3424
sg67
(lp3440
g60
(g61
g62
NtRp3441
(dp3442
g65
(dp3443
g73
I3
ssg74
g3437
sg67
(lp3444
S''
asbasbasbag60
(g76
g62
NtRp3445
(dp3446
g65
(dp3447
sg74
g3311
sg67
(lp3448
g60
(g81
g62
NtRp3449
(dp3450
g65
(dp3451
g85
g86
ssg74
g3445
sg67
(lp3452
S'reset_password_key'
p3453
asbag60
(g81
g62
NtRp3454
(dp3455
g65
(dp3456
g92
g93
ssg74
g3445
sg67
(lp3457
S':'
asbag60
(g81
g62
NtRp3458
(dp3459
g65
(dp3460
sg74
g3445
sg67
(lp3461
g60
(g61
g62
NtRp3462
(dp3463
g65
(dp3464
g73
I3
ssg74
g3458
sg67
(lp3465
S''
asbasbasbasbasbasbasbasbasbasbasbag60
(g76
g62
NtRp3466
(dp3467
g65
(dp3468
sg74
g3174
sg67
(lp3469
g60
(g81
g62
NtRp3470
(dp3471
g65
(dp3472
g85
g86
ssg74
g3466
sg67
(lp3473
S'last_query'
p3474
asbag60
(g81
g62
NtRp3475
(dp3476
g65
(dp3477
g92
g93
ssg74
g3466
sg67
(lp3478
S':'
asbag60
(g81
g62
NtRp3479
(dp3480
g65
(dp3481
sg74
g3466
sg67
(lp3482
g60
(g61
g62
NtRp3483
(dp3484
g65
(dp3485
g73
I5
ssg74
g3479
sg67
(lp3486
S'db((db.t_log.id==1)&(db.t_log.type_log==db.t_type_log.id)).select(db.t_type_log.html_table)'
p3487
asbasbasbasbasbsS'etype'
p3488
S"<class 'sqlite3.OperationalError'>"
p3489
sS'date'
p3490
S'Sun May 27 11:48:00 2012'
p3491
sg3125
g60
(g61
g62
NtRp3492
(dp3493
g65
(dp3494
sg67
(lp3495
g60
(g69
g62
NtRp3496
(dp3497
g65
(dp3498
g73
I5
ssg74
Nsg67
(lp3499
g60
(g76
g62
NtRp3500
(dp3501
g65
(dp3502
sg74
g3496
sg67
(lp3503
g60
(g81
g62
NtRp3504
(dp3505
g65
(dp3506
g85
g86
ssg74
g3500
sg67
(lp3507
g158
asbag60
(g81
g62
NtRp3508
(dp3509
g65
(dp3510
g92
g93
ssg74
g3500
sg67
(lp3511
S':'
asbag60
(g81
g62
NtRp3512
(dp3513
g65
(dp3514
sg74
g3500
sg67
(lp3515
g60
(g61
g62
NtRp3516
(dp3517
g65
(dp3518
g73
I5
ssg74
g3512
sg67
(lp3519
S'<cStringIO.StringO object at 0x3af0848>'
p3520
asbasbasbag60
(g76
g62
NtRp3521
(dp3522
g65
(dp3523
sg74
g3496
sg67
(lp3524
g60
(g81
g62
NtRp3525
(dp3526
g65
(dp3527
g85
g86
ssg74
g3521
sg67
(lp3528
g224
asbag60
(g81
g62
NtRp3529
(dp3530
g65
(dp3531
g92
g93
ssg74
g3521
sg67
(lp3532
S':'
asbag60
(g81
g62
NtRp3533
(dp3534
g65
(dp3535
sg74
g3521
sg67
(lp3536
g60
(g61
g62
NtRp3537
(dp3538
g65
(dp3539
g73
I5
ssg74
g3533
sg67
(lp3540
g60
(g69
g62
NtRp3541
(dp3542
g65
(dp3543
g73
I4
ssg74
Nsg67
(lp3544
g60
(g76
g62
NtRp3545
(dp3546
g65
(dp3547
sg74
g3541
sg67
(lp3548
g60
(g81
g62
NtRp3549
(dp3550
g65
(dp3551
g85
g86
ssg74
g3545
sg67
(lp3552
S'session_id_streamlog'
p3553
asbag60
(g81
g62
NtRp3554
(dp3555
g65
(dp3556
g92
g93
ssg74
g3545
sg67
(lp3557
S':'
asbag60
(g81
g62
NtRp3558
(dp3559
g65
(dp3560
sg74
g3545
sg67
(lp3561
g60
(g61
g62
NtRp3562
(dp3563
g65
(dp3564
g73
I4
ssg74
g3558
sg67
(lp3565
g60
(g69
g62
NtRp3566
(dp3567
g65
(dp3568
g73
I3
ssg74
Nsg67
(lp3569
g60
(g76
g62
NtRp3570
(dp3571
g65
(dp3572
sg74
g3566
sg67
(lp3573
g60
(g81
g62
NtRp3574
(dp3575
g65
(dp3576
g85
g86
ssg74
g3570
sg67
(lp3577
g274
asbag60
(g81
g62
NtRp3578
(dp3579
g65
(dp3580
g92
g93
ssg74
g3570
sg67
(lp3581
S':'
asbag60
(g81
g62
NtRp3582
(dp3583
g65
(dp3584
sg74
g3570
sg67
(lp3585
g60
(g61
g62
NtRp3586
(dp3587
g65
(dp3588
g73
I3
ssg74
g3582
sg67
(lp3589
S''
asbasbasbag60
(g76
g62
NtRp3590
(dp3591
g65
(dp3592
sg74
g3566
sg67
(lp3593
g60
(g81
g62
NtRp3594
(dp3595
g65
(dp3596
g85
g86
ssg74
g3590
sg67
(lp3597
g295
asbag60
(g81
g62
NtRp3598
(dp3599
g65
(dp3600
g92
g93
ssg74
g3590
sg67
(lp3601
S':'
asbag60
(g81
g62
NtRp3602
(dp3603
g65
(dp3604
sg74
g3590
sg67
(lp3605
g60
(g61
g62
NtRp3606
(dp3607
g65
(dp3608
g73
I3
ssg74
g3602
sg67
(lp3609
S''
asbasbasbag60
(g76
g62
NtRp3610
(dp3611
g65
(dp3612
sg74
g3566
sg67
(lp3613
g60
(g81
g62
NtRp3614
(dp3615
g65
(dp3616
g85
g86
ssg74
g3610
sg67
(lp3617
g316
asbag60
(g81
g62
NtRp3618
(dp3619
g65
(dp3620
g92
g93
ssg74
g3610
sg67
(lp3621
S':'
asbag60
(g81
g62
NtRp3622
(dp3623
g65
(dp3624
sg74
g3610
sg67
(lp3625
g60
(g61
g62
NtRp3626
(dp3627
g65
(dp3628
g73
I3
ssg74
g3622
sg67
(lp3629
S''
asbasbasbag60
(g76
g62
NtRp3630
(dp3631
g65
(dp3632
sg74
g3566
sg67
(lp3633
g60
(g81
g62
NtRp3634
(dp3635
g65
(dp3636
g85
g86
ssg74
g3630
sg67
(lp3637
g337
asbag60
(g81
g62
NtRp3638
(dp3639
g65
(dp3640
g92
g93
ssg74
g3630
sg67
(lp3641
S':'
asbag60
(g81
g62
NtRp3642
(dp3643
g65
(dp3644
sg74
g3630
sg67
(lp3645
g60
(g61
g62
NtRp3646
(dp3647
g65
(dp3648
g73
I3
ssg74
g3642
sg67
(lp3649
S''
asbasbasbag60
(g76
g62
NtRp3650
(dp3651
g65
(dp3652
sg74
g3566
sg67
(lp3653
g60
(g81
g62
NtRp3654
(dp3655
g65
(dp3656
g85
g86
ssg74
g3650
sg67
(lp3657
g358
asbag60
(g81
g62
NtRp3658
(dp3659
g65
(dp3660
g92
g93
ssg74
g3650
sg67
(lp3661
S':'
asbag60
(g81
g62
NtRp3662
(dp3663
g65
(dp3664
sg74
g3650
sg67
(lp3665
g60
(g61
g62
NtRp3666
(dp3667
g65
(dp3668
g73
I3
ssg74
g3662
sg67
(lp3669
S''
asbasbasbag60
(g76
g62
NtRp3670
(dp3671
g65
(dp3672
sg74
g3566
sg67
(lp3673
g60
(g81
g62
NtRp3674
(dp3675
g65
(dp3676
g85
g86
ssg74
g3670
sg67
(lp3677
g379
asbag60
(g81
g62
NtRp3678
(dp3679
g65
(dp3680
g92
g93
ssg74
g3670
sg67
(lp3681
S':'
asbag60
(g81
g62
NtRp3682
(dp3683
g65
(dp3684
sg74
g3670
sg67
(lp3685
g60
(g61
g62
NtRp3686
(dp3687
g65
(dp3688
g73
I3
ssg74
g3682
sg67
(lp3689
S'/'
asbasbasbag60
(g76
g62
NtRp3690
(dp3691
g65
(dp3692
sg74
g3566
sg67
(lp3693
g60
(g81
g62
NtRp3694
(dp3695
g65
(dp3696
g85
g86
ssg74
g3690
sg67
(lp3697
g400
asbag60
(g81
g62
NtRp3698
(dp3699
g65
(dp3700
g92
g93
ssg74
g3690
sg67
(lp3701
S':'
asbag60
(g81
g62
NtRp3702
(dp3703
g65
(dp3704
sg74
g3690
sg67
(lp3705
g60
(g61
g62
NtRp3706
(dp3707
g65
(dp3708
g73
I3
ssg74
g3702
sg67
(lp3709
S''
asbasbasbag60
(g76
g62
NtRp3710
(dp3711
g65
(dp3712
sg74
g3566
sg67
(lp3713
g60
(g81
g62
NtRp3714
(dp3715
g65
(dp3716
g85
g86
ssg74
g3710
sg67
(lp3717
g421
asbag60
(g81
g62
NtRp3718
(dp3719
g65
(dp3720
g92
g93
ssg74
g3710
sg67
(lp3721
S':'
asbag60
(g81
g62
NtRp3722
(dp3723
g65
(dp3724
sg74
g3710
sg67
(lp3725
g60
(g61
g62
NtRp3726
(dp3727
g65
(dp3728
g73
I3
ssg74
g3722
sg67
(lp3729
S''
asbasbasbasbasbasbasbasbasbasbasbag60
(g76
g62
NtRp3730
(dp3731
g65
(dp3732
sg74
g3496
sg67
(lp3733
g60
(g81
g62
NtRp3734
(dp3735
g65
(dp3736
g85
g86
ssg74
g3730
sg67
(lp3737
S'files'
p3738
asbag60
(g81
g62
NtRp3739
(dp3740
g65
(dp3741
g92
g93
ssg74
g3730
sg67
(lp3742
S':'
asbag60
(g81
g62
NtRp3743
(dp3744
g65
(dp3745
sg74
g3730
sg67
(lp3746
g60
(g61
g62
NtRp3747
(dp3748
g65
(dp3749
g73
I5
ssg74
g3743
sg67
(lp3750
g60
(g69
g62
NtRp3751
(dp3752
g65
(dp3753
g73
I4
ssg74
Nsg67
(lp3754
sbasbasbasbag60
(g76
g62
NtRp3755
(dp3756
g65
(dp3757
sg74
g3496
sg67
(lp3758
g60
(g81
g62
NtRp3759
(dp3760
g65
(dp3761
g85
g86
ssg74
g3755
sg67
(lp3762
S'flash'
p3763
asbag60
(g81
g62
NtRp3764
(dp3765
g65
(dp3766
g92
g93
ssg74
g3755
sg67
(lp3767
S':'
asbag60
(g81
g62
NtRp3768
(dp3769
g65
(dp3770
sg74
g3755
sg67
(lp3771
g60
(g61
g62
NtRp3772
(dp3773
g65
(dp3774
g73
I5
ssg74
g3768
sg67
(lp3775
S''
asbasbasbag60
(g76
g62
NtRp3776
(dp3777
g65
(dp3778
sg74
g3496
sg67
(lp3779
g60
(g81
g62
NtRp3780
(dp3781
g65
(dp3782
g85
g86
ssg74
g3776
sg67
(lp3783
S'generic_patterns'
p3784
asbag60
(g81
g62
NtRp3785
(dp3786
g65
(dp3787
g92
g93
ssg74
g3776
sg67
(lp3788
S':'
asbag60
(g81
g62
NtRp3789
(dp3790
g65
(dp3791
sg74
g3776
sg67
(lp3792
g60
(g61
g62
NtRp3793
(dp3794
g65
(dp3795
g73
I5
ssg74
g3789
sg67
(lp3796
g60
(g69
g62
NtRp3797
(dp3798
g65
(dp3799
g73
I4
ssg74
Nsg67
(lp3800
g60
(g76
g62
NtRp3801
(dp3802
g65
(dp3803
sg74
g3797
sg67
(lp3804
g60
(g81
g62
NtRp3805
(dp3806
g65
(dp3807
sg74
g3801
sg67
(lp3808
g60
(g61
g62
NtRp3809
(dp3810
g65
(dp3811
g73
I4
ssg74
g3805
sg67
(lp3812
S'*'
asbasbasbasbasbasbasbag60
(g76
g62
NtRp3813
(dp3814
g65
(dp3815
sg74
g3496
sg67
(lp3816
g60
(g81
g62
NtRp3817
(dp3818
g65
(dp3819
g85
g86
ssg74
g3813
sg67
(lp3820
S'headers'
p3821
asbag60
(g81
g62
NtRp3822
(dp3823
g65
(dp3824
g92
g93
ssg74
g3813
sg67
(lp3825
S':'
asbag60
(g81
g62
NtRp3826
(dp3827
g65
(dp3828
sg74
g3813
sg67
(lp3829
g60
(g61
g62
NtRp3830
(dp3831
g65
(dp3832
g73
I5
ssg74
g3826
sg67
(lp3833
g60
(g69
g62
NtRp3834
(dp3835
g65
(dp3836
g73
I4
ssg74
Nsg67
(lp3837
g60
(g76
g62
NtRp3838
(dp3839
g65
(dp3840
sg74
g3834
sg67
(lp3841
g60
(g81
g62
NtRp3842
(dp3843
g65
(dp3844
g85
g86
ssg74
g3838
sg67
(lp3845
S'Cache-Control'
p3846
asbag60
(g81
g62
NtRp3847
(dp3848
g65
(dp3849
g92
g93
ssg74
g3838
sg67
(lp3850
S':'
asbag60
(g81
g62
NtRp3851
(dp3852
g65
(dp3853
sg74
g3838
sg67
(lp3854
g60
(g61
g62
NtRp3855
(dp3856
g65
(dp3857
g73
I4
ssg74
g3851
sg67
(lp3858
S'no-store, no-cache, must-revalidate, post-check=0, pre-check=0'
p3859
asbasbasbag60
(g76
g62
NtRp3860
(dp3861
g65
(dp3862
sg74
g3834
sg67
(lp3863
g60
(g81
g62
NtRp3864
(dp3865
g65
(dp3866
g85
g86
ssg74
g3860
sg67
(lp3867
S'Content-Type'
p3868
asbag60
(g81
g62
NtRp3869
(dp3870
g65
(dp3871
g92
g93
ssg74
g3860
sg67
(lp3872
S':'
asbag60
(g81
g62
NtRp3873
(dp3874
g65
(dp3875
sg74
g3860
sg67
(lp3876
g60
(g61
g62
NtRp3877
(dp3878
g65
(dp3879
g73
I4
ssg74
g3873
sg67
(lp3880
S'text/html; charset=utf-8'
p3881
asbasbasbag60
(g76
g62
NtRp3882
(dp3883
g65
(dp3884
sg74
g3834
sg67
(lp3885
g60
(g81
g62
NtRp3886
(dp3887
g65
(dp3888
g85
g86
ssg74
g3882
sg67
(lp3889
S'Expires'
p3890
asbag60
(g81
g62
NtRp3891
(dp3892
g65
(dp3893
g92
g93
ssg74
g3882
sg67
(lp3894
S':'
asbag60
(g81
g62
NtRp3895
(dp3896
g65
(dp3897
sg74
g3882
sg67
(lp3898
g60
(g61
g62
NtRp3899
(dp3900
g65
(dp3901
g73
I4
ssg74
g3895
sg67
(lp3902
S'Sun, 27 May 2012 04:48:00 GMT'
p3903
asbasbasbag60
(g76
g62
NtRp3904
(dp3905
g65
(dp3906
sg74
g3834
sg67
(lp3907
g60
(g81
g62
NtRp3908
(dp3909
g65
(dp3910
g85
g86
ssg74
g3904
sg67
(lp3911
S'Pragma'
p3912
asbag60
(g81
g62
NtRp3913
(dp3914
g65
(dp3915
g92
g93
ssg74
g3904
sg67
(lp3916
S':'
asbag60
(g81
g62
NtRp3917
(dp3918
g65
(dp3919
sg74
g3904
sg67
(lp3920
g60
(g61
g62
NtRp3921
(dp3922
g65
(dp3923
g73
I4
ssg74
g3917
sg67
(lp3924
S'no-cache'
p3925
asbasbasbag60
(g76
g62
NtRp3926
(dp3927
g65
(dp3928
sg74
g3834
sg67
(lp3929
g60
(g81
g62
NtRp3930
(dp3931
g65
(dp3932
g85
g86
ssg74
g3926
sg67
(lp3933
S'X-Powered-By'
p3934
asbag60
(g81
g62
NtRp3935
(dp3936
g65
(dp3937
g92
g93
ssg74
g3926
sg67
(lp3938
S':'
asbag60
(g81
g62
NtRp3939
(dp3940
g65
(dp3941
sg74
g3926
sg67
(lp3942
g60
(g61
g62
NtRp3943
(dp3944
g65
(dp3945
g73
I4
ssg74
g3939
sg67
(lp3946
S'web2py'
p3947
asbasbasbasbasbasbasbag60
(g76
g62
NtRp3948
(dp3949
g65
(dp3950
sg74
g3496
sg67
(lp3951
g60
(g81
g62
NtRp3952
(dp3953
g65
(dp3954
g85
g86
ssg74
g3948
sg67
(lp3955
S'menu'
p3956
asbag60
(g81
g62
NtRp3957
(dp3958
g65
(dp3959
g92
g93
ssg74
g3948
sg67
(lp3960
S':'
asbag60
(g81
g62
NtRp3961
(dp3962
g65
(dp3963
sg74
g3948
sg67
(lp3964
g60
(g61
g62
NtRp3965
(dp3966
g65
(dp3967
g73
I5
ssg74
g3961
sg67
(lp3968
g60
(g69
g62
NtRp3969
(dp3970
g65
(dp3971
g73
I4
ssg74
Nsg67
(lp3972
g60
(g76
g62
NtRp3973
(dp3974
g65
(dp3975
sg74
g3969
sg67
(lp3976
g60
(g81
g62
NtRp3977
(dp3978
g65
(dp3979
sg74
g3973
sg67
(lp3980
g60
(g61
g62
NtRp3981
(dp3982
g65
(dp3983
g73
I4
ssg74
g3977
sg67
(lp3984
g60
(g69
g62
NtRp3985
(dp3986
g65
(dp3987
g73
I3
ssg74
Nsg67
(lp3988
g60
(g76
g62
NtRp3989
(dp3990
g65
(dp3991
sg74
g3985
sg67
(lp3992
g60
(g81
g62
NtRp3993
(dp3994
g65
(dp3995
sg74
g3989
sg67
(lp3996
g60
(g61
g62
NtRp3997
(dp3998
g65
(dp3999
g73
I3
ssg74
g3993
sg67
(lp4000
cgluon.languages
lazyT_unpickle
p4001
(S's\n\x00\x00\x00Clear Page'
tRp4002
asbasbasbag60
(g76
g62
NtRp4003
(dp4004
g65
(dp4005
sg74
g3985
sg67
(lp4006
g60
(g81
g62
NtRp4007
(dp4008
g65
(dp4009
sg74
g4003
sg67
(lp4010
g60
(g61
g62
NtRp4011
(dp4012
g65
(dp4013
g73
I3
ssg74
g4007
sg67
(lp4014
g103
asbasbasbag60
(g76
g62
NtRp4015
(dp4016
g65
(dp4017
sg74
g3985
sg67
(lp4018
g60
(g81
g62
NtRp4019
(dp4020
g65
(dp4021
sg74
g4015
sg67
(lp4022
g60
(g61
g62
NtRp4023
(dp4024
g65
(dp4025
g73
I3
ssg74
g4019
sg67
(lp4026
S'/streamlog/default/index'
p4027
asbasbasbag60
(g76
g62
NtRp4028
(dp4029
g65
(dp4030
sg74
g3985
sg67
(lp4031
g60
(g81
g62
NtRp4032
(dp4033
g65
(dp4034
sg74
g4028
sg67
(lp4035
g60
(g61
g62
NtRp4036
(dp4037
g65
(dp4038
g73
I3
ssg74
g4032
sg67
(lp4039
g60
(g69
g62
NtRp4040
(dp4041
g65
(dp4042
g73
I2
ssg74
Nsg67
(lp4043
sbasbasbasbasbasbasbasbag60
(g76
g62
NtRp4044
(dp4045
g65
(dp4046
sg74
g3969
sg67
(lp4047
g60
(g81
g62
NtRp4048
(dp4049
g65
(dp4050
sg74
g4044
sg67
(lp4051
g60
(g61
g62
NtRp4052
(dp4053
g65
(dp4054
g73
I4
ssg74
g4048
sg67
(lp4055
g60
(g69
g62
NtRp4056
(dp4057
g65
(dp4058
g73
I3
ssg74
Nsg67
(lp4059
g60
(g76
g62
NtRp4060
(dp4061
g65
(dp4062
sg74
g4056
sg67
(lp4063
g60
(g81
g62
NtRp4064
(dp4065
g65
(dp4066
sg74
g4060
sg67
(lp4067
g60
(g61
g62
NtRp4068
(dp4069
g65
(dp4070
g73
I3
ssg74
g4064
sg67
(lp4071
g4001
(S't\x06\x00\x00\x00Manage'
tRp4072
asbasbasbag60
(g76
g62
NtRp4073
(dp4074
g65
(dp4075
sg74
g4056
sg67
(lp4076
g60
(g81
g62
NtRp4077
(dp4078
g65
(dp4079
sg74
g4073
sg67
(lp4080
g60
(g61
g62
NtRp4081
(dp4082
g65
(dp4083
g73
I3
ssg74
g4077
sg67
(lp4084
g103
asbasbasbag60
(g76
g62
NtRp4085
(dp4086
g65
(dp4087
sg74
g4056
sg67
(lp4088
g60
(g81
g62
NtRp4089
(dp4090
g65
(dp4091
sg74
g4085
sg67
(lp4092
g60
(g61
g62
NtRp4093
(dp4094
g65
(dp4095
g73
I3
ssg74
g4089
sg67
(lp4096
S'None'
p4097
asbasbasbag60
(g76
g62
NtRp4098
(dp4099
g65
(dp4100
sg74
g4056
sg67
(lp4101
g60
(g81
g62
NtRp4102
(dp4103
g65
(dp4104
sg74
g4098
sg67
(lp4105
g60
(g61
g62
NtRp4106
(dp4107
g65
(dp4108
g73
I3
ssg74
g4102
sg67
(lp4109
g60
(g69
g62
NtRp4110
(dp4111
g65
(dp4112
g73
I2
ssg74
Nsg67
(lp4113
g60
(g76
g62
NtRp4114
(dp4115
g65
(dp4116
sg74
g4110
sg67
(lp4117
g60
(g81
g62
NtRp4118
(dp4119
g65
(dp4120
sg74
g4114
sg67
(lp4121
g60
(g61
g62
NtRp4122
(dp4123
g65
(dp4124
g73
I2
ssg74
g4118
sg67
(lp4125
g60
(g69
g62
NtRp4126
(dp4127
g65
(dp4128
g73
I1
ssg74
Nsg67
(lp4129
g60
(g76
g62
NtRp4130
(dp4131
g65
(dp4132
sg74
g4126
sg67
(lp4133
g60
(g81
g62
NtRp4134
(dp4135
g65
(dp4136
sg74
g4130
sg67
(lp4137
g60
(g61
g62
NtRp4138
(dp4139
g65
(dp4140
g73
I1
ssg74
g4134
sg67
(lp4141
g4001
(S't\x04\x00\x00\x00Logs'
tRp4142
asbasbasbag60
(g76
g62
NtRp4143
(dp4144
g65
(dp4145
sg74
g4126
sg67
(lp4146
g60
(g81
g62
NtRp4147
(dp4148
g65
(dp4149
sg74
g4143
sg67
(lp4150
g60
(g61
g62
NtRp4151
(dp4152
g65
(dp4153
g73
I1
ssg74
g4147
sg67
(lp4154
I00
asbasbasbag60
(g76
g62
NtRp4155
(dp4156
g65
(dp4157
sg74
g4126
sg67
(lp4158
g60
(g81
g62
NtRp4159
(dp4160
g65
(dp4161
sg74
g4155
sg67
(lp4162
g60
(g61
g62
NtRp4163
(dp4164
g65
(dp4165
g73
I1
ssg74
g4159
sg67
(lp4166
S'/streamlog/default/log_manage'
p4167
asbasbasbag60
(g76
g62
NtRp4168
(dp4169
g65
(dp4170
sg74
g4126
sg67
(lp4171
g60
(g81
g62
NtRp4172
(dp4173
g65
(dp4174
sg74
g4168
sg67
(lp4175
g60
(g61
g62
NtRp4176
(dp4177
g65
(dp4178
g73
I1
ssg74
g4172
sg67
(lp4179
(lp4180
asbasbasbasbasbasbasbag60
(g76
g62
NtRp4181
(dp4182
g65
(dp4183
sg74
g4110
sg67
(lp4184
g60
(g81
g62
NtRp4185
(dp4186
g65
(dp4187
sg74
g4181
sg67
(lp4188
g60
(g61
g62
NtRp4189
(dp4190
g65
(dp4191
g73
I2
ssg74
g4185
sg67
(lp4192
g60
(g69
g62
NtRp4193
(dp4194
g65
(dp4195
g73
I1
ssg74
Nsg67
(lp4196
g60
(g76
g62
NtRp4197
(dp4198
g65
(dp4199
sg74
g4193
sg67
(lp4200
g60
(g81
g62
NtRp4201
(dp4202
g65
(dp4203
sg74
g4197
sg67
(lp4204
g60
(g61
g62
NtRp4205
(dp4206
g65
(dp4207
g73
I1
ssg74
g4201
sg67
(lp4208
g4001
(S't\x07\x00\x00\x00Servers'
tRp4209
asbasbasbag60
(g76
g62
NtRp4210
(dp4211
g65
(dp4212
sg74
g4193
sg67
(lp4213
g60
(g81
g62
NtRp4214
(dp4215
g65
(dp4216
sg74
g4210
sg67
(lp4217
g60
(g61
g62
NtRp4218
(dp4219
g65
(dp4220
g73
I1
ssg74
g4214
sg67
(lp4221
I00
asbasbasbag60
(g76
g62
NtRp4222
(dp4223
g65
(dp4224
sg74
g4193
sg67
(lp4225
g60
(g81
g62
NtRp4226
(dp4227
g65
(dp4228
sg74
g4222
sg67
(lp4229
g60
(g61
g62
NtRp4230
(dp4231
g65
(dp4232
g73
I1
ssg74
g4226
sg67
(lp4233
S'/streamlog/default/server_manage'
p4234
asbasbasbag60
(g76
g62
NtRp4235
(dp4236
g65
(dp4237
sg74
g4193
sg67
(lp4238
g60
(g81
g62
NtRp4239
(dp4240
g65
(dp4241
sg74
g4235
sg67
(lp4242
g60
(g61
g62
NtRp4243
(dp4244
g65
(dp4245
g73
I1
ssg74
g4239
sg67
(lp4246
(lp4247
asbasbasbasbasbasbasbag60
(g76
g62
NtRp4248
(dp4249
g65
(dp4250
sg74
g4110
sg67
(lp4251
g60
(g81
g62
NtRp4252
(dp4253
g65
(dp4254
sg74
g4248
sg67
(lp4255
g60
(g61
g62
NtRp4256
(dp4257
g65
(dp4258
g73
I2
ssg74
g4252
sg67
(lp4259
g60
(g69
g62
NtRp4260
(dp4261
g65
(dp4262
g73
I1
ssg74
Nsg67
(lp4263
g60
(g76
g62
NtRp4264
(dp4265
g65
(dp4266
sg74
g4260
sg67
(lp4267
g60
(g81
g62
NtRp4268
(dp4269
g65
(dp4270
sg74
g4264
sg67
(lp4271
g60
(g61
g62
NtRp4272
(dp4273
g65
(dp4274
g73
I1
ssg74
g4268
sg67
(lp4275
g4001
(S't\x08\x00\x00\x00Projects'
tRp4276
asbasbasbag60
(g76
g62
NtRp4277
(dp4278
g65
(dp4279
sg74
g4260
sg67
(lp4280
g60
(g81
g62
NtRp4281
(dp4282
g65
(dp4283
sg74
g4277
sg67
(lp4284
g60
(g61
g62
NtRp4285
(dp4286
g65
(dp4287
g73
I1
ssg74
g4281
sg67
(lp4288
I00
asbasbasbag60
(g76
g62
NtRp4289
(dp4290
g65
(dp4291
sg74
g4260
sg67
(lp4292
g60
(g81
g62
NtRp4293
(dp4294
g65
(dp4295
sg74
g4289
sg67
(lp4296
g60
(g61
g62
NtRp4297
(dp4298
g65
(dp4299
g73
I1
ssg74
g4293
sg67
(lp4300
S'/streamlog/default/project_manage'
p4301
asbasbasbag60
(g76
g62
NtRp4302
(dp4303
g65
(dp4304
sg74
g4260
sg67
(lp4305
g60
(g81
g62
NtRp4306
(dp4307
g65
(dp4308
sg74
g4302
sg67
(lp4309
g60
(g61
g62
NtRp4310
(dp4311
g65
(dp4312
g73
I1
ssg74
g4306
sg67
(lp4313
(lp4314
asbasbasbasbasbasbasbag60
(g76
g62
NtRp4315
(dp4316
g65
(dp4317
sg74
g4110
sg67
(lp4318
g60
(g81
g62
NtRp4319
(dp4320
g65
(dp4321
sg74
g4315
sg67
(lp4322
g60
(g61
g62
NtRp4323
(dp4324
g65
(dp4325
g73
I2
ssg74
g4319
sg67
(lp4326
g60
(g69
g62
NtRp4327
(dp4328
g65
(dp4329
g73
I1
ssg74
Nsg67
(lp4330
g60
(g76
g62
NtRp4331
(dp4332
g65
(dp4333
sg74
g4327
sg67
(lp4334
g60
(g81
g62
NtRp4335
(dp4336
g65
(dp4337
sg74
g4331
sg67
(lp4338
g60
(g61
g62
NtRp4339
(dp4340
g65
(dp4341
g73
I1
ssg74
g4335
sg67
(lp4342
g4001
(S's\t\x00\x00\x00Type Logs'
tRp4343
asbasbasbag60
(g76
g62
NtRp4344
(dp4345
g65
(dp4346
sg74
g4327
sg67
(lp4347
g60
(g81
g62
NtRp4348
(dp4349
g65
(dp4350
sg74
g4344
sg67
(lp4351
g60
(g61
g62
NtRp4352
(dp4353
g65
(dp4354
g73
I1
ssg74
g4348
sg67
(lp4355
I00
asbasbasbag60
(g76
g62
NtRp4356
(dp4357
g65
(dp4358
sg74
g4327
sg67
(lp4359
g60
(g81
g62
NtRp4360
(dp4361
g65
(dp4362
sg74
g4356
sg67
(lp4363
g60
(g61
g62
NtRp4364
(dp4365
g65
(dp4366
g73
I1
ssg74
g4360
sg67
(lp4367
S'/streamlog/default/type_log_manage'
p4368
asbasbasbag60
(g76
g62
NtRp4369
(dp4370
g65
(dp4371
sg74
g4327
sg67
(lp4372
g60
(g81
g62
NtRp4373
(dp4374
g65
(dp4375
sg74
g4369
sg67
(lp4376
g60
(g61
g62
NtRp4377
(dp4378
g65
(dp4379
g73
I1
ssg74
g4373
sg67
(lp4380
(lp4381
asbasbasbasbasbasbasbasbasbasbasbasbasbasbasbasbasbasbasbag60
(g76
g62
NtRp4382
(dp4383
g65
(dp4384
sg74
g3496
sg67
(lp4385
g60
(g81
g62
NtRp4386
(dp4387
g65
(dp4388
g85
g86
ssg74
g4382
sg67
(lp4389
S'meta'
p4390
asbag60
(g81
g62
NtRp4391
(dp4392
g65
(dp4393
g92
g93
ssg74
g4382
sg67
(lp4394
S':'
asbag60
(g81
g62
NtRp4395
(dp4396
g65
(dp4397
sg74
g4382
sg67
(lp4398
g60
(g61
g62
NtRp4399
(dp4400
g65
(dp4401
g73
I5
ssg74
g4395
sg67
(lp4402
g60
(g69
g62
NtRp4403
(dp4404
g65
(dp4405
g73
I4
ssg74
Nsg67
(lp4406
g60
(g76
g62
NtRp4407
(dp4408
g65
(dp4409
sg74
g4403
sg67
(lp4410
g60
(g81
g62
NtRp4411
(dp4412
g65
(dp4413
g85
g86
ssg74
g4407
sg67
(lp4414
S'author'
p4415
asbag60
(g81
g62
NtRp4416
(dp4417
g65
(dp4418
g92
g93
ssg74
g4407
sg67
(lp4419
S':'
asbag60
(g81
g62
NtRp4420
(dp4421
g65
(dp4422
sg74
g4407
sg67
(lp4423
g60
(g61
g62
NtRp4424
(dp4425
g65
(dp4426
g73
I4
ssg74
g4420
sg67
(lp4427
S'Jose de Soto <josedesoto@gmail.com>'
p4428
asbasbasbag60
(g76
g62
NtRp4429
(dp4430
g65
(dp4431
sg74
g4403
sg67
(lp4432
g60
(g81
g62
NtRp4433
(dp4434
g65
(dp4435
g85
g86
ssg74
g4429
sg67
(lp4436
S'copyright'
p4437
asbag60
(g81
g62
NtRp4438
(dp4439
g65
(dp4440
g92
g93
ssg74
g4429
sg67
(lp4441
S':'
asbag60
(g81
g62
NtRp4442
(dp4443
g65
(dp4444
sg74
g4429
sg67
(lp4445
g60
(g61
g62
NtRp4446
(dp4447
g65
(dp4448
g73
I4
ssg74
g4442
sg67
(lp4449
S'Copyright 2011'
p4450
asbasbasbag60
(g76
g62
NtRp4451
(dp4452
g65
(dp4453
sg74
g4403
sg67
(lp4454
g60
(g81
g62
NtRp4455
(dp4456
g65
(dp4457
g85
g86
ssg74
g4451
sg67
(lp4458
S'description'
p4459
asbag60
(g81
g62
NtRp4460
(dp4461
g65
(dp4462
g92
g93
ssg74
g4451
sg67
(lp4463
S':'
asbag60
(g81
g62
NtRp4464
(dp4465
g65
(dp4466
sg74
g4451
sg67
(lp4467
g60
(g61
g62
NtRp4468
(dp4469
g65
(dp4470
g73
I4
ssg74
g4464
sg67
(lp4471
S'a cool new app'
p4472
asbasbasbag60
(g76
g62
NtRp4473
(dp4474
g65
(dp4475
sg74
g4403
sg67
(lp4476
g60
(g81
g62
NtRp4477
(dp4478
g65
(dp4479
g85
g86
ssg74
g4473
sg67
(lp4480
S'generator'
p4481
asbag60
(g81
g62
NtRp4482
(dp4483
g65
(dp4484
g92
g93
ssg74
g4473
sg67
(lp4485
S':'
asbag60
(g81
g62
NtRp4486
(dp4487
g65
(dp4488
sg74
g4473
sg67
(lp4489
g60
(g61
g62
NtRp4490
(dp4491
g65
(dp4492
g73
I4
ssg74
g4486
sg67
(lp4493
S'Web2py Web Framework'
p4494
asbasbasbag60
(g76
g62
NtRp4495
(dp4496
g65
(dp4497
sg74
g4403
sg67
(lp4498
g60
(g81
g62
NtRp4499
(dp4500
g65
(dp4501
g85
g86
ssg74
g4495
sg67
(lp4502
S'keywords'
p4503
asbag60
(g81
g62
NtRp4504
(dp4505
g65
(dp4506
g92
g93
ssg74
g4495
sg67
(lp4507
S':'
asbag60
(g81
g62
NtRp4508
(dp4509
g65
(dp4510
sg74
g4495
sg67
(lp4511
g60
(g61
g62
NtRp4512
(dp4513
g65
(dp4514
g73
I4
ssg74
g4508
sg67
(lp4515
S'web2py, python, framework'
p4516
asbasbasbasbasbasbasbag60
(g76
g62
NtRp4517
(dp4518
g65
(dp4519
sg74
g3496
sg67
(lp4520
g60
(g81
g62
NtRp4521
(dp4522
g65
(dp4523
g85
g86
ssg74
g4517
sg67
(lp4524
S'postprocessing'
p4525
asbag60
(g81
g62
NtRp4526
(dp4527
g65
(dp4528
g92
g93
ssg74
g4517
sg67
(lp4529
S':'
asbag60
(g81
g62
NtRp4530
(dp4531
g65
(dp4532
sg74
g4517
sg67
(lp4533
g60
(g61
g62
NtRp4534
(dp4535
g65
(dp4536
g73
I5
ssg74
g4530
sg67
(lp4537
g60
(g69
g62
NtRp4538
(dp4539
g65
(dp4540
g73
I4
ssg74
Nsg67
(lp4541
sbasbasbasbag60
(g76
g62
NtRp4542
(dp4543
g65
(dp4544
sg74
g3496
sg67
(lp4545
g60
(g81
g62
NtRp4546
(dp4547
g65
(dp4548
g85
g86
ssg74
g4542
sg67
(lp4549
S'session_file'
p4550
asbag60
(g81
g62
NtRp4551
(dp4552
g65
(dp4553
g92
g93
ssg74
g4542
sg67
(lp4554
S':'
asbag60
(g81
g62
NtRp4555
(dp4556
g65
(dp4557
sg74
g4542
sg67
(lp4558
g60
(g61
g62
NtRp4559
(dp4560
g65
(dp4561
g73
I5
ssg74
g4555
sg67
(lp4562
S"<open file '/home/jose/DESARROLLO/web2py199/applications/streamlog/sessions/127.0.0.1-610b0c7d-3f6f-4500-a76a-b095fb30f7fd', mode 'rb+' at 0x313af60>"
p4563
asbasbasbag60
(g76
g62
NtRp4564
(dp4565
g65
(dp4566
sg74
g3496
sg67
(lp4567
g60
(g81
g62
NtRp4568
(dp4569
g65
(dp4570
g85
g86
ssg74
g4564
sg67
(lp4571
S'session_filename'
p4572
asbag60
(g81
g62
NtRp4573
(dp4574
g65
(dp4575
g92
g93
ssg74
g4564
sg67
(lp4576
S':'
asbag60
(g81
g62
NtRp4577
(dp4578
g65
(dp4579
sg74
g4564
sg67
(lp4580
g60
(g61
g62
NtRp4581
(dp4582
g65
(dp4583
g73
I5
ssg74
g4577
sg67
(lp4584
S'/home/jose/DESARROLLO/web2py199/applications/streamlog/sessions/127.0.0.1-610b0c7d-3f6f-4500-a76a-b095fb30f7fd'
p4585
asbasbasbag60
(g76
g62
NtRp4586
(dp4587
g65
(dp4588
sg74
g3496
sg67
(lp4589
g60
(g81
g62
NtRp4590
(dp4591
g65
(dp4592
g85
g86
ssg74
g4586
sg67
(lp4593
S'session_id'
p4594
asbag60
(g81
g62
NtRp4595
(dp4596
g65
(dp4597
g92
g93
ssg74
g4586
sg67
(lp4598
S':'
asbag60
(g81
g62
NtRp4599
(dp4600
g65
(dp4601
sg74
g4586
sg67
(lp4602
g60
(g61
g62
NtRp4603
(dp4604
g65
(dp4605
g73
I5
ssg74
g4599
sg67
(lp4606
S'127.0.0.1-610b0c7d-3f6f-4500-a76a-b095fb30f7fd'
p4607
asbasbasbag60
(g76
g62
NtRp4608
(dp4609
g65
(dp4610
sg74
g3496
sg67
(lp4611
g60
(g81
g62
NtRp4612
(dp4613
g65
(dp4614
g85
g86
ssg74
g4608
sg67
(lp4615
S'session_id_name'
p4616
asbag60
(g81
g62
NtRp4617
(dp4618
g65
(dp4619
g92
g93
ssg74
g4608
sg67
(lp4620
S':'
asbag60
(g81
g62
NtRp4621
(dp4622
g65
(dp4623
sg74
g4608
sg67
(lp4624
g60
(g61
g62
NtRp4625
(dp4626
g65
(dp4627
g73
I5
ssg74
g4621
sg67
(lp4628
g3553
asbasbasbag60
(g76
g62
NtRp4629
(dp4630
g65
(dp4631
sg74
g3496
sg67
(lp4632
g60
(g81
g62
NtRp4633
(dp4634
g65
(dp4635
g85
g86
ssg74
g4629
sg67
(lp4636
S'session_locked'
p4637
asbag60
(g81
g62
NtRp4638
(dp4639
g65
(dp4640
g92
g93
ssg74
g4629
sg67
(lp4641
S':'
asbag60
(g81
g62
NtRp4642
(dp4643
g65
(dp4644
sg74
g4629
sg67
(lp4645
g60
(g61
g62
NtRp4646
(dp4647
g65
(dp4648
g73
I5
ssg74
g4642
sg67
(lp4649
g1638
asbasbasbag60
(g76
g62
NtRp4650
(dp4651
g65
(dp4652
sg74
g3496
sg67
(lp4653
g60
(g81
g62
NtRp4654
(dp4655
g65
(dp4656
g85
g86
ssg74
g4650
sg67
(lp4657
S'session_new'
p4658
asbag60
(g81
g62
NtRp4659
(dp4660
g65
(dp4661
g92
g93
ssg74
g4650
sg67
(lp4662
S':'
asbag60
(g81
g62
NtRp4663
(dp4664
g65
(dp4665
sg74
g4650
sg67
(lp4666
g60
(g61
g62
NtRp4667
(dp4668
g65
(dp4669
g73
I5
ssg74
g4663
sg67
(lp4670
g103
asbasbasbag60
(g76
g62
NtRp4671
(dp4672
g65
(dp4673
sg74
g3496
sg67
(lp4674
g60
(g81
g62
NtRp4675
(dp4676
g65
(dp4677
g85
g86
ssg74
g4671
sg67
(lp4678
S'status'
p4679
asbag60
(g81
g62
NtRp4680
(dp4681
g65
(dp4682
g92
g93
ssg74
g4671
sg67
(lp4683
S':'
asbag60
(g81
g62
NtRp4684
(dp4685
g65
(dp4686
sg74
g4671
sg67
(lp4687
g60
(g61
g62
NtRp4688
(dp4689
g65
(dp4690
g73
I5
ssg74
g4684
sg67
(lp4691
S'200'
p4692
asbasbasbag60
(g76
g62
NtRp4693
(dp4694
g65
(dp4695
sg74
g3496
sg67
(lp4696
g60
(g81
g62
NtRp4697
(dp4698
g65
(dp4699
g85
g86
ssg74
g4693
sg67
(lp4700
S'subtitle'
p4701
asbag60
(g81
g62
NtRp4702
(dp4703
g65
(dp4704
g92
g93
ssg74
g4693
sg67
(lp4705
S':'
asbag60
(g81
g62
NtRp4706
(dp4707
g65
(dp4708
sg74
g4693
sg67
(lp4709
g60
(g61
g62
NtRp4710
(dp4711
g65
(dp4712
g73
I5
ssg74
g4706
sg67
(lp4713
g4001
(S's\x12\x00\x00\x00Stream Log Client!'
tRp4714
asbasbasbag60
(g76
g62
NtRp4715
(dp4716
g65
(dp4717
sg74
g3496
sg67
(lp4718
g60
(g81
g62
NtRp4719
(dp4720
g65
(dp4721
g85
g86
ssg74
g4715
sg67
(lp4722
S'title'
p4723
asbag60
(g81
g62
NtRp4724
(dp4725
g65
(dp4726
g92
g93
ssg74
g4715
sg67
(lp4727
S':'
asbag60
(g81
g62
NtRp4728
(dp4729
g65
(dp4730
sg74
g4715
sg67
(lp4731
g60
(g61
g62
NtRp4732
(dp4733
g65
(dp4734
g73
I5
ssg74
g4728
sg67
(lp4735
g125
asbasbasbag60
(g76
g62
NtRp4736
(dp4737
g65
(dp4738
sg74
g3496
sg67
(lp4739
g60
(g81
g62
NtRp4740
(dp4741
g65
(dp4742
g85
g86
ssg74
g4736
sg67
(lp4743
g2282
asbag60
(g81
g62
NtRp4744
(dp4745
g65
(dp4746
g92
g93
ssg74
g4736
sg67
(lp4747
S':'
asbag60
(g81
g62
NtRp4748
(dp4749
g65
(dp4750
sg74
g4736
sg67
(lp4751
g60
(g61
g62
NtRp4752
(dp4753
g65
(dp4754
g73
I5
ssg74
g4748
sg67
(lp4755
g2295
asbasbasbag60
(g76
g62
NtRp4756
(dp4757
g65
(dp4758
sg74
g3496
sg67
(lp4759
g60
(g81
g62
NtRp4760
(dp4761
g65
(dp4762
g85
g86
ssg74
g4756
sg67
(lp4763
S'view'
p4764
asbag60
(g81
g62
NtRp4765
(dp4766
g65
(dp4767
g92
g93
ssg74
g4756
sg67
(lp4768
S':'
asbag60
(g81
g62
NtRp4769
(dp4770
g65
(dp4771
sg74
g4756
sg67
(lp4772
g60
(g61
g62
NtRp4773
(dp4774
g65
(dp4775
g73
I5
ssg74
g4769
sg67
(lp4776
S'default/type_log_manage.html'
p4777
asbasbasbasbasbsS'locals'
p4778
(dp4779
S'a'
S"('SELECT  t_type_log.id, t_type_log.name, t_type_l...dified FROM t_type_log WHERE (t_type_log.id > 0);',)"
p4780
sS'self'
p4781
S'<gluon.dal.SQLiteAdapter object>'
p4782
sS'b'
g20
sS't0'
p4783
S'1338094080.227125'
p4784
sssS'traceback'
p4785
S'Traceback (most recent call last):\n  File "/home/jose/DESARROLLO/web2py199/gluon/restricted.py", line 194, in restricted\n    exec ccode in environment\n  File "/home/jose/DESARROLLO/web2py199/applications/streamlog/controllers/default.py", line 184, in <module>\n  File "/home/jose/DESARROLLO/web2py199/gluon/globals.py", line 149, in <lambda>\n    self._caller = lambda f: f()\n  File "/home/jose/DESARROLLO/web2py199/applications/streamlog/controllers/default.py", line 146, in type_log_manage\n    form=SQLFORM.grid(db.t_type_log)\n  File "/home/jose/DESARROLLO/web2py199/gluon/sqlhtml.py", line 1640, in grid\n    rows = dbset.select(left=left,orderby=orderby,limitby=limitby,*fields)\n  File "/home/jose/DESARROLLO/web2py199/gluon/dal.py", line 5697, in select\n    return self.db._adapter.select(self.query,fields,attributes)\n  File "/home/jose/DESARROLLO/web2py199/gluon/dal.py", line 1233, in select\n    rows = response(sql)\n  File "/home/jose/DESARROLLO/web2py199/gluon/dal.py", line 1223, in response\n    self.execute(sql)\n  File "/home/jose/DESARROLLO/web2py199/gluon/dal.py", line 1309, in execute\n    return self.log_execute(*a, **b)\n  File "/home/jose/DESARROLLO/web2py199/gluon/dal.py", line 1304, in log_execute\n    ret = self.cursor.execute(*a,**b)\nOperationalError: no such table: t_type_log\n'
p4786
s.