(dp1
S'output'
p2
S''
sS'layer'
p3
S'/home/jose/DESARROLLO/web2py199/applications/streamlog/controllers/default.py'
p4
sS'code'
p5
S'# -*- coding: utf-8 -*-\n# this file is released under public domain and you can use without limitations\n\n#########################################################################\n## This is a samples controller\n## - index is the default action of any application\n## - user is required for authentication and authorization\n## - download is for downloading files uploaded in the db (does streaming)\n## - call exposes all registered services (none by default)\n#########################################################################\n\n\n\ndef index():\n    """\n    example action using the internationalization operator T and flash\n    rendered by views/default/index.html or views/generic.html\n    """\n    return dict(message=T(\'Hello World2\'))\n\n\ndef choose_log():\n    """\n    example action using the internationalization operator T and flash\n    rendered by views/default/index.html or views/generic.html\n    """\n    \n    \n    return dict(message="log")\n\n\ndef type_table():\n    """\n    example action using the internationalization operator T and flash\n    rendered by views/default/index.html or views/generic.html\n    """\n    \n    table=\'<table cellpadding="0" cellspacing="0" border="0" class="display" id="tablelog"> \\\n    <thead> \\\n        <tr> \\\n            <th>IP</th> \\\n            <th>hyphen</th> \\\n            <th>userid</th> \\\n            <th>Time Request</th> \\\n        <th>Request Time</th> \\\n        <th>Status Code</th> \\\n        <th>Size Object</th> \\\n        </tr>\\\n    </thead> \\\n    <tfoot> \\\n        <tr> \\\n            <th>IP</th> \\\n            <th>hyphen</th> \\\n            <th>userid</th>\\\n            <th>Time Request</th> \\\n        <th>Request Time</th> \\\n        <th>Status Code</th> \\\n        <th>Size Object</th> \\\n        </tr>  \\\n    </tfoot>  \\\n        <tbody> \\\n        </tbody> \\\n    </table>\'\n    \n    return table\n\n\ndef user():\n    """\n    exposes:\n    http://..../[app]/default/user/login\n    http://..../[app]/default/user/logout\n    http://..../[app]/default/user/register\n    http://..../[app]/default/user/profile\n    http://..../[app]/default/user/retrieve_password\n    http://..../[app]/default/user/change_password\n    use @auth.requires_login()\n        @auth.requires_membership(\'group name\')\n        @auth.requires_permission(\'read\',\'table name\',record_id)\n    to decorate functions that need access control\n    """\n    return dict(form=auth())\n\ndef error():\n    return dict()\n\n\ndef project_manage():\n    \n    query=(db.t_project.user==me)\n    form = SQLFORM.smartgrid(db.t_project,constraints=dict(t_project=query))\n    #form = SQLFORM.smartgrid(db.t_project)\n    return locals()\n\n\n#@auth.requires_login()\ndef server_manage():\n\n    #query=(db.t_server.user==me)\n    #form = SQLFORM.smartgrid(db.t_server,constraints=dict(t_server=query))\n    query=(db.t_project.user==me)&(db.t_project.id==db.t_server.project)\n    #query=(db.t_server.project==1)\n    #query=(db.t_project.id==db.t_server.project)\n    form = SQLFORM.smartgrid(db.t_server,constraints=dict(t_server=query))\n    #form = SQLFORM.smartgrid(db.t_server)\n    return locals()\n\n#@auth.requires_login()\ndef log_manage():\n    #works\n    #db.t_log.id.readable=False\n    db.t_server.id.readable=False\n    db.t_server.name.readable=False\n    db.t_server.IP.readable=False\n    db.t_server.port.readable=False\n    db.t_server.description.readable=False\n\n\t\n    """\n\tqueries=[]\nif arg1 == "x": queries.append(db.table.field == x)\nif arg2 == "y": queries.append(db.table.otherfield == y)\n# many conditions here....\nquery = reduce(lambda a,b:(a&b),queries)\ndb(query).select()\n\t"""\n\n    #query=(db.t_server.user==me)&(db.t_server.id==db.t_log.server)\n\n    #form = SQLFORM.smartgrid(db.t_log,constraints=dict(t_log=query), selectable=True,searchable=False, csv=False,showbuttontext=True,onupdate=auth.archive)\n    form = SQLFORM.smartgrid(db.t_log)\n    return locals()\n\n\n\ndef download():\n    """\n    allows downloading of uploaded files\n    http://..../[app]/default/download/[filename]\n    """\n    return response.download(request,db)\n\n\ndef call():\n    """\n    exposes services. for example:\n    http://..../[app]/default/call/jsonrpc\n    decorate with @services.jsonrpc the functions to expose\n    supports xml, json, xmlrpc, jsonrpc, amfrpc, rss, csv\n    """\n    return service()\n\n\n@auth.requires_signature()\ndef data():\n    """\n    http://..../[app]/default/data/tables\n    http://..../[app]/default/data/create/[table]\n    http://..../[app]/default/data/read/[table]/[id]\n    http://..../[app]/default/data/update/[table]/[id]\n    http://..../[app]/default/data/delete/[table]/[id]\n    http://..../[app]/default/data/select/[table]\n    http://..../[app]/default/data/search/[table]\n    but URLs bust be signed, i.e. linked with\n      A(\'table\',_href=URL(\'data/tables\',user_signature=True))\n    or with the signed load operator\n      LOAD(\'default\',\'data.load\',args=\'tables\',ajax=True,user_signature=True)\n    """\n    return dict(form=crud())\n\nresponse._vars=response._caller(server_manage)\n'
p6
sS'snapshot'
p7
(dp8
sS'traceback'
p9
S'Traceback (most recent call last):\n  File "/home/jose/DESARROLLO/web2py199/gluon/restricted.py", line 194, in restricted\n    exec ccode in environment\n  File "/home/jose/DESARROLLO/web2py199/applications/streamlog/controllers/default.py", line 171, in <module>\n  File "/home/jose/DESARROLLO/web2py199/gluon/globals.py", line 149, in <lambda>\n    self._caller = lambda f: f()\n  File "/home/jose/DESARROLLO/web2py199/applications/streamlog/controllers/default.py", line 104, in server_manage\n    form = SQLFORM.smartgrid(db.t_server,constraints=dict(t_server=query))\n  File "/home/jose/DESARROLLO/web2py199/gluon/sqlhtml.py", line 1821, in smartgrid\n    user_signature=user_signature,**kwargs)\n  File "/home/jose/DESARROLLO/web2py199/gluon/sqlhtml.py", line 1693, in grid\n    row_buttons.append(link(row))\n  File "/home/jose/DESARROLLO/web2py199/gluon/sqlhtml.py", line 1819, in <lambda>\n    A(SPAN(t),_href=URL(args=request.args[:args]+[args0,row.id])))\n  File "/home/jose/DESARROLLO/web2py199/gluon/dal.py", line 3851, in __getattr__\n    return self[key]\n  File "/home/jose/DESARROLLO/web2py199/gluon/dal.py", line 3842, in __getitem__\n    return dict.__getitem__(self, key)\nKeyError: \'id\'\n'
p10
s.