(dp1
S'output'
p2
S''
sS'layer'
p3
S'/home/jose/DESARROLLO/web2py199/applications/streamlog/controllers/default.py'
p4
sS'code'
p5
S'# -*- coding: utf-8 -*-\n# this file is released under public domain and you can use without limitations\n\n#########################################################################\n## This is a samples controller\n## - index is the default action of any application\n## - user is required for authentication and authorization\n## - download is for downloading files uploaded in the db (does streaming)\n## - call exposes all registered services (none by default)\n#########################################################################\n\n\n\ndef index():\n    """\n    example action using the internationalization operator T and flash\n    rendered by views/default/index.html or views/generic.html\n    """\n    links = [lambda row:  INPUT(_type=\'button\',_value=\'START STREAM\', _onclick=\'createStream(\'+str(row.id)+\')\')]\n    form=SQLFORM.grid(db.t_log, selectable=False, csv=False,create=False, deletable=False, editable=False, links=links, user_signature=False)\n    return dict(message=T(\'Hello World2\'), form=form)\n\n@service.json\ndef getConnectionData():\n    \n    id_log=request.args[0]\n    ip=\'\'\n    port=\'\'\n    name_log=\'\'\n    \n    data_connection=db((db.t_log.id==id_log)&(db.t_log.server==db.t_server.id)).select(db.t_log.name,db.t_server.IP,db.t_server.port)\n  \n\n        \n\n    \n    return response.json({"connection": [{\'name_log\': \'xhtml\',\'IP\': \'127.0.0.1\',\'port\': \'8888\'}]})\n\ndef choose_log():\n    """\n    example action using the internationalization operator T and flash\n    rendered by views/default/index.html or views/generic.html\n    """\n    \n    \n    return dict(message="log")\n\n\ndef getTypeTable():\n    """\n    example action using the internationalization operator T and flash\n    rendered by views/default/index.html or views/generic.html\n    """\n    table=\'\'\n    id_log=request.args[0]\n    type_table=db((db.t_log.id==id_log)&(db.t_log.type_log==db.t_type_log.id)).select(db.t_type_log.html_table)\n    for row in type_table:\n        table=row.html_table\n        \n    \'\'\'\n    table=\'<table cellpadding="0" cellspacing="0" border="0" class="display" id="tablelog"> \\\n    <thead> \\\n        <tr> \\\n            <th>IP</th> \\\n            <th>hyphen</th> \\\n            <th>userid</th> \\\n            <th>Time Request</th> \\\n        <th>Request Time</th> \\\n        <th>Status Code</th> \\\n        <th>Size Object</th> \\\n        </tr>\\\n    </thead> \\\n    <tfoot> \\\n        <tr> \\\n            <th>IP</th> \\\n            <th>hyphen</th> \\\n            <th>userid</th>\\\n            <th>Time Request</th> \\\n        <th>Request Time</th> \\\n        <th>Status Code</th> \\\n        <th>Size Object</th> \\\n        </tr>  \\\n    </tfoot>  \\\n        <tbody> \\\n        </tbody> \\\n    </table>\'\n    \'\'\'\n    \n    return table\n\n\ndef user():\n    """\n    exposes:\n    http://..../[app]/default/user/login\n    http://..../[app]/default/user/logout\n    http://..../[app]/default/user/register\n    http://..../[app]/default/user/profile\n    http://..../[app]/default/user/retrieve_password\n    http://..../[app]/default/user/change_password\n    use @auth.requires_login()\n        @auth.requires_membership(\'group name\')\n        @auth.requires_permission(\'read\',\'table name\',record_id)\n    to decorate functions that need access control\n    """\n    return dict(form=auth())\n\ndef error():\n    return dict()\n\n\ndef project_manage():\n    \n    form = SQLFORM.smartgrid(db.t_project)\n    return locals()\n\n\n\ndef server_manage():\n\n    form=SQLFORM.grid(db.t_server)\n    return locals()\n\ndef log_manage():\n \n    #form = SQLFORM.smartgrid(db.t_log,constraints=dict(t_log=query), selectable=True,searchable=False, csv=False,showbuttontext=True,onupdate=auth.archive)\n    #form = SQLFORM.smartgrid(db.t_log)\n    form=SQLFORM.grid(db.t_log)\n    return locals()\n\ndef type_log_manage():\n\n    form=SQLFORM.grid(db.t_type_log)\n    return locals()\n\ndef download():\n    """\n    allows downloading of uploaded files\n    http://..../[app]/default/download/[filename]\n    """\n    return response.download(request,db)\n\n\ndef call():\n    """\n    exposes services. for example:\n    http://..../[app]/default/call/jsonrpc\n    decorate with @services.jsonrpc the functions to expose\n    supports xml, json, xmlrpc, jsonrpc, amfrpc, rss, csv\n    """\n    return service()\n\n\n@auth.requires_signature()\ndef data():\n    """\n    http://..../[app]/default/data/tables\n    http://..../[app]/default/data/create/[table]\n    http://..../[app]/default/data/read/[table]/[id]\n    http://..../[app]/default/data/update/[table]/[id]\n    http://..../[app]/default/data/delete/[table]/[id]\n    http://..../[app]/default/data/select/[table]\n    http://..../[app]/default/data/search/[table]\n    but URLs bust be signed, i.e. linked with\n      A(\'table\',_href=URL(\'data/tables\',user_signature=True))\n    or with the signed load operator\n      LOAD(\'default\',\'data.load\',args=\'tables\',ajax=True,user_signature=True)\n    """\n    return dict(form=crud())\n\nresponse._vars=response._caller(call)\n'
p6
sS'snapshot'
p7
(dp8
S'exception'
p9
(dp10
S'__hash__'
p11
S"<method-wrapper '__hash__' of exceptions.ValueError object>"
p12
sS'__setattr__'
p13
S"<method-wrapper '__setattr__' of exceptions.ValueError object>"
p14
sS'__reduce_ex__'
p15
S'<built-in method __reduce_ex__ of exceptions.ValueError object>'
p16
sS'__getslice__'
p17
S"<method-wrapper '__getslice__' of exceptions.ValueError object>"
p18
sS'__getitem__'
p19
S"<method-wrapper '__getitem__' of exceptions.ValueError object>"
p20
sS'__setstate__'
p21
S'<built-in method __setstate__ of exceptions.ValueError object>'
p22
sS'args'
p23
S'("invalid literal for int() with base 10: \'json\'",)'
p24
sS'__reduce__'
p25
S'<built-in method __reduce__ of exceptions.ValueError object>'
p26
sS'__str__'
p27
S"<method-wrapper '__str__' of exceptions.ValueError object>"
p28
sS'__format__'
p29
S'<built-in method __format__ of exceptions.ValueError object>'
p30
sS'__getattribute__'
p31
S"<method-wrapper '__getattribute__' of exceptions.ValueError object>"
p32
sS'__class__'
p33
S"<type 'exceptions.ValueError'>"
p34
sS'__unicode__'
p35
S'<built-in method __unicode__ of exceptions.ValueError object>'
p36
sS'__delattr__'
p37
S"<method-wrapper '__delattr__' of exceptions.ValueError object>"
p38
sS'__subclasshook__'
p39
S'<built-in method __subclasshook__ of type object>'
p40
sS'__repr__'
p41
S"<method-wrapper '__repr__' of exceptions.ValueError object>"
p42
sS'__dict__'
p43
S'{}'
p44
sS'__sizeof__'
p45
S'<built-in method __sizeof__ of exceptions.ValueError object>'
p46
sS'__doc__'
p47
S"'Inappropriate argument value (of correct type).'"
p48
sS'__init__'
p49
S"<method-wrapper '__init__' of exceptions.ValueError object>"
p50
sS'__new__'
p51
S'<built-in method __new__ of type object>'
p52
ssS'evalue'
p53
S"invalid literal for int() with base 10: 'json'"
p54
sS'request'
p55
ccopy_reg
_reconstructor
p56
(cgluon.html
BEAUTIFY
p57
c__builtin__
object
p58
NtRp59
(dp60
S'attributes'
p61
(dp62
sS'components'
p63
(lp64
g56
(cgluon.html
TABLE
p65
g58
NtRp66
(dp67
g61
(dp68
S'level'
p69
I5
ssS'parent'
p70
Nsg63
(lp71
g56
(cgluon.html
TR
p72
g58
NtRp73
(dp74
g61
(dp75
sg70
g66
sg63
(lp76
g56
(cgluon.html
TD
p77
g58
NtRp78
(dp79
g61
(dp80
S'_style'
p81
S'font-weight:bold;'
p82
ssg70
g73
sg63
(lp83
S'ajax'
p84
asbag56
(g77
g58
NtRp85
(dp86
g61
(dp87
S'_valign'
p88
S'top'
p89
ssg70
g73
sg63
(lp90
S':'
asbag56
(g77
g58
NtRp91
(dp92
g61
(dp93
sg70
g73
sg63
(lp94
g56
(g57
g58
NtRp95
(dp96
g61
(dp97
g69
I5
ssg70
g91
sg63
(lp98
S'False'
p99
asbasbasbag56
(g72
g58
NtRp100
(dp101
g61
(dp102
sg70
g66
sg63
(lp103
g56
(g77
g58
NtRp104
(dp105
g61
(dp106
g81
g82
ssg70
g100
sg63
(lp107
S'application'
p108
asbag56
(g77
g58
NtRp109
(dp110
g61
(dp111
g88
g89
ssg70
g100
sg63
(lp112
S':'
asbag56
(g77
g58
NtRp113
(dp114
g61
(dp115
sg70
g100
sg63
(lp116
g56
(g57
g58
NtRp117
(dp118
g61
(dp119
g69
I5
ssg70
g113
sg63
(lp120
S'streamlog'
p121
asbasbasbag56
(g72
g58
NtRp122
(dp123
g61
(dp124
sg70
g66
sg63
(lp125
g56
(g77
g58
NtRp126
(dp127
g61
(dp128
g81
g82
ssg70
g122
sg63
(lp129
g23
asbag56
(g77
g58
NtRp130
(dp131
g61
(dp132
g88
g89
ssg70
g122
sg63
(lp133
S':'
asbag56
(g77
g58
NtRp134
(dp135
g61
(dp136
sg70
g122
sg63
(lp137
g56
(g57
g58
NtRp138
(dp139
g61
(dp140
g69
I5
ssg70
g134
sg63
(lp141
g56
(g65
g58
NtRp142
(dp143
g61
(dp144
g69
I4
ssg70
Nsg63
(lp145
g56
(g72
g58
NtRp146
(dp147
g61
(dp148
sg70
g142
sg63
(lp149
g56
(g77
g58
NtRp150
(dp151
g61
(dp152
sg70
g146
sg63
(lp153
g56
(g57
g58
NtRp154
(dp155
g61
(dp156
g69
I4
ssg70
g150
sg63
(lp157
S'json'
p158
asbasbasbag56
(g72
g58
NtRp159
(dp160
g61
(dp161
sg70
g142
sg63
(lp162
g56
(g77
g58
NtRp163
(dp164
g61
(dp165
sg70
g159
sg63
(lp166
g56
(g57
g58
NtRp167
(dp168
g61
(dp169
g69
I4
ssg70
g163
sg63
(lp170
S'getConnectionData'
p171
asbasbasbag56
(g72
g58
NtRp172
(dp173
g61
(dp174
sg70
g142
sg63
(lp175
g56
(g77
g58
NtRp176
(dp177
g61
(dp178
sg70
g172
sg63
(lp179
g56
(g57
g58
NtRp180
(dp181
g61
(dp182
g69
I4
ssg70
g176
sg63
(lp183
S'2'
asbasbasbasbasbasbasbag56
(g72
g58
NtRp184
(dp185
g61
(dp186
sg70
g66
sg63
(lp187
g56
(g77
g58
NtRp188
(dp189
g61
(dp190
g81
g82
ssg70
g184
sg63
(lp191
S'body'
p192
asbag56
(g77
g58
NtRp193
(dp194
g61
(dp195
g88
g89
ssg70
g184
sg63
(lp196
S':'
asbag56
(g77
g58
NtRp197
(dp198
g61
(dp199
sg70
g184
sg63
(lp200
g56
(g57
g58
NtRp201
(dp202
g61
(dp203
g69
I5
ssg70
g197
sg63
(lp204
S'<cStringIO.StringO object at 0x2865998>'
p205
asbasbasbag56
(g72
g58
NtRp206
(dp207
g61
(dp208
sg70
g66
sg63
(lp209
g56
(g77
g58
NtRp210
(dp211
g61
(dp212
g81
g82
ssg70
g206
sg63
(lp213
S'client'
p214
asbag56
(g77
g58
NtRp215
(dp216
g61
(dp217
g88
g89
ssg70
g206
sg63
(lp218
S':'
asbag56
(g77
g58
NtRp219
(dp220
g61
(dp221
sg70
g206
sg63
(lp222
g56
(g57
g58
NtRp223
(dp224
g61
(dp225
g69
I5
ssg70
g219
sg63
(lp226
S'127.0.0.1'
p227
asbasbasbag56
(g72
g58
NtRp228
(dp229
g61
(dp230
sg70
g66
sg63
(lp231
g56
(g77
g58
NtRp232
(dp233
g61
(dp234
g81
g82
ssg70
g228
sg63
(lp235
S'controller'
p236
asbag56
(g77
g58
NtRp237
(dp238
g61
(dp239
g88
g89
ssg70
g228
sg63
(lp240
S':'
asbag56
(g77
g58
NtRp241
(dp242
g61
(dp243
sg70
g228
sg63
(lp244
g56
(g57
g58
NtRp245
(dp246
g61
(dp247
g69
I5
ssg70
g241
sg63
(lp248
S'default'
p249
asbasbasbag56
(g72
g58
NtRp250
(dp251
g61
(dp252
sg70
g66
sg63
(lp253
g56
(g77
g58
NtRp254
(dp255
g61
(dp256
g81
g82
ssg70
g250
sg63
(lp257
S'cookies'
p258
asbag56
(g77
g58
NtRp259
(dp260
g61
(dp261
g88
g89
ssg70
g250
sg63
(lp262
S':'
asbag56
(g77
g58
NtRp263
(dp264
g61
(dp265
sg70
g250
sg63
(lp266
g56
(g57
g58
NtRp267
(dp268
g61
(dp269
g69
I5
ssg70
g263
sg63
(lp270
g56
(g65
g58
NtRp271
(dp272
g61
(dp273
g69
I4
ssg70
Nsg63
(lp274
g56
(g72
g58
NtRp275
(dp276
g61
(dp277
sg70
g271
sg63
(lp278
g56
(g77
g58
NtRp279
(dp280
g61
(dp281
g81
g82
ssg70
g275
sg63
(lp282
S'session_id_admin'
p283
asbag56
(g77
g58
NtRp284
(dp285
g61
(dp286
g88
g89
ssg70
g275
sg63
(lp287
S':'
asbag56
(g77
g58
NtRp288
(dp289
g61
(dp290
sg70
g275
sg63
(lp291
g56
(g57
g58
NtRp292
(dp293
g61
(dp294
g69
I4
ssg70
g288
sg63
(lp295
g56
(g65
g58
NtRp296
(dp297
g61
(dp298
g69
I3
ssg70
Nsg63
(lp299
g56
(g72
g58
NtRp300
(dp301
g61
(dp302
sg70
g296
sg63
(lp303
g56
(g77
g58
NtRp304
(dp305
g61
(dp306
g81
g82
ssg70
g300
sg63
(lp307
S'comment'
p308
asbag56
(g77
g58
NtRp309
(dp310
g61
(dp311
g88
g89
ssg70
g300
sg63
(lp312
S':'
asbag56
(g77
g58
NtRp313
(dp314
g61
(dp315
sg70
g300
sg63
(lp316
g56
(g57
g58
NtRp317
(dp318
g61
(dp319
g69
I3
ssg70
g313
sg63
(lp320
S''
asbasbasbag56
(g72
g58
NtRp321
(dp322
g61
(dp323
sg70
g296
sg63
(lp324
g56
(g77
g58
NtRp325
(dp326
g61
(dp327
g81
g82
ssg70
g321
sg63
(lp328
S'domain'
p329
asbag56
(g77
g58
NtRp330
(dp331
g61
(dp332
g88
g89
ssg70
g321
sg63
(lp333
S':'
asbag56
(g77
g58
NtRp334
(dp335
g61
(dp336
sg70
g321
sg63
(lp337
g56
(g57
g58
NtRp338
(dp339
g61
(dp340
g69
I3
ssg70
g334
sg63
(lp341
S''
asbasbasbag56
(g72
g58
NtRp342
(dp343
g61
(dp344
sg70
g296
sg63
(lp345
g56
(g77
g58
NtRp346
(dp347
g61
(dp348
g81
g82
ssg70
g342
sg63
(lp349
S'expires'
p350
asbag56
(g77
g58
NtRp351
(dp352
g61
(dp353
g88
g89
ssg70
g342
sg63
(lp354
S':'
asbag56
(g77
g58
NtRp355
(dp356
g61
(dp357
sg70
g342
sg63
(lp358
g56
(g57
g58
NtRp359
(dp360
g61
(dp361
g69
I3
ssg70
g355
sg63
(lp362
S''
asbasbasbag56
(g72
g58
NtRp363
(dp364
g61
(dp365
sg70
g296
sg63
(lp366
g56
(g77
g58
NtRp367
(dp368
g61
(dp369
g81
g82
ssg70
g363
sg63
(lp370
S'httponly'
p371
asbag56
(g77
g58
NtRp372
(dp373
g61
(dp374
g88
g89
ssg70
g363
sg63
(lp375
S':'
asbag56
(g77
g58
NtRp376
(dp377
g61
(dp378
sg70
g363
sg63
(lp379
g56
(g57
g58
NtRp380
(dp381
g61
(dp382
g69
I3
ssg70
g376
sg63
(lp383
S''
asbasbasbag56
(g72
g58
NtRp384
(dp385
g61
(dp386
sg70
g296
sg63
(lp387
g56
(g77
g58
NtRp388
(dp389
g61
(dp390
g81
g82
ssg70
g384
sg63
(lp391
S'max-age'
p392
asbag56
(g77
g58
NtRp393
(dp394
g61
(dp395
g88
g89
ssg70
g384
sg63
(lp396
S':'
asbag56
(g77
g58
NtRp397
(dp398
g61
(dp399
sg70
g384
sg63
(lp400
g56
(g57
g58
NtRp401
(dp402
g61
(dp403
g69
I3
ssg70
g397
sg63
(lp404
S''
asbasbasbag56
(g72
g58
NtRp405
(dp406
g61
(dp407
sg70
g296
sg63
(lp408
g56
(g77
g58
NtRp409
(dp410
g61
(dp411
g81
g82
ssg70
g405
sg63
(lp412
S'path'
p413
asbag56
(g77
g58
NtRp414
(dp415
g61
(dp416
g88
g89
ssg70
g405
sg63
(lp417
S':'
asbag56
(g77
g58
NtRp418
(dp419
g61
(dp420
sg70
g405
sg63
(lp421
g56
(g57
g58
NtRp422
(dp423
g61
(dp424
g69
I3
ssg70
g418
sg63
(lp425
S''
asbasbasbag56
(g72
g58
NtRp426
(dp427
g61
(dp428
sg70
g296
sg63
(lp429
g56
(g77
g58
NtRp430
(dp431
g61
(dp432
g81
g82
ssg70
g426
sg63
(lp433
S'secure'
p434
asbag56
(g77
g58
NtRp435
(dp436
g61
(dp437
g88
g89
ssg70
g426
sg63
(lp438
S':'
asbag56
(g77
g58
NtRp439
(dp440
g61
(dp441
sg70
g426
sg63
(lp442
g56
(g57
g58
NtRp443
(dp444
g61
(dp445
g69
I3
ssg70
g439
sg63
(lp446
S''
asbasbasbag56
(g72
g58
NtRp447
(dp448
g61
(dp449
sg70
g296
sg63
(lp450
g56
(g77
g58
NtRp451
(dp452
g61
(dp453
g81
g82
ssg70
g447
sg63
(lp454
S'version'
p455
asbag56
(g77
g58
NtRp456
(dp457
g61
(dp458
g88
g89
ssg70
g447
sg63
(lp459
S':'
asbag56
(g77
g58
NtRp460
(dp461
g61
(dp462
sg70
g447
sg63
(lp463
g56
(g57
g58
NtRp464
(dp465
g61
(dp466
g69
I3
ssg70
g460
sg63
(lp467
S''
asbasbasbasbasbasbasbag56
(g72
g58
NtRp468
(dp469
g61
(dp470
sg70
g271
sg63
(lp471
g56
(g77
g58
NtRp472
(dp473
g61
(dp474
g81
g82
ssg70
g468
sg63
(lp475
S'session_id_streamlog'
p476
asbag56
(g77
g58
NtRp477
(dp478
g61
(dp479
g88
g89
ssg70
g468
sg63
(lp480
S':'
asbag56
(g77
g58
NtRp481
(dp482
g61
(dp483
sg70
g468
sg63
(lp484
g56
(g57
g58
NtRp485
(dp486
g61
(dp487
g69
I4
ssg70
g481
sg63
(lp488
g56
(g65
g58
NtRp489
(dp490
g61
(dp491
g69
I3
ssg70
Nsg63
(lp492
g56
(g72
g58
NtRp493
(dp494
g61
(dp495
sg70
g489
sg63
(lp496
g56
(g77
g58
NtRp497
(dp498
g61
(dp499
g81
g82
ssg70
g493
sg63
(lp500
g308
asbag56
(g77
g58
NtRp501
(dp502
g61
(dp503
g88
g89
ssg70
g493
sg63
(lp504
S':'
asbag56
(g77
g58
NtRp505
(dp506
g61
(dp507
sg70
g493
sg63
(lp508
g56
(g57
g58
NtRp509
(dp510
g61
(dp511
g69
I3
ssg70
g505
sg63
(lp512
S''
asbasbasbag56
(g72
g58
NtRp513
(dp514
g61
(dp515
sg70
g489
sg63
(lp516
g56
(g77
g58
NtRp517
(dp518
g61
(dp519
g81
g82
ssg70
g513
sg63
(lp520
g329
asbag56
(g77
g58
NtRp521
(dp522
g61
(dp523
g88
g89
ssg70
g513
sg63
(lp524
S':'
asbag56
(g77
g58
NtRp525
(dp526
g61
(dp527
sg70
g513
sg63
(lp528
g56
(g57
g58
NtRp529
(dp530
g61
(dp531
g69
I3
ssg70
g525
sg63
(lp532
S''
asbasbasbag56
(g72
g58
NtRp533
(dp534
g61
(dp535
sg70
g489
sg63
(lp536
g56
(g77
g58
NtRp537
(dp538
g61
(dp539
g81
g82
ssg70
g533
sg63
(lp540
g350
asbag56
(g77
g58
NtRp541
(dp542
g61
(dp543
g88
g89
ssg70
g533
sg63
(lp544
S':'
asbag56
(g77
g58
NtRp545
(dp546
g61
(dp547
sg70
g533
sg63
(lp548
g56
(g57
g58
NtRp549
(dp550
g61
(dp551
g69
I3
ssg70
g545
sg63
(lp552
S''
asbasbasbag56
(g72
g58
NtRp553
(dp554
g61
(dp555
sg70
g489
sg63
(lp556
g56
(g77
g58
NtRp557
(dp558
g61
(dp559
g81
g82
ssg70
g553
sg63
(lp560
g371
asbag56
(g77
g58
NtRp561
(dp562
g61
(dp563
g88
g89
ssg70
g553
sg63
(lp564
S':'
asbag56
(g77
g58
NtRp565
(dp566
g61
(dp567
sg70
g553
sg63
(lp568
g56
(g57
g58
NtRp569
(dp570
g61
(dp571
g69
I3
ssg70
g565
sg63
(lp572
S''
asbasbasbag56
(g72
g58
NtRp573
(dp574
g61
(dp575
sg70
g489
sg63
(lp576
g56
(g77
g58
NtRp577
(dp578
g61
(dp579
g81
g82
ssg70
g573
sg63
(lp580
g392
asbag56
(g77
g58
NtRp581
(dp582
g61
(dp583
g88
g89
ssg70
g573
sg63
(lp584
S':'
asbag56
(g77
g58
NtRp585
(dp586
g61
(dp587
sg70
g573
sg63
(lp588
g56
(g57
g58
NtRp589
(dp590
g61
(dp591
g69
I3
ssg70
g585
sg63
(lp592
S''
asbasbasbag56
(g72
g58
NtRp593
(dp594
g61
(dp595
sg70
g489
sg63
(lp596
g56
(g77
g58
NtRp597
(dp598
g61
(dp599
g81
g82
ssg70
g593
sg63
(lp600
g413
asbag56
(g77
g58
NtRp601
(dp602
g61
(dp603
g88
g89
ssg70
g593
sg63
(lp604
S':'
asbag56
(g77
g58
NtRp605
(dp606
g61
(dp607
sg70
g593
sg63
(lp608
g56
(g57
g58
NtRp609
(dp610
g61
(dp611
g69
I3
ssg70
g605
sg63
(lp612
S''
asbasbasbag56
(g72
g58
NtRp613
(dp614
g61
(dp615
sg70
g489
sg63
(lp616
g56
(g77
g58
NtRp617
(dp618
g61
(dp619
g81
g82
ssg70
g613
sg63
(lp620
g434
asbag56
(g77
g58
NtRp621
(dp622
g61
(dp623
g88
g89
ssg70
g613
sg63
(lp624
S':'
asbag56
(g77
g58
NtRp625
(dp626
g61
(dp627
sg70
g613
sg63
(lp628
g56
(g57
g58
NtRp629
(dp630
g61
(dp631
g69
I3
ssg70
g625
sg63
(lp632
S''
asbasbasbag56
(g72
g58
NtRp633
(dp634
g61
(dp635
sg70
g489
sg63
(lp636
g56
(g77
g58
NtRp637
(dp638
g61
(dp639
g81
g82
ssg70
g633
sg63
(lp640
g455
asbag56
(g77
g58
NtRp641
(dp642
g61
(dp643
g88
g89
ssg70
g633
sg63
(lp644
S':'
asbag56
(g77
g58
NtRp645
(dp646
g61
(dp647
sg70
g633
sg63
(lp648
g56
(g57
g58
NtRp649
(dp650
g61
(dp651
g69
I3
ssg70
g645
sg63
(lp652
S''
asbasbasbasbasbasbasbag56
(g72
g58
NtRp653
(dp654
g61
(dp655
sg70
g271
sg63
(lp656
g56
(g77
g58
NtRp657
(dp658
g61
(dp659
g81
g82
ssg70
g653
sg63
(lp660
S'session_id_test3'
p661
asbag56
(g77
g58
NtRp662
(dp663
g61
(dp664
g88
g89
ssg70
g653
sg63
(lp665
S':'
asbag56
(g77
g58
NtRp666
(dp667
g61
(dp668
sg70
g653
sg63
(lp669
g56
(g57
g58
NtRp670
(dp671
g61
(dp672
g69
I4
ssg70
g666
sg63
(lp673
g56
(g65
g58
NtRp674
(dp675
g61
(dp676
g69
I3
ssg70
Nsg63
(lp677
g56
(g72
g58
NtRp678
(dp679
g61
(dp680
sg70
g674
sg63
(lp681
g56
(g77
g58
NtRp682
(dp683
g61
(dp684
g81
g82
ssg70
g678
sg63
(lp685
g308
asbag56
(g77
g58
NtRp686
(dp687
g61
(dp688
g88
g89
ssg70
g678
sg63
(lp689
S':'
asbag56
(g77
g58
NtRp690
(dp691
g61
(dp692
sg70
g678
sg63
(lp693
g56
(g57
g58
NtRp694
(dp695
g61
(dp696
g69
I3
ssg70
g690
sg63
(lp697
S''
asbasbasbag56
(g72
g58
NtRp698
(dp699
g61
(dp700
sg70
g674
sg63
(lp701
g56
(g77
g58
NtRp702
(dp703
g61
(dp704
g81
g82
ssg70
g698
sg63
(lp705
g329
asbag56
(g77
g58
NtRp706
(dp707
g61
(dp708
g88
g89
ssg70
g698
sg63
(lp709
S':'
asbag56
(g77
g58
NtRp710
(dp711
g61
(dp712
sg70
g698
sg63
(lp713
g56
(g57
g58
NtRp714
(dp715
g61
(dp716
g69
I3
ssg70
g710
sg63
(lp717
S''
asbasbasbag56
(g72
g58
NtRp718
(dp719
g61
(dp720
sg70
g674
sg63
(lp721
g56
(g77
g58
NtRp722
(dp723
g61
(dp724
g81
g82
ssg70
g718
sg63
(lp725
g350
asbag56
(g77
g58
NtRp726
(dp727
g61
(dp728
g88
g89
ssg70
g718
sg63
(lp729
S':'
asbag56
(g77
g58
NtRp730
(dp731
g61
(dp732
sg70
g718
sg63
(lp733
g56
(g57
g58
NtRp734
(dp735
g61
(dp736
g69
I3
ssg70
g730
sg63
(lp737
S''
asbasbasbag56
(g72
g58
NtRp738
(dp739
g61
(dp740
sg70
g674
sg63
(lp741
g56
(g77
g58
NtRp742
(dp743
g61
(dp744
g81
g82
ssg70
g738
sg63
(lp745
g371
asbag56
(g77
g58
NtRp746
(dp747
g61
(dp748
g88
g89
ssg70
g738
sg63
(lp749
S':'
asbag56
(g77
g58
NtRp750
(dp751
g61
(dp752
sg70
g738
sg63
(lp753
g56
(g57
g58
NtRp754
(dp755
g61
(dp756
g69
I3
ssg70
g750
sg63
(lp757
S''
asbasbasbag56
(g72
g58
NtRp758
(dp759
g61
(dp760
sg70
g674
sg63
(lp761
g56
(g77
g58
NtRp762
(dp763
g61
(dp764
g81
g82
ssg70
g758
sg63
(lp765
g392
asbag56
(g77
g58
NtRp766
(dp767
g61
(dp768
g88
g89
ssg70
g758
sg63
(lp769
S':'
asbag56
(g77
g58
NtRp770
(dp771
g61
(dp772
sg70
g758
sg63
(lp773
g56
(g57
g58
NtRp774
(dp775
g61
(dp776
g69
I3
ssg70
g770
sg63
(lp777
S''
asbasbasbag56
(g72
g58
NtRp778
(dp779
g61
(dp780
sg70
g674
sg63
(lp781
g56
(g77
g58
NtRp782
(dp783
g61
(dp784
g81
g82
ssg70
g778
sg63
(lp785
g413
asbag56
(g77
g58
NtRp786
(dp787
g61
(dp788
g88
g89
ssg70
g778
sg63
(lp789
S':'
asbag56
(g77
g58
NtRp790
(dp791
g61
(dp792
sg70
g778
sg63
(lp793
g56
(g57
g58
NtRp794
(dp795
g61
(dp796
g69
I3
ssg70
g790
sg63
(lp797
S''
asbasbasbag56
(g72
g58
NtRp798
(dp799
g61
(dp800
sg70
g674
sg63
(lp801
g56
(g77
g58
NtRp802
(dp803
g61
(dp804
g81
g82
ssg70
g798
sg63
(lp805
g434
asbag56
(g77
g58
NtRp806
(dp807
g61
(dp808
g88
g89
ssg70
g798
sg63
(lp809
S':'
asbag56
(g77
g58
NtRp810
(dp811
g61
(dp812
sg70
g798
sg63
(lp813
g56
(g57
g58
NtRp814
(dp815
g61
(dp816
g69
I3
ssg70
g810
sg63
(lp817
S''
asbasbasbag56
(g72
g58
NtRp818
(dp819
g61
(dp820
sg70
g674
sg63
(lp821
g56
(g77
g58
NtRp822
(dp823
g61
(dp824
g81
g82
ssg70
g818
sg63
(lp825
g455
asbag56
(g77
g58
NtRp826
(dp827
g61
(dp828
g88
g89
ssg70
g818
sg63
(lp829
S':'
asbag56
(g77
g58
NtRp830
(dp831
g61
(dp832
sg70
g818
sg63
(lp833
g56
(g57
g58
NtRp834
(dp835
g61
(dp836
g69
I3
ssg70
g830
sg63
(lp837
S''
asbasbasbasbasbasbasbasbasbasbasbag56
(g72
g58
NtRp838
(dp839
g61
(dp840
sg70
g66
sg63
(lp841
g56
(g77
g58
NtRp842
(dp843
g61
(dp844
g81
g82
ssg70
g838
sg63
(lp845
S'env'
p846
asbag56
(g77
g58
NtRp847
(dp848
g61
(dp849
g88
g89
ssg70
g838
sg63
(lp850
S':'
asbag56
(g77
g58
NtRp851
(dp852
g61
(dp853
sg70
g838
sg63
(lp854
g56
(g57
g58
NtRp855
(dp856
g61
(dp857
g69
I5
ssg70
g851
sg63
(lp858
g56
(g65
g58
NtRp859
(dp860
g61
(dp861
g69
I4
ssg70
Nsg63
(lp862
g56
(g72
g58
NtRp863
(dp864
g61
(dp865
sg70
g859
sg63
(lp866
g56
(g77
g58
NtRp867
(dp868
g61
(dp869
g81
g82
ssg70
g863
sg63
(lp870
S'app_folders'
p871
asbag56
(g77
g58
NtRp872
(dp873
g61
(dp874
g88
g89
ssg70
g863
sg63
(lp875
S':'
asbag56
(g77
g58
NtRp876
(dp877
g61
(dp878
sg70
g863
sg63
(lp879
g56
(g57
g58
NtRp880
(dp881
g61
(dp882
g69
I4
ssg70
g876
sg63
(lp883
S"set(['/home/jose/DESARROLLO/web2py199/applications/streamlog/', '/home/jose/DESARROLLO/web2py199/applications/admin/'])"
p884
asbasbasbag56
(g72
g58
NtRp885
(dp886
g61
(dp887
sg70
g859
sg63
(lp888
g56
(g77
g58
NtRp889
(dp890
g61
(dp891
g81
g82
ssg70
g885
sg63
(lp892
S'applications_parent'
p893
asbag56
(g77
g58
NtRp894
(dp895
g61
(dp896
g88
g89
ssg70
g885
sg63
(lp897
S':'
asbag56
(g77
g58
NtRp898
(dp899
g61
(dp900
sg70
g885
sg63
(lp901
g56
(g57
g58
NtRp902
(dp903
g61
(dp904
g69
I4
ssg70
g898
sg63
(lp905
S'/home/jose/DESARROLLO/web2py199'
p906
asbasbasbag56
(g72
g58
NtRp907
(dp908
g61
(dp909
sg70
g859
sg63
(lp910
g56
(g77
g58
NtRp911
(dp912
g61
(dp913
g81
g82
ssg70
g907
sg63
(lp914
S'cmd_args'
p915
asbag56
(g77
g58
NtRp916
(dp917
g61
(dp918
g88
g89
ssg70
g907
sg63
(lp919
S':'
asbag56
(g77
g58
NtRp920
(dp921
g61
(dp922
sg70
g907
sg63
(lp923
g56
(g57
g58
NtRp924
(dp925
g61
(dp926
g69
I4
ssg70
g920
sg63
(lp927
g56
(g65
g58
NtRp928
(dp929
g61
(dp930
g69
I3
ssg70
Nsg63
(lp931
sbasbasbasbag56
(g72
g58
NtRp932
(dp933
g61
(dp934
sg70
g859
sg63
(lp935
g56
(g77
g58
NtRp936
(dp937
g61
(dp938
g81
g82
ssg70
g932
sg63
(lp939
S'cmd_options'
p940
asbag56
(g77
g58
NtRp941
(dp942
g61
(dp943
g88
g89
ssg70
g932
sg63
(lp944
S':'
asbag56
(g77
g58
NtRp945
(dp946
g61
(dp947
sg70
g932
sg63
(lp948
g56
(g57
g58
NtRp949
(dp950
g61
(dp951
g69
I4
ssg70
g945
sg63
(lp952
S"<Values at 0x1c79f80: {'verbose': False, 'ip': '127.0.0.1', 'shutdown_timeout': 5, 'taskbar': False, 'nocron': False, 'pid_filename': 'httpserver.pid', 'maxthreads': None, 'softcron': False, 'server_name': 'jose', 'bpython': False, 'nogui': False, 'port': 8000, 'extcron': False, 'debuglevel': 30, 'test': None, 'folder': '/home/jose/DESARROLLO/web2py199', 'config': '', 'import_models': False, 'winservice': '', 'shell': None, 'run': '', 'log_filename': 'httpserver.log', 'args': [''], 'ssl_ca_certificate': None, 'scheduler': None, 'profiler_filename': None, 'ssl_private_key': '', 'password': 't', 'request_queue_size': 5, 'ssl_certificate': '', 'cronjob': False, 'plain': False, 'quiet': False, 'interfaces': None, 'minthreads': None, 'timeout': 10, 'numthreads': None, 'nobanner': False}>"
p953
asbasbasbag56
(g72
g58
NtRp954
(dp955
g61
(dp956
sg70
g859
sg63
(lp957
g56
(g77
g58
NtRp958
(dp959
g61
(dp960
g81
g82
ssg70
g954
sg63
(lp961
S'db_sessions'
p962
asbag56
(g77
g58
NtRp963
(dp964
g61
(dp965
g88
g89
ssg70
g954
sg63
(lp966
S':'
asbag56
(g77
g58
NtRp967
(dp968
g61
(dp969
sg70
g954
sg63
(lp970
g56
(g57
g58
NtRp971
(dp972
g61
(dp973
g69
I4
ssg70
g967
sg63
(lp974
S'set([])'
p975
asbasbasbag56
(g72
g58
NtRp976
(dp977
g61
(dp978
sg70
g859
sg63
(lp979
g56
(g77
g58
NtRp980
(dp981
g61
(dp982
g81
g82
ssg70
g976
sg63
(lp983
S'debugging'
p984
asbag56
(g77
g58
NtRp985
(dp986
g61
(dp987
g88
g89
ssg70
g976
sg63
(lp988
S':'
asbag56
(g77
g58
NtRp989
(dp990
g61
(dp991
sg70
g976
sg63
(lp992
g56
(g57
g58
NtRp993
(dp994
g61
(dp995
g69
I4
ssg70
g989
sg63
(lp996
g99
asbasbasbag56
(g72
g58
NtRp997
(dp998
g61
(dp999
sg70
g859
sg63
(lp1000
g56
(g77
g58
NtRp1001
(dp1002
g61
(dp1003
g81
g82
ssg70
g997
sg63
(lp1004
S'gluon_parent'
p1005
asbag56
(g77
g58
NtRp1006
(dp1007
g61
(dp1008
g88
g89
ssg70
g997
sg63
(lp1009
S':'
asbag56
(g77
g58
NtRp1010
(dp1011
g61
(dp1012
sg70
g997
sg63
(lp1013
g56
(g57
g58
NtRp1014
(dp1015
g61
(dp1016
g69
I4
ssg70
g1010
sg63
(lp1017
S'/home/jose/DESARROLLO/web2py199'
p1018
asbasbasbag56
(g72
g58
NtRp1019
(dp1020
g61
(dp1021
sg70
g859
sg63
(lp1022
g56
(g77
g58
NtRp1023
(dp1024
g61
(dp1025
g81
g82
ssg70
g1019
sg63
(lp1026
S'http_accept'
p1027
asbag56
(g77
g58
NtRp1028
(dp1029
g61
(dp1030
g88
g89
ssg70
g1019
sg63
(lp1031
S':'
asbag56
(g77
g58
NtRp1032
(dp1033
g61
(dp1034
sg70
g1019
sg63
(lp1035
g56
(g57
g58
NtRp1036
(dp1037
g61
(dp1038
g69
I4
ssg70
g1032
sg63
(lp1039
S'text/html,application/xhtml+xml,application/xml;q=0.9,*/*;q=0.8'
p1040
asbasbasbag56
(g72
g58
NtRp1041
(dp1042
g61
(dp1043
sg70
g859
sg63
(lp1044
g56
(g77
g58
NtRp1045
(dp1046
g61
(dp1047
g81
g82
ssg70
g1041
sg63
(lp1048
S'http_accept_encoding'
p1049
asbag56
(g77
g58
NtRp1050
(dp1051
g61
(dp1052
g88
g89
ssg70
g1041
sg63
(lp1053
S':'
asbag56
(g77
g58
NtRp1054
(dp1055
g61
(dp1056
sg70
g1041
sg63
(lp1057
g56
(g57
g58
NtRp1058
(dp1059
g61
(dp1060
g69
I4
ssg70
g1054
sg63
(lp1061
S'gzip, deflate'
p1062
asbasbasbag56
(g72
g58
NtRp1063
(dp1064
g61
(dp1065
sg70
g859
sg63
(lp1066
g56
(g77
g58
NtRp1067
(dp1068
g61
(dp1069
g81
g82
ssg70
g1063
sg63
(lp1070
S'http_accept_language'
p1071
asbag56
(g77
g58
NtRp1072
(dp1073
g61
(dp1074
g88
g89
ssg70
g1063
sg63
(lp1075
S':'
asbag56
(g77
g58
NtRp1076
(dp1077
g61
(dp1078
sg70
g1063
sg63
(lp1079
g56
(g57
g58
NtRp1080
(dp1081
g61
(dp1082
g69
I4
ssg70
g1076
sg63
(lp1083
S'en-us,en;q=0.5'
p1084
asbasbasbag56
(g72
g58
NtRp1085
(dp1086
g61
(dp1087
sg70
g859
sg63
(lp1088
g56
(g77
g58
NtRp1089
(dp1090
g61
(dp1091
g81
g82
ssg70
g1085
sg63
(lp1092
S'http_connection'
p1093
asbag56
(g77
g58
NtRp1094
(dp1095
g61
(dp1096
g88
g89
ssg70
g1085
sg63
(lp1097
S':'
asbag56
(g77
g58
NtRp1098
(dp1099
g61
(dp1100
sg70
g1085
sg63
(lp1101
g56
(g57
g58
NtRp1102
(dp1103
g61
(dp1104
g69
I4
ssg70
g1098
sg63
(lp1105
S'keep-alive'
p1106
asbasbasbag56
(g72
g58
NtRp1107
(dp1108
g61
(dp1109
sg70
g859
sg63
(lp1110
g56
(g77
g58
NtRp1111
(dp1112
g61
(dp1113
g81
g82
ssg70
g1107
sg63
(lp1114
S'http_cookie'
p1115
asbag56
(g77
g58
NtRp1116
(dp1117
g61
(dp1118
g88
g89
ssg70
g1107
sg63
(lp1119
S':'
asbag56
(g77
g58
NtRp1120
(dp1121
g61
(dp1122
sg70
g1107
sg63
(lp1123
g56
(g57
g58
NtRp1124
(dp1125
g61
(dp1126
g69
I4
ssg70
g1120
sg63
(lp1127
S'session_id_streamlog=127.0.0.1-610b0c7d-3f6f-4500-a76a-b095fb30f7fd; session_id_admin=127.0.0.1-8f69464e-4a83-4875-ad25-00cf5c7e8e11; session_id_test3=127.0.0.1-380e7b29-b635-4690-b9ca-812870d6a061'
p1128
asbasbasbag56
(g72
g58
NtRp1129
(dp1130
g61
(dp1131
sg70
g859
sg63
(lp1132
g56
(g77
g58
NtRp1133
(dp1134
g61
(dp1135
g81
g82
ssg70
g1129
sg63
(lp1136
S'http_host'
p1137
asbag56
(g77
g58
NtRp1138
(dp1139
g61
(dp1140
g88
g89
ssg70
g1129
sg63
(lp1141
S':'
asbag56
(g77
g58
NtRp1142
(dp1143
g61
(dp1144
sg70
g1129
sg63
(lp1145
g56
(g57
g58
NtRp1146
(dp1147
g61
(dp1148
g69
I4
ssg70
g1142
sg63
(lp1149
S'localhost:8000'
p1150
asbasbasbag56
(g72
g58
NtRp1151
(dp1152
g61
(dp1153
sg70
g859
sg63
(lp1154
g56
(g77
g58
NtRp1155
(dp1156
g61
(dp1157
g81
g82
ssg70
g1151
sg63
(lp1158
S'http_user_agent'
p1159
asbag56
(g77
g58
NtRp1160
(dp1161
g61
(dp1162
g88
g89
ssg70
g1151
sg63
(lp1163
S':'
asbag56
(g77
g58
NtRp1164
(dp1165
g61
(dp1166
sg70
g1151
sg63
(lp1167
g56
(g57
g58
NtRp1168
(dp1169
g61
(dp1170
g69
I4
ssg70
g1164
sg63
(lp1171
S'Mozilla/5.0 (X11; Ubuntu; Linux x86_64; rv:12.0) Gecko/20100101 Firefox/12.0'
p1172
asbasbasbag56
(g72
g58
NtRp1173
(dp1174
g61
(dp1175
sg70
g859
sg63
(lp1176
g56
(g77
g58
NtRp1177
(dp1178
g61
(dp1179
g81
g82
ssg70
g1173
sg63
(lp1180
S'is_jython'
p1181
asbag56
(g77
g58
NtRp1182
(dp1183
g61
(dp1184
g88
g89
ssg70
g1173
sg63
(lp1185
S':'
asbag56
(g77
g58
NtRp1186
(dp1187
g61
(dp1188
sg70
g1173
sg63
(lp1189
g56
(g57
g58
NtRp1190
(dp1191
g61
(dp1192
g69
I4
ssg70
g1186
sg63
(lp1193
g99
asbasbasbag56
(g72
g58
NtRp1194
(dp1195
g61
(dp1196
sg70
g859
sg63
(lp1197
g56
(g77
g58
NtRp1198
(dp1199
g61
(dp1200
g81
g82
ssg70
g1194
sg63
(lp1201
S'path_info'
p1202
asbag56
(g77
g58
NtRp1203
(dp1204
g61
(dp1205
g88
g89
ssg70
g1194
sg63
(lp1206
S':'
asbag56
(g77
g58
NtRp1207
(dp1208
g61
(dp1209
sg70
g1194
sg63
(lp1210
g56
(g57
g58
NtRp1211
(dp1212
g61
(dp1213
g69
I4
ssg70
g1207
sg63
(lp1214
S'/streamlog/default/call/json/getConnectionData/2'
p1215
asbasbasbag56
(g72
g58
NtRp1216
(dp1217
g61
(dp1218
sg70
g859
sg63
(lp1219
g56
(g77
g58
NtRp1220
(dp1221
g61
(dp1222
g81
g82
ssg70
g1216
sg63
(lp1223
S'query_string'
p1224
asbag56
(g77
g58
NtRp1225
(dp1226
g61
(dp1227
g88
g89
ssg70
g1216
sg63
(lp1228
S':'
asbag56
(g77
g58
NtRp1229
(dp1230
g61
(dp1231
sg70
g1216
sg63
(lp1232
g56
(g57
g58
NtRp1233
(dp1234
g61
(dp1235
g69
I4
ssg70
g1229
sg63
(lp1236
S''
asbasbasbag56
(g72
g58
NtRp1237
(dp1238
g61
(dp1239
sg70
g859
sg63
(lp1240
g56
(g77
g58
NtRp1241
(dp1242
g61
(dp1243
g81
g82
ssg70
g1237
sg63
(lp1244
S'remote_addr'
p1245
asbag56
(g77
g58
NtRp1246
(dp1247
g61
(dp1248
g88
g89
ssg70
g1237
sg63
(lp1249
S':'
asbag56
(g77
g58
NtRp1250
(dp1251
g61
(dp1252
sg70
g1237
sg63
(lp1253
g56
(g57
g58
NtRp1254
(dp1255
g61
(dp1256
g69
I4
ssg70
g1250
sg63
(lp1257
g227
asbasbasbag56
(g72
g58
NtRp1258
(dp1259
g61
(dp1260
sg70
g859
sg63
(lp1261
g56
(g77
g58
NtRp1262
(dp1263
g61
(dp1264
g81
g82
ssg70
g1258
sg63
(lp1265
S'remote_port'
p1266
asbag56
(g77
g58
NtRp1267
(dp1268
g61
(dp1269
g88
g89
ssg70
g1258
sg63
(lp1270
S':'
asbag56
(g77
g58
NtRp1271
(dp1272
g61
(dp1273
sg70
g1258
sg63
(lp1274
g56
(g57
g58
NtRp1275
(dp1276
g61
(dp1277
g69
I4
ssg70
g1271
sg63
(lp1278
S'36218'
p1279
asbasbasbag56
(g72
g58
NtRp1280
(dp1281
g61
(dp1282
sg70
g859
sg63
(lp1283
g56
(g77
g58
NtRp1284
(dp1285
g61
(dp1286
g81
g82
ssg70
g1280
sg63
(lp1287
S'request_method'
p1288
asbag56
(g77
g58
NtRp1289
(dp1290
g61
(dp1291
g88
g89
ssg70
g1280
sg63
(lp1292
S':'
asbag56
(g77
g58
NtRp1293
(dp1294
g61
(dp1295
sg70
g1280
sg63
(lp1296
g56
(g57
g58
NtRp1297
(dp1298
g61
(dp1299
g69
I4
ssg70
g1293
sg63
(lp1300
S'GET'
p1301
asbasbasbag56
(g72
g58
NtRp1302
(dp1303
g61
(dp1304
sg70
g859
sg63
(lp1305
g56
(g77
g58
NtRp1306
(dp1307
g61
(dp1308
g81
g82
ssg70
g1302
sg63
(lp1309
S'script_name'
p1310
asbag56
(g77
g58
NtRp1311
(dp1312
g61
(dp1313
g88
g89
ssg70
g1302
sg63
(lp1314
S':'
asbag56
(g77
g58
NtRp1315
(dp1316
g61
(dp1317
sg70
g1302
sg63
(lp1318
g56
(g57
g58
NtRp1319
(dp1320
g61
(dp1321
g69
I4
ssg70
g1315
sg63
(lp1322
S''
asbasbasbag56
(g72
g58
NtRp1323
(dp1324
g61
(dp1325
sg70
g859
sg63
(lp1326
g56
(g77
g58
NtRp1327
(dp1328
g61
(dp1329
g81
g82
ssg70
g1323
sg63
(lp1330
S'server_name'
p1331
asbag56
(g77
g58
NtRp1332
(dp1333
g61
(dp1334
g88
g89
ssg70
g1323
sg63
(lp1335
S':'
asbag56
(g77
g58
NtRp1336
(dp1337
g61
(dp1338
sg70
g1323
sg63
(lp1339
g56
(g57
g58
NtRp1340
(dp1341
g61
(dp1342
g69
I4
ssg70
g1336
sg63
(lp1343
S'jose'
p1344
asbasbasbag56
(g72
g58
NtRp1345
(dp1346
g61
(dp1347
sg70
g859
sg63
(lp1348
g56
(g77
g58
NtRp1349
(dp1350
g61
(dp1351
g81
g82
ssg70
g1345
sg63
(lp1352
S'server_port'
p1353
asbag56
(g77
g58
NtRp1354
(dp1355
g61
(dp1356
g88
g89
ssg70
g1345
sg63
(lp1357
S':'
asbag56
(g77
g58
NtRp1358
(dp1359
g61
(dp1360
sg70
g1345
sg63
(lp1361
g56
(g57
g58
NtRp1362
(dp1363
g61
(dp1364
g69
I4
ssg70
g1358
sg63
(lp1365
S'8000'
p1366
asbasbasbag56
(g72
g58
NtRp1367
(dp1368
g61
(dp1369
sg70
g859
sg63
(lp1370
g56
(g77
g58
NtRp1371
(dp1372
g61
(dp1373
g81
g82
ssg70
g1367
sg63
(lp1374
S'server_protocol'
p1375
asbag56
(g77
g58
NtRp1376
(dp1377
g61
(dp1378
g88
g89
ssg70
g1367
sg63
(lp1379
S':'
asbag56
(g77
g58
NtRp1380
(dp1381
g61
(dp1382
sg70
g1367
sg63
(lp1383
g56
(g57
g58
NtRp1384
(dp1385
g61
(dp1386
g69
I4
ssg70
g1380
sg63
(lp1387
S'HTTP/1.1'
p1388
asbasbasbag56
(g72
g58
NtRp1389
(dp1390
g61
(dp1391
sg70
g859
sg63
(lp1392
g56
(g77
g58
NtRp1393
(dp1394
g61
(dp1395
g81
g82
ssg70
g1389
sg63
(lp1396
S'server_software'
p1397
asbag56
(g77
g58
NtRp1398
(dp1399
g61
(dp1400
g88
g89
ssg70
g1389
sg63
(lp1401
S':'
asbag56
(g77
g58
NtRp1402
(dp1403
g61
(dp1404
sg70
g1389
sg63
(lp1405
g56
(g57
g58
NtRp1406
(dp1407
g61
(dp1408
g69
I4
ssg70
g1402
sg63
(lp1409
S'Rocket 1.2.4'
p1410
asbasbasbag56
(g72
g58
NtRp1411
(dp1412
g61
(dp1413
sg70
g859
sg63
(lp1414
g56
(g77
g58
NtRp1415
(dp1416
g61
(dp1417
g81
g82
ssg70
g1411
sg63
(lp1418
S'web2py_crontype'
p1419
asbag56
(g77
g58
NtRp1420
(dp1421
g61
(dp1422
g88
g89
ssg70
g1411
sg63
(lp1423
S':'
asbag56
(g77
g58
NtRp1424
(dp1425
g61
(dp1426
sg70
g1411
sg63
(lp1427
g56
(g57
g58
NtRp1428
(dp1429
g61
(dp1430
g69
I4
ssg70
g1424
sg63
(lp1431
S'hard'
p1432
asbasbasbag56
(g72
g58
NtRp1433
(dp1434
g61
(dp1435
sg70
g859
sg63
(lp1436
g56
(g77
g58
NtRp1437
(dp1438
g61
(dp1439
g81
g82
ssg70
g1433
sg63
(lp1440
S'web2py_path'
p1441
asbag56
(g77
g58
NtRp1442
(dp1443
g61
(dp1444
g88
g89
ssg70
g1433
sg63
(lp1445
S':'
asbag56
(g77
g58
NtRp1446
(dp1447
g61
(dp1448
sg70
g1433
sg63
(lp1449
g56
(g57
g58
NtRp1450
(dp1451
g61
(dp1452
g69
I4
ssg70
g1446
sg63
(lp1453
g906
asbasbasbag56
(g72
g58
NtRp1454
(dp1455
g61
(dp1456
sg70
g859
sg63
(lp1457
g56
(g77
g58
NtRp1458
(dp1459
g61
(dp1460
g81
g82
ssg70
g1454
sg63
(lp1461
S'web2py_version'
p1462
asbag56
(g77
g58
NtRp1463
(dp1464
g61
(dp1465
g88
g89
ssg70
g1454
sg63
(lp1466
S':'
asbag56
(g77
g58
NtRp1467
(dp1468
g61
(dp1469
sg70
g1454
sg63
(lp1470
g56
(g57
g58
NtRp1471
(dp1472
g61
(dp1473
g69
I4
ssg70
g1467
sg63
(lp1474
g56
(g65
g58
NtRp1475
(dp1476
g61
(dp1477
g69
I3
ssg70
Nsg63
(lp1478
g56
(g72
g58
NtRp1479
(dp1480
g61
(dp1481
sg70
g1475
sg63
(lp1482
g56
(g77
g58
NtRp1483
(dp1484
g61
(dp1485
sg70
g1479
sg63
(lp1486
g56
(g57
g58
NtRp1487
(dp1488
g61
(dp1489
g69
I3
ssg70
g1483
sg63
(lp1490
S'1'
asbasbasbag56
(g72
g58
NtRp1491
(dp1492
g61
(dp1493
sg70
g1475
sg63
(lp1494
g56
(g77
g58
NtRp1495
(dp1496
g61
(dp1497
sg70
g1491
sg63
(lp1498
g56
(g57
g58
NtRp1499
(dp1500
g61
(dp1501
g69
I3
ssg70
g1495
sg63
(lp1502
S'99'
p1503
asbasbasbag56
(g72
g58
NtRp1504
(dp1505
g61
(dp1506
sg70
g1475
sg63
(lp1507
g56
(g77
g58
NtRp1508
(dp1509
g61
(dp1510
sg70
g1504
sg63
(lp1511
g56
(g57
g58
NtRp1512
(dp1513
g61
(dp1514
g69
I3
ssg70
g1508
sg63
(lp1515
S'2'
asbasbasbag56
(g72
g58
NtRp1516
(dp1517
g61
(dp1518
sg70
g1475
sg63
(lp1519
g56
(g77
g58
NtRp1520
(dp1521
g61
(dp1522
sg70
g1516
sg63
(lp1523
g56
(g57
g58
NtRp1524
(dp1525
g61
(dp1526
g69
I3
ssg70
g1520
sg63
(lp1527
S'datetime.datetime(2011, 9, 26, 6, 55, 33)'
p1528
asbasbasbag56
(g72
g58
NtRp1529
(dp1530
g61
(dp1531
sg70
g1475
sg63
(lp1532
g56
(g77
g58
NtRp1533
(dp1534
g61
(dp1535
sg70
g1529
sg63
(lp1536
g56
(g57
g58
NtRp1537
(dp1538
g61
(dp1539
g69
I3
ssg70
g1533
sg63
(lp1540
S'stable'
p1541
asbasbasbasbasbasbasbag56
(g72
g58
NtRp1542
(dp1543
g61
(dp1544
sg70
g859
sg63
(lp1545
g56
(g77
g58
NtRp1546
(dp1547
g61
(dp1548
g81
g82
ssg70
g1542
sg63
(lp1549
S'wsgi_errors'
p1550
asbag56
(g77
g58
NtRp1551
(dp1552
g61
(dp1553
g88
g89
ssg70
g1542
sg63
(lp1554
S':'
asbag56
(g77
g58
NtRp1555
(dp1556
g61
(dp1557
sg70
g1542
sg63
(lp1558
g56
(g57
g58
NtRp1559
(dp1560
g61
(dp1561
g69
I4
ssg70
g1555
sg63
(lp1562
S"<open file '<stderr>', mode 'w' at 0x7f84db3ff270>"
p1563
asbasbasbag56
(g72
g58
NtRp1564
(dp1565
g61
(dp1566
sg70
g859
sg63
(lp1567
g56
(g77
g58
NtRp1568
(dp1569
g61
(dp1570
g81
g82
ssg70
g1564
sg63
(lp1571
S'wsgi_file_wrapper'
p1572
asbag56
(g77
g58
NtRp1573
(dp1574
g61
(dp1575
g88
g89
ssg70
g1564
sg63
(lp1576
S':'
asbag56
(g77
g58
NtRp1577
(dp1578
g61
(dp1579
sg70
g1564
sg63
(lp1580
g56
(g57
g58
NtRp1581
(dp1582
g61
(dp1583
g69
I4
ssg70
g1577
sg63
(lp1584
S'<class wsgiref.util.FileWrapper at 0x1b96d50>'
p1585
asbasbasbag56
(g72
g58
NtRp1586
(dp1587
g61
(dp1588
sg70
g859
sg63
(lp1589
g56
(g77
g58
NtRp1590
(dp1591
g61
(dp1592
g81
g82
ssg70
g1586
sg63
(lp1593
S'wsgi_input'
p1594
asbag56
(g77
g58
NtRp1595
(dp1596
g61
(dp1597
g88
g89
ssg70
g1586
sg63
(lp1598
S':'
asbag56
(g77
g58
NtRp1599
(dp1600
g61
(dp1601
sg70
g1586
sg63
(lp1602
g56
(g57
g58
NtRp1603
(dp1604
g61
(dp1605
g69
I4
ssg70
g1599
sg63
(lp1606
S'<socket._fileobject object at 0x3f2dd50>'
p1607
asbasbasbag56
(g72
g58
NtRp1608
(dp1609
g61
(dp1610
sg70
g859
sg63
(lp1611
g56
(g77
g58
NtRp1612
(dp1613
g61
(dp1614
g81
g82
ssg70
g1608
sg63
(lp1615
S'wsgi_multiprocess'
p1616
asbag56
(g77
g58
NtRp1617
(dp1618
g61
(dp1619
g88
g89
ssg70
g1608
sg63
(lp1620
S':'
asbag56
(g77
g58
NtRp1621
(dp1622
g61
(dp1623
sg70
g1608
sg63
(lp1624
g56
(g57
g58
NtRp1625
(dp1626
g61
(dp1627
g69
I4
ssg70
g1621
sg63
(lp1628
g99
asbasbasbag56
(g72
g58
NtRp1629
(dp1630
g61
(dp1631
sg70
g859
sg63
(lp1632
g56
(g77
g58
NtRp1633
(dp1634
g61
(dp1635
g81
g82
ssg70
g1629
sg63
(lp1636
S'wsgi_multithread'
p1637
asbag56
(g77
g58
NtRp1638
(dp1639
g61
(dp1640
g88
g89
ssg70
g1629
sg63
(lp1641
S':'
asbag56
(g77
g58
NtRp1642
(dp1643
g61
(dp1644
sg70
g1629
sg63
(lp1645
g56
(g57
g58
NtRp1646
(dp1647
g61
(dp1648
g69
I4
ssg70
g1642
sg63
(lp1649
S'True'
p1650
asbasbasbag56
(g72
g58
NtRp1651
(dp1652
g61
(dp1653
sg70
g859
sg63
(lp1654
g56
(g77
g58
NtRp1655
(dp1656
g61
(dp1657
g81
g82
ssg70
g1651
sg63
(lp1658
S'wsgi_run_once'
p1659
asbag56
(g77
g58
NtRp1660
(dp1661
g61
(dp1662
g88
g89
ssg70
g1651
sg63
(lp1663
S':'
asbag56
(g77
g58
NtRp1664
(dp1665
g61
(dp1666
sg70
g1651
sg63
(lp1667
g56
(g57
g58
NtRp1668
(dp1669
g61
(dp1670
g69
I4
ssg70
g1664
sg63
(lp1671
g99
asbasbasbag56
(g72
g58
NtRp1672
(dp1673
g61
(dp1674
sg70
g859
sg63
(lp1675
g56
(g77
g58
NtRp1676
(dp1677
g61
(dp1678
g81
g82
ssg70
g1672
sg63
(lp1679
S'wsgi_url_scheme'
p1680
asbag56
(g77
g58
NtRp1681
(dp1682
g61
(dp1683
g88
g89
ssg70
g1672
sg63
(lp1684
S':'
asbag56
(g77
g58
NtRp1685
(dp1686
g61
(dp1687
sg70
g1672
sg63
(lp1688
g56
(g57
g58
NtRp1689
(dp1690
g61
(dp1691
g69
I4
ssg70
g1685
sg63
(lp1692
S'http'
p1693
asbasbasbag56
(g72
g58
NtRp1694
(dp1695
g61
(dp1696
sg70
g859
sg63
(lp1697
g56
(g77
g58
NtRp1698
(dp1699
g61
(dp1700
g81
g82
ssg70
g1694
sg63
(lp1701
S'wsgi_version'
p1702
asbag56
(g77
g58
NtRp1703
(dp1704
g61
(dp1705
g88
g89
ssg70
g1694
sg63
(lp1706
S':'
asbag56
(g77
g58
NtRp1707
(dp1708
g61
(dp1709
sg70
g1694
sg63
(lp1710
g56
(g57
g58
NtRp1711
(dp1712
g61
(dp1713
g69
I4
ssg70
g1707
sg63
(lp1714
g56
(g65
g58
NtRp1715
(dp1716
g61
(dp1717
g69
I3
ssg70
Nsg63
(lp1718
g56
(g72
g58
NtRp1719
(dp1720
g61
(dp1721
sg70
g1715
sg63
(lp1722
g56
(g77
g58
NtRp1723
(dp1724
g61
(dp1725
sg70
g1719
sg63
(lp1726
g56
(g57
g58
NtRp1727
(dp1728
g61
(dp1729
g69
I3
ssg70
g1723
sg63
(lp1730
S'1'
asbasbasbag56
(g72
g58
NtRp1731
(dp1732
g61
(dp1733
sg70
g1715
sg63
(lp1734
g56
(g77
g58
NtRp1735
(dp1736
g61
(dp1737
sg70
g1731
sg63
(lp1738
g56
(g57
g58
NtRp1739
(dp1740
g61
(dp1741
g69
I3
ssg70
g1735
sg63
(lp1742
S'0'
asbasbasbasbasbasbasbasbasbasbasbag56
(g72
g58
NtRp1743
(dp1744
g61
(dp1745
sg70
g66
sg63
(lp1746
g56
(g77
g58
NtRp1747
(dp1748
g61
(dp1749
g81
g82
ssg70
g1743
sg63
(lp1750
S'extension'
p1751
asbag56
(g77
g58
NtRp1752
(dp1753
g61
(dp1754
g88
g89
ssg70
g1743
sg63
(lp1755
S':'
asbag56
(g77
g58
NtRp1756
(dp1757
g61
(dp1758
sg70
g1743
sg63
(lp1759
g56
(g57
g58
NtRp1760
(dp1761
g61
(dp1762
g69
I5
ssg70
g1756
sg63
(lp1763
S'html'
p1764
asbasbasbag56
(g72
g58
NtRp1765
(dp1766
g61
(dp1767
sg70
g66
sg63
(lp1768
g56
(g77
g58
NtRp1769
(dp1770
g61
(dp1771
g81
g82
ssg70
g1765
sg63
(lp1772
S'folder'
p1773
asbag56
(g77
g58
NtRp1774
(dp1775
g61
(dp1776
g88
g89
ssg70
g1765
sg63
(lp1777
S':'
asbag56
(g77
g58
NtRp1778
(dp1779
g61
(dp1780
sg70
g1765
sg63
(lp1781
g56
(g57
g58
NtRp1782
(dp1783
g61
(dp1784
g69
I5
ssg70
g1778
sg63
(lp1785
S'/home/jose/DESARROLLO/web2py199/applications/streamlog/'
p1786
asbasbasbag56
(g72
g58
NtRp1787
(dp1788
g61
(dp1789
sg70
g66
sg63
(lp1790
g56
(g77
g58
NtRp1791
(dp1792
g61
(dp1793
g81
g82
ssg70
g1787
sg63
(lp1794
S'function'
p1795
asbag56
(g77
g58
NtRp1796
(dp1797
g61
(dp1798
g88
g89
ssg70
g1787
sg63
(lp1799
S':'
asbag56
(g77
g58
NtRp1800
(dp1801
g61
(dp1802
sg70
g1787
sg63
(lp1803
g56
(g57
g58
NtRp1804
(dp1805
g61
(dp1806
g69
I5
ssg70
g1800
sg63
(lp1807
S'call'
p1808
asbasbasbag56
(g72
g58
NtRp1809
(dp1810
g61
(dp1811
sg70
g66
sg63
(lp1812
g56
(g77
g58
NtRp1813
(dp1814
g61
(dp1815
g81
g82
ssg70
g1809
sg63
(lp1816
S'get_vars'
p1817
asbag56
(g77
g58
NtRp1818
(dp1819
g61
(dp1820
g88
g89
ssg70
g1809
sg63
(lp1821
S':'
asbag56
(g77
g58
NtRp1822
(dp1823
g61
(dp1824
sg70
g1809
sg63
(lp1825
g56
(g57
g58
NtRp1826
(dp1827
g61
(dp1828
g69
I5
ssg70
g1822
sg63
(lp1829
g56
(g65
g58
NtRp1830
(dp1831
g61
(dp1832
g69
I4
ssg70
Nsg63
(lp1833
sbasbasbasbag56
(g72
g58
NtRp1834
(dp1835
g61
(dp1836
sg70
g66
sg63
(lp1837
g56
(g77
g58
NtRp1838
(dp1839
g61
(dp1840
g81
g82
ssg70
g1834
sg63
(lp1841
S'global_settings'
p1842
asbag56
(g77
g58
NtRp1843
(dp1844
g61
(dp1845
g88
g89
ssg70
g1834
sg63
(lp1846
S':'
asbag56
(g77
g58
NtRp1847
(dp1848
g61
(dp1849
sg70
g1834
sg63
(lp1850
g56
(g57
g58
NtRp1851
(dp1852
g61
(dp1853
g69
I5
ssg70
g1847
sg63
(lp1854
g56
(g65
g58
NtRp1855
(dp1856
g61
(dp1857
g69
I4
ssg70
Nsg63
(lp1858
g56
(g72
g58
NtRp1859
(dp1860
g61
(dp1861
sg70
g1855
sg63
(lp1862
g56
(g77
g58
NtRp1863
(dp1864
g61
(dp1865
g81
g82
ssg70
g1859
sg63
(lp1866
g871
asbag56
(g77
g58
NtRp1867
(dp1868
g61
(dp1869
g88
g89
ssg70
g1859
sg63
(lp1870
S':'
asbag56
(g77
g58
NtRp1871
(dp1872
g61
(dp1873
sg70
g1859
sg63
(lp1874
g56
(g57
g58
NtRp1875
(dp1876
g61
(dp1877
g69
I4
ssg70
g1871
sg63
(lp1878
S"set(['/home/jose/DESARROLLO/web2py199/applications/streamlog/', '/home/jose/DESARROLLO/web2py199/applications/admin/'])"
p1879
asbasbasbag56
(g72
g58
NtRp1880
(dp1881
g61
(dp1882
sg70
g1855
sg63
(lp1883
g56
(g77
g58
NtRp1884
(dp1885
g61
(dp1886
g81
g82
ssg70
g1880
sg63
(lp1887
g893
asbag56
(g77
g58
NtRp1888
(dp1889
g61
(dp1890
g88
g89
ssg70
g1880
sg63
(lp1891
S':'
asbag56
(g77
g58
NtRp1892
(dp1893
g61
(dp1894
sg70
g1880
sg63
(lp1895
g56
(g57
g58
NtRp1896
(dp1897
g61
(dp1898
g69
I4
ssg70
g1892
sg63
(lp1899
g906
asbasbasbag56
(g72
g58
NtRp1900
(dp1901
g61
(dp1902
sg70
g1855
sg63
(lp1903
g56
(g77
g58
NtRp1904
(dp1905
g61
(dp1906
g81
g82
ssg70
g1900
sg63
(lp1907
g915
asbag56
(g77
g58
NtRp1908
(dp1909
g61
(dp1910
g88
g89
ssg70
g1900
sg63
(lp1911
S':'
asbag56
(g77
g58
NtRp1912
(dp1913
g61
(dp1914
sg70
g1900
sg63
(lp1915
g56
(g57
g58
NtRp1916
(dp1917
g61
(dp1918
g69
I4
ssg70
g1912
sg63
(lp1919
g56
(g65
g58
NtRp1920
(dp1921
g61
(dp1922
g69
I3
ssg70
Nsg63
(lp1923
sbasbasbasbag56
(g72
g58
NtRp1924
(dp1925
g61
(dp1926
sg70
g1855
sg63
(lp1927
g56
(g77
g58
NtRp1928
(dp1929
g61
(dp1930
g81
g82
ssg70
g1924
sg63
(lp1931
g940
asbag56
(g77
g58
NtRp1932
(dp1933
g61
(dp1934
g88
g89
ssg70
g1924
sg63
(lp1935
S':'
asbag56
(g77
g58
NtRp1936
(dp1937
g61
(dp1938
sg70
g1924
sg63
(lp1939
g56
(g57
g58
NtRp1940
(dp1941
g61
(dp1942
g69
I4
ssg70
g1936
sg63
(lp1943
S"<Values at 0x1c79f80: {'verbose': False, 'ip': '127.0.0.1', 'shutdown_timeout': 5, 'taskbar': False, 'nocron': False, 'pid_filename': 'httpserver.pid', 'maxthreads': None, 'softcron': False, 'server_name': 'jose', 'bpython': False, 'nogui': False, 'port': 8000, 'extcron': False, 'debuglevel': 30, 'test': None, 'folder': '/home/jose/DESARROLLO/web2py199', 'config': '', 'import_models': False, 'winservice': '', 'shell': None, 'run': '', 'log_filename': 'httpserver.log', 'args': [''], 'ssl_ca_certificate': None, 'scheduler': None, 'profiler_filename': None, 'ssl_private_key': '', 'password': 't', 'request_queue_size': 5, 'ssl_certificate': '', 'cronjob': False, 'plain': False, 'quiet': False, 'interfaces': None, 'minthreads': None, 'timeout': 10, 'numthreads': None, 'nobanner': False}>"
p1944
asbasbasbag56
(g72
g58
NtRp1945
(dp1946
g61
(dp1947
sg70
g1855
sg63
(lp1948
g56
(g77
g58
NtRp1949
(dp1950
g61
(dp1951
g81
g82
ssg70
g1945
sg63
(lp1952
g962
asbag56
(g77
g58
NtRp1953
(dp1954
g61
(dp1955
g88
g89
ssg70
g1945
sg63
(lp1956
S':'
asbag56
(g77
g58
NtRp1957
(dp1958
g61
(dp1959
sg70
g1945
sg63
(lp1960
g56
(g57
g58
NtRp1961
(dp1962
g61
(dp1963
g69
I4
ssg70
g1957
sg63
(lp1964
S'set([])'
p1965
asbasbasbag56
(g72
g58
NtRp1966
(dp1967
g61
(dp1968
sg70
g1855
sg63
(lp1969
g56
(g77
g58
NtRp1970
(dp1971
g61
(dp1972
g81
g82
ssg70
g1966
sg63
(lp1973
g984
asbag56
(g77
g58
NtRp1974
(dp1975
g61
(dp1976
g88
g89
ssg70
g1966
sg63
(lp1977
S':'
asbag56
(g77
g58
NtRp1978
(dp1979
g61
(dp1980
sg70
g1966
sg63
(lp1981
g56
(g57
g58
NtRp1982
(dp1983
g61
(dp1984
g69
I4
ssg70
g1978
sg63
(lp1985
g99
asbasbasbag56
(g72
g58
NtRp1986
(dp1987
g61
(dp1988
sg70
g1855
sg63
(lp1989
g56
(g77
g58
NtRp1990
(dp1991
g61
(dp1992
g81
g82
ssg70
g1986
sg63
(lp1993
g1005
asbag56
(g77
g58
NtRp1994
(dp1995
g61
(dp1996
g88
g89
ssg70
g1986
sg63
(lp1997
S':'
asbag56
(g77
g58
NtRp1998
(dp1999
g61
(dp2000
sg70
g1986
sg63
(lp2001
g56
(g57
g58
NtRp2002
(dp2003
g61
(dp2004
g69
I4
ssg70
g1998
sg63
(lp2005
g1018
asbasbasbag56
(g72
g58
NtRp2006
(dp2007
g61
(dp2008
sg70
g1855
sg63
(lp2009
g56
(g77
g58
NtRp2010
(dp2011
g61
(dp2012
g81
g82
ssg70
g2006
sg63
(lp2013
g1181
asbag56
(g77
g58
NtRp2014
(dp2015
g61
(dp2016
g88
g89
ssg70
g2006
sg63
(lp2017
S':'
asbag56
(g77
g58
NtRp2018
(dp2019
g61
(dp2020
sg70
g2006
sg63
(lp2021
g56
(g57
g58
NtRp2022
(dp2023
g61
(dp2024
g69
I4
ssg70
g2018
sg63
(lp2025
g99
asbasbasbag56
(g72
g58
NtRp2026
(dp2027
g61
(dp2028
sg70
g1855
sg63
(lp2029
g56
(g77
g58
NtRp2030
(dp2031
g61
(dp2032
g81
g82
ssg70
g2026
sg63
(lp2033
g1419
asbag56
(g77
g58
NtRp2034
(dp2035
g61
(dp2036
g88
g89
ssg70
g2026
sg63
(lp2037
S':'
asbag56
(g77
g58
NtRp2038
(dp2039
g61
(dp2040
sg70
g2026
sg63
(lp2041
g56
(g57
g58
NtRp2042
(dp2043
g61
(dp2044
g69
I4
ssg70
g2038
sg63
(lp2045
g1432
asbasbasbag56
(g72
g58
NtRp2046
(dp2047
g61
(dp2048
sg70
g1855
sg63
(lp2049
g56
(g77
g58
NtRp2050
(dp2051
g61
(dp2052
g81
g82
ssg70
g2046
sg63
(lp2053
g1462
asbag56
(g77
g58
NtRp2054
(dp2055
g61
(dp2056
g88
g89
ssg70
g2046
sg63
(lp2057
S':'
asbag56
(g77
g58
NtRp2058
(dp2059
g61
(dp2060
sg70
g2046
sg63
(lp2061
g56
(g57
g58
NtRp2062
(dp2063
g61
(dp2064
g69
I4
ssg70
g2058
sg63
(lp2065
g56
(g65
g58
NtRp2066
(dp2067
g61
(dp2068
g69
I3
ssg70
Nsg63
(lp2069
g56
(g72
g58
NtRp2070
(dp2071
g61
(dp2072
sg70
g2066
sg63
(lp2073
g56
(g77
g58
NtRp2074
(dp2075
g61
(dp2076
sg70
g2070
sg63
(lp2077
g56
(g57
g58
NtRp2078
(dp2079
g61
(dp2080
g69
I3
ssg70
g2074
sg63
(lp2081
S'1'
asbasbasbag56
(g72
g58
NtRp2082
(dp2083
g61
(dp2084
sg70
g2066
sg63
(lp2085
g56
(g77
g58
NtRp2086
(dp2087
g61
(dp2088
sg70
g2082
sg63
(lp2089
g56
(g57
g58
NtRp2090
(dp2091
g61
(dp2092
g69
I3
ssg70
g2086
sg63
(lp2093
S'99'
p2094
asbasbasbag56
(g72
g58
NtRp2095
(dp2096
g61
(dp2097
sg70
g2066
sg63
(lp2098
g56
(g77
g58
NtRp2099
(dp2100
g61
(dp2101
sg70
g2095
sg63
(lp2102
g56
(g57
g58
NtRp2103
(dp2104
g61
(dp2105
g69
I3
ssg70
g2099
sg63
(lp2106
S'2'
asbasbasbag56
(g72
g58
NtRp2107
(dp2108
g61
(dp2109
sg70
g2066
sg63
(lp2110
g56
(g77
g58
NtRp2111
(dp2112
g61
(dp2113
sg70
g2107
sg63
(lp2114
g56
(g57
g58
NtRp2115
(dp2116
g61
(dp2117
g69
I3
ssg70
g2111
sg63
(lp2118
S'datetime.datetime(2011, 9, 26, 6, 55, 33)'
p2119
asbasbasbag56
(g72
g58
NtRp2120
(dp2121
g61
(dp2122
sg70
g2066
sg63
(lp2123
g56
(g77
g58
NtRp2124
(dp2125
g61
(dp2126
sg70
g2120
sg63
(lp2127
g56
(g57
g58
NtRp2128
(dp2129
g61
(dp2130
g69
I3
ssg70
g2124
sg63
(lp2131
g1541
asbasbasbasbasbasbasbasbasbasbasbag56
(g72
g58
NtRp2132
(dp2133
g61
(dp2134
sg70
g66
sg63
(lp2135
g56
(g77
g58
NtRp2136
(dp2137
g61
(dp2138
g81
g82
ssg70
g2132
sg63
(lp2139
S'is_https'
p2140
asbag56
(g77
g58
NtRp2141
(dp2142
g61
(dp2143
g88
g89
ssg70
g2132
sg63
(lp2144
S':'
asbag56
(g77
g58
NtRp2145
(dp2146
g61
(dp2147
sg70
g2132
sg63
(lp2148
g56
(g57
g58
NtRp2149
(dp2150
g61
(dp2151
g69
I5
ssg70
g2145
sg63
(lp2152
g99
asbasbasbag56
(g72
g58
NtRp2153
(dp2154
g61
(dp2155
sg70
g66
sg63
(lp2156
g56
(g77
g58
NtRp2157
(dp2158
g61
(dp2159
g81
g82
ssg70
g2153
sg63
(lp2160
S'is_local'
p2161
asbag56
(g77
g58
NtRp2162
(dp2163
g61
(dp2164
g88
g89
ssg70
g2153
sg63
(lp2165
S':'
asbag56
(g77
g58
NtRp2166
(dp2167
g61
(dp2168
sg70
g2153
sg63
(lp2169
g56
(g57
g58
NtRp2170
(dp2171
g61
(dp2172
g69
I5
ssg70
g2166
sg63
(lp2173
g1650
asbasbasbag56
(g72
g58
NtRp2174
(dp2175
g61
(dp2176
sg70
g66
sg63
(lp2177
g56
(g77
g58
NtRp2178
(dp2179
g61
(dp2180
g81
g82
ssg70
g2174
sg63
(lp2181
S'is_restful'
p2182
asbag56
(g77
g58
NtRp2183
(dp2184
g61
(dp2185
g88
g89
ssg70
g2174
sg63
(lp2186
S':'
asbag56
(g77
g58
NtRp2187
(dp2188
g61
(dp2189
sg70
g2174
sg63
(lp2190
g56
(g57
g58
NtRp2191
(dp2192
g61
(dp2193
g69
I5
ssg70
g2187
sg63
(lp2194
g99
asbasbasbag56
(g72
g58
NtRp2195
(dp2196
g61
(dp2197
sg70
g66
sg63
(lp2198
g56
(g77
g58
NtRp2199
(dp2200
g61
(dp2201
g81
g82
ssg70
g2195
sg63
(lp2202
S'now'
p2203
asbag56
(g77
g58
NtRp2204
(dp2205
g61
(dp2206
g88
g89
ssg70
g2195
sg63
(lp2207
S':'
asbag56
(g77
g58
NtRp2208
(dp2209
g61
(dp2210
sg70
g2195
sg63
(lp2211
g56
(g57
g58
NtRp2212
(dp2213
g61
(dp2214
g69
I5
ssg70
g2208
sg63
(lp2215
S'datetime.datetime(2012, 5, 26, 21, 29, 46, 778316)'
p2216
asbasbasbag56
(g72
g58
NtRp2217
(dp2218
g61
(dp2219
sg70
g66
sg63
(lp2220
g56
(g77
g58
NtRp2221
(dp2222
g61
(dp2223
g81
g82
ssg70
g2217
sg63
(lp2224
S'post_vars'
p2225
asbag56
(g77
g58
NtRp2226
(dp2227
g61
(dp2228
g88
g89
ssg70
g2217
sg63
(lp2229
S':'
asbag56
(g77
g58
NtRp2230
(dp2231
g61
(dp2232
sg70
g2217
sg63
(lp2233
g56
(g57
g58
NtRp2234
(dp2235
g61
(dp2236
g69
I5
ssg70
g2230
sg63
(lp2237
g56
(g65
g58
NtRp2238
(dp2239
g61
(dp2240
g69
I4
ssg70
Nsg63
(lp2241
sbasbasbasbag56
(g72
g58
NtRp2242
(dp2243
g61
(dp2244
sg70
g66
sg63
(lp2245
g56
(g77
g58
NtRp2246
(dp2247
g61
(dp2248
g81
g82
ssg70
g2242
sg63
(lp2249
S'raw_args'
p2250
asbag56
(g77
g58
NtRp2251
(dp2252
g61
(dp2253
g88
g89
ssg70
g2242
sg63
(lp2254
S':'
asbag56
(g77
g58
NtRp2255
(dp2256
g61
(dp2257
sg70
g2242
sg63
(lp2258
g56
(g57
g58
NtRp2259
(dp2260
g61
(dp2261
g69
I5
ssg70
g2255
sg63
(lp2262
S'json/getConnectionData/2'
p2263
asbasbasbag56
(g72
g58
NtRp2264
(dp2265
g61
(dp2266
sg70
g66
sg63
(lp2267
g56
(g77
g58
NtRp2268
(dp2269
g61
(dp2270
g81
g82
ssg70
g2264
sg63
(lp2271
S'url'
p2272
asbag56
(g77
g58
NtRp2273
(dp2274
g61
(dp2275
g88
g89
ssg70
g2264
sg63
(lp2276
S':'
asbag56
(g77
g58
NtRp2277
(dp2278
g61
(dp2279
sg70
g2264
sg63
(lp2280
g56
(g57
g58
NtRp2281
(dp2282
g61
(dp2283
g69
I5
ssg70
g2277
sg63
(lp2284
S'/streamlog/default/call/json/getConnectionData/2'
p2285
asbasbasbag56
(g72
g58
NtRp2286
(dp2287
g61
(dp2288
sg70
g66
sg63
(lp2289
g56
(g77
g58
NtRp2290
(dp2291
g61
(dp2292
g81
g82
ssg70
g2286
sg63
(lp2293
S'utcnow'
p2294
asbag56
(g77
g58
NtRp2295
(dp2296
g61
(dp2297
g88
g89
ssg70
g2286
sg63
(lp2298
S':'
asbag56
(g77
g58
NtRp2299
(dp2300
g61
(dp2301
sg70
g2286
sg63
(lp2302
g56
(g57
g58
NtRp2303
(dp2304
g61
(dp2305
g69
I5
ssg70
g2299
sg63
(lp2306
S'datetime.datetime(2012, 5, 26, 14, 29, 46, 778340)'
p2307
asbasbasbag56
(g72
g58
NtRp2308
(dp2309
g61
(dp2310
sg70
g66
sg63
(lp2311
g56
(g77
g58
NtRp2312
(dp2313
g61
(dp2314
g81
g82
ssg70
g2308
sg63
(lp2315
S'uuid'
p2316
asbag56
(g77
g58
NtRp2317
(dp2318
g61
(dp2319
g88
g89
ssg70
g2308
sg63
(lp2320
S':'
asbag56
(g77
g58
NtRp2321
(dp2322
g61
(dp2323
sg70
g2308
sg63
(lp2324
g56
(g57
g58
NtRp2325
(dp2326
g61
(dp2327
g69
I5
ssg70
g2321
sg63
(lp2328
S'streamlog/127.0.0.1.2012-05-26.21-29-46.f09e1f0d-e335-4cd5-ad3c-1070de3cf530'
p2329
asbasbasbag56
(g72
g58
NtRp2330
(dp2331
g61
(dp2332
sg70
g66
sg63
(lp2333
g56
(g77
g58
NtRp2334
(dp2335
g61
(dp2336
g81
g82
ssg70
g2330
sg63
(lp2337
S'vars'
p2338
asbag56
(g77
g58
NtRp2339
(dp2340
g61
(dp2341
g88
g89
ssg70
g2330
sg63
(lp2342
S':'
asbag56
(g77
g58
NtRp2343
(dp2344
g61
(dp2345
sg70
g2330
sg63
(lp2346
g56
(g57
g58
NtRp2347
(dp2348
g61
(dp2349
g69
I5
ssg70
g2343
sg63
(lp2350
g56
(g65
g58
NtRp2351
(dp2352
g61
(dp2353
g69
I4
ssg70
Nsg63
(lp2354
sbasbasbasbag56
(g72
g58
NtRp2355
(dp2356
g61
(dp2357
sg70
g66
sg63
(lp2358
g56
(g77
g58
NtRp2359
(dp2360
g61
(dp2361
g81
g82
ssg70
g2355
sg63
(lp2362
S'wsgi'
p2363
asbag56
(g77
g58
NtRp2364
(dp2365
g61
(dp2366
g88
g89
ssg70
g2355
sg63
(lp2367
S':'
asbag56
(g77
g58
NtRp2368
(dp2369
g61
(dp2370
sg70
g2355
sg63
(lp2371
g56
(g57
g58
NtRp2372
(dp2373
g61
(dp2374
g69
I5
ssg70
g2368
sg63
(lp2375
g56
(g65
g58
NtRp2376
(dp2377
g61
(dp2378
g69
I4
ssg70
Nsg63
(lp2379
g56
(g72
g58
NtRp2380
(dp2381
g61
(dp2382
sg70
g2376
sg63
(lp2383
g56
(g77
g58
NtRp2384
(dp2385
g61
(dp2386
g81
g82
ssg70
g2380
sg63
(lp2387
S'environ'
p2388
asbag56
(g77
g58
NtRp2389
(dp2390
g61
(dp2391
g88
g89
ssg70
g2380
sg63
(lp2392
S':'
asbag56
(g77
g58
NtRp2393
(dp2394
g61
(dp2395
sg70
g2380
sg63
(lp2396
g56
(g57
g58
NtRp2397
(dp2398
g61
(dp2399
g69
I4
ssg70
g2393
sg63
(lp2400
g56
(g65
g58
NtRp2401
(dp2402
g61
(dp2403
g69
I3
ssg70
Nsg63
(lp2404
g56
(g72
g58
NtRp2405
(dp2406
g61
(dp2407
sg70
g2401
sg63
(lp2408
g56
(g77
g58
NtRp2409
(dp2410
g61
(dp2411
g81
g82
ssg70
g2405
sg63
(lp2412
S'HTTP_ACCEPT'
p2413
asbag56
(g77
g58
NtRp2414
(dp2415
g61
(dp2416
g88
g89
ssg70
g2405
sg63
(lp2417
S':'
asbag56
(g77
g58
NtRp2418
(dp2419
g61
(dp2420
sg70
g2405
sg63
(lp2421
g56
(g57
g58
NtRp2422
(dp2423
g61
(dp2424
g69
I3
ssg70
g2418
sg63
(lp2425
g1040
asbasbasbag56
(g72
g58
NtRp2426
(dp2427
g61
(dp2428
sg70
g2401
sg63
(lp2429
g56
(g77
g58
NtRp2430
(dp2431
g61
(dp2432
g81
g82
ssg70
g2426
sg63
(lp2433
S'HTTP_ACCEPT_ENCODING'
p2434
asbag56
(g77
g58
NtRp2435
(dp2436
g61
(dp2437
g88
g89
ssg70
g2426
sg63
(lp2438
S':'
asbag56
(g77
g58
NtRp2439
(dp2440
g61
(dp2441
sg70
g2426
sg63
(lp2442
g56
(g57
g58
NtRp2443
(dp2444
g61
(dp2445
g69
I3
ssg70
g2439
sg63
(lp2446
g1062
asbasbasbag56
(g72
g58
NtRp2447
(dp2448
g61
(dp2449
sg70
g2401
sg63
(lp2450
g56
(g77
g58
NtRp2451
(dp2452
g61
(dp2453
g81
g82
ssg70
g2447
sg63
(lp2454
S'HTTP_ACCEPT_LANGUAGE'
p2455
asbag56
(g77
g58
NtRp2456
(dp2457
g61
(dp2458
g88
g89
ssg70
g2447
sg63
(lp2459
S':'
asbag56
(g77
g58
NtRp2460
(dp2461
g61
(dp2462
sg70
g2447
sg63
(lp2463
g56
(g57
g58
NtRp2464
(dp2465
g61
(dp2466
g69
I3
ssg70
g2460
sg63
(lp2467
g1084
asbasbasbag56
(g72
g58
NtRp2468
(dp2469
g61
(dp2470
sg70
g2401
sg63
(lp2471
g56
(g77
g58
NtRp2472
(dp2473
g61
(dp2474
g81
g82
ssg70
g2468
sg63
(lp2475
S'HTTP_CONNECTION'
p2476
asbag56
(g77
g58
NtRp2477
(dp2478
g61
(dp2479
g88
g89
ssg70
g2468
sg63
(lp2480
S':'
asbag56
(g77
g58
NtRp2481
(dp2482
g61
(dp2483
sg70
g2468
sg63
(lp2484
g56
(g57
g58
NtRp2485
(dp2486
g61
(dp2487
g69
I3
ssg70
g2481
sg63
(lp2488
g1106
asbasbasbag56
(g72
g58
NtRp2489
(dp2490
g61
(dp2491
sg70
g2401
sg63
(lp2492
g56
(g77
g58
NtRp2493
(dp2494
g61
(dp2495
g81
g82
ssg70
g2489
sg63
(lp2496
S'HTTP_COOKIE'
p2497
asbag56
(g77
g58
NtRp2498
(dp2499
g61
(dp2500
g88
g89
ssg70
g2489
sg63
(lp2501
S':'
asbag56
(g77
g58
NtRp2502
(dp2503
g61
(dp2504
sg70
g2489
sg63
(lp2505
g56
(g57
g58
NtRp2506
(dp2507
g61
(dp2508
g69
I3
ssg70
g2502
sg63
(lp2509
g1128
asbasbasbag56
(g72
g58
NtRp2510
(dp2511
g61
(dp2512
sg70
g2401
sg63
(lp2513
g56
(g77
g58
NtRp2514
(dp2515
g61
(dp2516
g81
g82
ssg70
g2510
sg63
(lp2517
S'HTTP_HOST'
p2518
asbag56
(g77
g58
NtRp2519
(dp2520
g61
(dp2521
g88
g89
ssg70
g2510
sg63
(lp2522
S':'
asbag56
(g77
g58
NtRp2523
(dp2524
g61
(dp2525
sg70
g2510
sg63
(lp2526
g56
(g57
g58
NtRp2527
(dp2528
g61
(dp2529
g69
I3
ssg70
g2523
sg63
(lp2530
g1150
asbasbasbag56
(g72
g58
NtRp2531
(dp2532
g61
(dp2533
sg70
g2401
sg63
(lp2534
g56
(g77
g58
NtRp2535
(dp2536
g61
(dp2537
g81
g82
ssg70
g2531
sg63
(lp2538
S'HTTP_USER_AGENT'
p2539
asbag56
(g77
g58
NtRp2540
(dp2541
g61
(dp2542
g88
g89
ssg70
g2531
sg63
(lp2543
S':'
asbag56
(g77
g58
NtRp2544
(dp2545
g61
(dp2546
sg70
g2531
sg63
(lp2547
g56
(g57
g58
NtRp2548
(dp2549
g61
(dp2550
g69
I3
ssg70
g2544
sg63
(lp2551
g1172
asbasbasbag56
(g72
g58
NtRp2552
(dp2553
g61
(dp2554
sg70
g2401
sg63
(lp2555
g56
(g77
g58
NtRp2556
(dp2557
g61
(dp2558
g81
g82
ssg70
g2552
sg63
(lp2559
S'PATH_INFO'
p2560
asbag56
(g77
g58
NtRp2561
(dp2562
g61
(dp2563
g88
g89
ssg70
g2552
sg63
(lp2564
S':'
asbag56
(g77
g58
NtRp2565
(dp2566
g61
(dp2567
sg70
g2552
sg63
(lp2568
g56
(g57
g58
NtRp2569
(dp2570
g61
(dp2571
g69
I3
ssg70
g2565
sg63
(lp2572
g1215
asbasbasbag56
(g72
g58
NtRp2573
(dp2574
g61
(dp2575
sg70
g2401
sg63
(lp2576
g56
(g77
g58
NtRp2577
(dp2578
g61
(dp2579
g81
g82
ssg70
g2573
sg63
(lp2580
S'QUERY_STRING'
p2581
asbag56
(g77
g58
NtRp2582
(dp2583
g61
(dp2584
g88
g89
ssg70
g2573
sg63
(lp2585
S':'
asbag56
(g77
g58
NtRp2586
(dp2587
g61
(dp2588
sg70
g2573
sg63
(lp2589
g56
(g57
g58
NtRp2590
(dp2591
g61
(dp2592
g69
I3
ssg70
g2586
sg63
(lp2593
S''
asbasbasbag56
(g72
g58
NtRp2594
(dp2595
g61
(dp2596
sg70
g2401
sg63
(lp2597
g56
(g77
g58
NtRp2598
(dp2599
g61
(dp2600
g81
g82
ssg70
g2594
sg63
(lp2601
S'REMOTE_ADDR'
p2602
asbag56
(g77
g58
NtRp2603
(dp2604
g61
(dp2605
g88
g89
ssg70
g2594
sg63
(lp2606
S':'
asbag56
(g77
g58
NtRp2607
(dp2608
g61
(dp2609
sg70
g2594
sg63
(lp2610
g56
(g57
g58
NtRp2611
(dp2612
g61
(dp2613
g69
I3
ssg70
g2607
sg63
(lp2614
g227
asbasbasbag56
(g72
g58
NtRp2615
(dp2616
g61
(dp2617
sg70
g2401
sg63
(lp2618
g56
(g77
g58
NtRp2619
(dp2620
g61
(dp2621
g81
g82
ssg70
g2615
sg63
(lp2622
S'REMOTE_PORT'
p2623
asbag56
(g77
g58
NtRp2624
(dp2625
g61
(dp2626
g88
g89
ssg70
g2615
sg63
(lp2627
S':'
asbag56
(g77
g58
NtRp2628
(dp2629
g61
(dp2630
sg70
g2615
sg63
(lp2631
g56
(g57
g58
NtRp2632
(dp2633
g61
(dp2634
g69
I3
ssg70
g2628
sg63
(lp2635
g1279
asbasbasbag56
(g72
g58
NtRp2636
(dp2637
g61
(dp2638
sg70
g2401
sg63
(lp2639
g56
(g77
g58
NtRp2640
(dp2641
g61
(dp2642
g81
g82
ssg70
g2636
sg63
(lp2643
S'REQUEST_METHOD'
p2644
asbag56
(g77
g58
NtRp2645
(dp2646
g61
(dp2647
g88
g89
ssg70
g2636
sg63
(lp2648
S':'
asbag56
(g77
g58
NtRp2649
(dp2650
g61
(dp2651
sg70
g2636
sg63
(lp2652
g56
(g57
g58
NtRp2653
(dp2654
g61
(dp2655
g69
I3
ssg70
g2649
sg63
(lp2656
g1301
asbasbasbag56
(g72
g58
NtRp2657
(dp2658
g61
(dp2659
sg70
g2401
sg63
(lp2660
g56
(g77
g58
NtRp2661
(dp2662
g61
(dp2663
g81
g82
ssg70
g2657
sg63
(lp2664
S'SCRIPT_NAME'
p2665
asbag56
(g77
g58
NtRp2666
(dp2667
g61
(dp2668
g88
g89
ssg70
g2657
sg63
(lp2669
S':'
asbag56
(g77
g58
NtRp2670
(dp2671
g61
(dp2672
sg70
g2657
sg63
(lp2673
g56
(g57
g58
NtRp2674
(dp2675
g61
(dp2676
g69
I3
ssg70
g2670
sg63
(lp2677
S''
asbasbasbag56
(g72
g58
NtRp2678
(dp2679
g61
(dp2680
sg70
g2401
sg63
(lp2681
g56
(g77
g58
NtRp2682
(dp2683
g61
(dp2684
g81
g82
ssg70
g2678
sg63
(lp2685
S'SERVER_NAME'
p2686
asbag56
(g77
g58
NtRp2687
(dp2688
g61
(dp2689
g88
g89
ssg70
g2678
sg63
(lp2690
S':'
asbag56
(g77
g58
NtRp2691
(dp2692
g61
(dp2693
sg70
g2678
sg63
(lp2694
g56
(g57
g58
NtRp2695
(dp2696
g61
(dp2697
g69
I3
ssg70
g2691
sg63
(lp2698
g1344
asbasbasbag56
(g72
g58
NtRp2699
(dp2700
g61
(dp2701
sg70
g2401
sg63
(lp2702
g56
(g77
g58
NtRp2703
(dp2704
g61
(dp2705
g81
g82
ssg70
g2699
sg63
(lp2706
S'SERVER_PORT'
p2707
asbag56
(g77
g58
NtRp2708
(dp2709
g61
(dp2710
g88
g89
ssg70
g2699
sg63
(lp2711
S':'
asbag56
(g77
g58
NtRp2712
(dp2713
g61
(dp2714
sg70
g2699
sg63
(lp2715
g56
(g57
g58
NtRp2716
(dp2717
g61
(dp2718
g69
I3
ssg70
g2712
sg63
(lp2719
g1366
asbasbasbag56
(g72
g58
NtRp2720
(dp2721
g61
(dp2722
sg70
g2401
sg63
(lp2723
g56
(g77
g58
NtRp2724
(dp2725
g61
(dp2726
g81
g82
ssg70
g2720
sg63
(lp2727
S'SERVER_PROTOCOL'
p2728
asbag56
(g77
g58
NtRp2729
(dp2730
g61
(dp2731
g88
g89
ssg70
g2720
sg63
(lp2732
S':'
asbag56
(g77
g58
NtRp2733
(dp2734
g61
(dp2735
sg70
g2720
sg63
(lp2736
g56
(g57
g58
NtRp2737
(dp2738
g61
(dp2739
g69
I3
ssg70
g2733
sg63
(lp2740
g1388
asbasbasbag56
(g72
g58
NtRp2741
(dp2742
g61
(dp2743
sg70
g2401
sg63
(lp2744
g56
(g77
g58
NtRp2745
(dp2746
g61
(dp2747
g81
g82
ssg70
g2741
sg63
(lp2748
S'SERVER_SOFTWARE'
p2749
asbag56
(g77
g58
NtRp2750
(dp2751
g61
(dp2752
g88
g89
ssg70
g2741
sg63
(lp2753
S':'
asbag56
(g77
g58
NtRp2754
(dp2755
g61
(dp2756
sg70
g2741
sg63
(lp2757
g56
(g57
g58
NtRp2758
(dp2759
g61
(dp2760
g69
I3
ssg70
g2754
sg63
(lp2761
g1410
asbasbasbag56
(g72
g58
NtRp2762
(dp2763
g61
(dp2764
sg70
g2401
sg63
(lp2765
g56
(g77
g58
NtRp2766
(dp2767
g61
(dp2768
g81
g82
ssg70
g2762
sg63
(lp2769
S'wsgi.errors'
p2770
asbag56
(g77
g58
NtRp2771
(dp2772
g61
(dp2773
g88
g89
ssg70
g2762
sg63
(lp2774
S':'
asbag56
(g77
g58
NtRp2775
(dp2776
g61
(dp2777
sg70
g2762
sg63
(lp2778
g56
(g57
g58
NtRp2779
(dp2780
g61
(dp2781
g69
I3
ssg70
g2775
sg63
(lp2782
S"<open file '<stderr>', mode 'w' at 0x7f84db3ff270>"
p2783
asbasbasbag56
(g72
g58
NtRp2784
(dp2785
g61
(dp2786
sg70
g2401
sg63
(lp2787
g56
(g77
g58
NtRp2788
(dp2789
g61
(dp2790
g81
g82
ssg70
g2784
sg63
(lp2791
S'wsgi.file_wrapper'
p2792
asbag56
(g77
g58
NtRp2793
(dp2794
g61
(dp2795
g88
g89
ssg70
g2784
sg63
(lp2796
S':'
asbag56
(g77
g58
NtRp2797
(dp2798
g61
(dp2799
sg70
g2784
sg63
(lp2800
g56
(g57
g58
NtRp2801
(dp2802
g61
(dp2803
g69
I3
ssg70
g2797
sg63
(lp2804
S'<class wsgiref.util.FileWrapper at 0x1b96d50>'
p2805
asbasbasbag56
(g72
g58
NtRp2806
(dp2807
g61
(dp2808
sg70
g2401
sg63
(lp2809
g56
(g77
g58
NtRp2810
(dp2811
g61
(dp2812
g81
g82
ssg70
g2806
sg63
(lp2813
S'wsgi.input'
p2814
asbag56
(g77
g58
NtRp2815
(dp2816
g61
(dp2817
g88
g89
ssg70
g2806
sg63
(lp2818
S':'
asbag56
(g77
g58
NtRp2819
(dp2820
g61
(dp2821
sg70
g2806
sg63
(lp2822
g56
(g57
g58
NtRp2823
(dp2824
g61
(dp2825
g69
I3
ssg70
g2819
sg63
(lp2826
S'<cStringIO.StringO object at 0x2865998>'
p2827
asbasbasbag56
(g72
g58
NtRp2828
(dp2829
g61
(dp2830
sg70
g2401
sg63
(lp2831
g56
(g77
g58
NtRp2832
(dp2833
g61
(dp2834
g81
g82
ssg70
g2828
sg63
(lp2835
S'wsgi.multiprocess'
p2836
asbag56
(g77
g58
NtRp2837
(dp2838
g61
(dp2839
g88
g89
ssg70
g2828
sg63
(lp2840
S':'
asbag56
(g77
g58
NtRp2841
(dp2842
g61
(dp2843
sg70
g2828
sg63
(lp2844
g56
(g57
g58
NtRp2845
(dp2846
g61
(dp2847
g69
I3
ssg70
g2841
sg63
(lp2848
g99
asbasbasbag56
(g72
g58
NtRp2849
(dp2850
g61
(dp2851
sg70
g2401
sg63
(lp2852
g56
(g77
g58
NtRp2853
(dp2854
g61
(dp2855
g81
g82
ssg70
g2849
sg63
(lp2856
S'wsgi.multithread'
p2857
asbag56
(g77
g58
NtRp2858
(dp2859
g61
(dp2860
g88
g89
ssg70
g2849
sg63
(lp2861
S':'
asbag56
(g77
g58
NtRp2862
(dp2863
g61
(dp2864
sg70
g2849
sg63
(lp2865
g56
(g57
g58
NtRp2866
(dp2867
g61
(dp2868
g69
I3
ssg70
g2862
sg63
(lp2869
g1650
asbasbasbag56
(g72
g58
NtRp2870
(dp2871
g61
(dp2872
sg70
g2401
sg63
(lp2873
g56
(g77
g58
NtRp2874
(dp2875
g61
(dp2876
g81
g82
ssg70
g2870
sg63
(lp2877
S'wsgi.run_once'
p2878
asbag56
(g77
g58
NtRp2879
(dp2880
g61
(dp2881
g88
g89
ssg70
g2870
sg63
(lp2882
S':'
asbag56
(g77
g58
NtRp2883
(dp2884
g61
(dp2885
sg70
g2870
sg63
(lp2886
g56
(g57
g58
NtRp2887
(dp2888
g61
(dp2889
g69
I3
ssg70
g2883
sg63
(lp2890
g99
asbasbasbag56
(g72
g58
NtRp2891
(dp2892
g61
(dp2893
sg70
g2401
sg63
(lp2894
g56
(g77
g58
NtRp2895
(dp2896
g61
(dp2897
g81
g82
ssg70
g2891
sg63
(lp2898
S'wsgi.url_scheme'
p2899
asbag56
(g77
g58
NtRp2900
(dp2901
g61
(dp2902
g88
g89
ssg70
g2891
sg63
(lp2903
S':'
asbag56
(g77
g58
NtRp2904
(dp2905
g61
(dp2906
sg70
g2891
sg63
(lp2907
g56
(g57
g58
NtRp2908
(dp2909
g61
(dp2910
g69
I3
ssg70
g2904
sg63
(lp2911
g1693
asbasbasbag56
(g72
g58
NtRp2912
(dp2913
g61
(dp2914
sg70
g2401
sg63
(lp2915
g56
(g77
g58
NtRp2916
(dp2917
g61
(dp2918
g81
g82
ssg70
g2912
sg63
(lp2919
S'wsgi.version'
p2920
asbag56
(g77
g58
NtRp2921
(dp2922
g61
(dp2923
g88
g89
ssg70
g2912
sg63
(lp2924
S':'
asbag56
(g77
g58
NtRp2925
(dp2926
g61
(dp2927
sg70
g2912
sg63
(lp2928
g56
(g57
g58
NtRp2929
(dp2930
g61
(dp2931
g69
I3
ssg70
g2925
sg63
(lp2932
S'1'
asbasbasbasbasbasbasbasbasbasbasbasbasbsS'frames'
p2933
(lp2934
(dp2935
S'file'
p2936
S'/home/jose/DESARROLLO/web2py199/gluon/restricted.py'
p2937
sS'dump'
p2938
(dp2939
S'environment'
p2940
S"{'A': <class 'gluon.html.A'>, 'Auth': <class 'gluon.tools.Auth'>, 'B': <class 'gluon.html.B'>, 'BEAUTIFY': <class 'gluon.html.BEAUTIFY'>, 'BODY': <class 'gluon.html.BODY'>, 'BR': <class 'gluon.html.BR'>, 'BUTTON': <class 'gluon.html.BUTTON'>, 'CAT': <class 'gluon.html.CAT'>, 'CENTER': <class 'gluon.html.CENTER'>, 'CLEANUP': <class 'gluon.validators.CLEANUP'>, ...}"
p2941
sS'ccode'
p2942
S'<code object <module> at 0x24ea330, file "/home/...tions/streamlog/controllers/default.py", line 14>'
p2943
ssS'lnum'
p2944
I194
sS'lines'
p2945
(dp2946
I192
S'        else:'
p2947
sI193
S'            ccode = compile2(code,layer)'
p2948
sI194
S'        exec ccode in environment'
p2949
sI195
S'    except HTTP:'
p2950
sI196
S'        raise'
p2951
sI197
S'    except Exception, error:'
p2952
sI198
S'        # XXX Show exception in Wing IDE if running in debugger'
p2953
sI189
S'    try:'
p2954
sI190
S'        if type(code) == types.CodeType:'
p2955
sI191
S'            ccode = code'
p2956
ssS'call'
p2957
S"(code='# -*- coding: utf-8 -*-\\n# this file is released ...m=crud())\\n\\nresponse._vars=response._caller(call)\\n', environment={'A': <class 'gluon.html.A'>, 'Auth': <class 'gluon.tools.Auth'>, 'B': <class 'gluon.html.B'>, 'BEAUTIFY': <class 'gluon.html.BEAUTIFY'>, 'BODY': <class 'gluon.html.BODY'>, 'BR': <class 'gluon.html.BR'>, 'BUTTON': <class 'gluon.html.BUTTON'>, 'CAT': <class 'gluon.html.CAT'>, 'CENTER': <class 'gluon.html.CENTER'>, 'CLEANUP': <class 'gluon.validators.CLEANUP'>, ...}, layer='/home/jose/DESARROLLO/web2py199/applications/streamlog/controllers/default.py')"
p2958
sS'func'
p2959
S'restricted'
p2960
sa(dp2961
g2936
S'/home/jose/DESARROLLO/web2py199/applications/streamlog/controllers/default.py'
p2962
sg2938
(dp2963
sg2944
I171
sg2945
(dp2964
I160
S'    http://..../[app]/default/data/update/[table]/[id]'
p2965
sI161
S'    http://..../[app]/default/data/delete/[table]/[id]'
p2966
sI162
S'    http://..../[app]/default/data/select/[table]'
p2967
sI163
S'    http://..../[app]/default/data/search/[table]'
p2968
sI164
S'    but URLs bust be signed, i.e. linked with'
p2969
sI165
S"      A('table',_href=URL('data/tables',user_signature=True))"
p2970
sI166
S'    or with the signed load operator'
p2971
sI167
S"      LOAD('default','data.load',args='tables',ajax=True,user_signature=True)"
p2972
sI168
S'    """'
p2973
sI169
S'    return dict(form=crud())'
p2974
ssg2957
S'()'
p2975
sg2959
S'<module>'
p2976
sa(dp2977
g2936
S'/home/jose/DESARROLLO/web2py199/gluon/globals.py'
p2978
sg2938
(dp2979
S'self'
p2980
S'undefined'
p2981
sS'f'
S'<function call>'
p2982
ssg2944
I149
sg2945
(dp2983
I144
S'        self.meta = Storage()      # used by web2py_ajax.html'
p2984
sI145
S'        self.menu = []             # used by the default view layout'
p2985
sI146
S'        self.files = []            # used by web2py_ajax.html'
p2986
sI147
S'        self.generic_patterns = [] # patterns to allow generic views'
p2987
sI148
S'        self._vars = None'
p2988
sI149
S'        self._caller = lambda f: f()'
p2989
sI150
S'        self._view_environment = None'
p2990
sI151
S'        self._custom_commit = None'
p2991
sI152
S'        self._custom_rollback = None'
p2992
sI153
S''
ssg2957
S'(f=<function call>)'
p2993
sg2959
S'<lambda>'
p2994
sa(dp2995
g2936
S'/home/jose/DESARROLLO/web2py199/applications/streamlog/controllers/default.py'
p2996
sg2938
(dp2997
S'global service'
p2998
S'<gluon.tools.Service object>'
p2999
ssg2944
I151
sg2945
(dp3000
I146
S'    exposes services. for example:'
p3001
sI147
S'    http://..../[app]/default/call/jsonrpc'
p3002
sI148
S'    decorate with @services.jsonrpc the functions to expose'
p3003
sI149
S'    supports xml, json, xmlrpc, jsonrpc, amfrpc, rss, csv'
p3004
sI150
S'    """'
p3005
sI151
S'    return service()'
p3006
sI152
S''
sI153
S''
sI154
S'@auth.requires_signature()'
p3007
sI155
S'def data():'
p3008
ssg2957
S'()'
p3009
sg2959
g2957
sa(dp3010
g2936
S'/home/jose/DESARROLLO/web2py199/gluon/tools.py'
p3011
sg2938
(dp3012
S'request.args'
p3013
S"['json', 'getConnectionData', '2']"
p3014
sS'self.serve_json'
p3015
S'<bound method Service.serve_json of <gluon.tools.Service object>>'
p3016
sS'self'
p3017
S'<gluon.tools.Service object>'
p3018
sS'request'
p3019
S"<Storage {'body': <cStringIO.StringO object at 0..._vars': <Storage {}>, 'post_vars': <Storage {}>}>"
p3020
ssg2944
I3839
sg2945
(dp3021
I3840
S"        elif arg0 == 'jsonrpc':"
p3022
sI3841
S'            return self.serve_jsonrpc()'
p3023
sI3842
S"        elif arg0 == 'xmlrpc':"
p3024
sI3843
S'            return self.serve_xmlrpc()'
p3025
sI3834
S"        elif arg0 == 'csv':"
p3026
sI3835
S'            return self.serve_csv(request.args[1:])'
p3027
sI3836
S"        elif arg0 == 'xml':"
p3028
sI3837
S'            return self.serve_xml(request.args[1:])'
p3029
sI3838
S"        elif arg0 == 'json':"
p3030
sI3839
S'            return self.serve_json(request.args[1:])'
p3031
ssg2957
S'(self=<gluon.tools.Service object>)'
p3032
sg2959
S'__call__'
p3033
sa(dp3034
g2936
S'/home/jose/DESARROLLO/web2py199/gluon/tools.py'
p3035
sg2938
(dp3036
S'args'
p3037
S"['getConnectionData', '2']"
p3038
sS'd'
g44
sS'self'
p3039
S'<gluon.tools.Service object>'
p3040
sS'global universal_caller'
p3041
S'<function universal_caller>'
p3042
sS'self.json_procedures'
p3043
S"{'getConnectionData': <function getConnectionData>}"
p3044
sS's'
g2981
ssg2944
I3656
sg2945
(dp3045
I3651
S"        response.headers['Content-Type'] = 'application/json; charset=utf-8'"
p3046
sI3652
S'        if not args:'
p3047
sI3653
S'            args = request.args'
p3048
sI3654
S'        d = dict(request.vars)'
p3049
sI3655
S'        if args and args[0] in self.json_procedures:'
p3050
sI3656
S'            s = universal_caller(self.json_procedures[args[0]],*args[1:],**d)'
p3051
sI3657
S"            if hasattr(s, 'as_list'):"
p3052
sI3658
S'                s = s.as_list()'
p3053
sI3659
S'            return response.json(s)'
p3054
sI3660
S'        self.error()'
p3055
ssg2957
S"(self=<gluon.tools.Service object>, args=['getConnectionData', '2'])"
p3056
sg2959
S'serve_json'
p3057
sa(dp3058
g2936
S'/home/jose/DESARROLLO/web2py199/gluon/tools.py'
p3059
sg2938
(dp3060
S'arg_dict'
p3061
g44
sS'f'
S'<function getConnectionData>'
p3062
ssg2944
I3348
sg2945
(dp3063
I3343
S'        # However, we need to update the arg_dict with the values from the named arguments as well.'
p3064
sI3344
S'        for arg_name in named_args:'
p3065
sI3345
S'            if b.has_key(arg_name):'
p3066
sI3346
S'                arg_dict[arg_name] = b[arg_name]'
p3067
sI3347
S''
sI3348
S'        return f(**arg_dict)'
p3068
sI3349
S''
sI3350
S'    # Raise an error, the function cannot be called.'
p3069
sI3351
S'    raise HTTP(404, "Object does not exist")'
p3070
sI3352
S''
ssg2957
S"(f=<function getConnectionData>, *a=('2',), **b={})"
p3071
sg2959
S'universal_caller'
p3072
sa(dp3073
g2936
S'/home/jose/DESARROLLO/web2py199/applications/streamlog/controllers/default.py'
p3074
sg2938
(dp3075
S'db.t_server.port'
p3076
S'<gluon.dal.Field object>'
p3077
sS'db.t_log.name'
p3078
S'<gluon.dal.Field object>'
p3079
sS'data_connection'
p3080
g2981
sS'db.t_server.id'
p3081
S'<gluon.dal.Field object>'
p3082
sS').select'
p3083
g2981
sS'db.t_log.server'
p3084
S'<gluon.dal.Field object>'
p3085
sS'id_log'
p3086
S"'json'"
p3087
sS'db.t_log'
p3088
S"<Table {'ALL': <gluon.dal.SQLALL object at 0x2bb...ription': <gluon.dal.Field object at 0x2bb0710>}>"
p3089
sS'global db'
p3090
S"<DAL {'auth_event': <Table {'origin': <gluon.dal..., 'id': <gluon.dal.Field object at 0x2bbead0>}>}>"
p3091
sS'db.t_server.IP'
p3092
S'<gluon.dal.Field object>'
p3093
sS'db.t_log.id'
p3094
S'<gluon.dal.Field object>'
p3095
sS'db.t_server'
p3096
S"<Table {'project': <gluon.dal.Field object at 0x...ription': <gluon.dal.Field object at 0x2bb6ed0>}>"
p3097
ssg2944
I31
sg2945
(dp3098
I32
S''
sI33
S''
sI34
S''
sI35
S''
sI26
S'    id_log=request.args[0]'
p3099
sI27
S"    ip=''"
p3100
sI28
S"    port=''"
p3101
sI29
S"    name_log=''"
p3102
sI30
S''
sI31
S'    data_connection=db((db.t_log.id==id_log)&(db.t_log.server==db.t_server.id)).select(db.t_log.name,db.t_server.IP,db.t_server.port)'
p3103
ssg2957
S'()'
p3104
sg2959
S'getConnectionData'
p3105
sa(dp3106
g2936
S'/home/jose/DESARROLLO/web2py199/gluon/dal.py'
p3107
sg2938
(dp3108
S'self.query'
p3109
S'<gluon.dal.Query object>'
p3110
sS'fields'
p3111
S'(<gluon.dal.Field object>, <gluon.dal.Field object>, <gluon.dal.Field object>)'
p3112
sS'self'
p3113
S'<gluon.dal.Set object>'
p3114
sS'self.db._adapter.select'
p3115
S'<bound method SQLiteAdapter.select of <gluon.dal.SQLiteAdapter object>>'
p3116
sS'self.db._adapter'
p3117
S'<gluon.dal.SQLiteAdapter object>'
p3118
sS'attributes'
p3119
g44
sS'self.db'
p3120
S"<DAL {'auth_event': <Table {'origin': <gluon.dal..., 'id': <gluon.dal.Field object at 0x2bbead0>}>}>"
p3121
ssg2944
I5697
sg2945
(dp3122
I5696
S'    def select(self, *fields, **attributes):'
p3123
sI5697
S'        return self.db._adapter.select(self.query,fields,attributes)'
p3124
sI5698
S''
sI5699
S'    def delete(self):'
p3125
sI5700
S'        tablename=self.db._adapter.get_table(self.query)'
p3126
sI5701
S'        self.delete_uploaded_files()'
p3127
sI5692
S''
sI5693
S'    def count(self,distinct=None):'
p3128
sI5694
S'        return self.db._adapter.count(self.query,distinct)'
p3129
sI5695
S''
ssg2957
S'(self=<gluon.dal.Set object>, *fields=(<gluon.dal.Field object>, <gluon.dal.Field object>, <gluon.dal.Field object>), **attributes={})'
p3130
sg2959
S'select'
p3131
sa(dp3132
g2936
S'/home/jose/DESARROLLO/web2py199/gluon/dal.py'
p3133
sg2938
(dp3134
S'self._select'
p3135
S'<bound method SQLiteAdapter._select of <gluon.dal.SQLiteAdapter object>>'
p3136
sS'fields'
p3137
S'(<gluon.dal.Field object>, <gluon.dal.Field object>, <gluon.dal.Field object>)'
p3138
sS'self'
p3139
S'<gluon.dal.SQLiteAdapter object>'
p3140
sS'sql'
p3141
g2981
sS'query'
p3142
S'<gluon.dal.Query object>'
p3143
sS'attributes'
p3144
g44
ssg2944
I1225
sg2945
(dp3145
I1220
S'        Always returns a Rows object, even if it may be empty'
p3146
sI1221
S'        """'
p3147
sI1222
S'        def response(sql):'
p3148
sI1223
S'            self.execute(sql)'
p3149
sI1224
S'            return self.cursor.fetchall()'
p3150
sI1225
S'        sql = self._select(query,fields,attributes)'
p3151
sI1226
S"        if attributes.get('cache', None):"
p3152
sI1227
S"            (cache_model, time_expire) = attributes['cache']"
p3153
sI1228
S"            del attributes['cache']"
p3154
sI1229
S"            key = self.uri + '/' + sql"
p3155
ssg2957
S'(self=<gluon.dal.SQLiteAdapter object>, query=<gluon.dal.Query object>, fields=(<gluon.dal.Field object>, <gluon.dal.Field object>, <gluon.dal.Field object>), attributes={})'
p3156
sg2959
g3131
sa(dp3157
g2936
S'/home/jose/DESARROLLO/web2py199/gluon/dal.py'
p3158
sg2938
(dp3159
S'query'
p3160
S'<gluon.dal.Query object>'
p3161
sS'self'
p3162
S'<gluon.dal.SQLiteAdapter object>'
p3163
sS'sql_w'
p3164
g2981
sS'self.expand'
p3165
S'<bound method SQLiteAdapter.expand of <gluon.dal.SQLiteAdapter object>>'
p3166
ssg2944
I1132
sg2945
(dp3167
I1127
S'        if len(tablenames) < 1:'
p3168
sI1128
S"            raise SyntaxError, 'Set: no tables selected'"
p3169
sI1129
S"        sql_f = ', '.join(map(self.expand,fields))"
p3170
sI1130
S"        self._colnames = [c.strip() for c in sql_f.split(', ')]"
p3171
sI1131
S'        if query:'
p3172
sI1132
S"            sql_w = ' WHERE ' + self.expand(query)"
p3173
sI1133
S'        else:'
p3174
sI1134
S"            sql_w = ''"
p3175
sI1135
S"        sql_o = ''"
p3176
sI1136
S"        sql_s = ''"
p3177
ssg2957
S'(self=<gluon.dal.SQLiteAdapter object>, query=<gluon.dal.Query object>, fields=[<gluon.dal.Field object>, <gluon.dal.Field object>, <gluon.dal.Field object>], attributes={})'
p3178
sg2959
S'_select'
p3179
sa(dp3180
g2936
S'/home/jose/DESARROLLO/web2py199/gluon/dal.py'
p3181
sg2938
(dp3182
S'expression.op'
p3183
S'<bound method SQLiteAdapter.AND of <gluon.dal.SQLiteAdapter object>>'
p3184
sS'expression'
p3185
S'<gluon.dal.Query object>'
p3186
sS'expression.first'
p3187
S'<gluon.dal.Query object>'
p3188
sS'expression.second'
p3189
S'<gluon.dal.Query object>'
p3190
ssg2944
I987
sg2945
(dp3191
I982
S'    def expand(self,expression,field_type=None):'
p3192
sI983
S'        if isinstance(expression,Field):'
p3193
sI984
S'            return str(expression)'
p3194
sI985
S'        elif isinstance(expression, (Expression, Query)):'
p3195
sI986
S'            if not expression.second is None:'
p3196
sI987
S'                return expression.op(expression.first, expression.second)'
p3197
sI988
S'            elif not expression.first is None:'
p3198
sI989
S'                return expression.op(expression.first)'
p3199
sI990
S'            elif not isinstance(expression.op,str):'
p3200
sI991
S'                return expression.op()'
p3201
ssg2957
S'(self=<gluon.dal.SQLiteAdapter object>, expression=<gluon.dal.Query object>, field_type=None)'
p3202
sg2959
S'expand'
p3203
sa(dp3204
g2936
S'/home/jose/DESARROLLO/web2py199/gluon/dal.py'
p3205
sg2938
(dp3206
S'self'
p3207
S'<gluon.dal.SQLiteAdapter object>'
p3208
sS'first'
p3209
S'<gluon.dal.Query object>'
p3210
sS'second'
p3211
S'<gluon.dal.Query object>'
p3212
sS'self.expand'
p3213
S'<bound method SQLiteAdapter.expand of <gluon.dal.SQLiteAdapter object>>'
p3214
ssg2944
I904
sg2945
(dp3215
I899
S''
sI900
S'    def NOT(self,first):'
p3216
sI901
S"        return '(NOT %s)' % self.expand(first)"
p3217
sI902
S''
sI903
S'    def AND(self,first,second):'
p3218
sI904
S"        return '(%s AND %s)' % (self.expand(first),self.expand(second))"
p3219
sI905
S''
sI906
S'    def OR(self,first,second):'
p3220
sI907
S"        return '(%s OR %s)' % (self.expand(first),self.expand(second))"
p3221
sI908
S''
ssg2957
S'(self=<gluon.dal.SQLiteAdapter object>, first=<gluon.dal.Query object>, second=<gluon.dal.Query object>)'
p3222
sg2959
S'AND'
p3223
sa(dp3224
g2936
S'/home/jose/DESARROLLO/web2py199/gluon/dal.py'
p3225
sg2938
(dp3226
S'expression.op'
p3227
S'<bound method SQLiteAdapter.EQ of <gluon.dal.SQLiteAdapter object>>'
p3228
sS'expression'
p3229
S'<gluon.dal.Query object>'
p3230
sS'expression.first'
p3231
S'<gluon.dal.Field object>'
p3232
sS'expression.second'
p3233
S"'json'"
p3234
ssg2944
I987
sg2945
(dp3235
I982
S'    def expand(self,expression,field_type=None):'
p3236
sI983
S'        if isinstance(expression,Field):'
p3237
sI984
S'            return str(expression)'
p3238
sI985
S'        elif isinstance(expression, (Expression, Query)):'
p3239
sI986
S'            if not expression.second is None:'
p3240
sI987
S'                return expression.op(expression.first, expression.second)'
p3241
sI988
S'            elif not expression.first is None:'
p3242
sI989
S'                return expression.op(expression.first)'
p3243
sI990
S'            elif not isinstance(expression.op,str):'
p3244
sI991
S'                return expression.op()'
p3245
ssg2957
S'(self=<gluon.dal.SQLiteAdapter object>, expression=<gluon.dal.Query object>, field_type=None)'
p3246
sg2959
g3203
sa(dp3247
g2936
S'/home/jose/DESARROLLO/web2py199/gluon/dal.py'
p3248
sg2938
(dp3249
S'first.type'
p3250
S"'id'"
p3251
sS'self'
p3252
S'<gluon.dal.SQLiteAdapter object>'
p3253
sS'first'
p3254
S'<gluon.dal.Field object>'
p3255
sS'second'
p3256
S"'json'"
p3257
sS'self.expand'
p3258
S'<bound method SQLiteAdapter.expand of <gluon.dal.SQLiteAdapter object>>'
p3259
ssg2944
I936
sg2945
(dp3260
I931
S"        return '(%s LIKE %s)' % (self.expand(first),self.expand(key,'string'))"
p3261
sI932
S''
sI933
S'    def EQ(self,first,second=None):'
p3262
sI934
S'        if second is None:'
p3263
sI935
S"            return '(%s IS NULL)' % self.expand(first)"
p3264
sI936
S"        return '(%s = %s)' % (self.expand(first),self.expand(second,first.type))"
p3265
sI937
S''
sI938
S'    def NE(self,first,second=None):'
p3266
sI939
S'        if second is None:'
p3267
sI940
S"            return '(%s IS NOT NULL)' % self.expand(first)"
p3268
ssg2957
S"(self=<gluon.dal.SQLiteAdapter object>, first=<gluon.dal.Field object>, second='json')"
p3269
sg2959
S'EQ'
p3270
sa(dp3271
g2936
S'/home/jose/DESARROLLO/web2py199/gluon/dal.py'
p3272
sg2938
(dp3273
S'field_type'
p3274
S"'id'"
p3275
sS'self'
p3276
S'<gluon.dal.SQLiteAdapter object>'
p3277
sS'expression'
p3278
S"'json'"
p3279
sS'self.represent'
p3280
S'<bound method SQLiteAdapter.represent of <gluon.dal.SQLiteAdapter object>>'
p3281
ssg2944
I995
sg2945
(dp3282
I992
S'            else:'
p3283
sI993
S"                return '(%s)' % expression.op"
p3284
sI994
S'        elif field_type:'
p3285
sI995
S'            return self.represent(expression,field_type)'
p3286
sI996
S'        elif isinstance(expression,(list,tuple)):'
p3287
sI997
S"            return ','.join([self.represent(item,field_type) for item in expression])"
p3288
sI998
S'        else:'
p3289
sI999
S'            return str(expression)'
p3290
sI990
S'            elif not isinstance(expression.op,str):'
p3291
sI991
S'                return expression.op()'
p3292
ssg2957
S"(self=<gluon.dal.SQLiteAdapter object>, expression='json', field_type='id')"
p3293
sg2959
g3203
sa(dp3294
g2936
S'/home/jose/DESARROLLO/web2py199/gluon/dal.py'
p3295
sg2938
(dp3296
S'builtinstr'
p3297
S"<type 'str'>"
p3298
sS'builtinint'
p3299
S"<type 'int'>"
p3300
sS'obj'
p3301
S"'json'"
p3302
ssg2944
I1338
sg2945
(dp3303
I1333
S"            if obj and not str(obj)[:1].upper() in ['F', '0']:"
p3304
sI1334
S'                return "\'T\'"'
p3305
sI1335
S'            else:'
p3306
sI1336
S'                return "\'F\'"'
p3307
sI1337
S"        if fieldtype == 'id' or fieldtype == 'integer':"
p3308
sI1338
S'            return str(int(obj))'
p3309
sI1339
S"        if fieldtype.startswith('decimal'):"
p3310
sI1340
S'            return str(obj)'
p3311
sI1341
S"        elif fieldtype.startswith('reference'): # reference"
p3312
sI1342
S"            if fieldtype.find('.')>0:"
p3313
ssg2957
S"(self=<gluon.dal.SQLiteAdapter object>, obj='json', fieldtype='id')"
p3314
sg2959
S'represent'
p3315
sasS'pyver'
p3316
S'Python 2.7.2+: /usr/bin/python'
p3317
sS'session'
p3318
g56
(g57
g58
NtRp3319
(dp3320
g61
(dp3321
sg63
(lp3322
g56
(g65
g58
NtRp3323
(dp3324
g61
(dp3325
g69
I5
ssg70
Nsg63
(lp3326
g56
(g72
g58
NtRp3327
(dp3328
g61
(dp3329
sg70
g3323
sg63
(lp3330
g56
(g77
g58
NtRp3331
(dp3332
g61
(dp3333
g81
g82
ssg70
g3327
sg63
(lp3334
S'auth'
p3335
asbag56
(g77
g58
NtRp3336
(dp3337
g61
(dp3338
g88
g89
ssg70
g3327
sg63
(lp3339
S':'
asbag56
(g77
g58
NtRp3340
(dp3341
g61
(dp3342
sg70
g3327
sg63
(lp3343
g56
(g57
g58
NtRp3344
(dp3345
g61
(dp3346
g69
I5
ssg70
g3340
sg63
(lp3347
g56
(g65
g58
NtRp3348
(dp3349
g61
(dp3350
g69
I4
ssg70
Nsg63
(lp3351
g56
(g72
g58
NtRp3352
(dp3353
g61
(dp3354
sg70
g3348
sg63
(lp3355
g56
(g77
g58
NtRp3356
(dp3357
g61
(dp3358
g81
g82
ssg70
g3352
sg63
(lp3359
S'expiration'
p3360
asbag56
(g77
g58
NtRp3361
(dp3362
g61
(dp3363
g88
g89
ssg70
g3352
sg63
(lp3364
S':'
asbag56
(g77
g58
NtRp3365
(dp3366
g61
(dp3367
sg70
g3352
sg63
(lp3368
g56
(g57
g58
NtRp3369
(dp3370
g61
(dp3371
g69
I4
ssg70
g3365
sg63
(lp3372
S'2592000'
p3373
asbasbasbag56
(g72
g58
NtRp3374
(dp3375
g61
(dp3376
sg70
g3348
sg63
(lp3377
g56
(g77
g58
NtRp3378
(dp3379
g61
(dp3380
g81
g82
ssg70
g3374
sg63
(lp3381
S'hmac_key'
p3382
asbag56
(g77
g58
NtRp3383
(dp3384
g61
(dp3385
g88
g89
ssg70
g3374
sg63
(lp3386
S':'
asbag56
(g77
g58
NtRp3387
(dp3388
g61
(dp3389
sg70
g3374
sg63
(lp3390
g56
(g57
g58
NtRp3391
(dp3392
g61
(dp3393
g69
I4
ssg70
g3387
sg63
(lp3394
S'b954f0e8-95b3-42d2-829e-2e50e94d8454'
p3395
asbasbasbag56
(g72
g58
NtRp3396
(dp3397
g61
(dp3398
sg70
g3348
sg63
(lp3399
g56
(g77
g58
NtRp3400
(dp3401
g61
(dp3402
g81
g82
ssg70
g3396
sg63
(lp3403
S'last_visit'
p3404
asbag56
(g77
g58
NtRp3405
(dp3406
g61
(dp3407
g88
g89
ssg70
g3396
sg63
(lp3408
S':'
asbag56
(g77
g58
NtRp3409
(dp3410
g61
(dp3411
sg70
g3396
sg63
(lp3412
g56
(g57
g58
NtRp3413
(dp3414
g61
(dp3415
g69
I4
ssg70
g3409
sg63
(lp3416
S'datetime.datetime(2012, 5, 26, 18, 42, 33, 844375)'
p3417
asbasbasbag56
(g72
g58
NtRp3418
(dp3419
g61
(dp3420
sg70
g3348
sg63
(lp3421
g56
(g77
g58
NtRp3422
(dp3423
g61
(dp3424
g81
g82
ssg70
g3418
sg63
(lp3425
S'remember'
p3426
asbag56
(g77
g58
NtRp3427
(dp3428
g61
(dp3429
g88
g89
ssg70
g3418
sg63
(lp3430
S':'
asbag56
(g77
g58
NtRp3431
(dp3432
g61
(dp3433
sg70
g3418
sg63
(lp3434
g56
(g57
g58
NtRp3435
(dp3436
g61
(dp3437
g69
I4
ssg70
g3431
sg63
(lp3438
g99
asbasbasbag56
(g72
g58
NtRp3439
(dp3440
g61
(dp3441
sg70
g3348
sg63
(lp3442
g56
(g77
g58
NtRp3443
(dp3444
g61
(dp3445
g81
g82
ssg70
g3439
sg63
(lp3446
S'user'
p3447
asbag56
(g77
g58
NtRp3448
(dp3449
g61
(dp3450
g88
g89
ssg70
g3439
sg63
(lp3451
S':'
asbag56
(g77
g58
NtRp3452
(dp3453
g61
(dp3454
sg70
g3439
sg63
(lp3455
g56
(g57
g58
NtRp3456
(dp3457
g61
(dp3458
g69
I4
ssg70
g3452
sg63
(lp3459
g56
(g65
g58
NtRp3460
(dp3461
g61
(dp3462
g69
I3
ssg70
Nsg63
(lp3463
g56
(g72
g58
NtRp3464
(dp3465
g61
(dp3466
sg70
g3460
sg63
(lp3467
g56
(g77
g58
NtRp3468
(dp3469
g61
(dp3470
g81
g82
ssg70
g3464
sg63
(lp3471
S'email'
p3472
asbag56
(g77
g58
NtRp3473
(dp3474
g61
(dp3475
g88
g89
ssg70
g3464
sg63
(lp3476
S':'
asbag56
(g77
g58
NtRp3477
(dp3478
g61
(dp3479
sg70
g3464
sg63
(lp3480
g56
(g57
g58
NtRp3481
(dp3482
g61
(dp3483
g69
I3
ssg70
g3477
sg63
(lp3484
S'josedesoto@gmail.com'
p3485
asbasbasbag56
(g72
g58
NtRp3486
(dp3487
g61
(dp3488
sg70
g3460
sg63
(lp3489
g56
(g77
g58
NtRp3490
(dp3491
g61
(dp3492
g81
g82
ssg70
g3486
sg63
(lp3493
S'first_name'
p3494
asbag56
(g77
g58
NtRp3495
(dp3496
g61
(dp3497
g88
g89
ssg70
g3486
sg63
(lp3498
S':'
asbag56
(g77
g58
NtRp3499
(dp3500
g61
(dp3501
sg70
g3486
sg63
(lp3502
g56
(g57
g58
NtRp3503
(dp3504
g61
(dp3505
g69
I3
ssg70
g3499
sg63
(lp3506
S'jose'
p3507
asbasbasbag56
(g72
g58
NtRp3508
(dp3509
g61
(dp3510
sg70
g3460
sg63
(lp3511
g56
(g77
g58
NtRp3512
(dp3513
g61
(dp3514
g81
g82
ssg70
g3508
sg63
(lp3515
S'id'
p3516
asbag56
(g77
g58
NtRp3517
(dp3518
g61
(dp3519
g88
g89
ssg70
g3508
sg63
(lp3520
S':'
asbag56
(g77
g58
NtRp3521
(dp3522
g61
(dp3523
sg70
g3508
sg63
(lp3524
g56
(g57
g58
NtRp3525
(dp3526
g61
(dp3527
g69
I3
ssg70
g3521
sg63
(lp3528
S'1'
asbasbasbag56
(g72
g58
NtRp3529
(dp3530
g61
(dp3531
sg70
g3460
sg63
(lp3532
g56
(g77
g58
NtRp3533
(dp3534
g61
(dp3535
g81
g82
ssg70
g3529
sg63
(lp3536
S'last_name'
p3537
asbag56
(g77
g58
NtRp3538
(dp3539
g61
(dp3540
g88
g89
ssg70
g3529
sg63
(lp3541
S':'
asbag56
(g77
g58
NtRp3542
(dp3543
g61
(dp3544
sg70
g3529
sg63
(lp3545
g56
(g57
g58
NtRp3546
(dp3547
g61
(dp3548
g69
I3
ssg70
g3542
sg63
(lp3549
S'jose'
p3550
asbasbasbag56
(g72
g58
NtRp3551
(dp3552
g61
(dp3553
sg70
g3460
sg63
(lp3554
g56
(g77
g58
NtRp3555
(dp3556
g61
(dp3557
g81
g82
ssg70
g3551
sg63
(lp3558
S'password'
p3559
asbag56
(g77
g58
NtRp3560
(dp3561
g61
(dp3562
g88
g89
ssg70
g3551
sg63
(lp3563
S':'
asbag56
(g77
g58
NtRp3564
(dp3565
g61
(dp3566
sg70
g3551
sg63
(lp3567
g56
(g57
g58
NtRp3568
(dp3569
g61
(dp3570
g69
I3
ssg70
g3564
sg63
(lp3571
S'2b32eaa2baa0c63b755a4cde1e4dda83'
p3572
asbasbasbag56
(g72
g58
NtRp3573
(dp3574
g61
(dp3575
sg70
g3460
sg63
(lp3576
g56
(g77
g58
NtRp3577
(dp3578
g61
(dp3579
g81
g82
ssg70
g3573
sg63
(lp3580
S'registration_key'
p3581
asbag56
(g77
g58
NtRp3582
(dp3583
g61
(dp3584
g88
g89
ssg70
g3573
sg63
(lp3585
S':'
asbag56
(g77
g58
NtRp3586
(dp3587
g61
(dp3588
sg70
g3573
sg63
(lp3589
g56
(g57
g58
NtRp3590
(dp3591
g61
(dp3592
g69
I3
ssg70
g3586
sg63
(lp3593
S''
asbasbasbag56
(g72
g58
NtRp3594
(dp3595
g61
(dp3596
sg70
g3460
sg63
(lp3597
g56
(g77
g58
NtRp3598
(dp3599
g61
(dp3600
g81
g82
ssg70
g3594
sg63
(lp3601
S'reset_password_key'
p3602
asbag56
(g77
g58
NtRp3603
(dp3604
g61
(dp3605
g88
g89
ssg70
g3594
sg63
(lp3606
S':'
asbag56
(g77
g58
NtRp3607
(dp3608
g61
(dp3609
sg70
g3594
sg63
(lp3610
g56
(g57
g58
NtRp3611
(dp3612
g61
(dp3613
g69
I3
ssg70
g3607
sg63
(lp3614
S''
asbasbasbasbasbasbasbasbasbasbasbag56
(g72
g58
NtRp3615
(dp3616
g61
(dp3617
sg70
g3323
sg63
(lp3618
g56
(g77
g58
NtRp3619
(dp3620
g61
(dp3621
g81
g82
ssg70
g3615
sg63
(lp3622
S'last_query'
p3623
asbag56
(g77
g58
NtRp3624
(dp3625
g61
(dp3626
g88
g89
ssg70
g3615
sg63
(lp3627
S':'
asbag56
(g77
g58
NtRp3628
(dp3629
g61
(dp3630
sg70
g3615
sg63
(lp3631
g56
(g57
g58
NtRp3632
(dp3633
g61
(dp3634
g69
I5
ssg70
g3628
sg63
(lp3635
S'((db.t_project.user==me)&(db.t_server.project==db.t_project.id)&(db.t_log.server==db.t_server.id))'
p3636
asbasbasbasbasbsS'etype'
p3637
S"<type 'exceptions.ValueError'>"
p3638
sS'date'
p3639
S'Sat May 26 21:29:46 2012'
p3640
sS'response'
p3641
g56
(g57
g58
NtRp3642
(dp3643
g61
(dp3644
sg63
(lp3645
g56
(g65
g58
NtRp3646
(dp3647
g61
(dp3648
g69
I5
ssg70
Nsg63
(lp3649
g56
(g72
g58
NtRp3650
(dp3651
g61
(dp3652
sg70
g3646
sg63
(lp3653
g56
(g77
g58
NtRp3654
(dp3655
g61
(dp3656
g81
g82
ssg70
g3650
sg63
(lp3657
g192
asbag56
(g77
g58
NtRp3658
(dp3659
g61
(dp3660
g88
g89
ssg70
g3650
sg63
(lp3661
S':'
asbag56
(g77
g58
NtRp3662
(dp3663
g61
(dp3664
sg70
g3650
sg63
(lp3665
g56
(g57
g58
NtRp3666
(dp3667
g61
(dp3668
g69
I5
ssg70
g3662
sg63
(lp3669
S'<cStringIO.StringO object at 0x2865730>'
p3670
asbasbasbag56
(g72
g58
NtRp3671
(dp3672
g61
(dp3673
sg70
g3646
sg63
(lp3674
g56
(g77
g58
NtRp3675
(dp3676
g61
(dp3677
g81
g82
ssg70
g3671
sg63
(lp3678
g258
asbag56
(g77
g58
NtRp3679
(dp3680
g61
(dp3681
g88
g89
ssg70
g3671
sg63
(lp3682
S':'
asbag56
(g77
g58
NtRp3683
(dp3684
g61
(dp3685
sg70
g3671
sg63
(lp3686
g56
(g57
g58
NtRp3687
(dp3688
g61
(dp3689
g69
I5
ssg70
g3683
sg63
(lp3690
g56
(g65
g58
NtRp3691
(dp3692
g61
(dp3693
g69
I4
ssg70
Nsg63
(lp3694
g56
(g72
g58
NtRp3695
(dp3696
g61
(dp3697
sg70
g3691
sg63
(lp3698
g56
(g77
g58
NtRp3699
(dp3700
g61
(dp3701
g81
g82
ssg70
g3695
sg63
(lp3702
S'session_id_streamlog'
p3703
asbag56
(g77
g58
NtRp3704
(dp3705
g61
(dp3706
g88
g89
ssg70
g3695
sg63
(lp3707
S':'
asbag56
(g77
g58
NtRp3708
(dp3709
g61
(dp3710
sg70
g3695
sg63
(lp3711
g56
(g57
g58
NtRp3712
(dp3713
g61
(dp3714
g69
I4
ssg70
g3708
sg63
(lp3715
g56
(g65
g58
NtRp3716
(dp3717
g61
(dp3718
g69
I3
ssg70
Nsg63
(lp3719
g56
(g72
g58
NtRp3720
(dp3721
g61
(dp3722
sg70
g3716
sg63
(lp3723
g56
(g77
g58
NtRp3724
(dp3725
g61
(dp3726
g81
g82
ssg70
g3720
sg63
(lp3727
g308
asbag56
(g77
g58
NtRp3728
(dp3729
g61
(dp3730
g88
g89
ssg70
g3720
sg63
(lp3731
S':'
asbag56
(g77
g58
NtRp3732
(dp3733
g61
(dp3734
sg70
g3720
sg63
(lp3735
g56
(g57
g58
NtRp3736
(dp3737
g61
(dp3738
g69
I3
ssg70
g3732
sg63
(lp3739
S''
asbasbasbag56
(g72
g58
NtRp3740
(dp3741
g61
(dp3742
sg70
g3716
sg63
(lp3743
g56
(g77
g58
NtRp3744
(dp3745
g61
(dp3746
g81
g82
ssg70
g3740
sg63
(lp3747
g329
asbag56
(g77
g58
NtRp3748
(dp3749
g61
(dp3750
g88
g89
ssg70
g3740
sg63
(lp3751
S':'
asbag56
(g77
g58
NtRp3752
(dp3753
g61
(dp3754
sg70
g3740
sg63
(lp3755
g56
(g57
g58
NtRp3756
(dp3757
g61
(dp3758
g69
I3
ssg70
g3752
sg63
(lp3759
S''
asbasbasbag56
(g72
g58
NtRp3760
(dp3761
g61
(dp3762
sg70
g3716
sg63
(lp3763
g56
(g77
g58
NtRp3764
(dp3765
g61
(dp3766
g81
g82
ssg70
g3760
sg63
(lp3767
g350
asbag56
(g77
g58
NtRp3768
(dp3769
g61
(dp3770
g88
g89
ssg70
g3760
sg63
(lp3771
S':'
asbag56
(g77
g58
NtRp3772
(dp3773
g61
(dp3774
sg70
g3760
sg63
(lp3775
g56
(g57
g58
NtRp3776
(dp3777
g61
(dp3778
g69
I3
ssg70
g3772
sg63
(lp3779
S''
asbasbasbag56
(g72
g58
NtRp3780
(dp3781
g61
(dp3782
sg70
g3716
sg63
(lp3783
g56
(g77
g58
NtRp3784
(dp3785
g61
(dp3786
g81
g82
ssg70
g3780
sg63
(lp3787
g371
asbag56
(g77
g58
NtRp3788
(dp3789
g61
(dp3790
g88
g89
ssg70
g3780
sg63
(lp3791
S':'
asbag56
(g77
g58
NtRp3792
(dp3793
g61
(dp3794
sg70
g3780
sg63
(lp3795
g56
(g57
g58
NtRp3796
(dp3797
g61
(dp3798
g69
I3
ssg70
g3792
sg63
(lp3799
S''
asbasbasbag56
(g72
g58
NtRp3800
(dp3801
g61
(dp3802
sg70
g3716
sg63
(lp3803
g56
(g77
g58
NtRp3804
(dp3805
g61
(dp3806
g81
g82
ssg70
g3800
sg63
(lp3807
g392
asbag56
(g77
g58
NtRp3808
(dp3809
g61
(dp3810
g88
g89
ssg70
g3800
sg63
(lp3811
S':'
asbag56
(g77
g58
NtRp3812
(dp3813
g61
(dp3814
sg70
g3800
sg63
(lp3815
g56
(g57
g58
NtRp3816
(dp3817
g61
(dp3818
g69
I3
ssg70
g3812
sg63
(lp3819
S''
asbasbasbag56
(g72
g58
NtRp3820
(dp3821
g61
(dp3822
sg70
g3716
sg63
(lp3823
g56
(g77
g58
NtRp3824
(dp3825
g61
(dp3826
g81
g82
ssg70
g3820
sg63
(lp3827
g413
asbag56
(g77
g58
NtRp3828
(dp3829
g61
(dp3830
g88
g89
ssg70
g3820
sg63
(lp3831
S':'
asbag56
(g77
g58
NtRp3832
(dp3833
g61
(dp3834
sg70
g3820
sg63
(lp3835
g56
(g57
g58
NtRp3836
(dp3837
g61
(dp3838
g69
I3
ssg70
g3832
sg63
(lp3839
S'/'
asbasbasbag56
(g72
g58
NtRp3840
(dp3841
g61
(dp3842
sg70
g3716
sg63
(lp3843
g56
(g77
g58
NtRp3844
(dp3845
g61
(dp3846
g81
g82
ssg70
g3840
sg63
(lp3847
g434
asbag56
(g77
g58
NtRp3848
(dp3849
g61
(dp3850
g88
g89
ssg70
g3840
sg63
(lp3851
S':'
asbag56
(g77
g58
NtRp3852
(dp3853
g61
(dp3854
sg70
g3840
sg63
(lp3855
g56
(g57
g58
NtRp3856
(dp3857
g61
(dp3858
g69
I3
ssg70
g3852
sg63
(lp3859
S''
asbasbasbag56
(g72
g58
NtRp3860
(dp3861
g61
(dp3862
sg70
g3716
sg63
(lp3863
g56
(g77
g58
NtRp3864
(dp3865
g61
(dp3866
g81
g82
ssg70
g3860
sg63
(lp3867
g455
asbag56
(g77
g58
NtRp3868
(dp3869
g61
(dp3870
g88
g89
ssg70
g3860
sg63
(lp3871
S':'
asbag56
(g77
g58
NtRp3872
(dp3873
g61
(dp3874
sg70
g3860
sg63
(lp3875
g56
(g57
g58
NtRp3876
(dp3877
g61
(dp3878
g69
I3
ssg70
g3872
sg63
(lp3879
S''
asbasbasbasbasbasbasbasbasbasbasbag56
(g72
g58
NtRp3880
(dp3881
g61
(dp3882
sg70
g3646
sg63
(lp3883
g56
(g77
g58
NtRp3884
(dp3885
g61
(dp3886
g81
g82
ssg70
g3880
sg63
(lp3887
S'files'
p3888
asbag56
(g77
g58
NtRp3889
(dp3890
g61
(dp3891
g88
g89
ssg70
g3880
sg63
(lp3892
S':'
asbag56
(g77
g58
NtRp3893
(dp3894
g61
(dp3895
sg70
g3880
sg63
(lp3896
g56
(g57
g58
NtRp3897
(dp3898
g61
(dp3899
g69
I5
ssg70
g3893
sg63
(lp3900
g56
(g65
g58
NtRp3901
(dp3902
g61
(dp3903
g69
I4
ssg70
Nsg63
(lp3904
sbasbasbasbag56
(g72
g58
NtRp3905
(dp3906
g61
(dp3907
sg70
g3646
sg63
(lp3908
g56
(g77
g58
NtRp3909
(dp3910
g61
(dp3911
g81
g82
ssg70
g3905
sg63
(lp3912
S'flash'
p3913
asbag56
(g77
g58
NtRp3914
(dp3915
g61
(dp3916
g88
g89
ssg70
g3905
sg63
(lp3917
S':'
asbag56
(g77
g58
NtRp3918
(dp3919
g61
(dp3920
sg70
g3905
sg63
(lp3921
g56
(g57
g58
NtRp3922
(dp3923
g61
(dp3924
g69
I5
ssg70
g3918
sg63
(lp3925
S''
asbasbasbag56
(g72
g58
NtRp3926
(dp3927
g61
(dp3928
sg70
g3646
sg63
(lp3929
g56
(g77
g58
NtRp3930
(dp3931
g61
(dp3932
g81
g82
ssg70
g3926
sg63
(lp3933
S'generic_patterns'
p3934
asbag56
(g77
g58
NtRp3935
(dp3936
g61
(dp3937
g88
g89
ssg70
g3926
sg63
(lp3938
S':'
asbag56
(g77
g58
NtRp3939
(dp3940
g61
(dp3941
sg70
g3926
sg63
(lp3942
g56
(g57
g58
NtRp3943
(dp3944
g61
(dp3945
g69
I5
ssg70
g3939
sg63
(lp3946
g56
(g65
g58
NtRp3947
(dp3948
g61
(dp3949
g69
I4
ssg70
Nsg63
(lp3950
g56
(g72
g58
NtRp3951
(dp3952
g61
(dp3953
sg70
g3947
sg63
(lp3954
g56
(g77
g58
NtRp3955
(dp3956
g61
(dp3957
sg70
g3951
sg63
(lp3958
g56
(g57
g58
NtRp3959
(dp3960
g61
(dp3961
g69
I4
ssg70
g3955
sg63
(lp3962
S'*'
asbasbasbasbasbasbasbag56
(g72
g58
NtRp3963
(dp3964
g61
(dp3965
sg70
g3646
sg63
(lp3966
g56
(g77
g58
NtRp3967
(dp3968
g61
(dp3969
g81
g82
ssg70
g3963
sg63
(lp3970
S'headers'
p3971
asbag56
(g77
g58
NtRp3972
(dp3973
g61
(dp3974
g88
g89
ssg70
g3963
sg63
(lp3975
S':'
asbag56
(g77
g58
NtRp3976
(dp3977
g61
(dp3978
sg70
g3963
sg63
(lp3979
g56
(g57
g58
NtRp3980
(dp3981
g61
(dp3982
g69
I5
ssg70
g3976
sg63
(lp3983
g56
(g65
g58
NtRp3984
(dp3985
g61
(dp3986
g69
I4
ssg70
Nsg63
(lp3987
g56
(g72
g58
NtRp3988
(dp3989
g61
(dp3990
sg70
g3984
sg63
(lp3991
g56
(g77
g58
NtRp3992
(dp3993
g61
(dp3994
g81
g82
ssg70
g3988
sg63
(lp3995
S'Cache-Control'
p3996
asbag56
(g77
g58
NtRp3997
(dp3998
g61
(dp3999
g88
g89
ssg70
g3988
sg63
(lp4000
S':'
asbag56
(g77
g58
NtRp4001
(dp4002
g61
(dp4003
sg70
g3988
sg63
(lp4004
g56
(g57
g58
NtRp4005
(dp4006
g61
(dp4007
g69
I4
ssg70
g4001
sg63
(lp4008
S'no-store, no-cache, must-revalidate, post-check=0, pre-check=0'
p4009
asbasbasbag56
(g72
g58
NtRp4010
(dp4011
g61
(dp4012
sg70
g3984
sg63
(lp4013
g56
(g77
g58
NtRp4014
(dp4015
g61
(dp4016
g81
g82
ssg70
g4010
sg63
(lp4017
S'Content-Type'
p4018
asbag56
(g77
g58
NtRp4019
(dp4020
g61
(dp4021
g88
g89
ssg70
g4010
sg63
(lp4022
S':'
asbag56
(g77
g58
NtRp4023
(dp4024
g61
(dp4025
sg70
g4010
sg63
(lp4026
g56
(g57
g58
NtRp4027
(dp4028
g61
(dp4029
g69
I4
ssg70
g4023
sg63
(lp4030
S'application/json; charset=utf-8'
p4031
asbasbasbag56
(g72
g58
NtRp4032
(dp4033
g61
(dp4034
sg70
g3984
sg63
(lp4035
g56
(g77
g58
NtRp4036
(dp4037
g61
(dp4038
g81
g82
ssg70
g4032
sg63
(lp4039
S'Expires'
p4040
asbag56
(g77
g58
NtRp4041
(dp4042
g61
(dp4043
g88
g89
ssg70
g4032
sg63
(lp4044
S':'
asbag56
(g77
g58
NtRp4045
(dp4046
g61
(dp4047
sg70
g4032
sg63
(lp4048
g56
(g57
g58
NtRp4049
(dp4050
g61
(dp4051
g69
I4
ssg70
g4045
sg63
(lp4052
S'Sat, 26 May 2012 14:29:46 GMT'
p4053
asbasbasbag56
(g72
g58
NtRp4054
(dp4055
g61
(dp4056
sg70
g3984
sg63
(lp4057
g56
(g77
g58
NtRp4058
(dp4059
g61
(dp4060
g81
g82
ssg70
g4054
sg63
(lp4061
S'Pragma'
p4062
asbag56
(g77
g58
NtRp4063
(dp4064
g61
(dp4065
g88
g89
ssg70
g4054
sg63
(lp4066
S':'
asbag56
(g77
g58
NtRp4067
(dp4068
g61
(dp4069
sg70
g4054
sg63
(lp4070
g56
(g57
g58
NtRp4071
(dp4072
g61
(dp4073
g69
I4
ssg70
g4067
sg63
(lp4074
S'no-cache'
p4075
asbasbasbag56
(g72
g58
NtRp4076
(dp4077
g61
(dp4078
sg70
g3984
sg63
(lp4079
g56
(g77
g58
NtRp4080
(dp4081
g61
(dp4082
g81
g82
ssg70
g4076
sg63
(lp4083
S'X-Powered-By'
p4084
asbag56
(g77
g58
NtRp4085
(dp4086
g61
(dp4087
g88
g89
ssg70
g4076
sg63
(lp4088
S':'
asbag56
(g77
g58
NtRp4089
(dp4090
g61
(dp4091
sg70
g4076
sg63
(lp4092
g56
(g57
g58
NtRp4093
(dp4094
g61
(dp4095
g69
I4
ssg70
g4089
sg63
(lp4096
S'web2py'
p4097
asbasbasbasbasbasbasbag56
(g72
g58
NtRp4098
(dp4099
g61
(dp4100
sg70
g3646
sg63
(lp4101
g56
(g77
g58
NtRp4102
(dp4103
g61
(dp4104
g81
g82
ssg70
g4098
sg63
(lp4105
S'menu'
p4106
asbag56
(g77
g58
NtRp4107
(dp4108
g61
(dp4109
g88
g89
ssg70
g4098
sg63
(lp4110
S':'
asbag56
(g77
g58
NtRp4111
(dp4112
g61
(dp4113
sg70
g4098
sg63
(lp4114
g56
(g57
g58
NtRp4115
(dp4116
g61
(dp4117
g69
I5
ssg70
g4111
sg63
(lp4118
g56
(g65
g58
NtRp4119
(dp4120
g61
(dp4121
g69
I4
ssg70
Nsg63
(lp4122
g56
(g72
g58
NtRp4123
(dp4124
g61
(dp4125
sg70
g4119
sg63
(lp4126
g56
(g77
g58
NtRp4127
(dp4128
g61
(dp4129
sg70
g4123
sg63
(lp4130
g56
(g57
g58
NtRp4131
(dp4132
g61
(dp4133
g69
I4
ssg70
g4127
sg63
(lp4134
g56
(g65
g58
NtRp4135
(dp4136
g61
(dp4137
g69
I3
ssg70
Nsg63
(lp4138
g56
(g72
g58
NtRp4139
(dp4140
g61
(dp4141
sg70
g4135
sg63
(lp4142
g56
(g77
g58
NtRp4143
(dp4144
g61
(dp4145
sg70
g4139
sg63
(lp4146
g56
(g57
g58
NtRp4147
(dp4148
g61
(dp4149
g69
I3
ssg70
g4143
sg63
(lp4150
cgluon.languages
lazyT_unpickle
p4151
(S's\n\x00\x00\x00Clear Page'
tRp4152
asbasbasbag56
(g72
g58
NtRp4153
(dp4154
g61
(dp4155
sg70
g4135
sg63
(lp4156
g56
(g77
g58
NtRp4157
(dp4158
g61
(dp4159
sg70
g4153
sg63
(lp4160
g56
(g57
g58
NtRp4161
(dp4162
g61
(dp4163
g69
I3
ssg70
g4157
sg63
(lp4164
g99
asbasbasbag56
(g72
g58
NtRp4165
(dp4166
g61
(dp4167
sg70
g4135
sg63
(lp4168
g56
(g77
g58
NtRp4169
(dp4170
g61
(dp4171
sg70
g4165
sg63
(lp4172
g56
(g57
g58
NtRp4173
(dp4174
g61
(dp4175
g69
I3
ssg70
g4169
sg63
(lp4176
S'/streamlog/default/index'
p4177
asbasbasbag56
(g72
g58
NtRp4178
(dp4179
g61
(dp4180
sg70
g4135
sg63
(lp4181
g56
(g77
g58
NtRp4182
(dp4183
g61
(dp4184
sg70
g4178
sg63
(lp4185
g56
(g57
g58
NtRp4186
(dp4187
g61
(dp4188
g69
I3
ssg70
g4182
sg63
(lp4189
g56
(g65
g58
NtRp4190
(dp4191
g61
(dp4192
g69
I2
ssg70
Nsg63
(lp4193
sbasbasbasbasbasbasbasbag56
(g72
g58
NtRp4194
(dp4195
g61
(dp4196
sg70
g4119
sg63
(lp4197
g56
(g77
g58
NtRp4198
(dp4199
g61
(dp4200
sg70
g4194
sg63
(lp4201
g56
(g57
g58
NtRp4202
(dp4203
g61
(dp4204
g69
I4
ssg70
g4198
sg63
(lp4205
g56
(g65
g58
NtRp4206
(dp4207
g61
(dp4208
g69
I3
ssg70
Nsg63
(lp4209
g56
(g72
g58
NtRp4210
(dp4211
g61
(dp4212
sg70
g4206
sg63
(lp4213
g56
(g77
g58
NtRp4214
(dp4215
g61
(dp4216
sg70
g4210
sg63
(lp4217
g56
(g57
g58
NtRp4218
(dp4219
g61
(dp4220
g69
I3
ssg70
g4214
sg63
(lp4221
g4151
(S't\x06\x00\x00\x00Manage'
tRp4222
asbasbasbag56
(g72
g58
NtRp4223
(dp4224
g61
(dp4225
sg70
g4206
sg63
(lp4226
g56
(g77
g58
NtRp4227
(dp4228
g61
(dp4229
sg70
g4223
sg63
(lp4230
g56
(g57
g58
NtRp4231
(dp4232
g61
(dp4233
g69
I3
ssg70
g4227
sg63
(lp4234
g99
asbasbasbag56
(g72
g58
NtRp4235
(dp4236
g61
(dp4237
sg70
g4206
sg63
(lp4238
g56
(g77
g58
NtRp4239
(dp4240
g61
(dp4241
sg70
g4235
sg63
(lp4242
g56
(g57
g58
NtRp4243
(dp4244
g61
(dp4245
g69
I3
ssg70
g4239
sg63
(lp4246
S'None'
p4247
asbasbasbag56
(g72
g58
NtRp4248
(dp4249
g61
(dp4250
sg70
g4206
sg63
(lp4251
g56
(g77
g58
NtRp4252
(dp4253
g61
(dp4254
sg70
g4248
sg63
(lp4255
g56
(g57
g58
NtRp4256
(dp4257
g61
(dp4258
g69
I3
ssg70
g4252
sg63
(lp4259
g56
(g65
g58
NtRp4260
(dp4261
g61
(dp4262
g69
I2
ssg70
Nsg63
(lp4263
g56
(g72
g58
NtRp4264
(dp4265
g61
(dp4266
sg70
g4260
sg63
(lp4267
g56
(g77
g58
NtRp4268
(dp4269
g61
(dp4270
sg70
g4264
sg63
(lp4271
g56
(g57
g58
NtRp4272
(dp4273
g61
(dp4274
g69
I2
ssg70
g4268
sg63
(lp4275
g56
(g65
g58
NtRp4276
(dp4277
g61
(dp4278
g69
I1
ssg70
Nsg63
(lp4279
g56
(g72
g58
NtRp4280
(dp4281
g61
(dp4282
sg70
g4276
sg63
(lp4283
g56
(g77
g58
NtRp4284
(dp4285
g61
(dp4286
sg70
g4280
sg63
(lp4287
g56
(g57
g58
NtRp4288
(dp4289
g61
(dp4290
g69
I1
ssg70
g4284
sg63
(lp4291
g4151
(S't\x04\x00\x00\x00Logs'
tRp4292
asbasbasbag56
(g72
g58
NtRp4293
(dp4294
g61
(dp4295
sg70
g4276
sg63
(lp4296
g56
(g77
g58
NtRp4297
(dp4298
g61
(dp4299
sg70
g4293
sg63
(lp4300
g56
(g57
g58
NtRp4301
(dp4302
g61
(dp4303
g69
I1
ssg70
g4297
sg63
(lp4304
I00
asbasbasbag56
(g72
g58
NtRp4305
(dp4306
g61
(dp4307
sg70
g4276
sg63
(lp4308
g56
(g77
g58
NtRp4309
(dp4310
g61
(dp4311
sg70
g4305
sg63
(lp4312
g56
(g57
g58
NtRp4313
(dp4314
g61
(dp4315
g69
I1
ssg70
g4309
sg63
(lp4316
S'/streamlog/default/log_manage'
p4317
asbasbasbag56
(g72
g58
NtRp4318
(dp4319
g61
(dp4320
sg70
g4276
sg63
(lp4321
g56
(g77
g58
NtRp4322
(dp4323
g61
(dp4324
sg70
g4318
sg63
(lp4325
g56
(g57
g58
NtRp4326
(dp4327
g61
(dp4328
g69
I1
ssg70
g4322
sg63
(lp4329
(lp4330
asbasbasbasbasbasbasbag56
(g72
g58
NtRp4331
(dp4332
g61
(dp4333
sg70
g4260
sg63
(lp4334
g56
(g77
g58
NtRp4335
(dp4336
g61
(dp4337
sg70
g4331
sg63
(lp4338
g56
(g57
g58
NtRp4339
(dp4340
g61
(dp4341
g69
I2
ssg70
g4335
sg63
(lp4342
g56
(g65
g58
NtRp4343
(dp4344
g61
(dp4345
g69
I1
ssg70
Nsg63
(lp4346
g56
(g72
g58
NtRp4347
(dp4348
g61
(dp4349
sg70
g4343
sg63
(lp4350
g56
(g77
g58
NtRp4351
(dp4352
g61
(dp4353
sg70
g4347
sg63
(lp4354
g56
(g57
g58
NtRp4355
(dp4356
g61
(dp4357
g69
I1
ssg70
g4351
sg63
(lp4358
g4151
(S't\x07\x00\x00\x00Servers'
tRp4359
asbasbasbag56
(g72
g58
NtRp4360
(dp4361
g61
(dp4362
sg70
g4343
sg63
(lp4363
g56
(g77
g58
NtRp4364
(dp4365
g61
(dp4366
sg70
g4360
sg63
(lp4367
g56
(g57
g58
NtRp4368
(dp4369
g61
(dp4370
g69
I1
ssg70
g4364
sg63
(lp4371
I00
asbasbasbag56
(g72
g58
NtRp4372
(dp4373
g61
(dp4374
sg70
g4343
sg63
(lp4375
g56
(g77
g58
NtRp4376
(dp4377
g61
(dp4378
sg70
g4372
sg63
(lp4379
g56
(g57
g58
NtRp4380
(dp4381
g61
(dp4382
g69
I1
ssg70
g4376
sg63
(lp4383
S'/streamlog/default/server_manage'
p4384
asbasbasbag56
(g72
g58
NtRp4385
(dp4386
g61
(dp4387
sg70
g4343
sg63
(lp4388
g56
(g77
g58
NtRp4389
(dp4390
g61
(dp4391
sg70
g4385
sg63
(lp4392
g56
(g57
g58
NtRp4393
(dp4394
g61
(dp4395
g69
I1
ssg70
g4389
sg63
(lp4396
(lp4397
asbasbasbasbasbasbasbag56
(g72
g58
NtRp4398
(dp4399
g61
(dp4400
sg70
g4260
sg63
(lp4401
g56
(g77
g58
NtRp4402
(dp4403
g61
(dp4404
sg70
g4398
sg63
(lp4405
g56
(g57
g58
NtRp4406
(dp4407
g61
(dp4408
g69
I2
ssg70
g4402
sg63
(lp4409
g56
(g65
g58
NtRp4410
(dp4411
g61
(dp4412
g69
I1
ssg70
Nsg63
(lp4413
g56
(g72
g58
NtRp4414
(dp4415
g61
(dp4416
sg70
g4410
sg63
(lp4417
g56
(g77
g58
NtRp4418
(dp4419
g61
(dp4420
sg70
g4414
sg63
(lp4421
g56
(g57
g58
NtRp4422
(dp4423
g61
(dp4424
g69
I1
ssg70
g4418
sg63
(lp4425
g4151
(S't\x08\x00\x00\x00Projects'
tRp4426
asbasbasbag56
(g72
g58
NtRp4427
(dp4428
g61
(dp4429
sg70
g4410
sg63
(lp4430
g56
(g77
g58
NtRp4431
(dp4432
g61
(dp4433
sg70
g4427
sg63
(lp4434
g56
(g57
g58
NtRp4435
(dp4436
g61
(dp4437
g69
I1
ssg70
g4431
sg63
(lp4438
I00
asbasbasbag56
(g72
g58
NtRp4439
(dp4440
g61
(dp4441
sg70
g4410
sg63
(lp4442
g56
(g77
g58
NtRp4443
(dp4444
g61
(dp4445
sg70
g4439
sg63
(lp4446
g56
(g57
g58
NtRp4447
(dp4448
g61
(dp4449
g69
I1
ssg70
g4443
sg63
(lp4450
S'/streamlog/default/project_manage'
p4451
asbasbasbag56
(g72
g58
NtRp4452
(dp4453
g61
(dp4454
sg70
g4410
sg63
(lp4455
g56
(g77
g58
NtRp4456
(dp4457
g61
(dp4458
sg70
g4452
sg63
(lp4459
g56
(g57
g58
NtRp4460
(dp4461
g61
(dp4462
g69
I1
ssg70
g4456
sg63
(lp4463
(lp4464
asbasbasbasbasbasbasbag56
(g72
g58
NtRp4465
(dp4466
g61
(dp4467
sg70
g4260
sg63
(lp4468
g56
(g77
g58
NtRp4469
(dp4470
g61
(dp4471
sg70
g4465
sg63
(lp4472
g56
(g57
g58
NtRp4473
(dp4474
g61
(dp4475
g69
I2
ssg70
g4469
sg63
(lp4476
g56
(g65
g58
NtRp4477
(dp4478
g61
(dp4479
g69
I1
ssg70
Nsg63
(lp4480
g56
(g72
g58
NtRp4481
(dp4482
g61
(dp4483
sg70
g4477
sg63
(lp4484
g56
(g77
g58
NtRp4485
(dp4486
g61
(dp4487
sg70
g4481
sg63
(lp4488
g56
(g57
g58
NtRp4489
(dp4490
g61
(dp4491
g69
I1
ssg70
g4485
sg63
(lp4492
g4151
(S's\t\x00\x00\x00Type Logs'
tRp4493
asbasbasbag56
(g72
g58
NtRp4494
(dp4495
g61
(dp4496
sg70
g4477
sg63
(lp4497
g56
(g77
g58
NtRp4498
(dp4499
g61
(dp4500
sg70
g4494
sg63
(lp4501
g56
(g57
g58
NtRp4502
(dp4503
g61
(dp4504
g69
I1
ssg70
g4498
sg63
(lp4505
I00
asbasbasbag56
(g72
g58
NtRp4506
(dp4507
g61
(dp4508
sg70
g4477
sg63
(lp4509
g56
(g77
g58
NtRp4510
(dp4511
g61
(dp4512
sg70
g4506
sg63
(lp4513
g56
(g57
g58
NtRp4514
(dp4515
g61
(dp4516
g69
I1
ssg70
g4510
sg63
(lp4517
S'/streamlog/default/type_log_manage'
p4518
asbasbasbag56
(g72
g58
NtRp4519
(dp4520
g61
(dp4521
sg70
g4477
sg63
(lp4522
g56
(g77
g58
NtRp4523
(dp4524
g61
(dp4525
sg70
g4519
sg63
(lp4526
g56
(g57
g58
NtRp4527
(dp4528
g61
(dp4529
g69
I1
ssg70
g4523
sg63
(lp4530
(lp4531
asbasbasbasbasbasbasbasbasbasbasbasbasbasbasbasbasbasbasbag56
(g72
g58
NtRp4532
(dp4533
g61
(dp4534
sg70
g3646
sg63
(lp4535
g56
(g77
g58
NtRp4536
(dp4537
g61
(dp4538
g81
g82
ssg70
g4532
sg63
(lp4539
S'meta'
p4540
asbag56
(g77
g58
NtRp4541
(dp4542
g61
(dp4543
g88
g89
ssg70
g4532
sg63
(lp4544
S':'
asbag56
(g77
g58
NtRp4545
(dp4546
g61
(dp4547
sg70
g4532
sg63
(lp4548
g56
(g57
g58
NtRp4549
(dp4550
g61
(dp4551
g69
I5
ssg70
g4545
sg63
(lp4552
g56
(g65
g58
NtRp4553
(dp4554
g61
(dp4555
g69
I4
ssg70
Nsg63
(lp4556
g56
(g72
g58
NtRp4557
(dp4558
g61
(dp4559
sg70
g4553
sg63
(lp4560
g56
(g77
g58
NtRp4561
(dp4562
g61
(dp4563
g81
g82
ssg70
g4557
sg63
(lp4564
S'author'
p4565
asbag56
(g77
g58
NtRp4566
(dp4567
g61
(dp4568
g88
g89
ssg70
g4557
sg63
(lp4569
S':'
asbag56
(g77
g58
NtRp4570
(dp4571
g61
(dp4572
sg70
g4557
sg63
(lp4573
g56
(g57
g58
NtRp4574
(dp4575
g61
(dp4576
g69
I4
ssg70
g4570
sg63
(lp4577
S'Jose de Soto <josedesoto@gmail.com>'
p4578
asbasbasbag56
(g72
g58
NtRp4579
(dp4580
g61
(dp4581
sg70
g4553
sg63
(lp4582
g56
(g77
g58
NtRp4583
(dp4584
g61
(dp4585
g81
g82
ssg70
g4579
sg63
(lp4586
S'copyright'
p4587
asbag56
(g77
g58
NtRp4588
(dp4589
g61
(dp4590
g88
g89
ssg70
g4579
sg63
(lp4591
S':'
asbag56
(g77
g58
NtRp4592
(dp4593
g61
(dp4594
sg70
g4579
sg63
(lp4595
g56
(g57
g58
NtRp4596
(dp4597
g61
(dp4598
g69
I4
ssg70
g4592
sg63
(lp4599
S'Copyright 2011'
p4600
asbasbasbag56
(g72
g58
NtRp4601
(dp4602
g61
(dp4603
sg70
g4553
sg63
(lp4604
g56
(g77
g58
NtRp4605
(dp4606
g61
(dp4607
g81
g82
ssg70
g4601
sg63
(lp4608
S'description'
p4609
asbag56
(g77
g58
NtRp4610
(dp4611
g61
(dp4612
g88
g89
ssg70
g4601
sg63
(lp4613
S':'
asbag56
(g77
g58
NtRp4614
(dp4615
g61
(dp4616
sg70
g4601
sg63
(lp4617
g56
(g57
g58
NtRp4618
(dp4619
g61
(dp4620
g69
I4
ssg70
g4614
sg63
(lp4621
S'a cool new app'
p4622
asbasbasbag56
(g72
g58
NtRp4623
(dp4624
g61
(dp4625
sg70
g4553
sg63
(lp4626
g56
(g77
g58
NtRp4627
(dp4628
g61
(dp4629
g81
g82
ssg70
g4623
sg63
(lp4630
S'generator'
p4631
asbag56
(g77
g58
NtRp4632
(dp4633
g61
(dp4634
g88
g89
ssg70
g4623
sg63
(lp4635
S':'
asbag56
(g77
g58
NtRp4636
(dp4637
g61
(dp4638
sg70
g4623
sg63
(lp4639
g56
(g57
g58
NtRp4640
(dp4641
g61
(dp4642
g69
I4
ssg70
g4636
sg63
(lp4643
S'Web2py Web Framework'
p4644
asbasbasbag56
(g72
g58
NtRp4645
(dp4646
g61
(dp4647
sg70
g4553
sg63
(lp4648
g56
(g77
g58
NtRp4649
(dp4650
g61
(dp4651
g81
g82
ssg70
g4645
sg63
(lp4652
S'keywords'
p4653
asbag56
(g77
g58
NtRp4654
(dp4655
g61
(dp4656
g88
g89
ssg70
g4645
sg63
(lp4657
S':'
asbag56
(g77
g58
NtRp4658
(dp4659
g61
(dp4660
sg70
g4645
sg63
(lp4661
g56
(g57
g58
NtRp4662
(dp4663
g61
(dp4664
g69
I4
ssg70
g4658
sg63
(lp4665
S'web2py, python, framework'
p4666
asbasbasbasbasbasbasbag56
(g72
g58
NtRp4667
(dp4668
g61
(dp4669
sg70
g3646
sg63
(lp4670
g56
(g77
g58
NtRp4671
(dp4672
g61
(dp4673
g81
g82
ssg70
g4667
sg63
(lp4674
S'postprocessing'
p4675
asbag56
(g77
g58
NtRp4676
(dp4677
g61
(dp4678
g88
g89
ssg70
g4667
sg63
(lp4679
S':'
asbag56
(g77
g58
NtRp4680
(dp4681
g61
(dp4682
sg70
g4667
sg63
(lp4683
g56
(g57
g58
NtRp4684
(dp4685
g61
(dp4686
g69
I5
ssg70
g4680
sg63
(lp4687
g56
(g65
g58
NtRp4688
(dp4689
g61
(dp4690
g69
I4
ssg70
Nsg63
(lp4691
sbasbasbasbag56
(g72
g58
NtRp4692
(dp4693
g61
(dp4694
sg70
g3646
sg63
(lp4695
g56
(g77
g58
NtRp4696
(dp4697
g61
(dp4698
g81
g82
ssg70
g4692
sg63
(lp4699
S'session_file'
p4700
asbag56
(g77
g58
NtRp4701
(dp4702
g61
(dp4703
g88
g89
ssg70
g4692
sg63
(lp4704
S':'
asbag56
(g77
g58
NtRp4705
(dp4706
g61
(dp4707
sg70
g4692
sg63
(lp4708
g56
(g57
g58
NtRp4709
(dp4710
g61
(dp4711
g69
I5
ssg70
g4705
sg63
(lp4712
S"<open file '/home/jose/DESARROLLO/web2py199/applications/streamlog/sessions/127.0.0.1-610b0c7d-3f6f-4500-a76a-b095fb30f7fd', mode 'rb+' at 0x36daa50>"
p4713
asbasbasbag56
(g72
g58
NtRp4714
(dp4715
g61
(dp4716
sg70
g3646
sg63
(lp4717
g56
(g77
g58
NtRp4718
(dp4719
g61
(dp4720
g81
g82
ssg70
g4714
sg63
(lp4721
S'session_filename'
p4722
asbag56
(g77
g58
NtRp4723
(dp4724
g61
(dp4725
g88
g89
ssg70
g4714
sg63
(lp4726
S':'
asbag56
(g77
g58
NtRp4727
(dp4728
g61
(dp4729
sg70
g4714
sg63
(lp4730
g56
(g57
g58
NtRp4731
(dp4732
g61
(dp4733
g69
I5
ssg70
g4727
sg63
(lp4734
S'/home/jose/DESARROLLO/web2py199/applications/streamlog/sessions/127.0.0.1-610b0c7d-3f6f-4500-a76a-b095fb30f7fd'
p4735
asbasbasbag56
(g72
g58
NtRp4736
(dp4737
g61
(dp4738
sg70
g3646
sg63
(lp4739
g56
(g77
g58
NtRp4740
(dp4741
g61
(dp4742
g81
g82
ssg70
g4736
sg63
(lp4743
S'session_id'
p4744
asbag56
(g77
g58
NtRp4745
(dp4746
g61
(dp4747
g88
g89
ssg70
g4736
sg63
(lp4748
S':'
asbag56
(g77
g58
NtRp4749
(dp4750
g61
(dp4751
sg70
g4736
sg63
(lp4752
g56
(g57
g58
NtRp4753
(dp4754
g61
(dp4755
g69
I5
ssg70
g4749
sg63
(lp4756
S'127.0.0.1-610b0c7d-3f6f-4500-a76a-b095fb30f7fd'
p4757
asbasbasbag56
(g72
g58
NtRp4758
(dp4759
g61
(dp4760
sg70
g3646
sg63
(lp4761
g56
(g77
g58
NtRp4762
(dp4763
g61
(dp4764
g81
g82
ssg70
g4758
sg63
(lp4765
S'session_id_name'
p4766
asbag56
(g77
g58
NtRp4767
(dp4768
g61
(dp4769
g88
g89
ssg70
g4758
sg63
(lp4770
S':'
asbag56
(g77
g58
NtRp4771
(dp4772
g61
(dp4773
sg70
g4758
sg63
(lp4774
g56
(g57
g58
NtRp4775
(dp4776
g61
(dp4777
g69
I5
ssg70
g4771
sg63
(lp4778
g3703
asbasbasbag56
(g72
g58
NtRp4779
(dp4780
g61
(dp4781
sg70
g3646
sg63
(lp4782
g56
(g77
g58
NtRp4783
(dp4784
g61
(dp4785
g81
g82
ssg70
g4779
sg63
(lp4786
S'session_locked'
p4787
asbag56
(g77
g58
NtRp4788
(dp4789
g61
(dp4790
g88
g89
ssg70
g4779
sg63
(lp4791
S':'
asbag56
(g77
g58
NtRp4792
(dp4793
g61
(dp4794
sg70
g4779
sg63
(lp4795
g56
(g57
g58
NtRp4796
(dp4797
g61
(dp4798
g69
I5
ssg70
g4792
sg63
(lp4799
g1650
asbasbasbag56
(g72
g58
NtRp4800
(dp4801
g61
(dp4802
sg70
g3646
sg63
(lp4803
g56
(g77
g58
NtRp4804
(dp4805
g61
(dp4806
g81
g82
ssg70
g4800
sg63
(lp4807
S'session_new'
p4808
asbag56
(g77
g58
NtRp4809
(dp4810
g61
(dp4811
g88
g89
ssg70
g4800
sg63
(lp4812
S':'
asbag56
(g77
g58
NtRp4813
(dp4814
g61
(dp4815
sg70
g4800
sg63
(lp4816
g56
(g57
g58
NtRp4817
(dp4818
g61
(dp4819
g69
I5
ssg70
g4813
sg63
(lp4820
g99
asbasbasbag56
(g72
g58
NtRp4821
(dp4822
g61
(dp4823
sg70
g3646
sg63
(lp4824
g56
(g77
g58
NtRp4825
(dp4826
g61
(dp4827
g81
g82
ssg70
g4821
sg63
(lp4828
S'status'
p4829
asbag56
(g77
g58
NtRp4830
(dp4831
g61
(dp4832
g88
g89
ssg70
g4821
sg63
(lp4833
S':'
asbag56
(g77
g58
NtRp4834
(dp4835
g61
(dp4836
sg70
g4821
sg63
(lp4837
g56
(g57
g58
NtRp4838
(dp4839
g61
(dp4840
g69
I5
ssg70
g4834
sg63
(lp4841
S'200'
p4842
asbasbasbag56
(g72
g58
NtRp4843
(dp4844
g61
(dp4845
sg70
g3646
sg63
(lp4846
g56
(g77
g58
NtRp4847
(dp4848
g61
(dp4849
g81
g82
ssg70
g4843
sg63
(lp4850
S'subtitle'
p4851
asbag56
(g77
g58
NtRp4852
(dp4853
g61
(dp4854
g88
g89
ssg70
g4843
sg63
(lp4855
S':'
asbag56
(g77
g58
NtRp4856
(dp4857
g61
(dp4858
sg70
g4843
sg63
(lp4859
g56
(g57
g58
NtRp4860
(dp4861
g61
(dp4862
g69
I5
ssg70
g4856
sg63
(lp4863
g4151
(S's\x12\x00\x00\x00Stream Log Client!'
tRp4864
asbasbasbag56
(g72
g58
NtRp4865
(dp4866
g61
(dp4867
sg70
g3646
sg63
(lp4868
g56
(g77
g58
NtRp4869
(dp4870
g61
(dp4871
g81
g82
ssg70
g4865
sg63
(lp4872
S'title'
p4873
asbag56
(g77
g58
NtRp4874
(dp4875
g61
(dp4876
g88
g89
ssg70
g4865
sg63
(lp4877
S':'
asbag56
(g77
g58
NtRp4878
(dp4879
g61
(dp4880
sg70
g4865
sg63
(lp4881
g56
(g57
g58
NtRp4882
(dp4883
g61
(dp4884
g69
I5
ssg70
g4878
sg63
(lp4885
g121
asbasbasbag56
(g72
g58
NtRp4886
(dp4887
g61
(dp4888
sg70
g3646
sg63
(lp4889
g56
(g77
g58
NtRp4890
(dp4891
g61
(dp4892
g81
g82
ssg70
g4886
sg63
(lp4893
g2316
asbag56
(g77
g58
NtRp4894
(dp4895
g61
(dp4896
g88
g89
ssg70
g4886
sg63
(lp4897
S':'
asbag56
(g77
g58
NtRp4898
(dp4899
g61
(dp4900
sg70
g4886
sg63
(lp4901
g56
(g57
g58
NtRp4902
(dp4903
g61
(dp4904
g69
I5
ssg70
g4898
sg63
(lp4905
g2329
asbasbasbag56
(g72
g58
NtRp4906
(dp4907
g61
(dp4908
sg70
g3646
sg63
(lp4909
g56
(g77
g58
NtRp4910
(dp4911
g61
(dp4912
g81
g82
ssg70
g4906
sg63
(lp4913
S'view'
p4914
asbag56
(g77
g58
NtRp4915
(dp4916
g61
(dp4917
g88
g89
ssg70
g4906
sg63
(lp4918
S':'
asbag56
(g77
g58
NtRp4919
(dp4920
g61
(dp4921
sg70
g4906
sg63
(lp4922
g56
(g57
g58
NtRp4923
(dp4924
g61
(dp4925
g69
I5
ssg70
g4919
sg63
(lp4926
S'default/call.html'
p4927
asbasbasbasbasbsS'locals'
p4928
(dp4929
S'self'
p4930
S'<gluon.dal.SQLiteAdapter object>'
p4931
sS'r'
S'None'
p4932
sS'obj'
p4933
S"'json'"
p4934
sS'fieldtype'
p4935
S"'id'"
p4936
sssS'traceback'
p4937
S'Traceback (most recent call last):\n  File "/home/jose/DESARROLLO/web2py199/gluon/restricted.py", line 194, in restricted\n    exec ccode in environment\n  File "/home/jose/DESARROLLO/web2py199/applications/streamlog/controllers/default.py", line 171, in <module>\n  File "/home/jose/DESARROLLO/web2py199/gluon/globals.py", line 149, in <lambda>\n    self._caller = lambda f: f()\n  File "/home/jose/DESARROLLO/web2py199/applications/streamlog/controllers/default.py", line 151, in call\n    return service()\n  File "/home/jose/DESARROLLO/web2py199/gluon/tools.py", line 3839, in __call__\n    return self.serve_json(request.args[1:])\n  File "/home/jose/DESARROLLO/web2py199/gluon/tools.py", line 3656, in serve_json\n    s = universal_caller(self.json_procedures[args[0]],*args[1:],**d)\n  File "/home/jose/DESARROLLO/web2py199/gluon/tools.py", line 3348, in universal_caller\n    return f(**arg_dict)\n  File "/home/jose/DESARROLLO/web2py199/applications/streamlog/controllers/default.py", line 31, in getConnectionData\n    data_connection=db((db.t_log.id==id_log)&(db.t_log.server==db.t_server.id)).select(db.t_log.name,db.t_server.IP,db.t_server.port)\n  File "/home/jose/DESARROLLO/web2py199/gluon/dal.py", line 5697, in select\n    return self.db._adapter.select(self.query,fields,attributes)\n  File "/home/jose/DESARROLLO/web2py199/gluon/dal.py", line 1225, in select\n    sql = self._select(query,fields,attributes)\n  File "/home/jose/DESARROLLO/web2py199/gluon/dal.py", line 1132, in _select\n    sql_w = \' WHERE \' + self.expand(query)\n  File "/home/jose/DESARROLLO/web2py199/gluon/dal.py", line 987, in expand\n    return expression.op(expression.first, expression.second)\n  File "/home/jose/DESARROLLO/web2py199/gluon/dal.py", line 904, in AND\n    return \'(%s AND %s)\' % (self.expand(first),self.expand(second))\n  File "/home/jose/DESARROLLO/web2py199/gluon/dal.py", line 987, in expand\n    return expression.op(expression.first, expression.second)\n  File "/home/jose/DESARROLLO/web2py199/gluon/dal.py", line 936, in EQ\n    return \'(%s = %s)\' % (self.expand(first),self.expand(second,first.type))\n  File "/home/jose/DESARROLLO/web2py199/gluon/dal.py", line 995, in expand\n    return self.represent(expression,field_type)\n  File "/home/jose/DESARROLLO/web2py199/gluon/dal.py", line 1338, in represent\n    return str(int(obj))\nValueError: invalid literal for int() with base 10: \'json\'\n'
p4938
s.