(dp1
S'output'
p2
S''
sS'layer'
p3
S'/home/jose/DESARROLLO/web2py199/applications/streamlog/controllers/default.py'
p4
sS'code'
p5
S'# -*- coding: utf-8 -*-\n# this file is released under public domain and you can use without limitations\n\n#########################################################################\n## This is a samples controller\n## - index is the default action of any application\n## - user is required for authentication and authorization\n## - download is for downloading files uploaded in the db (does streaming)\n## - call exposes all registered services (none by default)\n#########################################################################\n\n\n\ndef index():\n    """\n    example action using the internationalization operator T and flash\n    rendered by views/default/index.html or views/generic.html\n    """\n    db.t_log.id.readable=False\n    db.t_log.server.readable=False\n    \n    db.t_log.type_log.readable=False\n    links = [lambda row:  INPUT(_type=\'button\',_value=\'Load Table\', _onclick=\'loadTable(\'+str(row.id)+\')\')]\n    links += [lambda row:  INPUT(_type=\'button\',_value=\'START STREAM\', _onclick=\'createStream(\'+str(row.id)+\')\')]\n    form=SQLFORM.grid(db.t_log, selectable=False, csv=False,create=False, deletable=False, editable=False, links=links, user_signature=False)\n    return dict(message=T(\'Hello World2\'), form=form)\n\n\ndef getConnectionData():\n    \n    id_log=request.args[0]\n    ip=\'\'\n    port=\'\'\n    name_log=\'\'\n    \n    data_connection=db((db.t_log.id==id_log)&(db.t_log.server==db.t_server.id)).select(db.t_log.name,db.t_server.IP,db.t_server.port)\n  \n    for row in data_connection:\n        ip=row.t_server.IP\n        port=row.t_server.port\n        name_log=row.t_log.name\n        \n    \n    regex=db((db.t_log.id==id_log)&(db.t_log.type_log==db.t_type_log.id)).select()\n    \n    regex_code=\'\'\n    for row in regex:\n        regex_code=row.t_type_log.regex_code\n    \n    return response.json([{\'name_log\': name_log,\'IP\': ip,\'port\': port,\'regex\': regex_code}])\n\ndef choose_log():\n    """\n    example action using the internationalization operator T and flash\n    rendered by views/default/index.html or views/generic.html\n    """\n    \n    \n    return dict(message="log")\n\n\ndef getTypeTable():\n    """\n    example action using the internationalization operator T and flash\n    rendered by views/default/index.html or views/generic.html\n    """\n    table=\'\'\n    id_log=request.args[0]\n    type_table=db((db.t_log.id==id_log)&(db.t_log.type_log==db.t_type_log.id)).select(db.t_type_log.html_table)\n    for row in type_table:\n        table=row.html_table\n        \n    \'\'\'\n    table=\'<table cellpadding="0" cellspacing="0" border="0" class="display" id="tablelog"> \\\n    <thead> \\\n        <tr> \\\n            <th>IP</th> \\\n            <th>hyphen</th> \\\n            <th>userid</th> \\\n            <th>Time Request</th> \\\n        <th>Request Time</th> \\\n        <th>Status Code</th> \\\n        <th>Size Object</th> \\\n        </tr>\\\n    </thead> \\\n    <tfoot> \\\n        <tr> \\\n            <th>IP</th> \\\n            <th>hyphen</th> \\\n            <th>userid</th>\\\n            <th>Time Request</th> \\\n        <th>Request Time</th> \\\n        <th>Status Code</th> \\\n        <th>Size Object</th> \\\n        </tr>  \\\n    </tfoot>  \\\n        <tbody> \\\n        </tbody> \\\n    </table>\'\n    \'\'\'\n    \n    return table\n\n\ndef user():\n    """\n    exposes:\n    http://..../[app]/default/user/login\n    http://..../[app]/default/user/logout\n    http://..../[app]/default/user/register\n    http://..../[app]/default/user/profile\n    http://..../[app]/default/user/retrieve_password\n    http://..../[app]/default/user/change_password\n    use @auth.requires_login()\n        @auth.requires_membership(\'group name\')\n        @auth.requires_permission(\'read\',\'table name\',record_id)\n    to decorate functions that need access control\n    """\n    return dict(form=auth())\n\ndef error():\n    return dict()\n\n\ndef project_manage():\n    \n    form = SQLFORM.smartgrid(db.t_project)\n    return locals()\n\n\n\ndef server_manage():\n\n    form=SQLFORM.grid(db.t_server)\n    return locals()\n\ndef log_manage():\n \n    #form = SQLFORM.smartgrid(db.t_log,constraints=dict(t_log=query), selectable=True,searchable=False, csv=False,showbuttontext=True,onupdate=auth.archive)\n    #form = SQLFORM.smartgrid(db.t_log)\n    form=SQLFORM.grid(db.t_log)\n    return locals()\n\ndef type_log_manage():\n\n    form=SQLFORM.grid(db.t_type_log)\n    return locals()\n\ndef download():\n    """\n    allows downloading of uploaded files\n    http://..../[app]/default/download/[filename]\n    """\n    return response.download(request,db)\n\n\ndef call():\n    """\n    exposes services. for example:\n    http://..../[app]/default/call/jsonrpc\n    decorate with @services.jsonrpc the functions to expose\n    supports xml, json, xmlrpc, jsonrpc, amfrpc, rss, csv\n    """\n    return service()\n\n\n@auth.requires_signature()\ndef data():\n    """\n    http://..../[app]/default/data/tables\n    http://..../[app]/default/data/create/[table]\n    http://..../[app]/default/data/read/[table]/[id]\n    http://..../[app]/default/data/update/[table]/[id]\n    http://..../[app]/default/data/delete/[table]/[id]\n    http://..../[app]/default/data/select/[table]\n    http://..../[app]/default/data/search/[table]\n    but URLs bust be signed, i.e. linked with\n      A(\'table\',_href=URL(\'data/tables\',user_signature=True))\n    or with the signed load operator\n      LOAD(\'default\',\'data.load\',args=\'tables\',ajax=True,user_signature=True)\n    """\n    return dict(form=crud())\n\nresponse._vars=response._caller(type_log_manage)\n'
p6
sS'snapshot'
p7
(dp8
S'exception'
p9
(dp10
S'__module__'
p11
S"'sqlite3'"
p12
sS'__getslice__'
p13
S"<method-wrapper '__getslice__' of OperationalError object>"
p14
sS'__str__'
p15
S"<method-wrapper '__str__' of OperationalError object>"
p16
sS'__reduce__'
p17
S'<built-in method __reduce__ of OperationalError object>'
p18
sS'__dict__'
p19
S'{}'
p20
sS'__sizeof__'
p21
S'<built-in method __sizeof__ of OperationalError object>'
p22
sS'__weakref__'
p23
S'None'
p24
sS'__init__'
p25
S"<method-wrapper '__init__' of OperationalError object>"
p26
sS'__setattr__'
p27
S"<method-wrapper '__setattr__' of OperationalError object>"
p28
sS'__reduce_ex__'
p29
S'<built-in method __reduce_ex__ of OperationalError object>'
p30
sS'__new__'
p31
S'<built-in method __new__ of type object>'
p32
sS'__format__'
p33
S'<built-in method __format__ of OperationalError object>'
p34
sS'__class__'
p35
S"<class 'sqlite3.OperationalError'>"
p36
sS'__doc__'
p37
S'None'
p38
sS'__getitem__'
p39
S"<method-wrapper '__getitem__' of OperationalError object>"
p40
sS'__setstate__'
p41
S'<built-in method __setstate__ of OperationalError object>'
p42
sS'__getattribute__'
p43
S"<method-wrapper '__getattribute__' of OperationalError object>"
p44
sS'args'
p45
S"('no such table: t_type_log',)"
p46
sS'__subclasshook__'
p47
S'<built-in method __subclasshook__ of type object>'
p48
sS'__unicode__'
p49
S'<built-in method __unicode__ of OperationalError object>'
p50
sS'__delattr__'
p51
S"<method-wrapper '__delattr__' of OperationalError object>"
p52
sS'__repr__'
p53
S"<method-wrapper '__repr__' of OperationalError object>"
p54
sS'__hash__'
p55
S"<method-wrapper '__hash__' of OperationalError object>"
p56
ssS'evalue'
p57
S'no such table: t_type_log'
p58
sS'request'
p59
ccopy_reg
_reconstructor
p60
(cgluon.html
BEAUTIFY
p61
c__builtin__
object
p62
NtRp63
(dp64
S'attributes'
p65
(dp66
sS'components'
p67
(lp68
g60
(cgluon.html
TABLE
p69
g62
NtRp70
(dp71
g65
(dp72
S'level'
p73
I5
ssS'parent'
p74
Nsg67
(lp75
g60
(cgluon.html
TR
p76
g62
NtRp77
(dp78
g65
(dp79
sg74
g70
sg67
(lp80
g60
(cgluon.html
TD
p81
g62
NtRp82
(dp83
g65
(dp84
S'_style'
p85
S'font-weight:bold;'
p86
ssg74
g77
sg67
(lp87
S'ajax'
p88
asbag60
(g81
g62
NtRp89
(dp90
g65
(dp91
S'_valign'
p92
S'top'
p93
ssg74
g77
sg67
(lp94
S':'
asbag60
(g81
g62
NtRp95
(dp96
g65
(dp97
sg74
g77
sg67
(lp98
g60
(g61
g62
NtRp99
(dp100
g65
(dp101
g73
I5
ssg74
g95
sg67
(lp102
S'False'
p103
asbasbasbag60
(g76
g62
NtRp104
(dp105
g65
(dp106
sg74
g70
sg67
(lp107
g60
(g81
g62
NtRp108
(dp109
g65
(dp110
g85
g86
ssg74
g104
sg67
(lp111
S'application'
p112
asbag60
(g81
g62
NtRp113
(dp114
g65
(dp115
g92
g93
ssg74
g104
sg67
(lp116
S':'
asbag60
(g81
g62
NtRp117
(dp118
g65
(dp119
sg74
g104
sg67
(lp120
g60
(g61
g62
NtRp121
(dp122
g65
(dp123
g73
I5
ssg74
g117
sg67
(lp124
S'streamlog'
p125
asbasbasbag60
(g76
g62
NtRp126
(dp127
g65
(dp128
sg74
g70
sg67
(lp129
g60
(g81
g62
NtRp130
(dp131
g65
(dp132
g85
g86
ssg74
g126
sg67
(lp133
g45
asbag60
(g81
g62
NtRp134
(dp135
g65
(dp136
g92
g93
ssg74
g126
sg67
(lp137
S':'
asbag60
(g81
g62
NtRp138
(dp139
g65
(dp140
sg74
g126
sg67
(lp141
g60
(g61
g62
NtRp142
(dp143
g65
(dp144
g73
I5
ssg74
g138
sg67
(lp145
g60
(g69
g62
NtRp146
(dp147
g65
(dp148
g73
I4
ssg74
Nsg67
(lp149
sbasbasbasbag60
(g76
g62
NtRp150
(dp151
g65
(dp152
sg74
g70
sg67
(lp153
g60
(g81
g62
NtRp154
(dp155
g65
(dp156
g85
g86
ssg74
g150
sg67
(lp157
S'body'
p158
asbag60
(g81
g62
NtRp159
(dp160
g65
(dp161
g92
g93
ssg74
g150
sg67
(lp162
S':'
asbag60
(g81
g62
NtRp163
(dp164
g65
(dp165
sg74
g150
sg67
(lp166
g60
(g61
g62
NtRp167
(dp168
g65
(dp169
g73
I5
ssg74
g163
sg67
(lp170
S'<cStringIO.StringO object at 0x32c39d0>'
p171
asbasbasbag60
(g76
g62
NtRp172
(dp173
g65
(dp174
sg74
g70
sg67
(lp175
g60
(g81
g62
NtRp176
(dp177
g65
(dp178
g85
g86
ssg74
g172
sg67
(lp179
S'client'
p180
asbag60
(g81
g62
NtRp181
(dp182
g65
(dp183
g92
g93
ssg74
g172
sg67
(lp184
S':'
asbag60
(g81
g62
NtRp185
(dp186
g65
(dp187
sg74
g172
sg67
(lp188
g60
(g61
g62
NtRp189
(dp190
g65
(dp191
g73
I5
ssg74
g185
sg67
(lp192
S'127.0.0.1'
p193
asbasbasbag60
(g76
g62
NtRp194
(dp195
g65
(dp196
sg74
g70
sg67
(lp197
g60
(g81
g62
NtRp198
(dp199
g65
(dp200
g85
g86
ssg74
g194
sg67
(lp201
S'controller'
p202
asbag60
(g81
g62
NtRp203
(dp204
g65
(dp205
g92
g93
ssg74
g194
sg67
(lp206
S':'
asbag60
(g81
g62
NtRp207
(dp208
g65
(dp209
sg74
g194
sg67
(lp210
g60
(g61
g62
NtRp211
(dp212
g65
(dp213
g73
I5
ssg74
g207
sg67
(lp214
S'default'
p215
asbasbasbag60
(g76
g62
NtRp216
(dp217
g65
(dp218
sg74
g70
sg67
(lp219
g60
(g81
g62
NtRp220
(dp221
g65
(dp222
g85
g86
ssg74
g216
sg67
(lp223
S'cookies'
p224
asbag60
(g81
g62
NtRp225
(dp226
g65
(dp227
g92
g93
ssg74
g216
sg67
(lp228
S':'
asbag60
(g81
g62
NtRp229
(dp230
g65
(dp231
sg74
g216
sg67
(lp232
g60
(g61
g62
NtRp233
(dp234
g65
(dp235
g73
I5
ssg74
g229
sg67
(lp236
g60
(g69
g62
NtRp237
(dp238
g65
(dp239
g73
I4
ssg74
Nsg67
(lp240
g60
(g76
g62
NtRp241
(dp242
g65
(dp243
sg74
g237
sg67
(lp244
g60
(g81
g62
NtRp245
(dp246
g65
(dp247
g85
g86
ssg74
g241
sg67
(lp248
S'session_id_admin'
p249
asbag60
(g81
g62
NtRp250
(dp251
g65
(dp252
g92
g93
ssg74
g241
sg67
(lp253
S':'
asbag60
(g81
g62
NtRp254
(dp255
g65
(dp256
sg74
g241
sg67
(lp257
g60
(g61
g62
NtRp258
(dp259
g65
(dp260
g73
I4
ssg74
g254
sg67
(lp261
g60
(g69
g62
NtRp262
(dp263
g65
(dp264
g73
I3
ssg74
Nsg67
(lp265
g60
(g76
g62
NtRp266
(dp267
g65
(dp268
sg74
g262
sg67
(lp269
g60
(g81
g62
NtRp270
(dp271
g65
(dp272
g85
g86
ssg74
g266
sg67
(lp273
S'comment'
p274
asbag60
(g81
g62
NtRp275
(dp276
g65
(dp277
g92
g93
ssg74
g266
sg67
(lp278
S':'
asbag60
(g81
g62
NtRp279
(dp280
g65
(dp281
sg74
g266
sg67
(lp282
g60
(g61
g62
NtRp283
(dp284
g65
(dp285
g73
I3
ssg74
g279
sg67
(lp286
S''
asbasbasbag60
(g76
g62
NtRp287
(dp288
g65
(dp289
sg74
g262
sg67
(lp290
g60
(g81
g62
NtRp291
(dp292
g65
(dp293
g85
g86
ssg74
g287
sg67
(lp294
S'domain'
p295
asbag60
(g81
g62
NtRp296
(dp297
g65
(dp298
g92
g93
ssg74
g287
sg67
(lp299
S':'
asbag60
(g81
g62
NtRp300
(dp301
g65
(dp302
sg74
g287
sg67
(lp303
g60
(g61
g62
NtRp304
(dp305
g65
(dp306
g73
I3
ssg74
g300
sg67
(lp307
S''
asbasbasbag60
(g76
g62
NtRp308
(dp309
g65
(dp310
sg74
g262
sg67
(lp311
g60
(g81
g62
NtRp312
(dp313
g65
(dp314
g85
g86
ssg74
g308
sg67
(lp315
S'expires'
p316
asbag60
(g81
g62
NtRp317
(dp318
g65
(dp319
g92
g93
ssg74
g308
sg67
(lp320
S':'
asbag60
(g81
g62
NtRp321
(dp322
g65
(dp323
sg74
g308
sg67
(lp324
g60
(g61
g62
NtRp325
(dp326
g65
(dp327
g73
I3
ssg74
g321
sg67
(lp328
S''
asbasbasbag60
(g76
g62
NtRp329
(dp330
g65
(dp331
sg74
g262
sg67
(lp332
g60
(g81
g62
NtRp333
(dp334
g65
(dp335
g85
g86
ssg74
g329
sg67
(lp336
S'httponly'
p337
asbag60
(g81
g62
NtRp338
(dp339
g65
(dp340
g92
g93
ssg74
g329
sg67
(lp341
S':'
asbag60
(g81
g62
NtRp342
(dp343
g65
(dp344
sg74
g329
sg67
(lp345
g60
(g61
g62
NtRp346
(dp347
g65
(dp348
g73
I3
ssg74
g342
sg67
(lp349
S''
asbasbasbag60
(g76
g62
NtRp350
(dp351
g65
(dp352
sg74
g262
sg67
(lp353
g60
(g81
g62
NtRp354
(dp355
g65
(dp356
g85
g86
ssg74
g350
sg67
(lp357
S'max-age'
p358
asbag60
(g81
g62
NtRp359
(dp360
g65
(dp361
g92
g93
ssg74
g350
sg67
(lp362
S':'
asbag60
(g81
g62
NtRp363
(dp364
g65
(dp365
sg74
g350
sg67
(lp366
g60
(g61
g62
NtRp367
(dp368
g65
(dp369
g73
I3
ssg74
g363
sg67
(lp370
S''
asbasbasbag60
(g76
g62
NtRp371
(dp372
g65
(dp373
sg74
g262
sg67
(lp374
g60
(g81
g62
NtRp375
(dp376
g65
(dp377
g85
g86
ssg74
g371
sg67
(lp378
S'path'
p379
asbag60
(g81
g62
NtRp380
(dp381
g65
(dp382
g92
g93
ssg74
g371
sg67
(lp383
S':'
asbag60
(g81
g62
NtRp384
(dp385
g65
(dp386
sg74
g371
sg67
(lp387
g60
(g61
g62
NtRp388
(dp389
g65
(dp390
g73
I3
ssg74
g384
sg67
(lp391
S''
asbasbasbag60
(g76
g62
NtRp392
(dp393
g65
(dp394
sg74
g262
sg67
(lp395
g60
(g81
g62
NtRp396
(dp397
g65
(dp398
g85
g86
ssg74
g392
sg67
(lp399
S'secure'
p400
asbag60
(g81
g62
NtRp401
(dp402
g65
(dp403
g92
g93
ssg74
g392
sg67
(lp404
S':'
asbag60
(g81
g62
NtRp405
(dp406
g65
(dp407
sg74
g392
sg67
(lp408
g60
(g61
g62
NtRp409
(dp410
g65
(dp411
g73
I3
ssg74
g405
sg67
(lp412
S''
asbasbasbag60
(g76
g62
NtRp413
(dp414
g65
(dp415
sg74
g262
sg67
(lp416
g60
(g81
g62
NtRp417
(dp418
g65
(dp419
g85
g86
ssg74
g413
sg67
(lp420
S'version'
p421
asbag60
(g81
g62
NtRp422
(dp423
g65
(dp424
g92
g93
ssg74
g413
sg67
(lp425
S':'
asbag60
(g81
g62
NtRp426
(dp427
g65
(dp428
sg74
g413
sg67
(lp429
g60
(g61
g62
NtRp430
(dp431
g65
(dp432
g73
I3
ssg74
g426
sg67
(lp433
S''
asbasbasbasbasbasbasbag60
(g76
g62
NtRp434
(dp435
g65
(dp436
sg74
g237
sg67
(lp437
g60
(g81
g62
NtRp438
(dp439
g65
(dp440
g85
g86
ssg74
g434
sg67
(lp441
S'session_id_streamlog'
p442
asbag60
(g81
g62
NtRp443
(dp444
g65
(dp445
g92
g93
ssg74
g434
sg67
(lp446
S':'
asbag60
(g81
g62
NtRp447
(dp448
g65
(dp449
sg74
g434
sg67
(lp450
g60
(g61
g62
NtRp451
(dp452
g65
(dp453
g73
I4
ssg74
g447
sg67
(lp454
g60
(g69
g62
NtRp455
(dp456
g65
(dp457
g73
I3
ssg74
Nsg67
(lp458
g60
(g76
g62
NtRp459
(dp460
g65
(dp461
sg74
g455
sg67
(lp462
g60
(g81
g62
NtRp463
(dp464
g65
(dp465
g85
g86
ssg74
g459
sg67
(lp466
g274
asbag60
(g81
g62
NtRp467
(dp468
g65
(dp469
g92
g93
ssg74
g459
sg67
(lp470
S':'
asbag60
(g81
g62
NtRp471
(dp472
g65
(dp473
sg74
g459
sg67
(lp474
g60
(g61
g62
NtRp475
(dp476
g65
(dp477
g73
I3
ssg74
g471
sg67
(lp478
S''
asbasbasbag60
(g76
g62
NtRp479
(dp480
g65
(dp481
sg74
g455
sg67
(lp482
g60
(g81
g62
NtRp483
(dp484
g65
(dp485
g85
g86
ssg74
g479
sg67
(lp486
g295
asbag60
(g81
g62
NtRp487
(dp488
g65
(dp489
g92
g93
ssg74
g479
sg67
(lp490
S':'
asbag60
(g81
g62
NtRp491
(dp492
g65
(dp493
sg74
g479
sg67
(lp494
g60
(g61
g62
NtRp495
(dp496
g65
(dp497
g73
I3
ssg74
g491
sg67
(lp498
S''
asbasbasbag60
(g76
g62
NtRp499
(dp500
g65
(dp501
sg74
g455
sg67
(lp502
g60
(g81
g62
NtRp503
(dp504
g65
(dp505
g85
g86
ssg74
g499
sg67
(lp506
g316
asbag60
(g81
g62
NtRp507
(dp508
g65
(dp509
g92
g93
ssg74
g499
sg67
(lp510
S':'
asbag60
(g81
g62
NtRp511
(dp512
g65
(dp513
sg74
g499
sg67
(lp514
g60
(g61
g62
NtRp515
(dp516
g65
(dp517
g73
I3
ssg74
g511
sg67
(lp518
S''
asbasbasbag60
(g76
g62
NtRp519
(dp520
g65
(dp521
sg74
g455
sg67
(lp522
g60
(g81
g62
NtRp523
(dp524
g65
(dp525
g85
g86
ssg74
g519
sg67
(lp526
g337
asbag60
(g81
g62
NtRp527
(dp528
g65
(dp529
g92
g93
ssg74
g519
sg67
(lp530
S':'
asbag60
(g81
g62
NtRp531
(dp532
g65
(dp533
sg74
g519
sg67
(lp534
g60
(g61
g62
NtRp535
(dp536
g65
(dp537
g73
I3
ssg74
g531
sg67
(lp538
S''
asbasbasbag60
(g76
g62
NtRp539
(dp540
g65
(dp541
sg74
g455
sg67
(lp542
g60
(g81
g62
NtRp543
(dp544
g65
(dp545
g85
g86
ssg74
g539
sg67
(lp546
g358
asbag60
(g81
g62
NtRp547
(dp548
g65
(dp549
g92
g93
ssg74
g539
sg67
(lp550
S':'
asbag60
(g81
g62
NtRp551
(dp552
g65
(dp553
sg74
g539
sg67
(lp554
g60
(g61
g62
NtRp555
(dp556
g65
(dp557
g73
I3
ssg74
g551
sg67
(lp558
S''
asbasbasbag60
(g76
g62
NtRp559
(dp560
g65
(dp561
sg74
g455
sg67
(lp562
g60
(g81
g62
NtRp563
(dp564
g65
(dp565
g85
g86
ssg74
g559
sg67
(lp566
g379
asbag60
(g81
g62
NtRp567
(dp568
g65
(dp569
g92
g93
ssg74
g559
sg67
(lp570
S':'
asbag60
(g81
g62
NtRp571
(dp572
g65
(dp573
sg74
g559
sg67
(lp574
g60
(g61
g62
NtRp575
(dp576
g65
(dp577
g73
I3
ssg74
g571
sg67
(lp578
S''
asbasbasbag60
(g76
g62
NtRp579
(dp580
g65
(dp581
sg74
g455
sg67
(lp582
g60
(g81
g62
NtRp583
(dp584
g65
(dp585
g85
g86
ssg74
g579
sg67
(lp586
g400
asbag60
(g81
g62
NtRp587
(dp588
g65
(dp589
g92
g93
ssg74
g579
sg67
(lp590
S':'
asbag60
(g81
g62
NtRp591
(dp592
g65
(dp593
sg74
g579
sg67
(lp594
g60
(g61
g62
NtRp595
(dp596
g65
(dp597
g73
I3
ssg74
g591
sg67
(lp598
S''
asbasbasbag60
(g76
g62
NtRp599
(dp600
g65
(dp601
sg74
g455
sg67
(lp602
g60
(g81
g62
NtRp603
(dp604
g65
(dp605
g85
g86
ssg74
g599
sg67
(lp606
g421
asbag60
(g81
g62
NtRp607
(dp608
g65
(dp609
g92
g93
ssg74
g599
sg67
(lp610
S':'
asbag60
(g81
g62
NtRp611
(dp612
g65
(dp613
sg74
g599
sg67
(lp614
g60
(g61
g62
NtRp615
(dp616
g65
(dp617
g73
I3
ssg74
g611
sg67
(lp618
S''
asbasbasbasbasbasbasbag60
(g76
g62
NtRp619
(dp620
g65
(dp621
sg74
g237
sg67
(lp622
g60
(g81
g62
NtRp623
(dp624
g65
(dp625
g85
g86
ssg74
g619
sg67
(lp626
S'session_id_test3'
p627
asbag60
(g81
g62
NtRp628
(dp629
g65
(dp630
g92
g93
ssg74
g619
sg67
(lp631
S':'
asbag60
(g81
g62
NtRp632
(dp633
g65
(dp634
sg74
g619
sg67
(lp635
g60
(g61
g62
NtRp636
(dp637
g65
(dp638
g73
I4
ssg74
g632
sg67
(lp639
g60
(g69
g62
NtRp640
(dp641
g65
(dp642
g73
I3
ssg74
Nsg67
(lp643
g60
(g76
g62
NtRp644
(dp645
g65
(dp646
sg74
g640
sg67
(lp647
g60
(g81
g62
NtRp648
(dp649
g65
(dp650
g85
g86
ssg74
g644
sg67
(lp651
g274
asbag60
(g81
g62
NtRp652
(dp653
g65
(dp654
g92
g93
ssg74
g644
sg67
(lp655
S':'
asbag60
(g81
g62
NtRp656
(dp657
g65
(dp658
sg74
g644
sg67
(lp659
g60
(g61
g62
NtRp660
(dp661
g65
(dp662
g73
I3
ssg74
g656
sg67
(lp663
S''
asbasbasbag60
(g76
g62
NtRp664
(dp665
g65
(dp666
sg74
g640
sg67
(lp667
g60
(g81
g62
NtRp668
(dp669
g65
(dp670
g85
g86
ssg74
g664
sg67
(lp671
g295
asbag60
(g81
g62
NtRp672
(dp673
g65
(dp674
g92
g93
ssg74
g664
sg67
(lp675
S':'
asbag60
(g81
g62
NtRp676
(dp677
g65
(dp678
sg74
g664
sg67
(lp679
g60
(g61
g62
NtRp680
(dp681
g65
(dp682
g73
I3
ssg74
g676
sg67
(lp683
S''
asbasbasbag60
(g76
g62
NtRp684
(dp685
g65
(dp686
sg74
g640
sg67
(lp687
g60
(g81
g62
NtRp688
(dp689
g65
(dp690
g85
g86
ssg74
g684
sg67
(lp691
g316
asbag60
(g81
g62
NtRp692
(dp693
g65
(dp694
g92
g93
ssg74
g684
sg67
(lp695
S':'
asbag60
(g81
g62
NtRp696
(dp697
g65
(dp698
sg74
g684
sg67
(lp699
g60
(g61
g62
NtRp700
(dp701
g65
(dp702
g73
I3
ssg74
g696
sg67
(lp703
S''
asbasbasbag60
(g76
g62
NtRp704
(dp705
g65
(dp706
sg74
g640
sg67
(lp707
g60
(g81
g62
NtRp708
(dp709
g65
(dp710
g85
g86
ssg74
g704
sg67
(lp711
g337
asbag60
(g81
g62
NtRp712
(dp713
g65
(dp714
g92
g93
ssg74
g704
sg67
(lp715
S':'
asbag60
(g81
g62
NtRp716
(dp717
g65
(dp718
sg74
g704
sg67
(lp719
g60
(g61
g62
NtRp720
(dp721
g65
(dp722
g73
I3
ssg74
g716
sg67
(lp723
S''
asbasbasbag60
(g76
g62
NtRp724
(dp725
g65
(dp726
sg74
g640
sg67
(lp727
g60
(g81
g62
NtRp728
(dp729
g65
(dp730
g85
g86
ssg74
g724
sg67
(lp731
g358
asbag60
(g81
g62
NtRp732
(dp733
g65
(dp734
g92
g93
ssg74
g724
sg67
(lp735
S':'
asbag60
(g81
g62
NtRp736
(dp737
g65
(dp738
sg74
g724
sg67
(lp739
g60
(g61
g62
NtRp740
(dp741
g65
(dp742
g73
I3
ssg74
g736
sg67
(lp743
S''
asbasbasbag60
(g76
g62
NtRp744
(dp745
g65
(dp746
sg74
g640
sg67
(lp747
g60
(g81
g62
NtRp748
(dp749
g65
(dp750
g85
g86
ssg74
g744
sg67
(lp751
g379
asbag60
(g81
g62
NtRp752
(dp753
g65
(dp754
g92
g93
ssg74
g744
sg67
(lp755
S':'
asbag60
(g81
g62
NtRp756
(dp757
g65
(dp758
sg74
g744
sg67
(lp759
g60
(g61
g62
NtRp760
(dp761
g65
(dp762
g73
I3
ssg74
g756
sg67
(lp763
S''
asbasbasbag60
(g76
g62
NtRp764
(dp765
g65
(dp766
sg74
g640
sg67
(lp767
g60
(g81
g62
NtRp768
(dp769
g65
(dp770
g85
g86
ssg74
g764
sg67
(lp771
g400
asbag60
(g81
g62
NtRp772
(dp773
g65
(dp774
g92
g93
ssg74
g764
sg67
(lp775
S':'
asbag60
(g81
g62
NtRp776
(dp777
g65
(dp778
sg74
g764
sg67
(lp779
g60
(g61
g62
NtRp780
(dp781
g65
(dp782
g73
I3
ssg74
g776
sg67
(lp783
S''
asbasbasbag60
(g76
g62
NtRp784
(dp785
g65
(dp786
sg74
g640
sg67
(lp787
g60
(g81
g62
NtRp788
(dp789
g65
(dp790
g85
g86
ssg74
g784
sg67
(lp791
g421
asbag60
(g81
g62
NtRp792
(dp793
g65
(dp794
g92
g93
ssg74
g784
sg67
(lp795
S':'
asbag60
(g81
g62
NtRp796
(dp797
g65
(dp798
sg74
g784
sg67
(lp799
g60
(g61
g62
NtRp800
(dp801
g65
(dp802
g73
I3
ssg74
g796
sg67
(lp803
S''
asbasbasbasbasbasbasbasbasbasbasbag60
(g76
g62
NtRp804
(dp805
g65
(dp806
sg74
g70
sg67
(lp807
g60
(g81
g62
NtRp808
(dp809
g65
(dp810
g85
g86
ssg74
g804
sg67
(lp811
S'env'
p812
asbag60
(g81
g62
NtRp813
(dp814
g65
(dp815
g92
g93
ssg74
g804
sg67
(lp816
S':'
asbag60
(g81
g62
NtRp817
(dp818
g65
(dp819
sg74
g804
sg67
(lp820
g60
(g61
g62
NtRp821
(dp822
g65
(dp823
g73
I5
ssg74
g817
sg67
(lp824
g60
(g69
g62
NtRp825
(dp826
g65
(dp827
g73
I4
ssg74
Nsg67
(lp828
g60
(g76
g62
NtRp829
(dp830
g65
(dp831
sg74
g825
sg67
(lp832
g60
(g81
g62
NtRp833
(dp834
g65
(dp835
g85
g86
ssg74
g829
sg67
(lp836
S'app_folders'
p837
asbag60
(g81
g62
NtRp838
(dp839
g65
(dp840
g92
g93
ssg74
g829
sg67
(lp841
S':'
asbag60
(g81
g62
NtRp842
(dp843
g65
(dp844
sg74
g829
sg67
(lp845
g60
(g61
g62
NtRp846
(dp847
g65
(dp848
g73
I4
ssg74
g842
sg67
(lp849
S"set(['/home/jose/DESARROLLO/web2py199/applications/streamlog/', '/home/jose/DESARROLLO/web2py199/applications/admin/'])"
p850
asbasbasbag60
(g76
g62
NtRp851
(dp852
g65
(dp853
sg74
g825
sg67
(lp854
g60
(g81
g62
NtRp855
(dp856
g65
(dp857
g85
g86
ssg74
g851
sg67
(lp858
S'applications_parent'
p859
asbag60
(g81
g62
NtRp860
(dp861
g65
(dp862
g92
g93
ssg74
g851
sg67
(lp863
S':'
asbag60
(g81
g62
NtRp864
(dp865
g65
(dp866
sg74
g851
sg67
(lp867
g60
(g61
g62
NtRp868
(dp869
g65
(dp870
g73
I4
ssg74
g864
sg67
(lp871
S'/home/jose/DESARROLLO/web2py199'
p872
asbasbasbag60
(g76
g62
NtRp873
(dp874
g65
(dp875
sg74
g825
sg67
(lp876
g60
(g81
g62
NtRp877
(dp878
g65
(dp879
g85
g86
ssg74
g873
sg67
(lp880
S'cmd_args'
p881
asbag60
(g81
g62
NtRp882
(dp883
g65
(dp884
g92
g93
ssg74
g873
sg67
(lp885
S':'
asbag60
(g81
g62
NtRp886
(dp887
g65
(dp888
sg74
g873
sg67
(lp889
g60
(g61
g62
NtRp890
(dp891
g65
(dp892
g73
I4
ssg74
g886
sg67
(lp893
g60
(g69
g62
NtRp894
(dp895
g65
(dp896
g73
I3
ssg74
Nsg67
(lp897
sbasbasbasbag60
(g76
g62
NtRp898
(dp899
g65
(dp900
sg74
g825
sg67
(lp901
g60
(g81
g62
NtRp902
(dp903
g65
(dp904
g85
g86
ssg74
g898
sg67
(lp905
S'cmd_options'
p906
asbag60
(g81
g62
NtRp907
(dp908
g65
(dp909
g92
g93
ssg74
g898
sg67
(lp910
S':'
asbag60
(g81
g62
NtRp911
(dp912
g65
(dp913
sg74
g898
sg67
(lp914
g60
(g61
g62
NtRp915
(dp916
g65
(dp917
g73
I4
ssg74
g911
sg67
(lp918
S"<Values at 0x2a2ff80: {'verbose': False, 'ip': '127.0.0.1', 'shutdown_timeout': 5, 'taskbar': False, 'nocron': False, 'pid_filename': 'httpserver.pid', 'maxthreads': None, 'softcron': False, 'server_name': 'jose', 'bpython': False, 'nogui': False, 'port': 8000, 'extcron': False, 'debuglevel': 30, 'test': None, 'folder': '/home/jose/DESARROLLO/web2py199', 'config': '', 'import_models': False, 'winservice': '', 'shell': None, 'run': '', 'log_filename': 'httpserver.log', 'args': [''], 'ssl_ca_certificate': None, 'scheduler': None, 'profiler_filename': None, 'ssl_private_key': '', 'password': 't', 'request_queue_size': 5, 'ssl_certificate': '', 'cronjob': False, 'plain': False, 'quiet': False, 'interfaces': None, 'minthreads': None, 'timeout': 10, 'numthreads': None, 'nobanner': False}>"
p919
asbasbasbag60
(g76
g62
NtRp920
(dp921
g65
(dp922
sg74
g825
sg67
(lp923
g60
(g81
g62
NtRp924
(dp925
g65
(dp926
g85
g86
ssg74
g920
sg67
(lp927
S'db_sessions'
p928
asbag60
(g81
g62
NtRp929
(dp930
g65
(dp931
g92
g93
ssg74
g920
sg67
(lp932
S':'
asbag60
(g81
g62
NtRp933
(dp934
g65
(dp935
sg74
g920
sg67
(lp936
g60
(g61
g62
NtRp937
(dp938
g65
(dp939
g73
I4
ssg74
g933
sg67
(lp940
S'set([])'
p941
asbasbasbag60
(g76
g62
NtRp942
(dp943
g65
(dp944
sg74
g825
sg67
(lp945
g60
(g81
g62
NtRp946
(dp947
g65
(dp948
g85
g86
ssg74
g942
sg67
(lp949
S'debugging'
p950
asbag60
(g81
g62
NtRp951
(dp952
g65
(dp953
g92
g93
ssg74
g942
sg67
(lp954
S':'
asbag60
(g81
g62
NtRp955
(dp956
g65
(dp957
sg74
g942
sg67
(lp958
g60
(g61
g62
NtRp959
(dp960
g65
(dp961
g73
I4
ssg74
g955
sg67
(lp962
g103
asbasbasbag60
(g76
g62
NtRp963
(dp964
g65
(dp965
sg74
g825
sg67
(lp966
g60
(g81
g62
NtRp967
(dp968
g65
(dp969
g85
g86
ssg74
g963
sg67
(lp970
S'gluon_parent'
p971
asbag60
(g81
g62
NtRp972
(dp973
g65
(dp974
g92
g93
ssg74
g963
sg67
(lp975
S':'
asbag60
(g81
g62
NtRp976
(dp977
g65
(dp978
sg74
g963
sg67
(lp979
g60
(g61
g62
NtRp980
(dp981
g65
(dp982
g73
I4
ssg74
g976
sg67
(lp983
S'/home/jose/DESARROLLO/web2py199'
p984
asbasbasbag60
(g76
g62
NtRp985
(dp986
g65
(dp987
sg74
g825
sg67
(lp988
g60
(g81
g62
NtRp989
(dp990
g65
(dp991
g85
g86
ssg74
g985
sg67
(lp992
S'http_accept'
p993
asbag60
(g81
g62
NtRp994
(dp995
g65
(dp996
g92
g93
ssg74
g985
sg67
(lp997
S':'
asbag60
(g81
g62
NtRp998
(dp999
g65
(dp1000
sg74
g985
sg67
(lp1001
g60
(g61
g62
NtRp1002
(dp1003
g65
(dp1004
g73
I4
ssg74
g998
sg67
(lp1005
S'text/html,application/xhtml+xml,application/xml;q=0.9,*/*;q=0.8'
p1006
asbasbasbag60
(g76
g62
NtRp1007
(dp1008
g65
(dp1009
sg74
g825
sg67
(lp1010
g60
(g81
g62
NtRp1011
(dp1012
g65
(dp1013
g85
g86
ssg74
g1007
sg67
(lp1014
S'http_accept_encoding'
p1015
asbag60
(g81
g62
NtRp1016
(dp1017
g65
(dp1018
g92
g93
ssg74
g1007
sg67
(lp1019
S':'
asbag60
(g81
g62
NtRp1020
(dp1021
g65
(dp1022
sg74
g1007
sg67
(lp1023
g60
(g61
g62
NtRp1024
(dp1025
g65
(dp1026
g73
I4
ssg74
g1020
sg67
(lp1027
S'gzip, deflate'
p1028
asbasbasbag60
(g76
g62
NtRp1029
(dp1030
g65
(dp1031
sg74
g825
sg67
(lp1032
g60
(g81
g62
NtRp1033
(dp1034
g65
(dp1035
g85
g86
ssg74
g1029
sg67
(lp1036
S'http_accept_language'
p1037
asbag60
(g81
g62
NtRp1038
(dp1039
g65
(dp1040
g92
g93
ssg74
g1029
sg67
(lp1041
S':'
asbag60
(g81
g62
NtRp1042
(dp1043
g65
(dp1044
sg74
g1029
sg67
(lp1045
g60
(g61
g62
NtRp1046
(dp1047
g65
(dp1048
g73
I4
ssg74
g1042
sg67
(lp1049
S'en-us,en;q=0.5'
p1050
asbasbasbag60
(g76
g62
NtRp1051
(dp1052
g65
(dp1053
sg74
g825
sg67
(lp1054
g60
(g81
g62
NtRp1055
(dp1056
g65
(dp1057
g85
g86
ssg74
g1051
sg67
(lp1058
S'http_cache_control'
p1059
asbag60
(g81
g62
NtRp1060
(dp1061
g65
(dp1062
g92
g93
ssg74
g1051
sg67
(lp1063
S':'
asbag60
(g81
g62
NtRp1064
(dp1065
g65
(dp1066
sg74
g1051
sg67
(lp1067
g60
(g61
g62
NtRp1068
(dp1069
g65
(dp1070
g73
I4
ssg74
g1064
sg67
(lp1071
S'max-age=0'
p1072
asbasbasbag60
(g76
g62
NtRp1073
(dp1074
g65
(dp1075
sg74
g825
sg67
(lp1076
g60
(g81
g62
NtRp1077
(dp1078
g65
(dp1079
g85
g86
ssg74
g1073
sg67
(lp1080
S'http_connection'
p1081
asbag60
(g81
g62
NtRp1082
(dp1083
g65
(dp1084
g92
g93
ssg74
g1073
sg67
(lp1085
S':'
asbag60
(g81
g62
NtRp1086
(dp1087
g65
(dp1088
sg74
g1073
sg67
(lp1089
g60
(g61
g62
NtRp1090
(dp1091
g65
(dp1092
g73
I4
ssg74
g1086
sg67
(lp1093
S'keep-alive'
p1094
asbasbasbag60
(g76
g62
NtRp1095
(dp1096
g65
(dp1097
sg74
g825
sg67
(lp1098
g60
(g81
g62
NtRp1099
(dp1100
g65
(dp1101
g85
g86
ssg74
g1095
sg67
(lp1102
S'http_cookie'
p1103
asbag60
(g81
g62
NtRp1104
(dp1105
g65
(dp1106
g92
g93
ssg74
g1095
sg67
(lp1107
S':'
asbag60
(g81
g62
NtRp1108
(dp1109
g65
(dp1110
sg74
g1095
sg67
(lp1111
g60
(g61
g62
NtRp1112
(dp1113
g65
(dp1114
g73
I4
ssg74
g1108
sg67
(lp1115
S'session_id_test3=127.0.0.1-380e7b29-b635-4690-b9ca-812870d6a061; session_id_admin=127.0.0.1-9b4c5961-ad99-4e9d-9992-13f3450e53e5; session_id_streamlog=127.0.0.1-610b0c7d-3f6f-4500-a76a-b095fb30f7fd'
p1116
asbasbasbag60
(g76
g62
NtRp1117
(dp1118
g65
(dp1119
sg74
g825
sg67
(lp1120
g60
(g81
g62
NtRp1121
(dp1122
g65
(dp1123
g85
g86
ssg74
g1117
sg67
(lp1124
S'http_host'
p1125
asbag60
(g81
g62
NtRp1126
(dp1127
g65
(dp1128
g92
g93
ssg74
g1117
sg67
(lp1129
S':'
asbag60
(g81
g62
NtRp1130
(dp1131
g65
(dp1132
sg74
g1117
sg67
(lp1133
g60
(g61
g62
NtRp1134
(dp1135
g65
(dp1136
g73
I4
ssg74
g1130
sg67
(lp1137
S'localhost:8000'
p1138
asbasbasbag60
(g76
g62
NtRp1139
(dp1140
g65
(dp1141
sg74
g825
sg67
(lp1142
g60
(g81
g62
NtRp1143
(dp1144
g65
(dp1145
g85
g86
ssg74
g1139
sg67
(lp1146
S'http_referer'
p1147
asbag60
(g81
g62
NtRp1148
(dp1149
g65
(dp1150
g92
g93
ssg74
g1139
sg67
(lp1151
S':'
asbag60
(g81
g62
NtRp1152
(dp1153
g65
(dp1154
sg74
g1139
sg67
(lp1155
g60
(g61
g62
NtRp1156
(dp1157
g65
(dp1158
g73
I4
ssg74
g1152
sg67
(lp1159
S'http://localhost:8000/streamlog/default/index'
p1160
asbasbasbag60
(g76
g62
NtRp1161
(dp1162
g65
(dp1163
sg74
g825
sg67
(lp1164
g60
(g81
g62
NtRp1165
(dp1166
g65
(dp1167
g85
g86
ssg74
g1161
sg67
(lp1168
S'http_user_agent'
p1169
asbag60
(g81
g62
NtRp1170
(dp1171
g65
(dp1172
g92
g93
ssg74
g1161
sg67
(lp1173
S':'
asbag60
(g81
g62
NtRp1174
(dp1175
g65
(dp1176
sg74
g1161
sg67
(lp1177
g60
(g61
g62
NtRp1178
(dp1179
g65
(dp1180
g73
I4
ssg74
g1174
sg67
(lp1181
S'Mozilla/5.0 (X11; Ubuntu; Linux x86_64; rv:12.0) Gecko/20100101 Firefox/12.0'
p1182
asbasbasbag60
(g76
g62
NtRp1183
(dp1184
g65
(dp1185
sg74
g825
sg67
(lp1186
g60
(g81
g62
NtRp1187
(dp1188
g65
(dp1189
g85
g86
ssg74
g1183
sg67
(lp1190
S'is_jython'
p1191
asbag60
(g81
g62
NtRp1192
(dp1193
g65
(dp1194
g92
g93
ssg74
g1183
sg67
(lp1195
S':'
asbag60
(g81
g62
NtRp1196
(dp1197
g65
(dp1198
sg74
g1183
sg67
(lp1199
g60
(g61
g62
NtRp1200
(dp1201
g65
(dp1202
g73
I4
ssg74
g1196
sg67
(lp1203
g103
asbasbasbag60
(g76
g62
NtRp1204
(dp1205
g65
(dp1206
sg74
g825
sg67
(lp1207
g60
(g81
g62
NtRp1208
(dp1209
g65
(dp1210
g85
g86
ssg74
g1204
sg67
(lp1211
S'path_info'
p1212
asbag60
(g81
g62
NtRp1213
(dp1214
g65
(dp1215
g92
g93
ssg74
g1204
sg67
(lp1216
S':'
asbag60
(g81
g62
NtRp1217
(dp1218
g65
(dp1219
sg74
g1204
sg67
(lp1220
g60
(g61
g62
NtRp1221
(dp1222
g65
(dp1223
g73
I4
ssg74
g1217
sg67
(lp1224
S'/streamlog/default/type_log_manage'
p1225
asbasbasbag60
(g76
g62
NtRp1226
(dp1227
g65
(dp1228
sg74
g825
sg67
(lp1229
g60
(g81
g62
NtRp1230
(dp1231
g65
(dp1232
g85
g86
ssg74
g1226
sg67
(lp1233
S'query_string'
p1234
asbag60
(g81
g62
NtRp1235
(dp1236
g65
(dp1237
g92
g93
ssg74
g1226
sg67
(lp1238
S':'
asbag60
(g81
g62
NtRp1239
(dp1240
g65
(dp1241
sg74
g1226
sg67
(lp1242
g60
(g61
g62
NtRp1243
(dp1244
g65
(dp1245
g73
I4
ssg74
g1239
sg67
(lp1246
S''
asbasbasbag60
(g76
g62
NtRp1247
(dp1248
g65
(dp1249
sg74
g825
sg67
(lp1250
g60
(g81
g62
NtRp1251
(dp1252
g65
(dp1253
g85
g86
ssg74
g1247
sg67
(lp1254
S'remote_addr'
p1255
asbag60
(g81
g62
NtRp1256
(dp1257
g65
(dp1258
g92
g93
ssg74
g1247
sg67
(lp1259
S':'
asbag60
(g81
g62
NtRp1260
(dp1261
g65
(dp1262
sg74
g1247
sg67
(lp1263
g60
(g61
g62
NtRp1264
(dp1265
g65
(dp1266
g73
I4
ssg74
g1260
sg67
(lp1267
g193
asbasbasbag60
(g76
g62
NtRp1268
(dp1269
g65
(dp1270
sg74
g825
sg67
(lp1271
g60
(g81
g62
NtRp1272
(dp1273
g65
(dp1274
g85
g86
ssg74
g1268
sg67
(lp1275
S'remote_port'
p1276
asbag60
(g81
g62
NtRp1277
(dp1278
g65
(dp1279
g92
g93
ssg74
g1268
sg67
(lp1280
S':'
asbag60
(g81
g62
NtRp1281
(dp1282
g65
(dp1283
sg74
g1268
sg67
(lp1284
g60
(g61
g62
NtRp1285
(dp1286
g65
(dp1287
g73
I4
ssg74
g1281
sg67
(lp1288
S'40347'
p1289
asbasbasbag60
(g76
g62
NtRp1290
(dp1291
g65
(dp1292
sg74
g825
sg67
(lp1293
g60
(g81
g62
NtRp1294
(dp1295
g65
(dp1296
g85
g86
ssg74
g1290
sg67
(lp1297
S'request_method'
p1298
asbag60
(g81
g62
NtRp1299
(dp1300
g65
(dp1301
g92
g93
ssg74
g1290
sg67
(lp1302
S':'
asbag60
(g81
g62
NtRp1303
(dp1304
g65
(dp1305
sg74
g1290
sg67
(lp1306
g60
(g61
g62
NtRp1307
(dp1308
g65
(dp1309
g73
I4
ssg74
g1303
sg67
(lp1310
S'GET'
p1311
asbasbasbag60
(g76
g62
NtRp1312
(dp1313
g65
(dp1314
sg74
g825
sg67
(lp1315
g60
(g81
g62
NtRp1316
(dp1317
g65
(dp1318
g85
g86
ssg74
g1312
sg67
(lp1319
S'script_name'
p1320
asbag60
(g81
g62
NtRp1321
(dp1322
g65
(dp1323
g92
g93
ssg74
g1312
sg67
(lp1324
S':'
asbag60
(g81
g62
NtRp1325
(dp1326
g65
(dp1327
sg74
g1312
sg67
(lp1328
g60
(g61
g62
NtRp1329
(dp1330
g65
(dp1331
g73
I4
ssg74
g1325
sg67
(lp1332
S''
asbasbasbag60
(g76
g62
NtRp1333
(dp1334
g65
(dp1335
sg74
g825
sg67
(lp1336
g60
(g81
g62
NtRp1337
(dp1338
g65
(dp1339
g85
g86
ssg74
g1333
sg67
(lp1340
S'server_name'
p1341
asbag60
(g81
g62
NtRp1342
(dp1343
g65
(dp1344
g92
g93
ssg74
g1333
sg67
(lp1345
S':'
asbag60
(g81
g62
NtRp1346
(dp1347
g65
(dp1348
sg74
g1333
sg67
(lp1349
g60
(g61
g62
NtRp1350
(dp1351
g65
(dp1352
g73
I4
ssg74
g1346
sg67
(lp1353
S'jose'
p1354
asbasbasbag60
(g76
g62
NtRp1355
(dp1356
g65
(dp1357
sg74
g825
sg67
(lp1358
g60
(g81
g62
NtRp1359
(dp1360
g65
(dp1361
g85
g86
ssg74
g1355
sg67
(lp1362
S'server_port'
p1363
asbag60
(g81
g62
NtRp1364
(dp1365
g65
(dp1366
g92
g93
ssg74
g1355
sg67
(lp1367
S':'
asbag60
(g81
g62
NtRp1368
(dp1369
g65
(dp1370
sg74
g1355
sg67
(lp1371
g60
(g61
g62
NtRp1372
(dp1373
g65
(dp1374
g73
I4
ssg74
g1368
sg67
(lp1375
S'8000'
p1376
asbasbasbag60
(g76
g62
NtRp1377
(dp1378
g65
(dp1379
sg74
g825
sg67
(lp1380
g60
(g81
g62
NtRp1381
(dp1382
g65
(dp1383
g85
g86
ssg74
g1377
sg67
(lp1384
S'server_protocol'
p1385
asbag60
(g81
g62
NtRp1386
(dp1387
g65
(dp1388
g92
g93
ssg74
g1377
sg67
(lp1389
S':'
asbag60
(g81
g62
NtRp1390
(dp1391
g65
(dp1392
sg74
g1377
sg67
(lp1393
g60
(g61
g62
NtRp1394
(dp1395
g65
(dp1396
g73
I4
ssg74
g1390
sg67
(lp1397
S'HTTP/1.1'
p1398
asbasbasbag60
(g76
g62
NtRp1399
(dp1400
g65
(dp1401
sg74
g825
sg67
(lp1402
g60
(g81
g62
NtRp1403
(dp1404
g65
(dp1405
g85
g86
ssg74
g1399
sg67
(lp1406
S'server_software'
p1407
asbag60
(g81
g62
NtRp1408
(dp1409
g65
(dp1410
g92
g93
ssg74
g1399
sg67
(lp1411
S':'
asbag60
(g81
g62
NtRp1412
(dp1413
g65
(dp1414
sg74
g1399
sg67
(lp1415
g60
(g61
g62
NtRp1416
(dp1417
g65
(dp1418
g73
I4
ssg74
g1412
sg67
(lp1419
S'Rocket 1.2.4'
p1420
asbasbasbag60
(g76
g62
NtRp1421
(dp1422
g65
(dp1423
sg74
g825
sg67
(lp1424
g60
(g81
g62
NtRp1425
(dp1426
g65
(dp1427
g85
g86
ssg74
g1421
sg67
(lp1428
S'web2py_crontype'
p1429
asbag60
(g81
g62
NtRp1430
(dp1431
g65
(dp1432
g92
g93
ssg74
g1421
sg67
(lp1433
S':'
asbag60
(g81
g62
NtRp1434
(dp1435
g65
(dp1436
sg74
g1421
sg67
(lp1437
g60
(g61
g62
NtRp1438
(dp1439
g65
(dp1440
g73
I4
ssg74
g1434
sg67
(lp1441
S'hard'
p1442
asbasbasbag60
(g76
g62
NtRp1443
(dp1444
g65
(dp1445
sg74
g825
sg67
(lp1446
g60
(g81
g62
NtRp1447
(dp1448
g65
(dp1449
g85
g86
ssg74
g1443
sg67
(lp1450
S'web2py_path'
p1451
asbag60
(g81
g62
NtRp1452
(dp1453
g65
(dp1454
g92
g93
ssg74
g1443
sg67
(lp1455
S':'
asbag60
(g81
g62
NtRp1456
(dp1457
g65
(dp1458
sg74
g1443
sg67
(lp1459
g60
(g61
g62
NtRp1460
(dp1461
g65
(dp1462
g73
I4
ssg74
g1456
sg67
(lp1463
g872
asbasbasbag60
(g76
g62
NtRp1464
(dp1465
g65
(dp1466
sg74
g825
sg67
(lp1467
g60
(g81
g62
NtRp1468
(dp1469
g65
(dp1470
g85
g86
ssg74
g1464
sg67
(lp1471
S'web2py_version'
p1472
asbag60
(g81
g62
NtRp1473
(dp1474
g65
(dp1475
g92
g93
ssg74
g1464
sg67
(lp1476
S':'
asbag60
(g81
g62
NtRp1477
(dp1478
g65
(dp1479
sg74
g1464
sg67
(lp1480
g60
(g61
g62
NtRp1481
(dp1482
g65
(dp1483
g73
I4
ssg74
g1477
sg67
(lp1484
g60
(g69
g62
NtRp1485
(dp1486
g65
(dp1487
g73
I3
ssg74
Nsg67
(lp1488
g60
(g76
g62
NtRp1489
(dp1490
g65
(dp1491
sg74
g1485
sg67
(lp1492
g60
(g81
g62
NtRp1493
(dp1494
g65
(dp1495
sg74
g1489
sg67
(lp1496
g60
(g61
g62
NtRp1497
(dp1498
g65
(dp1499
g73
I3
ssg74
g1493
sg67
(lp1500
S'1'
asbasbasbag60
(g76
g62
NtRp1501
(dp1502
g65
(dp1503
sg74
g1485
sg67
(lp1504
g60
(g81
g62
NtRp1505
(dp1506
g65
(dp1507
sg74
g1501
sg67
(lp1508
g60
(g61
g62
NtRp1509
(dp1510
g65
(dp1511
g73
I3
ssg74
g1505
sg67
(lp1512
S'99'
p1513
asbasbasbag60
(g76
g62
NtRp1514
(dp1515
g65
(dp1516
sg74
g1485
sg67
(lp1517
g60
(g81
g62
NtRp1518
(dp1519
g65
(dp1520
sg74
g1514
sg67
(lp1521
g60
(g61
g62
NtRp1522
(dp1523
g65
(dp1524
g73
I3
ssg74
g1518
sg67
(lp1525
S'2'
asbasbasbag60
(g76
g62
NtRp1526
(dp1527
g65
(dp1528
sg74
g1485
sg67
(lp1529
g60
(g81
g62
NtRp1530
(dp1531
g65
(dp1532
sg74
g1526
sg67
(lp1533
g60
(g61
g62
NtRp1534
(dp1535
g65
(dp1536
g73
I3
ssg74
g1530
sg67
(lp1537
S'datetime.datetime(2011, 9, 26, 6, 55, 33)'
p1538
asbasbasbag60
(g76
g62
NtRp1539
(dp1540
g65
(dp1541
sg74
g1485
sg67
(lp1542
g60
(g81
g62
NtRp1543
(dp1544
g65
(dp1545
sg74
g1539
sg67
(lp1546
g60
(g61
g62
NtRp1547
(dp1548
g65
(dp1549
g73
I3
ssg74
g1543
sg67
(lp1550
S'stable'
p1551
asbasbasbasbasbasbasbag60
(g76
g62
NtRp1552
(dp1553
g65
(dp1554
sg74
g825
sg67
(lp1555
g60
(g81
g62
NtRp1556
(dp1557
g65
(dp1558
g85
g86
ssg74
g1552
sg67
(lp1559
S'wsgi_errors'
p1560
asbag60
(g81
g62
NtRp1561
(dp1562
g65
(dp1563
g92
g93
ssg74
g1552
sg67
(lp1564
S':'
asbag60
(g81
g62
NtRp1565
(dp1566
g65
(dp1567
sg74
g1552
sg67
(lp1568
g60
(g61
g62
NtRp1569
(dp1570
g65
(dp1571
g73
I4
ssg74
g1565
sg67
(lp1572
S"<open file '<stderr>', mode 'w' at 0x7faf4eae9270>"
p1573
asbasbasbag60
(g76
g62
NtRp1574
(dp1575
g65
(dp1576
sg74
g825
sg67
(lp1577
g60
(g81
g62
NtRp1578
(dp1579
g65
(dp1580
g85
g86
ssg74
g1574
sg67
(lp1581
S'wsgi_file_wrapper'
p1582
asbag60
(g81
g62
NtRp1583
(dp1584
g65
(dp1585
g92
g93
ssg74
g1574
sg67
(lp1586
S':'
asbag60
(g81
g62
NtRp1587
(dp1588
g65
(dp1589
sg74
g1574
sg67
(lp1590
g60
(g61
g62
NtRp1591
(dp1592
g65
(dp1593
g73
I4
ssg74
g1587
sg67
(lp1594
S'<class wsgiref.util.FileWrapper at 0x294cd50>'
p1595
asbasbasbag60
(g76
g62
NtRp1596
(dp1597
g65
(dp1598
sg74
g825
sg67
(lp1599
g60
(g81
g62
NtRp1600
(dp1601
g65
(dp1602
g85
g86
ssg74
g1596
sg67
(lp1603
S'wsgi_input'
p1604
asbag60
(g81
g62
NtRp1605
(dp1606
g65
(dp1607
g92
g93
ssg74
g1596
sg67
(lp1608
S':'
asbag60
(g81
g62
NtRp1609
(dp1610
g65
(dp1611
sg74
g1596
sg67
(lp1612
g60
(g61
g62
NtRp1613
(dp1614
g65
(dp1615
g73
I4
ssg74
g1609
sg67
(lp1616
S'<socket._fileobject object at 0x31579d0>'
p1617
asbasbasbag60
(g76
g62
NtRp1618
(dp1619
g65
(dp1620
sg74
g825
sg67
(lp1621
g60
(g81
g62
NtRp1622
(dp1623
g65
(dp1624
g85
g86
ssg74
g1618
sg67
(lp1625
S'wsgi_multiprocess'
p1626
asbag60
(g81
g62
NtRp1627
(dp1628
g65
(dp1629
g92
g93
ssg74
g1618
sg67
(lp1630
S':'
asbag60
(g81
g62
NtRp1631
(dp1632
g65
(dp1633
sg74
g1618
sg67
(lp1634
g60
(g61
g62
NtRp1635
(dp1636
g65
(dp1637
g73
I4
ssg74
g1631
sg67
(lp1638
g103
asbasbasbag60
(g76
g62
NtRp1639
(dp1640
g65
(dp1641
sg74
g825
sg67
(lp1642
g60
(g81
g62
NtRp1643
(dp1644
g65
(dp1645
g85
g86
ssg74
g1639
sg67
(lp1646
S'wsgi_multithread'
p1647
asbag60
(g81
g62
NtRp1648
(dp1649
g65
(dp1650
g92
g93
ssg74
g1639
sg67
(lp1651
S':'
asbag60
(g81
g62
NtRp1652
(dp1653
g65
(dp1654
sg74
g1639
sg67
(lp1655
g60
(g61
g62
NtRp1656
(dp1657
g65
(dp1658
g73
I4
ssg74
g1652
sg67
(lp1659
S'True'
p1660
asbasbasbag60
(g76
g62
NtRp1661
(dp1662
g65
(dp1663
sg74
g825
sg67
(lp1664
g60
(g81
g62
NtRp1665
(dp1666
g65
(dp1667
g85
g86
ssg74
g1661
sg67
(lp1668
S'wsgi_run_once'
p1669
asbag60
(g81
g62
NtRp1670
(dp1671
g65
(dp1672
g92
g93
ssg74
g1661
sg67
(lp1673
S':'
asbag60
(g81
g62
NtRp1674
(dp1675
g65
(dp1676
sg74
g1661
sg67
(lp1677
g60
(g61
g62
NtRp1678
(dp1679
g65
(dp1680
g73
I4
ssg74
g1674
sg67
(lp1681
g103
asbasbasbag60
(g76
g62
NtRp1682
(dp1683
g65
(dp1684
sg74
g825
sg67
(lp1685
g60
(g81
g62
NtRp1686
(dp1687
g65
(dp1688
g85
g86
ssg74
g1682
sg67
(lp1689
S'wsgi_url_scheme'
p1690
asbag60
(g81
g62
NtRp1691
(dp1692
g65
(dp1693
g92
g93
ssg74
g1682
sg67
(lp1694
S':'
asbag60
(g81
g62
NtRp1695
(dp1696
g65
(dp1697
sg74
g1682
sg67
(lp1698
g60
(g61
g62
NtRp1699
(dp1700
g65
(dp1701
g73
I4
ssg74
g1695
sg67
(lp1702
S'http'
p1703
asbasbasbag60
(g76
g62
NtRp1704
(dp1705
g65
(dp1706
sg74
g825
sg67
(lp1707
g60
(g81
g62
NtRp1708
(dp1709
g65
(dp1710
g85
g86
ssg74
g1704
sg67
(lp1711
S'wsgi_version'
p1712
asbag60
(g81
g62
NtRp1713
(dp1714
g65
(dp1715
g92
g93
ssg74
g1704
sg67
(lp1716
S':'
asbag60
(g81
g62
NtRp1717
(dp1718
g65
(dp1719
sg74
g1704
sg67
(lp1720
g60
(g61
g62
NtRp1721
(dp1722
g65
(dp1723
g73
I4
ssg74
g1717
sg67
(lp1724
g60
(g69
g62
NtRp1725
(dp1726
g65
(dp1727
g73
I3
ssg74
Nsg67
(lp1728
g60
(g76
g62
NtRp1729
(dp1730
g65
(dp1731
sg74
g1725
sg67
(lp1732
g60
(g81
g62
NtRp1733
(dp1734
g65
(dp1735
sg74
g1729
sg67
(lp1736
g60
(g61
g62
NtRp1737
(dp1738
g65
(dp1739
g73
I3
ssg74
g1733
sg67
(lp1740
S'1'
asbasbasbag60
(g76
g62
NtRp1741
(dp1742
g65
(dp1743
sg74
g1725
sg67
(lp1744
g60
(g81
g62
NtRp1745
(dp1746
g65
(dp1747
sg74
g1741
sg67
(lp1748
g60
(g61
g62
NtRp1749
(dp1750
g65
(dp1751
g73
I3
ssg74
g1745
sg67
(lp1752
S'0'
asbasbasbasbasbasbasbasbasbasbasbag60
(g76
g62
NtRp1753
(dp1754
g65
(dp1755
sg74
g70
sg67
(lp1756
g60
(g81
g62
NtRp1757
(dp1758
g65
(dp1759
g85
g86
ssg74
g1753
sg67
(lp1760
S'extension'
p1761
asbag60
(g81
g62
NtRp1762
(dp1763
g65
(dp1764
g92
g93
ssg74
g1753
sg67
(lp1765
S':'
asbag60
(g81
g62
NtRp1766
(dp1767
g65
(dp1768
sg74
g1753
sg67
(lp1769
g60
(g61
g62
NtRp1770
(dp1771
g65
(dp1772
g73
I5
ssg74
g1766
sg67
(lp1773
S'html'
p1774
asbasbasbag60
(g76
g62
NtRp1775
(dp1776
g65
(dp1777
sg74
g70
sg67
(lp1778
g60
(g81
g62
NtRp1779
(dp1780
g65
(dp1781
g85
g86
ssg74
g1775
sg67
(lp1782
S'folder'
p1783
asbag60
(g81
g62
NtRp1784
(dp1785
g65
(dp1786
g92
g93
ssg74
g1775
sg67
(lp1787
S':'
asbag60
(g81
g62
NtRp1788
(dp1789
g65
(dp1790
sg74
g1775
sg67
(lp1791
g60
(g61
g62
NtRp1792
(dp1793
g65
(dp1794
g73
I5
ssg74
g1788
sg67
(lp1795
S'/home/jose/DESARROLLO/web2py199/applications/streamlog/'
p1796
asbasbasbag60
(g76
g62
NtRp1797
(dp1798
g65
(dp1799
sg74
g70
sg67
(lp1800
g60
(g81
g62
NtRp1801
(dp1802
g65
(dp1803
g85
g86
ssg74
g1797
sg67
(lp1804
S'function'
p1805
asbag60
(g81
g62
NtRp1806
(dp1807
g65
(dp1808
g92
g93
ssg74
g1797
sg67
(lp1809
S':'
asbag60
(g81
g62
NtRp1810
(dp1811
g65
(dp1812
sg74
g1797
sg67
(lp1813
g60
(g61
g62
NtRp1814
(dp1815
g65
(dp1816
g73
I5
ssg74
g1810
sg67
(lp1817
S'type_log_manage'
p1818
asbasbasbag60
(g76
g62
NtRp1819
(dp1820
g65
(dp1821
sg74
g70
sg67
(lp1822
g60
(g81
g62
NtRp1823
(dp1824
g65
(dp1825
g85
g86
ssg74
g1819
sg67
(lp1826
S'get_vars'
p1827
asbag60
(g81
g62
NtRp1828
(dp1829
g65
(dp1830
g92
g93
ssg74
g1819
sg67
(lp1831
S':'
asbag60
(g81
g62
NtRp1832
(dp1833
g65
(dp1834
sg74
g1819
sg67
(lp1835
g60
(g61
g62
NtRp1836
(dp1837
g65
(dp1838
g73
I5
ssg74
g1832
sg67
(lp1839
g60
(g69
g62
NtRp1840
(dp1841
g65
(dp1842
g73
I4
ssg74
Nsg67
(lp1843
sbasbasbasbag60
(g76
g62
NtRp1844
(dp1845
g65
(dp1846
sg74
g70
sg67
(lp1847
g60
(g81
g62
NtRp1848
(dp1849
g65
(dp1850
g85
g86
ssg74
g1844
sg67
(lp1851
S'global_settings'
p1852
asbag60
(g81
g62
NtRp1853
(dp1854
g65
(dp1855
g92
g93
ssg74
g1844
sg67
(lp1856
S':'
asbag60
(g81
g62
NtRp1857
(dp1858
g65
(dp1859
sg74
g1844
sg67
(lp1860
g60
(g61
g62
NtRp1861
(dp1862
g65
(dp1863
g73
I5
ssg74
g1857
sg67
(lp1864
g60
(g69
g62
NtRp1865
(dp1866
g65
(dp1867
g73
I4
ssg74
Nsg67
(lp1868
g60
(g76
g62
NtRp1869
(dp1870
g65
(dp1871
sg74
g1865
sg67
(lp1872
g60
(g81
g62
NtRp1873
(dp1874
g65
(dp1875
g85
g86
ssg74
g1869
sg67
(lp1876
g837
asbag60
(g81
g62
NtRp1877
(dp1878
g65
(dp1879
g92
g93
ssg74
g1869
sg67
(lp1880
S':'
asbag60
(g81
g62
NtRp1881
(dp1882
g65
(dp1883
sg74
g1869
sg67
(lp1884
g60
(g61
g62
NtRp1885
(dp1886
g65
(dp1887
g73
I4
ssg74
g1881
sg67
(lp1888
S"set(['/home/jose/DESARROLLO/web2py199/applications/streamlog/', '/home/jose/DESARROLLO/web2py199/applications/admin/'])"
p1889
asbasbasbag60
(g76
g62
NtRp1890
(dp1891
g65
(dp1892
sg74
g1865
sg67
(lp1893
g60
(g81
g62
NtRp1894
(dp1895
g65
(dp1896
g85
g86
ssg74
g1890
sg67
(lp1897
g859
asbag60
(g81
g62
NtRp1898
(dp1899
g65
(dp1900
g92
g93
ssg74
g1890
sg67
(lp1901
S':'
asbag60
(g81
g62
NtRp1902
(dp1903
g65
(dp1904
sg74
g1890
sg67
(lp1905
g60
(g61
g62
NtRp1906
(dp1907
g65
(dp1908
g73
I4
ssg74
g1902
sg67
(lp1909
g872
asbasbasbag60
(g76
g62
NtRp1910
(dp1911
g65
(dp1912
sg74
g1865
sg67
(lp1913
g60
(g81
g62
NtRp1914
(dp1915
g65
(dp1916
g85
g86
ssg74
g1910
sg67
(lp1917
g881
asbag60
(g81
g62
NtRp1918
(dp1919
g65
(dp1920
g92
g93
ssg74
g1910
sg67
(lp1921
S':'
asbag60
(g81
g62
NtRp1922
(dp1923
g65
(dp1924
sg74
g1910
sg67
(lp1925
g60
(g61
g62
NtRp1926
(dp1927
g65
(dp1928
g73
I4
ssg74
g1922
sg67
(lp1929
g60
(g69
g62
NtRp1930
(dp1931
g65
(dp1932
g73
I3
ssg74
Nsg67
(lp1933
sbasbasbasbag60
(g76
g62
NtRp1934
(dp1935
g65
(dp1936
sg74
g1865
sg67
(lp1937
g60
(g81
g62
NtRp1938
(dp1939
g65
(dp1940
g85
g86
ssg74
g1934
sg67
(lp1941
g906
asbag60
(g81
g62
NtRp1942
(dp1943
g65
(dp1944
g92
g93
ssg74
g1934
sg67
(lp1945
S':'
asbag60
(g81
g62
NtRp1946
(dp1947
g65
(dp1948
sg74
g1934
sg67
(lp1949
g60
(g61
g62
NtRp1950
(dp1951
g65
(dp1952
g73
I4
ssg74
g1946
sg67
(lp1953
S"<Values at 0x2a2ff80: {'verbose': False, 'ip': '127.0.0.1', 'shutdown_timeout': 5, 'taskbar': False, 'nocron': False, 'pid_filename': 'httpserver.pid', 'maxthreads': None, 'softcron': False, 'server_name': 'jose', 'bpython': False, 'nogui': False, 'port': 8000, 'extcron': False, 'debuglevel': 30, 'test': None, 'folder': '/home/jose/DESARROLLO/web2py199', 'config': '', 'import_models': False, 'winservice': '', 'shell': None, 'run': '', 'log_filename': 'httpserver.log', 'args': [''], 'ssl_ca_certificate': None, 'scheduler': None, 'profiler_filename': None, 'ssl_private_key': '', 'password': 't', 'request_queue_size': 5, 'ssl_certificate': '', 'cronjob': False, 'plain': False, 'quiet': False, 'interfaces': None, 'minthreads': None, 'timeout': 10, 'numthreads': None, 'nobanner': False}>"
p1954
asbasbasbag60
(g76
g62
NtRp1955
(dp1956
g65
(dp1957
sg74
g1865
sg67
(lp1958
g60
(g81
g62
NtRp1959
(dp1960
g65
(dp1961
g85
g86
ssg74
g1955
sg67
(lp1962
g928
asbag60
(g81
g62
NtRp1963
(dp1964
g65
(dp1965
g92
g93
ssg74
g1955
sg67
(lp1966
S':'
asbag60
(g81
g62
NtRp1967
(dp1968
g65
(dp1969
sg74
g1955
sg67
(lp1970
g60
(g61
g62
NtRp1971
(dp1972
g65
(dp1973
g73
I4
ssg74
g1967
sg67
(lp1974
S'set([])'
p1975
asbasbasbag60
(g76
g62
NtRp1976
(dp1977
g65
(dp1978
sg74
g1865
sg67
(lp1979
g60
(g81
g62
NtRp1980
(dp1981
g65
(dp1982
g85
g86
ssg74
g1976
sg67
(lp1983
g950
asbag60
(g81
g62
NtRp1984
(dp1985
g65
(dp1986
g92
g93
ssg74
g1976
sg67
(lp1987
S':'
asbag60
(g81
g62
NtRp1988
(dp1989
g65
(dp1990
sg74
g1976
sg67
(lp1991
g60
(g61
g62
NtRp1992
(dp1993
g65
(dp1994
g73
I4
ssg74
g1988
sg67
(lp1995
g103
asbasbasbag60
(g76
g62
NtRp1996
(dp1997
g65
(dp1998
sg74
g1865
sg67
(lp1999
g60
(g81
g62
NtRp2000
(dp2001
g65
(dp2002
g85
g86
ssg74
g1996
sg67
(lp2003
g971
asbag60
(g81
g62
NtRp2004
(dp2005
g65
(dp2006
g92
g93
ssg74
g1996
sg67
(lp2007
S':'
asbag60
(g81
g62
NtRp2008
(dp2009
g65
(dp2010
sg74
g1996
sg67
(lp2011
g60
(g61
g62
NtRp2012
(dp2013
g65
(dp2014
g73
I4
ssg74
g2008
sg67
(lp2015
g984
asbasbasbag60
(g76
g62
NtRp2016
(dp2017
g65
(dp2018
sg74
g1865
sg67
(lp2019
g60
(g81
g62
NtRp2020
(dp2021
g65
(dp2022
g85
g86
ssg74
g2016
sg67
(lp2023
g1191
asbag60
(g81
g62
NtRp2024
(dp2025
g65
(dp2026
g92
g93
ssg74
g2016
sg67
(lp2027
S':'
asbag60
(g81
g62
NtRp2028
(dp2029
g65
(dp2030
sg74
g2016
sg67
(lp2031
g60
(g61
g62
NtRp2032
(dp2033
g65
(dp2034
g73
I4
ssg74
g2028
sg67
(lp2035
g103
asbasbasbag60
(g76
g62
NtRp2036
(dp2037
g65
(dp2038
sg74
g1865
sg67
(lp2039
g60
(g81
g62
NtRp2040
(dp2041
g65
(dp2042
g85
g86
ssg74
g2036
sg67
(lp2043
g1429
asbag60
(g81
g62
NtRp2044
(dp2045
g65
(dp2046
g92
g93
ssg74
g2036
sg67
(lp2047
S':'
asbag60
(g81
g62
NtRp2048
(dp2049
g65
(dp2050
sg74
g2036
sg67
(lp2051
g60
(g61
g62
NtRp2052
(dp2053
g65
(dp2054
g73
I4
ssg74
g2048
sg67
(lp2055
g1442
asbasbasbag60
(g76
g62
NtRp2056
(dp2057
g65
(dp2058
sg74
g1865
sg67
(lp2059
g60
(g81
g62
NtRp2060
(dp2061
g65
(dp2062
g85
g86
ssg74
g2056
sg67
(lp2063
g1472
asbag60
(g81
g62
NtRp2064
(dp2065
g65
(dp2066
g92
g93
ssg74
g2056
sg67
(lp2067
S':'
asbag60
(g81
g62
NtRp2068
(dp2069
g65
(dp2070
sg74
g2056
sg67
(lp2071
g60
(g61
g62
NtRp2072
(dp2073
g65
(dp2074
g73
I4
ssg74
g2068
sg67
(lp2075
g60
(g69
g62
NtRp2076
(dp2077
g65
(dp2078
g73
I3
ssg74
Nsg67
(lp2079
g60
(g76
g62
NtRp2080
(dp2081
g65
(dp2082
sg74
g2076
sg67
(lp2083
g60
(g81
g62
NtRp2084
(dp2085
g65
(dp2086
sg74
g2080
sg67
(lp2087
g60
(g61
g62
NtRp2088
(dp2089
g65
(dp2090
g73
I3
ssg74
g2084
sg67
(lp2091
S'1'
asbasbasbag60
(g76
g62
NtRp2092
(dp2093
g65
(dp2094
sg74
g2076
sg67
(lp2095
g60
(g81
g62
NtRp2096
(dp2097
g65
(dp2098
sg74
g2092
sg67
(lp2099
g60
(g61
g62
NtRp2100
(dp2101
g65
(dp2102
g73
I3
ssg74
g2096
sg67
(lp2103
S'99'
p2104
asbasbasbag60
(g76
g62
NtRp2105
(dp2106
g65
(dp2107
sg74
g2076
sg67
(lp2108
g60
(g81
g62
NtRp2109
(dp2110
g65
(dp2111
sg74
g2105
sg67
(lp2112
g60
(g61
g62
NtRp2113
(dp2114
g65
(dp2115
g73
I3
ssg74
g2109
sg67
(lp2116
S'2'
asbasbasbag60
(g76
g62
NtRp2117
(dp2118
g65
(dp2119
sg74
g2076
sg67
(lp2120
g60
(g81
g62
NtRp2121
(dp2122
g65
(dp2123
sg74
g2117
sg67
(lp2124
g60
(g61
g62
NtRp2125
(dp2126
g65
(dp2127
g73
I3
ssg74
g2121
sg67
(lp2128
S'datetime.datetime(2011, 9, 26, 6, 55, 33)'
p2129
asbasbasbag60
(g76
g62
NtRp2130
(dp2131
g65
(dp2132
sg74
g2076
sg67
(lp2133
g60
(g81
g62
NtRp2134
(dp2135
g65
(dp2136
sg74
g2130
sg67
(lp2137
g60
(g61
g62
NtRp2138
(dp2139
g65
(dp2140
g73
I3
ssg74
g2134
sg67
(lp2141
g1551
asbasbasbasbasbasbasbasbasbasbasbag60
(g76
g62
NtRp2142
(dp2143
g65
(dp2144
sg74
g70
sg67
(lp2145
g60
(g81
g62
NtRp2146
(dp2147
g65
(dp2148
g85
g86
ssg74
g2142
sg67
(lp2149
S'is_https'
p2150
asbag60
(g81
g62
NtRp2151
(dp2152
g65
(dp2153
g92
g93
ssg74
g2142
sg67
(lp2154
S':'
asbag60
(g81
g62
NtRp2155
(dp2156
g65
(dp2157
sg74
g2142
sg67
(lp2158
g60
(g61
g62
NtRp2159
(dp2160
g65
(dp2161
g73
I5
ssg74
g2155
sg67
(lp2162
g103
asbasbasbag60
(g76
g62
NtRp2163
(dp2164
g65
(dp2165
sg74
g70
sg67
(lp2166
g60
(g81
g62
NtRp2167
(dp2168
g65
(dp2169
g85
g86
ssg74
g2163
sg67
(lp2170
S'is_local'
p2171
asbag60
(g81
g62
NtRp2172
(dp2173
g65
(dp2174
g92
g93
ssg74
g2163
sg67
(lp2175
S':'
asbag60
(g81
g62
NtRp2176
(dp2177
g65
(dp2178
sg74
g2163
sg67
(lp2179
g60
(g61
g62
NtRp2180
(dp2181
g65
(dp2182
g73
I5
ssg74
g2176
sg67
(lp2183
g1660
asbasbasbag60
(g76
g62
NtRp2184
(dp2185
g65
(dp2186
sg74
g70
sg67
(lp2187
g60
(g81
g62
NtRp2188
(dp2189
g65
(dp2190
g85
g86
ssg74
g2184
sg67
(lp2191
S'is_restful'
p2192
asbag60
(g81
g62
NtRp2193
(dp2194
g65
(dp2195
g92
g93
ssg74
g2184
sg67
(lp2196
S':'
asbag60
(g81
g62
NtRp2197
(dp2198
g65
(dp2199
sg74
g2184
sg67
(lp2200
g60
(g61
g62
NtRp2201
(dp2202
g65
(dp2203
g73
I5
ssg74
g2197
sg67
(lp2204
g103
asbasbasbag60
(g76
g62
NtRp2205
(dp2206
g65
(dp2207
sg74
g70
sg67
(lp2208
g60
(g81
g62
NtRp2209
(dp2210
g65
(dp2211
g85
g86
ssg74
g2205
sg67
(lp2212
S'now'
p2213
asbag60
(g81
g62
NtRp2214
(dp2215
g65
(dp2216
g92
g93
ssg74
g2205
sg67
(lp2217
S':'
asbag60
(g81
g62
NtRp2218
(dp2219
g65
(dp2220
sg74
g2205
sg67
(lp2221
g60
(g61
g62
NtRp2222
(dp2223
g65
(dp2224
g73
I5
ssg74
g2218
sg67
(lp2225
S'datetime.datetime(2012, 5, 27, 11, 49, 8, 268014)'
p2226
asbasbasbag60
(g76
g62
NtRp2227
(dp2228
g65
(dp2229
sg74
g70
sg67
(lp2230
g60
(g81
g62
NtRp2231
(dp2232
g65
(dp2233
g85
g86
ssg74
g2227
sg67
(lp2234
S'post_vars'
p2235
asbag60
(g81
g62
NtRp2236
(dp2237
g65
(dp2238
g92
g93
ssg74
g2227
sg67
(lp2239
S':'
asbag60
(g81
g62
NtRp2240
(dp2241
g65
(dp2242
sg74
g2227
sg67
(lp2243
g60
(g61
g62
NtRp2244
(dp2245
g65
(dp2246
g73
I5
ssg74
g2240
sg67
(lp2247
g60
(g69
g62
NtRp2248
(dp2249
g65
(dp2250
g73
I4
ssg74
Nsg67
(lp2251
sbasbasbasbag60
(g76
g62
NtRp2252
(dp2253
g65
(dp2254
sg74
g70
sg67
(lp2255
g60
(g81
g62
NtRp2256
(dp2257
g65
(dp2258
g85
g86
ssg74
g2252
sg67
(lp2259
S'url'
p2260
asbag60
(g81
g62
NtRp2261
(dp2262
g65
(dp2263
g92
g93
ssg74
g2252
sg67
(lp2264
S':'
asbag60
(g81
g62
NtRp2265
(dp2266
g65
(dp2267
sg74
g2252
sg67
(lp2268
g60
(g61
g62
NtRp2269
(dp2270
g65
(dp2271
g73
I5
ssg74
g2265
sg67
(lp2272
S'/streamlog/default/type_log_manage'
p2273
asbasbasbag60
(g76
g62
NtRp2274
(dp2275
g65
(dp2276
sg74
g70
sg67
(lp2277
g60
(g81
g62
NtRp2278
(dp2279
g65
(dp2280
g85
g86
ssg74
g2274
sg67
(lp2281
S'utcnow'
p2282
asbag60
(g81
g62
NtRp2283
(dp2284
g65
(dp2285
g92
g93
ssg74
g2274
sg67
(lp2286
S':'
asbag60
(g81
g62
NtRp2287
(dp2288
g65
(dp2289
sg74
g2274
sg67
(lp2290
g60
(g61
g62
NtRp2291
(dp2292
g65
(dp2293
g73
I5
ssg74
g2287
sg67
(lp2294
S'datetime.datetime(2012, 5, 27, 4, 49, 8, 268082)'
p2295
asbasbasbag60
(g76
g62
NtRp2296
(dp2297
g65
(dp2298
sg74
g70
sg67
(lp2299
g60
(g81
g62
NtRp2300
(dp2301
g65
(dp2302
g85
g86
ssg74
g2296
sg67
(lp2303
S'uuid'
p2304
asbag60
(g81
g62
NtRp2305
(dp2306
g65
(dp2307
g92
g93
ssg74
g2296
sg67
(lp2308
S':'
asbag60
(g81
g62
NtRp2309
(dp2310
g65
(dp2311
sg74
g2296
sg67
(lp2312
g60
(g61
g62
NtRp2313
(dp2314
g65
(dp2315
g73
I5
ssg74
g2309
sg67
(lp2316
S'streamlog/127.0.0.1.2012-05-27.11-49-08.9721d985-069e-4408-9303-d88b36e93c69'
p2317
asbasbasbag60
(g76
g62
NtRp2318
(dp2319
g65
(dp2320
sg74
g70
sg67
(lp2321
g60
(g81
g62
NtRp2322
(dp2323
g65
(dp2324
g85
g86
ssg74
g2318
sg67
(lp2325
S'vars'
p2326
asbag60
(g81
g62
NtRp2327
(dp2328
g65
(dp2329
g92
g93
ssg74
g2318
sg67
(lp2330
S':'
asbag60
(g81
g62
NtRp2331
(dp2332
g65
(dp2333
sg74
g2318
sg67
(lp2334
g60
(g61
g62
NtRp2335
(dp2336
g65
(dp2337
g73
I5
ssg74
g2331
sg67
(lp2338
g60
(g69
g62
NtRp2339
(dp2340
g65
(dp2341
g73
I4
ssg74
Nsg67
(lp2342
g60
(g76
g62
NtRp2343
(dp2344
g65
(dp2345
sg74
g2339
sg67
(lp2346
g60
(g81
g62
NtRp2347
(dp2348
g65
(dp2349
g85
g86
ssg74
g2343
sg67
(lp2350
S'records'
p2351
asbag60
(g81
g62
NtRp2352
(dp2353
g65
(dp2354
g92
g93
ssg74
g2343
sg67
(lp2355
S':'
asbag60
(g81
g62
NtRp2356
(dp2357
g65
(dp2358
sg74
g2343
sg67
(lp2359
g60
(g61
g62
NtRp2360
(dp2361
g65
(dp2362
g73
I4
ssg74
g2356
sg67
(lp2363
g60
(g69
g62
NtRp2364
(dp2365
g65
(dp2366
g73
I3
ssg74
Nsg67
(lp2367
sbasbasbasbasbasbasbasbag60
(g76
g62
NtRp2368
(dp2369
g65
(dp2370
sg74
g70
sg67
(lp2371
g60
(g81
g62
NtRp2372
(dp2373
g65
(dp2374
g85
g86
ssg74
g2368
sg67
(lp2375
S'wsgi'
p2376
asbag60
(g81
g62
NtRp2377
(dp2378
g65
(dp2379
g92
g93
ssg74
g2368
sg67
(lp2380
S':'
asbag60
(g81
g62
NtRp2381
(dp2382
g65
(dp2383
sg74
g2368
sg67
(lp2384
g60
(g61
g62
NtRp2385
(dp2386
g65
(dp2387
g73
I5
ssg74
g2381
sg67
(lp2388
g60
(g69
g62
NtRp2389
(dp2390
g65
(dp2391
g73
I4
ssg74
Nsg67
(lp2392
g60
(g76
g62
NtRp2393
(dp2394
g65
(dp2395
sg74
g2389
sg67
(lp2396
g60
(g81
g62
NtRp2397
(dp2398
g65
(dp2399
g85
g86
ssg74
g2393
sg67
(lp2400
S'environ'
p2401
asbag60
(g81
g62
NtRp2402
(dp2403
g65
(dp2404
g92
g93
ssg74
g2393
sg67
(lp2405
S':'
asbag60
(g81
g62
NtRp2406
(dp2407
g65
(dp2408
sg74
g2393
sg67
(lp2409
g60
(g61
g62
NtRp2410
(dp2411
g65
(dp2412
g73
I4
ssg74
g2406
sg67
(lp2413
g60
(g69
g62
NtRp2414
(dp2415
g65
(dp2416
g73
I3
ssg74
Nsg67
(lp2417
g60
(g76
g62
NtRp2418
(dp2419
g65
(dp2420
sg74
g2414
sg67
(lp2421
g60
(g81
g62
NtRp2422
(dp2423
g65
(dp2424
g85
g86
ssg74
g2418
sg67
(lp2425
S'HTTP_ACCEPT'
p2426
asbag60
(g81
g62
NtRp2427
(dp2428
g65
(dp2429
g92
g93
ssg74
g2418
sg67
(lp2430
S':'
asbag60
(g81
g62
NtRp2431
(dp2432
g65
(dp2433
sg74
g2418
sg67
(lp2434
g60
(g61
g62
NtRp2435
(dp2436
g65
(dp2437
g73
I3
ssg74
g2431
sg67
(lp2438
g1006
asbasbasbag60
(g76
g62
NtRp2439
(dp2440
g65
(dp2441
sg74
g2414
sg67
(lp2442
g60
(g81
g62
NtRp2443
(dp2444
g65
(dp2445
g85
g86
ssg74
g2439
sg67
(lp2446
S'HTTP_ACCEPT_ENCODING'
p2447
asbag60
(g81
g62
NtRp2448
(dp2449
g65
(dp2450
g92
g93
ssg74
g2439
sg67
(lp2451
S':'
asbag60
(g81
g62
NtRp2452
(dp2453
g65
(dp2454
sg74
g2439
sg67
(lp2455
g60
(g61
g62
NtRp2456
(dp2457
g65
(dp2458
g73
I3
ssg74
g2452
sg67
(lp2459
g1028
asbasbasbag60
(g76
g62
NtRp2460
(dp2461
g65
(dp2462
sg74
g2414
sg67
(lp2463
g60
(g81
g62
NtRp2464
(dp2465
g65
(dp2466
g85
g86
ssg74
g2460
sg67
(lp2467
S'HTTP_ACCEPT_LANGUAGE'
p2468
asbag60
(g81
g62
NtRp2469
(dp2470
g65
(dp2471
g92
g93
ssg74
g2460
sg67
(lp2472
S':'
asbag60
(g81
g62
NtRp2473
(dp2474
g65
(dp2475
sg74
g2460
sg67
(lp2476
g60
(g61
g62
NtRp2477
(dp2478
g65
(dp2479
g73
I3
ssg74
g2473
sg67
(lp2480
g1050
asbasbasbag60
(g76
g62
NtRp2481
(dp2482
g65
(dp2483
sg74
g2414
sg67
(lp2484
g60
(g81
g62
NtRp2485
(dp2486
g65
(dp2487
g85
g86
ssg74
g2481
sg67
(lp2488
S'HTTP_CACHE_CONTROL'
p2489
asbag60
(g81
g62
NtRp2490
(dp2491
g65
(dp2492
g92
g93
ssg74
g2481
sg67
(lp2493
S':'
asbag60
(g81
g62
NtRp2494
(dp2495
g65
(dp2496
sg74
g2481
sg67
(lp2497
g60
(g61
g62
NtRp2498
(dp2499
g65
(dp2500
g73
I3
ssg74
g2494
sg67
(lp2501
g1072
asbasbasbag60
(g76
g62
NtRp2502
(dp2503
g65
(dp2504
sg74
g2414
sg67
(lp2505
g60
(g81
g62
NtRp2506
(dp2507
g65
(dp2508
g85
g86
ssg74
g2502
sg67
(lp2509
S'HTTP_CONNECTION'
p2510
asbag60
(g81
g62
NtRp2511
(dp2512
g65
(dp2513
g92
g93
ssg74
g2502
sg67
(lp2514
S':'
asbag60
(g81
g62
NtRp2515
(dp2516
g65
(dp2517
sg74
g2502
sg67
(lp2518
g60
(g61
g62
NtRp2519
(dp2520
g65
(dp2521
g73
I3
ssg74
g2515
sg67
(lp2522
g1094
asbasbasbag60
(g76
g62
NtRp2523
(dp2524
g65
(dp2525
sg74
g2414
sg67
(lp2526
g60
(g81
g62
NtRp2527
(dp2528
g65
(dp2529
g85
g86
ssg74
g2523
sg67
(lp2530
S'HTTP_COOKIE'
p2531
asbag60
(g81
g62
NtRp2532
(dp2533
g65
(dp2534
g92
g93
ssg74
g2523
sg67
(lp2535
S':'
asbag60
(g81
g62
NtRp2536
(dp2537
g65
(dp2538
sg74
g2523
sg67
(lp2539
g60
(g61
g62
NtRp2540
(dp2541
g65
(dp2542
g73
I3
ssg74
g2536
sg67
(lp2543
g1116
asbasbasbag60
(g76
g62
NtRp2544
(dp2545
g65
(dp2546
sg74
g2414
sg67
(lp2547
g60
(g81
g62
NtRp2548
(dp2549
g65
(dp2550
g85
g86
ssg74
g2544
sg67
(lp2551
S'HTTP_HOST'
p2552
asbag60
(g81
g62
NtRp2553
(dp2554
g65
(dp2555
g92
g93
ssg74
g2544
sg67
(lp2556
S':'
asbag60
(g81
g62
NtRp2557
(dp2558
g65
(dp2559
sg74
g2544
sg67
(lp2560
g60
(g61
g62
NtRp2561
(dp2562
g65
(dp2563
g73
I3
ssg74
g2557
sg67
(lp2564
g1138
asbasbasbag60
(g76
g62
NtRp2565
(dp2566
g65
(dp2567
sg74
g2414
sg67
(lp2568
g60
(g81
g62
NtRp2569
(dp2570
g65
(dp2571
g85
g86
ssg74
g2565
sg67
(lp2572
S'HTTP_REFERER'
p2573
asbag60
(g81
g62
NtRp2574
(dp2575
g65
(dp2576
g92
g93
ssg74
g2565
sg67
(lp2577
S':'
asbag60
(g81
g62
NtRp2578
(dp2579
g65
(dp2580
sg74
g2565
sg67
(lp2581
g60
(g61
g62
NtRp2582
(dp2583
g65
(dp2584
g73
I3
ssg74
g2578
sg67
(lp2585
g1160
asbasbasbag60
(g76
g62
NtRp2586
(dp2587
g65
(dp2588
sg74
g2414
sg67
(lp2589
g60
(g81
g62
NtRp2590
(dp2591
g65
(dp2592
g85
g86
ssg74
g2586
sg67
(lp2593
S'HTTP_USER_AGENT'
p2594
asbag60
(g81
g62
NtRp2595
(dp2596
g65
(dp2597
g92
g93
ssg74
g2586
sg67
(lp2598
S':'
asbag60
(g81
g62
NtRp2599
(dp2600
g65
(dp2601
sg74
g2586
sg67
(lp2602
g60
(g61
g62
NtRp2603
(dp2604
g65
(dp2605
g73
I3
ssg74
g2599
sg67
(lp2606
g1182
asbasbasbag60
(g76
g62
NtRp2607
(dp2608
g65
(dp2609
sg74
g2414
sg67
(lp2610
g60
(g81
g62
NtRp2611
(dp2612
g65
(dp2613
g85
g86
ssg74
g2607
sg67
(lp2614
S'PATH_INFO'
p2615
asbag60
(g81
g62
NtRp2616
(dp2617
g65
(dp2618
g92
g93
ssg74
g2607
sg67
(lp2619
S':'
asbag60
(g81
g62
NtRp2620
(dp2621
g65
(dp2622
sg74
g2607
sg67
(lp2623
g60
(g61
g62
NtRp2624
(dp2625
g65
(dp2626
g73
I3
ssg74
g2620
sg67
(lp2627
g1225
asbasbasbag60
(g76
g62
NtRp2628
(dp2629
g65
(dp2630
sg74
g2414
sg67
(lp2631
g60
(g81
g62
NtRp2632
(dp2633
g65
(dp2634
g85
g86
ssg74
g2628
sg67
(lp2635
S'QUERY_STRING'
p2636
asbag60
(g81
g62
NtRp2637
(dp2638
g65
(dp2639
g92
g93
ssg74
g2628
sg67
(lp2640
S':'
asbag60
(g81
g62
NtRp2641
(dp2642
g65
(dp2643
sg74
g2628
sg67
(lp2644
g60
(g61
g62
NtRp2645
(dp2646
g65
(dp2647
g73
I3
ssg74
g2641
sg67
(lp2648
S''
asbasbasbag60
(g76
g62
NtRp2649
(dp2650
g65
(dp2651
sg74
g2414
sg67
(lp2652
g60
(g81
g62
NtRp2653
(dp2654
g65
(dp2655
g85
g86
ssg74
g2649
sg67
(lp2656
S'REMOTE_ADDR'
p2657
asbag60
(g81
g62
NtRp2658
(dp2659
g65
(dp2660
g92
g93
ssg74
g2649
sg67
(lp2661
S':'
asbag60
(g81
g62
NtRp2662
(dp2663
g65
(dp2664
sg74
g2649
sg67
(lp2665
g60
(g61
g62
NtRp2666
(dp2667
g65
(dp2668
g73
I3
ssg74
g2662
sg67
(lp2669
g193
asbasbasbag60
(g76
g62
NtRp2670
(dp2671
g65
(dp2672
sg74
g2414
sg67
(lp2673
g60
(g81
g62
NtRp2674
(dp2675
g65
(dp2676
g85
g86
ssg74
g2670
sg67
(lp2677
S'REMOTE_PORT'
p2678
asbag60
(g81
g62
NtRp2679
(dp2680
g65
(dp2681
g92
g93
ssg74
g2670
sg67
(lp2682
S':'
asbag60
(g81
g62
NtRp2683
(dp2684
g65
(dp2685
sg74
g2670
sg67
(lp2686
g60
(g61
g62
NtRp2687
(dp2688
g65
(dp2689
g73
I3
ssg74
g2683
sg67
(lp2690
g1289
asbasbasbag60
(g76
g62
NtRp2691
(dp2692
g65
(dp2693
sg74
g2414
sg67
(lp2694
g60
(g81
g62
NtRp2695
(dp2696
g65
(dp2697
g85
g86
ssg74
g2691
sg67
(lp2698
S'REQUEST_METHOD'
p2699
asbag60
(g81
g62
NtRp2700
(dp2701
g65
(dp2702
g92
g93
ssg74
g2691
sg67
(lp2703
S':'
asbag60
(g81
g62
NtRp2704
(dp2705
g65
(dp2706
sg74
g2691
sg67
(lp2707
g60
(g61
g62
NtRp2708
(dp2709
g65
(dp2710
g73
I3
ssg74
g2704
sg67
(lp2711
g1311
asbasbasbag60
(g76
g62
NtRp2712
(dp2713
g65
(dp2714
sg74
g2414
sg67
(lp2715
g60
(g81
g62
NtRp2716
(dp2717
g65
(dp2718
g85
g86
ssg74
g2712
sg67
(lp2719
S'SCRIPT_NAME'
p2720
asbag60
(g81
g62
NtRp2721
(dp2722
g65
(dp2723
g92
g93
ssg74
g2712
sg67
(lp2724
S':'
asbag60
(g81
g62
NtRp2725
(dp2726
g65
(dp2727
sg74
g2712
sg67
(lp2728
g60
(g61
g62
NtRp2729
(dp2730
g65
(dp2731
g73
I3
ssg74
g2725
sg67
(lp2732
S''
asbasbasbag60
(g76
g62
NtRp2733
(dp2734
g65
(dp2735
sg74
g2414
sg67
(lp2736
g60
(g81
g62
NtRp2737
(dp2738
g65
(dp2739
g85
g86
ssg74
g2733
sg67
(lp2740
S'SERVER_NAME'
p2741
asbag60
(g81
g62
NtRp2742
(dp2743
g65
(dp2744
g92
g93
ssg74
g2733
sg67
(lp2745
S':'
asbag60
(g81
g62
NtRp2746
(dp2747
g65
(dp2748
sg74
g2733
sg67
(lp2749
g60
(g61
g62
NtRp2750
(dp2751
g65
(dp2752
g73
I3
ssg74
g2746
sg67
(lp2753
g1354
asbasbasbag60
(g76
g62
NtRp2754
(dp2755
g65
(dp2756
sg74
g2414
sg67
(lp2757
g60
(g81
g62
NtRp2758
(dp2759
g65
(dp2760
g85
g86
ssg74
g2754
sg67
(lp2761
S'SERVER_PORT'
p2762
asbag60
(g81
g62
NtRp2763
(dp2764
g65
(dp2765
g92
g93
ssg74
g2754
sg67
(lp2766
S':'
asbag60
(g81
g62
NtRp2767
(dp2768
g65
(dp2769
sg74
g2754
sg67
(lp2770
g60
(g61
g62
NtRp2771
(dp2772
g65
(dp2773
g73
I3
ssg74
g2767
sg67
(lp2774
g1376
asbasbasbag60
(g76
g62
NtRp2775
(dp2776
g65
(dp2777
sg74
g2414
sg67
(lp2778
g60
(g81
g62
NtRp2779
(dp2780
g65
(dp2781
g85
g86
ssg74
g2775
sg67
(lp2782
S'SERVER_PROTOCOL'
p2783
asbag60
(g81
g62
NtRp2784
(dp2785
g65
(dp2786
g92
g93
ssg74
g2775
sg67
(lp2787
S':'
asbag60
(g81
g62
NtRp2788
(dp2789
g65
(dp2790
sg74
g2775
sg67
(lp2791
g60
(g61
g62
NtRp2792
(dp2793
g65
(dp2794
g73
I3
ssg74
g2788
sg67
(lp2795
g1398
asbasbasbag60
(g76
g62
NtRp2796
(dp2797
g65
(dp2798
sg74
g2414
sg67
(lp2799
g60
(g81
g62
NtRp2800
(dp2801
g65
(dp2802
g85
g86
ssg74
g2796
sg67
(lp2803
S'SERVER_SOFTWARE'
p2804
asbag60
(g81
g62
NtRp2805
(dp2806
g65
(dp2807
g92
g93
ssg74
g2796
sg67
(lp2808
S':'
asbag60
(g81
g62
NtRp2809
(dp2810
g65
(dp2811
sg74
g2796
sg67
(lp2812
g60
(g61
g62
NtRp2813
(dp2814
g65
(dp2815
g73
I3
ssg74
g2809
sg67
(lp2816
g1420
asbasbasbag60
(g76
g62
NtRp2817
(dp2818
g65
(dp2819
sg74
g2414
sg67
(lp2820
g60
(g81
g62
NtRp2821
(dp2822
g65
(dp2823
g85
g86
ssg74
g2817
sg67
(lp2824
S'wsgi.errors'
p2825
asbag60
(g81
g62
NtRp2826
(dp2827
g65
(dp2828
g92
g93
ssg74
g2817
sg67
(lp2829
S':'
asbag60
(g81
g62
NtRp2830
(dp2831
g65
(dp2832
sg74
g2817
sg67
(lp2833
g60
(g61
g62
NtRp2834
(dp2835
g65
(dp2836
g73
I3
ssg74
g2830
sg67
(lp2837
S"<open file '<stderr>', mode 'w' at 0x7faf4eae9270>"
p2838
asbasbasbag60
(g76
g62
NtRp2839
(dp2840
g65
(dp2841
sg74
g2414
sg67
(lp2842
g60
(g81
g62
NtRp2843
(dp2844
g65
(dp2845
g85
g86
ssg74
g2839
sg67
(lp2846
S'wsgi.file_wrapper'
p2847
asbag60
(g81
g62
NtRp2848
(dp2849
g65
(dp2850
g92
g93
ssg74
g2839
sg67
(lp2851
S':'
asbag60
(g81
g62
NtRp2852
(dp2853
g65
(dp2854
sg74
g2839
sg67
(lp2855
g60
(g61
g62
NtRp2856
(dp2857
g65
(dp2858
g73
I3
ssg74
g2852
sg67
(lp2859
S'<class wsgiref.util.FileWrapper at 0x294cd50>'
p2860
asbasbasbag60
(g76
g62
NtRp2861
(dp2862
g65
(dp2863
sg74
g2414
sg67
(lp2864
g60
(g81
g62
NtRp2865
(dp2866
g65
(dp2867
g85
g86
ssg74
g2861
sg67
(lp2868
S'wsgi.input'
p2869
asbag60
(g81
g62
NtRp2870
(dp2871
g65
(dp2872
g92
g93
ssg74
g2861
sg67
(lp2873
S':'
asbag60
(g81
g62
NtRp2874
(dp2875
g65
(dp2876
sg74
g2861
sg67
(lp2877
g60
(g61
g62
NtRp2878
(dp2879
g65
(dp2880
g73
I3
ssg74
g2874
sg67
(lp2881
S'<cStringIO.StringO object at 0x32c39d0>'
p2882
asbasbasbag60
(g76
g62
NtRp2883
(dp2884
g65
(dp2885
sg74
g2414
sg67
(lp2886
g60
(g81
g62
NtRp2887
(dp2888
g65
(dp2889
g85
g86
ssg74
g2883
sg67
(lp2890
S'wsgi.multiprocess'
p2891
asbag60
(g81
g62
NtRp2892
(dp2893
g65
(dp2894
g92
g93
ssg74
g2883
sg67
(lp2895
S':'
asbag60
(g81
g62
NtRp2896
(dp2897
g65
(dp2898
sg74
g2883
sg67
(lp2899
g60
(g61
g62
NtRp2900
(dp2901
g65
(dp2902
g73
I3
ssg74
g2896
sg67
(lp2903
g103
asbasbasbag60
(g76
g62
NtRp2904
(dp2905
g65
(dp2906
sg74
g2414
sg67
(lp2907
g60
(g81
g62
NtRp2908
(dp2909
g65
(dp2910
g85
g86
ssg74
g2904
sg67
(lp2911
S'wsgi.multithread'
p2912
asbag60
(g81
g62
NtRp2913
(dp2914
g65
(dp2915
g92
g93
ssg74
g2904
sg67
(lp2916
S':'
asbag60
(g81
g62
NtRp2917
(dp2918
g65
(dp2919
sg74
g2904
sg67
(lp2920
g60
(g61
g62
NtRp2921
(dp2922
g65
(dp2923
g73
I3
ssg74
g2917
sg67
(lp2924
g1660
asbasbasbag60
(g76
g62
NtRp2925
(dp2926
g65
(dp2927
sg74
g2414
sg67
(lp2928
g60
(g81
g62
NtRp2929
(dp2930
g65
(dp2931
g85
g86
ssg74
g2925
sg67
(lp2932
S'wsgi.run_once'
p2933
asbag60
(g81
g62
NtRp2934
(dp2935
g65
(dp2936
g92
g93
ssg74
g2925
sg67
(lp2937
S':'
asbag60
(g81
g62
NtRp2938
(dp2939
g65
(dp2940
sg74
g2925
sg67
(lp2941
g60
(g61
g62
NtRp2942
(dp2943
g65
(dp2944
g73
I3
ssg74
g2938
sg67
(lp2945
g103
asbasbasbag60
(g76
g62
NtRp2946
(dp2947
g65
(dp2948
sg74
g2414
sg67
(lp2949
g60
(g81
g62
NtRp2950
(dp2951
g65
(dp2952
g85
g86
ssg74
g2946
sg67
(lp2953
S'wsgi.url_scheme'
p2954
asbag60
(g81
g62
NtRp2955
(dp2956
g65
(dp2957
g92
g93
ssg74
g2946
sg67
(lp2958
S':'
asbag60
(g81
g62
NtRp2959
(dp2960
g65
(dp2961
sg74
g2946
sg67
(lp2962
g60
(g61
g62
NtRp2963
(dp2964
g65
(dp2965
g73
I3
ssg74
g2959
sg67
(lp2966
g1703
asbasbasbag60
(g76
g62
NtRp2967
(dp2968
g65
(dp2969
sg74
g2414
sg67
(lp2970
g60
(g81
g62
NtRp2971
(dp2972
g65
(dp2973
g85
g86
ssg74
g2967
sg67
(lp2974
S'wsgi.version'
p2975
asbag60
(g81
g62
NtRp2976
(dp2977
g65
(dp2978
g92
g93
ssg74
g2967
sg67
(lp2979
S':'
asbag60
(g81
g62
NtRp2980
(dp2981
g65
(dp2982
sg74
g2967
sg67
(lp2983
g60
(g61
g62
NtRp2984
(dp2985
g65
(dp2986
g73
I3
ssg74
g2980
sg67
(lp2987
S'1'
asbasbasbasbasbasbasbasbasbasbasbasbasbsS'frames'
p2988
(lp2989
(dp2990
S'file'
p2991
S'/home/jose/DESARROLLO/web2py199/gluon/restricted.py'
p2992
sS'dump'
p2993
(dp2994
S'environment'
p2995
S"{'A': <class 'gluon.html.A'>, 'Auth': <class 'gluon.tools.Auth'>, 'B': <class 'gluon.html.B'>, 'BEAUTIFY': <class 'gluon.html.BEAUTIFY'>, 'BODY': <class 'gluon.html.BODY'>, 'BR': <class 'gluon.html.BR'>, 'BUTTON': <class 'gluon.html.BUTTON'>, 'CAT': <class 'gluon.html.CAT'>, 'CENTER': <class 'gluon.html.CENTER'>, 'CLEANUP': <class 'gluon.validators.CLEANUP'>, ...}"
p2996
sS'ccode'
p2997
S'<code object <module> at 0x33a8330, file "/home/...tions/streamlog/controllers/default.py", line 14>'
p2998
ssS'lnum'
p2999
I194
sS'lines'
p3000
(dp3001
I192
S'        else:'
p3002
sI193
S'            ccode = compile2(code,layer)'
p3003
sI194
S'        exec ccode in environment'
p3004
sI195
S'    except HTTP:'
p3005
sI196
S'        raise'
p3006
sI197
S'    except Exception, error:'
p3007
sI198
S'        # XXX Show exception in Wing IDE if running in debugger'
p3008
sI189
S'    try:'
p3009
sI190
S'        if type(code) == types.CodeType:'
p3010
sI191
S'            ccode = code'
p3011
ssS'call'
p3012
S"(code='# -*- coding: utf-8 -*-\\n# this file is released ...response._vars=response._caller(type_log_manage)\\n', environment={'A': <class 'gluon.html.A'>, 'Auth': <class 'gluon.tools.Auth'>, 'B': <class 'gluon.html.B'>, 'BEAUTIFY': <class 'gluon.html.BEAUTIFY'>, 'BODY': <class 'gluon.html.BODY'>, 'BR': <class 'gluon.html.BR'>, 'BUTTON': <class 'gluon.html.BUTTON'>, 'CAT': <class 'gluon.html.CAT'>, 'CENTER': <class 'gluon.html.CENTER'>, 'CLEANUP': <class 'gluon.validators.CLEANUP'>, ...}, layer='/home/jose/DESARROLLO/web2py199/applications/streamlog/controllers/default.py')"
p3013
sS'func'
p3014
S'restricted'
p3015
sa(dp3016
g2991
S'/home/jose/DESARROLLO/web2py199/applications/streamlog/controllers/default.py'
p3017
sg2993
(dp3018
sg2999
I184
sg3000
(dp3019
I173
S'    http://..../[app]/default/data/update/[table]/[id]'
p3020
sI174
S'    http://..../[app]/default/data/delete/[table]/[id]'
p3021
sI175
S'    http://..../[app]/default/data/select/[table]'
p3022
sI176
S'    http://..../[app]/default/data/search/[table]'
p3023
sI177
S'    but URLs bust be signed, i.e. linked with'
p3024
sI178
S"      A('table',_href=URL('data/tables',user_signature=True))"
p3025
sI179
S'    or with the signed load operator'
p3026
sI180
S"      LOAD('default','data.load',args='tables',ajax=True,user_signature=True)"
p3027
sI181
S'    """'
p3028
sI182
S'    return dict(form=crud())'
p3029
ssg3012
S'()'
p3030
sg3014
S'<module>'
p3031
sa(dp3032
g2991
S'/home/jose/DESARROLLO/web2py199/gluon/globals.py'
p3033
sg2993
(dp3034
S'self'
p3035
S'undefined'
p3036
sS'f'
S'<function type_log_manage>'
p3037
ssg2999
I149
sg3000
(dp3038
I144
S'        self.meta = Storage()      # used by web2py_ajax.html'
p3039
sI145
S'        self.menu = []             # used by the default view layout'
p3040
sI146
S'        self.files = []            # used by web2py_ajax.html'
p3041
sI147
S'        self.generic_patterns = [] # patterns to allow generic views'
p3042
sI148
S'        self._vars = None'
p3043
sI149
S'        self._caller = lambda f: f()'
p3044
sI150
S'        self._view_environment = None'
p3045
sI151
S'        self._custom_commit = None'
p3046
sI152
S'        self._custom_rollback = None'
p3047
sI153
S''
ssg3012
S'(f=<function type_log_manage>)'
p3048
sg3014
S'<lambda>'
p3049
sa(dp3050
g2991
S'/home/jose/DESARROLLO/web2py199/applications/streamlog/controllers/default.py'
p3051
sg2993
(dp3052
S'SQLFORM.grid'
p3053
S'<function grid>'
p3054
sS'global SQLFORM'
p3055
S"<class 'gluon.sqlhtml.SQLFORM'>"
p3056
sS'global db'
p3057
S"<DAL {'auth_event': <Table {'origin': <gluon.dal..., 'id': <gluon.dal.Field object at 0x32d2650>}>}>"
p3058
sS'form'
p3059
g3036
sS'db.t_type_log'
p3060
S"<Table {'datemodified': <gluon.dal.Field object ...ription': <gluon.dal.Field object at 0x32b88d0>}>"
p3061
ssg2999
I146
sg3000
(dp3062
I141
S'    form=SQLFORM.grid(db.t_log)'
p3063
sI142
S'    return locals()'
p3064
sI143
S''
sI144
S'def type_log_manage():'
p3065
sI145
S''
sI146
S'    form=SQLFORM.grid(db.t_type_log)'
p3066
sI147
S'    return locals()'
p3067
sI148
S''
sI149
S'def download():'
p3068
sI150
S'    """'
p3069
ssg3012
S'()'
p3070
sg3014
S'type_log_manage'
p3071
sa(dp3072
g2991
S'/home/jose/DESARROLLO/web2py199/gluon/sqlhtml.py'
p3073
sg2993
(dp3074
S'dbset.select'
p3075
S'<bound method Set.select of <gluon.dal.Set object>>'
p3076
sS'orderby'
p3077
S'None'
p3078
sS'rows'
p3079
g3036
sS'fields'
p3080
S'[<gluon.dal.Field object>, <gluon.dal.Field object>, <gluon.dal.Field object>, <gluon.dal.Field object>, <gluon.dal.Field object>, <gluon.dal.Field object>, <gluon.dal.Field object>]'
p3081
sS'limitby'
p3082
S'None'
p3083
sS'dbset'
p3084
S'<gluon.dal.Set object>'
p3085
sS'left'
p3086
S'None'
p3087
ssg2999
I1640
sg3000
(dp3088
I1635
S'            if page<npages-1:'
p3089
sI1636
S"                paginator.append(LI(self_link('>>',npages-1)))"
p3090
sI1637
S'        else:'
p3091
sI1638
S'            limitby = None'
p3092
sI1639
S''
sI1640
S'        rows = dbset.select(left=left,orderby=orderby,limitby=limitby,*fields)'
p3093
sI1641
S"        if not searchable and not rows: return DIV(T('No records found'))"
p3094
sI1642
S'        if rows:'
p3095
sI1643
S'            htmltable = TABLE(THEAD(head))'
p3096
sI1644
S'            tbody = TBODY()'
p3097
ssg3012
S"(query=<Table {'datemodified': <gluon.dal.Field object ...ription': <gluon.dal.Field object at 0x32b88d0>}>, fields=[<gluon.dal.Field object>, <gluon.dal.Field object>, <gluon.dal.Field object>, <gluon.dal.Field object>, <gluon.dal.Field object>, <gluon.dal.Field object>, <gluon.dal.Field object>], field_id=<gluon.dal.Field object>, left=None, headers={}, columns=None, orderby=None, searchable=True, sortable=True, paginate=20, deletable=True, editable=True, details=True, selectable=None, create=True, csv=True, links=None, upload=<function <lambda>>, args=[], user_signature=True, maxtextlengths={}, maxtextlength=20, onvalidation=None, oncreate=None, onupdate=None, ondelete=None, sorter_icons=('[^]', '[v]'), ui={'button': 'button', 'buttonadd': 'icon plus', 'buttonback': 'icon leftarrow', 'buttondelete': 'icon trash', 'buttonedit': 'icon pen', 'buttonexport': 'icon downarrow', 'buttontable': 'icon rightarrow', 'buttontext': 'buttontext button', 'buttonview': 'icon magnifier', 'content': '', ...}, showbuttontext=True, _class='web2py_grid', formname='web2py_grid')"
p3098
sg3014
S'grid'
p3099
sa(dp3100
g2991
S'/home/jose/DESARROLLO/web2py199/gluon/dal.py'
p3101
sg2993
(dp3102
S'self.query'
p3103
S'<gluon.dal.Query object>'
p3104
sS'fields'
p3105
S'(<gluon.dal.Field object>, <gluon.dal.Field object>, <gluon.dal.Field object>, <gluon.dal.Field object>, <gluon.dal.Field object>, <gluon.dal.Field object>, <gluon.dal.Field object>)'
p3106
sS'self'
p3107
S'<gluon.dal.Set object>'
p3108
sS'self.db._adapter.select'
p3109
S'<bound method SQLiteAdapter.select of <gluon.dal.SQLiteAdapter object>>'
p3110
sS'self.db._adapter'
p3111
S'<gluon.dal.SQLiteAdapter object>'
p3112
sS'attributes'
p3113
S"{'left': None, 'limitby': None, 'orderby': None}"
p3114
sS'self.db'
p3115
S"<DAL {'auth_event': <Table {'origin': <gluon.dal..., 'id': <gluon.dal.Field object at 0x32d2650>}>}>"
p3116
ssg2999
I5697
sg3000
(dp3117
I5696
S'    def select(self, *fields, **attributes):'
p3118
sI5697
S'        return self.db._adapter.select(self.query,fields,attributes)'
p3119
sI5698
S''
sI5699
S'    def delete(self):'
p3120
sI5700
S'        tablename=self.db._adapter.get_table(self.query)'
p3121
sI5701
S'        self.delete_uploaded_files()'
p3122
sI5692
S''
sI5693
S'    def count(self,distinct=None):'
p3123
sI5694
S'        return self.db._adapter.count(self.query,distinct)'
p3124
sI5695
S''
ssg3012
S"(self=<gluon.dal.Set object>, *fields=(<gluon.dal.Field object>, <gluon.dal.Field object>, <gluon.dal.Field object>, <gluon.dal.Field object>, <gluon.dal.Field object>, <gluon.dal.Field object>, <gluon.dal.Field object>), **attributes={'left': None, 'limitby': None, 'orderby': None})"
p3125
sg3014
S'select'
p3126
sa(dp3127
g2991
S'/home/jose/DESARROLLO/web2py199/gluon/dal.py'
p3128
sg2993
(dp3129
S'rows'
p3130
g3036
sS'response'
p3131
S'<function response>'
p3132
sS'sql'
p3133
S"'SELECT  t_type_log.id, t_type_log.name, t_type_l...dified FROM t_type_log WHERE (t_type_log.id > 0);'"
p3134
ssg2999
I1233
sg3000
(dp3135
I1228
S"            del attributes['cache']"
p3136
sI1229
S"            key = self.uri + '/' + sql"
p3137
sI1230
S'            key = (key<=200) and key or hashlib.md5(key).hexdigest()'
p3138
sI1231
S'            rows = cache_model(key, lambda: response(sql), time_expire)'
p3139
sI1232
S'        else:'
p3140
sI1233
S'            rows = response(sql)'
p3141
sI1234
S'        if isinstance(rows,tuple):'
p3142
sI1235
S'            rows = list(rows)'
p3143
sI1236
S"        limitby = attributes.get('limitby',None) or (0,)"
p3144
sI1237
S'        rows = self.rowslice(rows,limitby[0],None)'
p3145
ssg3012
S"(self=<gluon.dal.SQLiteAdapter object>, query=<gluon.dal.Query object>, fields=(<gluon.dal.Field object>, <gluon.dal.Field object>, <gluon.dal.Field object>, <gluon.dal.Field object>, <gluon.dal.Field object>, <gluon.dal.Field object>, <gluon.dal.Field object>), attributes={'left': None, 'limitby': None, 'orderby': None})"
p3146
sg3014
g3126
sa(dp3147
g2991
S'/home/jose/DESARROLLO/web2py199/gluon/dal.py'
p3148
sg2993
(dp3149
S'self'
p3150
S'<gluon.dal.SQLiteAdapter object>'
p3151
sS'self.execute'
p3152
S'<bound method SQLiteAdapter.execute of <gluon.dal.SQLiteAdapter object>>'
p3153
sS'sql'
p3154
S"'SELECT  t_type_log.id, t_type_log.name, t_type_l...dified FROM t_type_log WHERE (t_type_log.id > 0);'"
p3155
ssg2999
I1223
sg3000
(dp3156
I1218
S'    def select(self,query,fields,attributes):'
p3157
sI1219
S'        """'
p3158
sI1220
S'        Always returns a Rows object, even if it may be empty'
p3159
sI1221
S'        """'
p3160
sI1222
S'        def response(sql):'
p3161
sI1223
S'            self.execute(sql)'
p3162
sI1224
S'            return self.cursor.fetchall()'
p3163
sI1225
S'        sql = self._select(query,fields,attributes)'
p3164
sI1226
S"        if attributes.get('cache', None):"
p3165
sI1227
S"            (cache_model, time_expire) = attributes['cache']"
p3166
ssg3012
S"(sql='SELECT  t_type_log.id, t_type_log.name, t_type_l...dified FROM t_type_log WHERE (t_type_log.id > 0);')"
p3167
sg3014
S'response'
p3168
sa(dp3169
g2991
S'/home/jose/DESARROLLO/web2py199/gluon/dal.py'
p3170
sg2993
(dp3171
S'a'
S"('SELECT  t_type_log.id, t_type_log.name, t_type_l...dified FROM t_type_log WHERE (t_type_log.id > 0);',)"
p3172
sS'self'
p3173
S'<gluon.dal.SQLiteAdapter object>'
p3174
sS'b'
g20
sS'self.log_execute'
p3175
S'<bound method SQLiteAdapter.log_execute of <gluon.dal.SQLiteAdapter object>>'
p3176
ssg2999
I1309
sg3000
(dp3177
I1312
S'        if isinstance(obj,CALLABLETYPES):'
p3178
sI1313
S'            obj = obj()'
p3179
sI1304
S'        ret = self.cursor.execute(*a,**b)'
p3180
sI1305
S'        self.db._timings.append((a[0],time.time()-t0))'
p3181
sI1306
S'        return ret'
p3182
sI1307
S''
sI1308
S'    def execute(self,*a,**b):'
p3183
sI1309
S'        return self.log_execute(*a, **b)'
p3184
sI1310
S''
sI1311
S'    def represent(self, obj, fieldtype):'
p3185
ssg3012
S"(self=<gluon.dal.SQLiteAdapter object>, *a=('SELECT  t_type_log.id, t_type_log.name, t_type_l...dified FROM t_type_log WHERE (t_type_log.id > 0);',), **b={})"
p3186
sg3014
S'execute'
p3187
sa(dp3188
g2991
S'/home/jose/DESARROLLO/web2py199/gluon/dal.py'
p3189
sg2993
(dp3190
S'a'
S"('SELECT  t_type_log.id, t_type_log.name, t_type_l...dified FROM t_type_log WHERE (t_type_log.id > 0);',)"
p3191
sS'b'
g20
sS'self'
p3192
S'<gluon.dal.SQLiteAdapter object>'
p3193
sS'ret'
p3194
g3036
sS'self.cursor'
p3195
S'<sqlite3.Cursor object>'
p3196
sS'self.cursor.execute'
p3197
S'<built-in method execute of sqlite3.Cursor object>'
p3198
ssg2999
I1304
sg3000
(dp3199
I1299
S'        self.execute(query)'
p3200
sI1300
S''
sI1301
S'    def log_execute(self,*a,**b):'
p3201
sI1302
S'        self.db._lastsql = a[0]'
p3202
sI1303
S'        t0 = time.time()'
p3203
sI1304
S'        ret = self.cursor.execute(*a,**b)'
p3204
sI1305
S'        self.db._timings.append((a[0],time.time()-t0))'
p3205
sI1306
S'        return ret'
p3206
sI1307
S''
sI1308
S'    def execute(self,*a,**b):'
p3207
ssg3012
S"(self=<gluon.dal.SQLiteAdapter object>, *a=('SELECT  t_type_log.id, t_type_log.name, t_type_l...dified FROM t_type_log WHERE (t_type_log.id > 0);',), **b={})"
p3208
sg3014
S'log_execute'
p3209
sasS'pyver'
p3210
S'Python 2.7.2+: /usr/bin/python'
p3211
sS'session'
p3212
g60
(g61
g62
NtRp3213
(dp3214
g65
(dp3215
sg67
(lp3216
g60
(g69
g62
NtRp3217
(dp3218
g65
(dp3219
g73
I5
ssg74
Nsg67
(lp3220
g60
(g76
g62
NtRp3221
(dp3222
g65
(dp3223
sg74
g3217
sg67
(lp3224
g60
(g81
g62
NtRp3225
(dp3226
g65
(dp3227
g85
g86
ssg74
g3221
sg67
(lp3228
S'auth'
p3229
asbag60
(g81
g62
NtRp3230
(dp3231
g65
(dp3232
g92
g93
ssg74
g3221
sg67
(lp3233
S':'
asbag60
(g81
g62
NtRp3234
(dp3235
g65
(dp3236
sg74
g3221
sg67
(lp3237
g60
(g61
g62
NtRp3238
(dp3239
g65
(dp3240
g73
I5
ssg74
g3234
sg67
(lp3241
g60
(g69
g62
NtRp3242
(dp3243
g65
(dp3244
g73
I4
ssg74
Nsg67
(lp3245
g60
(g76
g62
NtRp3246
(dp3247
g65
(dp3248
sg74
g3242
sg67
(lp3249
g60
(g81
g62
NtRp3250
(dp3251
g65
(dp3252
g85
g86
ssg74
g3246
sg67
(lp3253
S'expiration'
p3254
asbag60
(g81
g62
NtRp3255
(dp3256
g65
(dp3257
g92
g93
ssg74
g3246
sg67
(lp3258
S':'
asbag60
(g81
g62
NtRp3259
(dp3260
g65
(dp3261
sg74
g3246
sg67
(lp3262
g60
(g61
g62
NtRp3263
(dp3264
g65
(dp3265
g73
I4
ssg74
g3259
sg67
(lp3266
S'2592000'
p3267
asbasbasbag60
(g76
g62
NtRp3268
(dp3269
g65
(dp3270
sg74
g3242
sg67
(lp3271
g60
(g81
g62
NtRp3272
(dp3273
g65
(dp3274
g85
g86
ssg74
g3268
sg67
(lp3275
S'hmac_key'
p3276
asbag60
(g81
g62
NtRp3277
(dp3278
g65
(dp3279
g92
g93
ssg74
g3268
sg67
(lp3280
S':'
asbag60
(g81
g62
NtRp3281
(dp3282
g65
(dp3283
sg74
g3268
sg67
(lp3284
g60
(g61
g62
NtRp3285
(dp3286
g65
(dp3287
g73
I4
ssg74
g3281
sg67
(lp3288
S'8454e122-c616-40c1-9040-a7973410e7b5'
p3289
asbasbasbag60
(g76
g62
NtRp3290
(dp3291
g65
(dp3292
sg74
g3242
sg67
(lp3293
g60
(g81
g62
NtRp3294
(dp3295
g65
(dp3296
g85
g86
ssg74
g3290
sg67
(lp3297
S'last_visit'
p3298
asbag60
(g81
g62
NtRp3299
(dp3300
g65
(dp3301
g92
g93
ssg74
g3290
sg67
(lp3302
S':'
asbag60
(g81
g62
NtRp3303
(dp3304
g65
(dp3305
sg74
g3290
sg67
(lp3306
g60
(g61
g62
NtRp3307
(dp3308
g65
(dp3309
g73
I4
ssg74
g3303
sg67
(lp3310
S'datetime.datetime(2012, 5, 27, 8, 55, 33, 377220)'
p3311
asbasbasbag60
(g76
g62
NtRp3312
(dp3313
g65
(dp3314
sg74
g3242
sg67
(lp3315
g60
(g81
g62
NtRp3316
(dp3317
g65
(dp3318
g85
g86
ssg74
g3312
sg67
(lp3319
S'remember'
p3320
asbag60
(g81
g62
NtRp3321
(dp3322
g65
(dp3323
g92
g93
ssg74
g3312
sg67
(lp3324
S':'
asbag60
(g81
g62
NtRp3325
(dp3326
g65
(dp3327
sg74
g3312
sg67
(lp3328
g60
(g61
g62
NtRp3329
(dp3330
g65
(dp3331
g73
I4
ssg74
g3325
sg67
(lp3332
g103
asbasbasbag60
(g76
g62
NtRp3333
(dp3334
g65
(dp3335
sg74
g3242
sg67
(lp3336
g60
(g81
g62
NtRp3337
(dp3338
g65
(dp3339
g85
g86
ssg74
g3333
sg67
(lp3340
S'user'
p3341
asbag60
(g81
g62
NtRp3342
(dp3343
g65
(dp3344
g92
g93
ssg74
g3333
sg67
(lp3345
S':'
asbag60
(g81
g62
NtRp3346
(dp3347
g65
(dp3348
sg74
g3333
sg67
(lp3349
g60
(g61
g62
NtRp3350
(dp3351
g65
(dp3352
g73
I4
ssg74
g3346
sg67
(lp3353
g60
(g69
g62
NtRp3354
(dp3355
g65
(dp3356
g73
I3
ssg74
Nsg67
(lp3357
g60
(g76
g62
NtRp3358
(dp3359
g65
(dp3360
sg74
g3354
sg67
(lp3361
g60
(g81
g62
NtRp3362
(dp3363
g65
(dp3364
g85
g86
ssg74
g3358
sg67
(lp3365
S'email'
p3366
asbag60
(g81
g62
NtRp3367
(dp3368
g65
(dp3369
g92
g93
ssg74
g3358
sg67
(lp3370
S':'
asbag60
(g81
g62
NtRp3371
(dp3372
g65
(dp3373
sg74
g3358
sg67
(lp3374
g60
(g61
g62
NtRp3375
(dp3376
g65
(dp3377
g73
I3
ssg74
g3371
sg67
(lp3378
S'josedesoto@gmail.com'
p3379
asbasbasbag60
(g76
g62
NtRp3380
(dp3381
g65
(dp3382
sg74
g3354
sg67
(lp3383
g60
(g81
g62
NtRp3384
(dp3385
g65
(dp3386
g85
g86
ssg74
g3380
sg67
(lp3387
S'first_name'
p3388
asbag60
(g81
g62
NtRp3389
(dp3390
g65
(dp3391
g92
g93
ssg74
g3380
sg67
(lp3392
S':'
asbag60
(g81
g62
NtRp3393
(dp3394
g65
(dp3395
sg74
g3380
sg67
(lp3396
g60
(g61
g62
NtRp3397
(dp3398
g65
(dp3399
g73
I3
ssg74
g3393
sg67
(lp3400
S'jose'
p3401
asbasbasbag60
(g76
g62
NtRp3402
(dp3403
g65
(dp3404
sg74
g3354
sg67
(lp3405
g60
(g81
g62
NtRp3406
(dp3407
g65
(dp3408
g85
g86
ssg74
g3402
sg67
(lp3409
S'id'
p3410
asbag60
(g81
g62
NtRp3411
(dp3412
g65
(dp3413
g92
g93
ssg74
g3402
sg67
(lp3414
S':'
asbag60
(g81
g62
NtRp3415
(dp3416
g65
(dp3417
sg74
g3402
sg67
(lp3418
g60
(g61
g62
NtRp3419
(dp3420
g65
(dp3421
g73
I3
ssg74
g3415
sg67
(lp3422
S'1'
asbasbasbag60
(g76
g62
NtRp3423
(dp3424
g65
(dp3425
sg74
g3354
sg67
(lp3426
g60
(g81
g62
NtRp3427
(dp3428
g65
(dp3429
g85
g86
ssg74
g3423
sg67
(lp3430
S'last_name'
p3431
asbag60
(g81
g62
NtRp3432
(dp3433
g65
(dp3434
g92
g93
ssg74
g3423
sg67
(lp3435
S':'
asbag60
(g81
g62
NtRp3436
(dp3437
g65
(dp3438
sg74
g3423
sg67
(lp3439
g60
(g61
g62
NtRp3440
(dp3441
g65
(dp3442
g73
I3
ssg74
g3436
sg67
(lp3443
S'jose'
p3444
asbasbasbag60
(g76
g62
NtRp3445
(dp3446
g65
(dp3447
sg74
g3354
sg67
(lp3448
g60
(g81
g62
NtRp3449
(dp3450
g65
(dp3451
g85
g86
ssg74
g3445
sg67
(lp3452
S'password'
p3453
asbag60
(g81
g62
NtRp3454
(dp3455
g65
(dp3456
g92
g93
ssg74
g3445
sg67
(lp3457
S':'
asbag60
(g81
g62
NtRp3458
(dp3459
g65
(dp3460
sg74
g3445
sg67
(lp3461
g60
(g61
g62
NtRp3462
(dp3463
g65
(dp3464
g73
I3
ssg74
g3458
sg67
(lp3465
S'2b32eaa2baa0c63b755a4cde1e4dda83'
p3466
asbasbasbag60
(g76
g62
NtRp3467
(dp3468
g65
(dp3469
sg74
g3354
sg67
(lp3470
g60
(g81
g62
NtRp3471
(dp3472
g65
(dp3473
g85
g86
ssg74
g3467
sg67
(lp3474
S'registration_key'
p3475
asbag60
(g81
g62
NtRp3476
(dp3477
g65
(dp3478
g92
g93
ssg74
g3467
sg67
(lp3479
S':'
asbag60
(g81
g62
NtRp3480
(dp3481
g65
(dp3482
sg74
g3467
sg67
(lp3483
g60
(g61
g62
NtRp3484
(dp3485
g65
(dp3486
g73
I3
ssg74
g3480
sg67
(lp3487
S''
asbasbasbag60
(g76
g62
NtRp3488
(dp3489
g65
(dp3490
sg74
g3354
sg67
(lp3491
g60
(g81
g62
NtRp3492
(dp3493
g65
(dp3494
g85
g86
ssg74
g3488
sg67
(lp3495
S'reset_password_key'
p3496
asbag60
(g81
g62
NtRp3497
(dp3498
g65
(dp3499
g92
g93
ssg74
g3488
sg67
(lp3500
S':'
asbag60
(g81
g62
NtRp3501
(dp3502
g65
(dp3503
sg74
g3488
sg67
(lp3504
g60
(g61
g62
NtRp3505
(dp3506
g65
(dp3507
g73
I3
ssg74
g3501
sg67
(lp3508
S''
asbasbasbasbasbasbasbasbasbasbasbag60
(g76
g62
NtRp3509
(dp3510
g65
(dp3511
sg74
g3217
sg67
(lp3512
g60
(g81
g62
NtRp3513
(dp3514
g65
(dp3515
g85
g86
ssg74
g3509
sg67
(lp3516
S'last_query'
p3517
asbag60
(g81
g62
NtRp3518
(dp3519
g65
(dp3520
g92
g93
ssg74
g3509
sg67
(lp3521
S':'
asbag60
(g81
g62
NtRp3522
(dp3523
g65
(dp3524
sg74
g3509
sg67
(lp3525
g60
(g61
g62
NtRp3526
(dp3527
g65
(dp3528
g73
I5
ssg74
g3522
sg67
(lp3529
S'db((db.t_log.id==1)&(db.t_log.type_log==db.t_type_log.id)).select(db.t_type_log.html_table)'
p3530
asbasbasbasbasbsS'etype'
p3531
S"<class 'sqlite3.OperationalError'>"
p3532
sS'date'
p3533
S'Sun May 27 11:49:08 2012'
p3534
sg3168
g60
(g61
g62
NtRp3535
(dp3536
g65
(dp3537
sg67
(lp3538
g60
(g69
g62
NtRp3539
(dp3540
g65
(dp3541
g73
I5
ssg74
Nsg67
(lp3542
g60
(g76
g62
NtRp3543
(dp3544
g65
(dp3545
sg74
g3539
sg67
(lp3546
g60
(g81
g62
NtRp3547
(dp3548
g65
(dp3549
g85
g86
ssg74
g3543
sg67
(lp3550
g158
asbag60
(g81
g62
NtRp3551
(dp3552
g65
(dp3553
g92
g93
ssg74
g3543
sg67
(lp3554
S':'
asbag60
(g81
g62
NtRp3555
(dp3556
g65
(dp3557
sg74
g3543
sg67
(lp3558
g60
(g61
g62
NtRp3559
(dp3560
g65
(dp3561
g73
I5
ssg74
g3555
sg67
(lp3562
S'<cStringIO.StringO object at 0x32c3f10>'
p3563
asbasbasbag60
(g76
g62
NtRp3564
(dp3565
g65
(dp3566
sg74
g3539
sg67
(lp3567
g60
(g81
g62
NtRp3568
(dp3569
g65
(dp3570
g85
g86
ssg74
g3564
sg67
(lp3571
g224
asbag60
(g81
g62
NtRp3572
(dp3573
g65
(dp3574
g92
g93
ssg74
g3564
sg67
(lp3575
S':'
asbag60
(g81
g62
NtRp3576
(dp3577
g65
(dp3578
sg74
g3564
sg67
(lp3579
g60
(g61
g62
NtRp3580
(dp3581
g65
(dp3582
g73
I5
ssg74
g3576
sg67
(lp3583
g60
(g69
g62
NtRp3584
(dp3585
g65
(dp3586
g73
I4
ssg74
Nsg67
(lp3587
g60
(g76
g62
NtRp3588
(dp3589
g65
(dp3590
sg74
g3584
sg67
(lp3591
g60
(g81
g62
NtRp3592
(dp3593
g65
(dp3594
g85
g86
ssg74
g3588
sg67
(lp3595
S'session_id_streamlog'
p3596
asbag60
(g81
g62
NtRp3597
(dp3598
g65
(dp3599
g92
g93
ssg74
g3588
sg67
(lp3600
S':'
asbag60
(g81
g62
NtRp3601
(dp3602
g65
(dp3603
sg74
g3588
sg67
(lp3604
g60
(g61
g62
NtRp3605
(dp3606
g65
(dp3607
g73
I4
ssg74
g3601
sg67
(lp3608
g60
(g69
g62
NtRp3609
(dp3610
g65
(dp3611
g73
I3
ssg74
Nsg67
(lp3612
g60
(g76
g62
NtRp3613
(dp3614
g65
(dp3615
sg74
g3609
sg67
(lp3616
g60
(g81
g62
NtRp3617
(dp3618
g65
(dp3619
g85
g86
ssg74
g3613
sg67
(lp3620
g274
asbag60
(g81
g62
NtRp3621
(dp3622
g65
(dp3623
g92
g93
ssg74
g3613
sg67
(lp3624
S':'
asbag60
(g81
g62
NtRp3625
(dp3626
g65
(dp3627
sg74
g3613
sg67
(lp3628
g60
(g61
g62
NtRp3629
(dp3630
g65
(dp3631
g73
I3
ssg74
g3625
sg67
(lp3632
S''
asbasbasbag60
(g76
g62
NtRp3633
(dp3634
g65
(dp3635
sg74
g3609
sg67
(lp3636
g60
(g81
g62
NtRp3637
(dp3638
g65
(dp3639
g85
g86
ssg74
g3633
sg67
(lp3640
g295
asbag60
(g81
g62
NtRp3641
(dp3642
g65
(dp3643
g92
g93
ssg74
g3633
sg67
(lp3644
S':'
asbag60
(g81
g62
NtRp3645
(dp3646
g65
(dp3647
sg74
g3633
sg67
(lp3648
g60
(g61
g62
NtRp3649
(dp3650
g65
(dp3651
g73
I3
ssg74
g3645
sg67
(lp3652
S''
asbasbasbag60
(g76
g62
NtRp3653
(dp3654
g65
(dp3655
sg74
g3609
sg67
(lp3656
g60
(g81
g62
NtRp3657
(dp3658
g65
(dp3659
g85
g86
ssg74
g3653
sg67
(lp3660
g316
asbag60
(g81
g62
NtRp3661
(dp3662
g65
(dp3663
g92
g93
ssg74
g3653
sg67
(lp3664
S':'
asbag60
(g81
g62
NtRp3665
(dp3666
g65
(dp3667
sg74
g3653
sg67
(lp3668
g60
(g61
g62
NtRp3669
(dp3670
g65
(dp3671
g73
I3
ssg74
g3665
sg67
(lp3672
S''
asbasbasbag60
(g76
g62
NtRp3673
(dp3674
g65
(dp3675
sg74
g3609
sg67
(lp3676
g60
(g81
g62
NtRp3677
(dp3678
g65
(dp3679
g85
g86
ssg74
g3673
sg67
(lp3680
g337
asbag60
(g81
g62
NtRp3681
(dp3682
g65
(dp3683
g92
g93
ssg74
g3673
sg67
(lp3684
S':'
asbag60
(g81
g62
NtRp3685
(dp3686
g65
(dp3687
sg74
g3673
sg67
(lp3688
g60
(g61
g62
NtRp3689
(dp3690
g65
(dp3691
g73
I3
ssg74
g3685
sg67
(lp3692
S''
asbasbasbag60
(g76
g62
NtRp3693
(dp3694
g65
(dp3695
sg74
g3609
sg67
(lp3696
g60
(g81
g62
NtRp3697
(dp3698
g65
(dp3699
g85
g86
ssg74
g3693
sg67
(lp3700
g358
asbag60
(g81
g62
NtRp3701
(dp3702
g65
(dp3703
g92
g93
ssg74
g3693
sg67
(lp3704
S':'
asbag60
(g81
g62
NtRp3705
(dp3706
g65
(dp3707
sg74
g3693
sg67
(lp3708
g60
(g61
g62
NtRp3709
(dp3710
g65
(dp3711
g73
I3
ssg74
g3705
sg67
(lp3712
S''
asbasbasbag60
(g76
g62
NtRp3713
(dp3714
g65
(dp3715
sg74
g3609
sg67
(lp3716
g60
(g81
g62
NtRp3717
(dp3718
g65
(dp3719
g85
g86
ssg74
g3713
sg67
(lp3720
g379
asbag60
(g81
g62
NtRp3721
(dp3722
g65
(dp3723
g92
g93
ssg74
g3713
sg67
(lp3724
S':'
asbag60
(g81
g62
NtRp3725
(dp3726
g65
(dp3727
sg74
g3713
sg67
(lp3728
g60
(g61
g62
NtRp3729
(dp3730
g65
(dp3731
g73
I3
ssg74
g3725
sg67
(lp3732
S'/'
asbasbasbag60
(g76
g62
NtRp3733
(dp3734
g65
(dp3735
sg74
g3609
sg67
(lp3736
g60
(g81
g62
NtRp3737
(dp3738
g65
(dp3739
g85
g86
ssg74
g3733
sg67
(lp3740
g400
asbag60
(g81
g62
NtRp3741
(dp3742
g65
(dp3743
g92
g93
ssg74
g3733
sg67
(lp3744
S':'
asbag60
(g81
g62
NtRp3745
(dp3746
g65
(dp3747
sg74
g3733
sg67
(lp3748
g60
(g61
g62
NtRp3749
(dp3750
g65
(dp3751
g73
I3
ssg74
g3745
sg67
(lp3752
S''
asbasbasbag60
(g76
g62
NtRp3753
(dp3754
g65
(dp3755
sg74
g3609
sg67
(lp3756
g60
(g81
g62
NtRp3757
(dp3758
g65
(dp3759
g85
g86
ssg74
g3753
sg67
(lp3760
g421
asbag60
(g81
g62
NtRp3761
(dp3762
g65
(dp3763
g92
g93
ssg74
g3753
sg67
(lp3764
S':'
asbag60
(g81
g62
NtRp3765
(dp3766
g65
(dp3767
sg74
g3753
sg67
(lp3768
g60
(g61
g62
NtRp3769
(dp3770
g65
(dp3771
g73
I3
ssg74
g3765
sg67
(lp3772
S''
asbasbasbasbasbasbasbasbasbasbasbag60
(g76
g62
NtRp3773
(dp3774
g65
(dp3775
sg74
g3539
sg67
(lp3776
g60
(g81
g62
NtRp3777
(dp3778
g65
(dp3779
g85
g86
ssg74
g3773
sg67
(lp3780
S'files'
p3781
asbag60
(g81
g62
NtRp3782
(dp3783
g65
(dp3784
g92
g93
ssg74
g3773
sg67
(lp3785
S':'
asbag60
(g81
g62
NtRp3786
(dp3787
g65
(dp3788
sg74
g3773
sg67
(lp3789
g60
(g61
g62
NtRp3790
(dp3791
g65
(dp3792
g73
I5
ssg74
g3786
sg67
(lp3793
g60
(g69
g62
NtRp3794
(dp3795
g65
(dp3796
g73
I4
ssg74
Nsg67
(lp3797
sbasbasbasbag60
(g76
g62
NtRp3798
(dp3799
g65
(dp3800
sg74
g3539
sg67
(lp3801
g60
(g81
g62
NtRp3802
(dp3803
g65
(dp3804
g85
g86
ssg74
g3798
sg67
(lp3805
S'flash'
p3806
asbag60
(g81
g62
NtRp3807
(dp3808
g65
(dp3809
g92
g93
ssg74
g3798
sg67
(lp3810
S':'
asbag60
(g81
g62
NtRp3811
(dp3812
g65
(dp3813
sg74
g3798
sg67
(lp3814
g60
(g61
g62
NtRp3815
(dp3816
g65
(dp3817
g73
I5
ssg74
g3811
sg67
(lp3818
S''
asbasbasbag60
(g76
g62
NtRp3819
(dp3820
g65
(dp3821
sg74
g3539
sg67
(lp3822
g60
(g81
g62
NtRp3823
(dp3824
g65
(dp3825
g85
g86
ssg74
g3819
sg67
(lp3826
S'generic_patterns'
p3827
asbag60
(g81
g62
NtRp3828
(dp3829
g65
(dp3830
g92
g93
ssg74
g3819
sg67
(lp3831
S':'
asbag60
(g81
g62
NtRp3832
(dp3833
g65
(dp3834
sg74
g3819
sg67
(lp3835
g60
(g61
g62
NtRp3836
(dp3837
g65
(dp3838
g73
I5
ssg74
g3832
sg67
(lp3839
g60
(g69
g62
NtRp3840
(dp3841
g65
(dp3842
g73
I4
ssg74
Nsg67
(lp3843
g60
(g76
g62
NtRp3844
(dp3845
g65
(dp3846
sg74
g3840
sg67
(lp3847
g60
(g81
g62
NtRp3848
(dp3849
g65
(dp3850
sg74
g3844
sg67
(lp3851
g60
(g61
g62
NtRp3852
(dp3853
g65
(dp3854
g73
I4
ssg74
g3848
sg67
(lp3855
S'*'
asbasbasbasbasbasbasbag60
(g76
g62
NtRp3856
(dp3857
g65
(dp3858
sg74
g3539
sg67
(lp3859
g60
(g81
g62
NtRp3860
(dp3861
g65
(dp3862
g85
g86
ssg74
g3856
sg67
(lp3863
S'headers'
p3864
asbag60
(g81
g62
NtRp3865
(dp3866
g65
(dp3867
g92
g93
ssg74
g3856
sg67
(lp3868
S':'
asbag60
(g81
g62
NtRp3869
(dp3870
g65
(dp3871
sg74
g3856
sg67
(lp3872
g60
(g61
g62
NtRp3873
(dp3874
g65
(dp3875
g73
I5
ssg74
g3869
sg67
(lp3876
g60
(g69
g62
NtRp3877
(dp3878
g65
(dp3879
g73
I4
ssg74
Nsg67
(lp3880
g60
(g76
g62
NtRp3881
(dp3882
g65
(dp3883
sg74
g3877
sg67
(lp3884
g60
(g81
g62
NtRp3885
(dp3886
g65
(dp3887
g85
g86
ssg74
g3881
sg67
(lp3888
S'Cache-Control'
p3889
asbag60
(g81
g62
NtRp3890
(dp3891
g65
(dp3892
g92
g93
ssg74
g3881
sg67
(lp3893
S':'
asbag60
(g81
g62
NtRp3894
(dp3895
g65
(dp3896
sg74
g3881
sg67
(lp3897
g60
(g61
g62
NtRp3898
(dp3899
g65
(dp3900
g73
I4
ssg74
g3894
sg67
(lp3901
S'no-store, no-cache, must-revalidate, post-check=0, pre-check=0'
p3902
asbasbasbag60
(g76
g62
NtRp3903
(dp3904
g65
(dp3905
sg74
g3877
sg67
(lp3906
g60
(g81
g62
NtRp3907
(dp3908
g65
(dp3909
g85
g86
ssg74
g3903
sg67
(lp3910
S'Content-Type'
p3911
asbag60
(g81
g62
NtRp3912
(dp3913
g65
(dp3914
g92
g93
ssg74
g3903
sg67
(lp3915
S':'
asbag60
(g81
g62
NtRp3916
(dp3917
g65
(dp3918
sg74
g3903
sg67
(lp3919
g60
(g61
g62
NtRp3920
(dp3921
g65
(dp3922
g73
I4
ssg74
g3916
sg67
(lp3923
S'text/html; charset=utf-8'
p3924
asbasbasbag60
(g76
g62
NtRp3925
(dp3926
g65
(dp3927
sg74
g3877
sg67
(lp3928
g60
(g81
g62
NtRp3929
(dp3930
g65
(dp3931
g85
g86
ssg74
g3925
sg67
(lp3932
S'Expires'
p3933
asbag60
(g81
g62
NtRp3934
(dp3935
g65
(dp3936
g92
g93
ssg74
g3925
sg67
(lp3937
S':'
asbag60
(g81
g62
NtRp3938
(dp3939
g65
(dp3940
sg74
g3925
sg67
(lp3941
g60
(g61
g62
NtRp3942
(dp3943
g65
(dp3944
g73
I4
ssg74
g3938
sg67
(lp3945
S'Sun, 27 May 2012 04:49:08 GMT'
p3946
asbasbasbag60
(g76
g62
NtRp3947
(dp3948
g65
(dp3949
sg74
g3877
sg67
(lp3950
g60
(g81
g62
NtRp3951
(dp3952
g65
(dp3953
g85
g86
ssg74
g3947
sg67
(lp3954
S'Pragma'
p3955
asbag60
(g81
g62
NtRp3956
(dp3957
g65
(dp3958
g92
g93
ssg74
g3947
sg67
(lp3959
S':'
asbag60
(g81
g62
NtRp3960
(dp3961
g65
(dp3962
sg74
g3947
sg67
(lp3963
g60
(g61
g62
NtRp3964
(dp3965
g65
(dp3966
g73
I4
ssg74
g3960
sg67
(lp3967
S'no-cache'
p3968
asbasbasbag60
(g76
g62
NtRp3969
(dp3970
g65
(dp3971
sg74
g3877
sg67
(lp3972
g60
(g81
g62
NtRp3973
(dp3974
g65
(dp3975
g85
g86
ssg74
g3969
sg67
(lp3976
S'X-Powered-By'
p3977
asbag60
(g81
g62
NtRp3978
(dp3979
g65
(dp3980
g92
g93
ssg74
g3969
sg67
(lp3981
S':'
asbag60
(g81
g62
NtRp3982
(dp3983
g65
(dp3984
sg74
g3969
sg67
(lp3985
g60
(g61
g62
NtRp3986
(dp3987
g65
(dp3988
g73
I4
ssg74
g3982
sg67
(lp3989
S'web2py'
p3990
asbasbasbasbasbasbasbag60
(g76
g62
NtRp3991
(dp3992
g65
(dp3993
sg74
g3539
sg67
(lp3994
g60
(g81
g62
NtRp3995
(dp3996
g65
(dp3997
g85
g86
ssg74
g3991
sg67
(lp3998
S'menu'
p3999
asbag60
(g81
g62
NtRp4000
(dp4001
g65
(dp4002
g92
g93
ssg74
g3991
sg67
(lp4003
S':'
asbag60
(g81
g62
NtRp4004
(dp4005
g65
(dp4006
sg74
g3991
sg67
(lp4007
g60
(g61
g62
NtRp4008
(dp4009
g65
(dp4010
g73
I5
ssg74
g4004
sg67
(lp4011
g60
(g69
g62
NtRp4012
(dp4013
g65
(dp4014
g73
I4
ssg74
Nsg67
(lp4015
g60
(g76
g62
NtRp4016
(dp4017
g65
(dp4018
sg74
g4012
sg67
(lp4019
g60
(g81
g62
NtRp4020
(dp4021
g65
(dp4022
sg74
g4016
sg67
(lp4023
g60
(g61
g62
NtRp4024
(dp4025
g65
(dp4026
g73
I4
ssg74
g4020
sg67
(lp4027
g60
(g69
g62
NtRp4028
(dp4029
g65
(dp4030
g73
I3
ssg74
Nsg67
(lp4031
g60
(g76
g62
NtRp4032
(dp4033
g65
(dp4034
sg74
g4028
sg67
(lp4035
g60
(g81
g62
NtRp4036
(dp4037
g65
(dp4038
sg74
g4032
sg67
(lp4039
g60
(g61
g62
NtRp4040
(dp4041
g65
(dp4042
g73
I3
ssg74
g4036
sg67
(lp4043
cgluon.languages
lazyT_unpickle
p4044
(S's\n\x00\x00\x00Clear Page'
tRp4045
asbasbasbag60
(g76
g62
NtRp4046
(dp4047
g65
(dp4048
sg74
g4028
sg67
(lp4049
g60
(g81
g62
NtRp4050
(dp4051
g65
(dp4052
sg74
g4046
sg67
(lp4053
g60
(g61
g62
NtRp4054
(dp4055
g65
(dp4056
g73
I3
ssg74
g4050
sg67
(lp4057
g103
asbasbasbag60
(g76
g62
NtRp4058
(dp4059
g65
(dp4060
sg74
g4028
sg67
(lp4061
g60
(g81
g62
NtRp4062
(dp4063
g65
(dp4064
sg74
g4058
sg67
(lp4065
g60
(g61
g62
NtRp4066
(dp4067
g65
(dp4068
g73
I3
ssg74
g4062
sg67
(lp4069
S'/streamlog/default/index'
p4070
asbasbasbag60
(g76
g62
NtRp4071
(dp4072
g65
(dp4073
sg74
g4028
sg67
(lp4074
g60
(g81
g62
NtRp4075
(dp4076
g65
(dp4077
sg74
g4071
sg67
(lp4078
g60
(g61
g62
NtRp4079
(dp4080
g65
(dp4081
g73
I3
ssg74
g4075
sg67
(lp4082
g60
(g69
g62
NtRp4083
(dp4084
g65
(dp4085
g73
I2
ssg74
Nsg67
(lp4086
sbasbasbasbasbasbasbasbag60
(g76
g62
NtRp4087
(dp4088
g65
(dp4089
sg74
g4012
sg67
(lp4090
g60
(g81
g62
NtRp4091
(dp4092
g65
(dp4093
sg74
g4087
sg67
(lp4094
g60
(g61
g62
NtRp4095
(dp4096
g65
(dp4097
g73
I4
ssg74
g4091
sg67
(lp4098
g60
(g69
g62
NtRp4099
(dp4100
g65
(dp4101
g73
I3
ssg74
Nsg67
(lp4102
g60
(g76
g62
NtRp4103
(dp4104
g65
(dp4105
sg74
g4099
sg67
(lp4106
g60
(g81
g62
NtRp4107
(dp4108
g65
(dp4109
sg74
g4103
sg67
(lp4110
g60
(g61
g62
NtRp4111
(dp4112
g65
(dp4113
g73
I3
ssg74
g4107
sg67
(lp4114
g4044
(S't\x06\x00\x00\x00Manage'
tRp4115
asbasbasbag60
(g76
g62
NtRp4116
(dp4117
g65
(dp4118
sg74
g4099
sg67
(lp4119
g60
(g81
g62
NtRp4120
(dp4121
g65
(dp4122
sg74
g4116
sg67
(lp4123
g60
(g61
g62
NtRp4124
(dp4125
g65
(dp4126
g73
I3
ssg74
g4120
sg67
(lp4127
g103
asbasbasbag60
(g76
g62
NtRp4128
(dp4129
g65
(dp4130
sg74
g4099
sg67
(lp4131
g60
(g81
g62
NtRp4132
(dp4133
g65
(dp4134
sg74
g4128
sg67
(lp4135
g60
(g61
g62
NtRp4136
(dp4137
g65
(dp4138
g73
I3
ssg74
g4132
sg67
(lp4139
S'None'
p4140
asbasbasbag60
(g76
g62
NtRp4141
(dp4142
g65
(dp4143
sg74
g4099
sg67
(lp4144
g60
(g81
g62
NtRp4145
(dp4146
g65
(dp4147
sg74
g4141
sg67
(lp4148
g60
(g61
g62
NtRp4149
(dp4150
g65
(dp4151
g73
I3
ssg74
g4145
sg67
(lp4152
g60
(g69
g62
NtRp4153
(dp4154
g65
(dp4155
g73
I2
ssg74
Nsg67
(lp4156
g60
(g76
g62
NtRp4157
(dp4158
g65
(dp4159
sg74
g4153
sg67
(lp4160
g60
(g81
g62
NtRp4161
(dp4162
g65
(dp4163
sg74
g4157
sg67
(lp4164
g60
(g61
g62
NtRp4165
(dp4166
g65
(dp4167
g73
I2
ssg74
g4161
sg67
(lp4168
g60
(g69
g62
NtRp4169
(dp4170
g65
(dp4171
g73
I1
ssg74
Nsg67
(lp4172
g60
(g76
g62
NtRp4173
(dp4174
g65
(dp4175
sg74
g4169
sg67
(lp4176
g60
(g81
g62
NtRp4177
(dp4178
g65
(dp4179
sg74
g4173
sg67
(lp4180
g60
(g61
g62
NtRp4181
(dp4182
g65
(dp4183
g73
I1
ssg74
g4177
sg67
(lp4184
g4044
(S't\x04\x00\x00\x00Logs'
tRp4185
asbasbasbag60
(g76
g62
NtRp4186
(dp4187
g65
(dp4188
sg74
g4169
sg67
(lp4189
g60
(g81
g62
NtRp4190
(dp4191
g65
(dp4192
sg74
g4186
sg67
(lp4193
g60
(g61
g62
NtRp4194
(dp4195
g65
(dp4196
g73
I1
ssg74
g4190
sg67
(lp4197
I00
asbasbasbag60
(g76
g62
NtRp4198
(dp4199
g65
(dp4200
sg74
g4169
sg67
(lp4201
g60
(g81
g62
NtRp4202
(dp4203
g65
(dp4204
sg74
g4198
sg67
(lp4205
g60
(g61
g62
NtRp4206
(dp4207
g65
(dp4208
g73
I1
ssg74
g4202
sg67
(lp4209
S'/streamlog/default/log_manage'
p4210
asbasbasbag60
(g76
g62
NtRp4211
(dp4212
g65
(dp4213
sg74
g4169
sg67
(lp4214
g60
(g81
g62
NtRp4215
(dp4216
g65
(dp4217
sg74
g4211
sg67
(lp4218
g60
(g61
g62
NtRp4219
(dp4220
g65
(dp4221
g73
I1
ssg74
g4215
sg67
(lp4222
(lp4223
asbasbasbasbasbasbasbag60
(g76
g62
NtRp4224
(dp4225
g65
(dp4226
sg74
g4153
sg67
(lp4227
g60
(g81
g62
NtRp4228
(dp4229
g65
(dp4230
sg74
g4224
sg67
(lp4231
g60
(g61
g62
NtRp4232
(dp4233
g65
(dp4234
g73
I2
ssg74
g4228
sg67
(lp4235
g60
(g69
g62
NtRp4236
(dp4237
g65
(dp4238
g73
I1
ssg74
Nsg67
(lp4239
g60
(g76
g62
NtRp4240
(dp4241
g65
(dp4242
sg74
g4236
sg67
(lp4243
g60
(g81
g62
NtRp4244
(dp4245
g65
(dp4246
sg74
g4240
sg67
(lp4247
g60
(g61
g62
NtRp4248
(dp4249
g65
(dp4250
g73
I1
ssg74
g4244
sg67
(lp4251
g4044
(S't\x07\x00\x00\x00Servers'
tRp4252
asbasbasbag60
(g76
g62
NtRp4253
(dp4254
g65
(dp4255
sg74
g4236
sg67
(lp4256
g60
(g81
g62
NtRp4257
(dp4258
g65
(dp4259
sg74
g4253
sg67
(lp4260
g60
(g61
g62
NtRp4261
(dp4262
g65
(dp4263
g73
I1
ssg74
g4257
sg67
(lp4264
I00
asbasbasbag60
(g76
g62
NtRp4265
(dp4266
g65
(dp4267
sg74
g4236
sg67
(lp4268
g60
(g81
g62
NtRp4269
(dp4270
g65
(dp4271
sg74
g4265
sg67
(lp4272
g60
(g61
g62
NtRp4273
(dp4274
g65
(dp4275
g73
I1
ssg74
g4269
sg67
(lp4276
S'/streamlog/default/server_manage'
p4277
asbasbasbag60
(g76
g62
NtRp4278
(dp4279
g65
(dp4280
sg74
g4236
sg67
(lp4281
g60
(g81
g62
NtRp4282
(dp4283
g65
(dp4284
sg74
g4278
sg67
(lp4285
g60
(g61
g62
NtRp4286
(dp4287
g65
(dp4288
g73
I1
ssg74
g4282
sg67
(lp4289
(lp4290
asbasbasbasbasbasbasbag60
(g76
g62
NtRp4291
(dp4292
g65
(dp4293
sg74
g4153
sg67
(lp4294
g60
(g81
g62
NtRp4295
(dp4296
g65
(dp4297
sg74
g4291
sg67
(lp4298
g60
(g61
g62
NtRp4299
(dp4300
g65
(dp4301
g73
I2
ssg74
g4295
sg67
(lp4302
g60
(g69
g62
NtRp4303
(dp4304
g65
(dp4305
g73
I1
ssg74
Nsg67
(lp4306
g60
(g76
g62
NtRp4307
(dp4308
g65
(dp4309
sg74
g4303
sg67
(lp4310
g60
(g81
g62
NtRp4311
(dp4312
g65
(dp4313
sg74
g4307
sg67
(lp4314
g60
(g61
g62
NtRp4315
(dp4316
g65
(dp4317
g73
I1
ssg74
g4311
sg67
(lp4318
g4044
(S't\x08\x00\x00\x00Projects'
tRp4319
asbasbasbag60
(g76
g62
NtRp4320
(dp4321
g65
(dp4322
sg74
g4303
sg67
(lp4323
g60
(g81
g62
NtRp4324
(dp4325
g65
(dp4326
sg74
g4320
sg67
(lp4327
g60
(g61
g62
NtRp4328
(dp4329
g65
(dp4330
g73
I1
ssg74
g4324
sg67
(lp4331
I00
asbasbasbag60
(g76
g62
NtRp4332
(dp4333
g65
(dp4334
sg74
g4303
sg67
(lp4335
g60
(g81
g62
NtRp4336
(dp4337
g65
(dp4338
sg74
g4332
sg67
(lp4339
g60
(g61
g62
NtRp4340
(dp4341
g65
(dp4342
g73
I1
ssg74
g4336
sg67
(lp4343
S'/streamlog/default/project_manage'
p4344
asbasbasbag60
(g76
g62
NtRp4345
(dp4346
g65
(dp4347
sg74
g4303
sg67
(lp4348
g60
(g81
g62
NtRp4349
(dp4350
g65
(dp4351
sg74
g4345
sg67
(lp4352
g60
(g61
g62
NtRp4353
(dp4354
g65
(dp4355
g73
I1
ssg74
g4349
sg67
(lp4356
(lp4357
asbasbasbasbasbasbasbag60
(g76
g62
NtRp4358
(dp4359
g65
(dp4360
sg74
g4153
sg67
(lp4361
g60
(g81
g62
NtRp4362
(dp4363
g65
(dp4364
sg74
g4358
sg67
(lp4365
g60
(g61
g62
NtRp4366
(dp4367
g65
(dp4368
g73
I2
ssg74
g4362
sg67
(lp4369
g60
(g69
g62
NtRp4370
(dp4371
g65
(dp4372
g73
I1
ssg74
Nsg67
(lp4373
g60
(g76
g62
NtRp4374
(dp4375
g65
(dp4376
sg74
g4370
sg67
(lp4377
g60
(g81
g62
NtRp4378
(dp4379
g65
(dp4380
sg74
g4374
sg67
(lp4381
g60
(g61
g62
NtRp4382
(dp4383
g65
(dp4384
g73
I1
ssg74
g4378
sg67
(lp4385
g4044
(S's\t\x00\x00\x00Type Logs'
tRp4386
asbasbasbag60
(g76
g62
NtRp4387
(dp4388
g65
(dp4389
sg74
g4370
sg67
(lp4390
g60
(g81
g62
NtRp4391
(dp4392
g65
(dp4393
sg74
g4387
sg67
(lp4394
g60
(g61
g62
NtRp4395
(dp4396
g65
(dp4397
g73
I1
ssg74
g4391
sg67
(lp4398
I00
asbasbasbag60
(g76
g62
NtRp4399
(dp4400
g65
(dp4401
sg74
g4370
sg67
(lp4402
g60
(g81
g62
NtRp4403
(dp4404
g65
(dp4405
sg74
g4399
sg67
(lp4406
g60
(g61
g62
NtRp4407
(dp4408
g65
(dp4409
g73
I1
ssg74
g4403
sg67
(lp4410
S'/streamlog/default/type_log_manage'
p4411
asbasbasbag60
(g76
g62
NtRp4412
(dp4413
g65
(dp4414
sg74
g4370
sg67
(lp4415
g60
(g81
g62
NtRp4416
(dp4417
g65
(dp4418
sg74
g4412
sg67
(lp4419
g60
(g61
g62
NtRp4420
(dp4421
g65
(dp4422
g73
I1
ssg74
g4416
sg67
(lp4423
(lp4424
asbasbasbasbasbasbasbasbasbasbasbasbasbasbasbasbasbasbasbag60
(g76
g62
NtRp4425
(dp4426
g65
(dp4427
sg74
g3539
sg67
(lp4428
g60
(g81
g62
NtRp4429
(dp4430
g65
(dp4431
g85
g86
ssg74
g4425
sg67
(lp4432
S'meta'
p4433
asbag60
(g81
g62
NtRp4434
(dp4435
g65
(dp4436
g92
g93
ssg74
g4425
sg67
(lp4437
S':'
asbag60
(g81
g62
NtRp4438
(dp4439
g65
(dp4440
sg74
g4425
sg67
(lp4441
g60
(g61
g62
NtRp4442
(dp4443
g65
(dp4444
g73
I5
ssg74
g4438
sg67
(lp4445
g60
(g69
g62
NtRp4446
(dp4447
g65
(dp4448
g73
I4
ssg74
Nsg67
(lp4449
g60
(g76
g62
NtRp4450
(dp4451
g65
(dp4452
sg74
g4446
sg67
(lp4453
g60
(g81
g62
NtRp4454
(dp4455
g65
(dp4456
g85
g86
ssg74
g4450
sg67
(lp4457
S'author'
p4458
asbag60
(g81
g62
NtRp4459
(dp4460
g65
(dp4461
g92
g93
ssg74
g4450
sg67
(lp4462
S':'
asbag60
(g81
g62
NtRp4463
(dp4464
g65
(dp4465
sg74
g4450
sg67
(lp4466
g60
(g61
g62
NtRp4467
(dp4468
g65
(dp4469
g73
I4
ssg74
g4463
sg67
(lp4470
S'Jose de Soto <josedesoto@gmail.com>'
p4471
asbasbasbag60
(g76
g62
NtRp4472
(dp4473
g65
(dp4474
sg74
g4446
sg67
(lp4475
g60
(g81
g62
NtRp4476
(dp4477
g65
(dp4478
g85
g86
ssg74
g4472
sg67
(lp4479
S'copyright'
p4480
asbag60
(g81
g62
NtRp4481
(dp4482
g65
(dp4483
g92
g93
ssg74
g4472
sg67
(lp4484
S':'
asbag60
(g81
g62
NtRp4485
(dp4486
g65
(dp4487
sg74
g4472
sg67
(lp4488
g60
(g61
g62
NtRp4489
(dp4490
g65
(dp4491
g73
I4
ssg74
g4485
sg67
(lp4492
S'Copyright 2011'
p4493
asbasbasbag60
(g76
g62
NtRp4494
(dp4495
g65
(dp4496
sg74
g4446
sg67
(lp4497
g60
(g81
g62
NtRp4498
(dp4499
g65
(dp4500
g85
g86
ssg74
g4494
sg67
(lp4501
S'description'
p4502
asbag60
(g81
g62
NtRp4503
(dp4504
g65
(dp4505
g92
g93
ssg74
g4494
sg67
(lp4506
S':'
asbag60
(g81
g62
NtRp4507
(dp4508
g65
(dp4509
sg74
g4494
sg67
(lp4510
g60
(g61
g62
NtRp4511
(dp4512
g65
(dp4513
g73
I4
ssg74
g4507
sg67
(lp4514
S'a cool new app'
p4515
asbasbasbag60
(g76
g62
NtRp4516
(dp4517
g65
(dp4518
sg74
g4446
sg67
(lp4519
g60
(g81
g62
NtRp4520
(dp4521
g65
(dp4522
g85
g86
ssg74
g4516
sg67
(lp4523
S'generator'
p4524
asbag60
(g81
g62
NtRp4525
(dp4526
g65
(dp4527
g92
g93
ssg74
g4516
sg67
(lp4528
S':'
asbag60
(g81
g62
NtRp4529
(dp4530
g65
(dp4531
sg74
g4516
sg67
(lp4532
g60
(g61
g62
NtRp4533
(dp4534
g65
(dp4535
g73
I4
ssg74
g4529
sg67
(lp4536
S'Web2py Web Framework'
p4537
asbasbasbag60
(g76
g62
NtRp4538
(dp4539
g65
(dp4540
sg74
g4446
sg67
(lp4541
g60
(g81
g62
NtRp4542
(dp4543
g65
(dp4544
g85
g86
ssg74
g4538
sg67
(lp4545
S'keywords'
p4546
asbag60
(g81
g62
NtRp4547
(dp4548
g65
(dp4549
g92
g93
ssg74
g4538
sg67
(lp4550
S':'
asbag60
(g81
g62
NtRp4551
(dp4552
g65
(dp4553
sg74
g4538
sg67
(lp4554
g60
(g61
g62
NtRp4555
(dp4556
g65
(dp4557
g73
I4
ssg74
g4551
sg67
(lp4558
S'web2py, python, framework'
p4559
asbasbasbasbasbasbasbag60
(g76
g62
NtRp4560
(dp4561
g65
(dp4562
sg74
g3539
sg67
(lp4563
g60
(g81
g62
NtRp4564
(dp4565
g65
(dp4566
g85
g86
ssg74
g4560
sg67
(lp4567
S'postprocessing'
p4568
asbag60
(g81
g62
NtRp4569
(dp4570
g65
(dp4571
g92
g93
ssg74
g4560
sg67
(lp4572
S':'
asbag60
(g81
g62
NtRp4573
(dp4574
g65
(dp4575
sg74
g4560
sg67
(lp4576
g60
(g61
g62
NtRp4577
(dp4578
g65
(dp4579
g73
I5
ssg74
g4573
sg67
(lp4580
g60
(g69
g62
NtRp4581
(dp4582
g65
(dp4583
g73
I4
ssg74
Nsg67
(lp4584
sbasbasbasbag60
(g76
g62
NtRp4585
(dp4586
g65
(dp4587
sg74
g3539
sg67
(lp4588
g60
(g81
g62
NtRp4589
(dp4590
g65
(dp4591
g85
g86
ssg74
g4585
sg67
(lp4592
S'session_file'
p4593
asbag60
(g81
g62
NtRp4594
(dp4595
g65
(dp4596
g92
g93
ssg74
g4585
sg67
(lp4597
S':'
asbag60
(g81
g62
NtRp4598
(dp4599
g65
(dp4600
sg74
g4585
sg67
(lp4601
g60
(g61
g62
NtRp4602
(dp4603
g65
(dp4604
g73
I5
ssg74
g4598
sg67
(lp4605
S"<open file '/home/jose/DESARROLLO/web2py199/applications/streamlog/sessions/127.0.0.1-610b0c7d-3f6f-4500-a76a-b095fb30f7fd', mode 'rb+' at 0x4e2e420>"
p4606
asbasbasbag60
(g76
g62
NtRp4607
(dp4608
g65
(dp4609
sg74
g3539
sg67
(lp4610
g60
(g81
g62
NtRp4611
(dp4612
g65
(dp4613
g85
g86
ssg74
g4607
sg67
(lp4614
S'session_filename'
p4615
asbag60
(g81
g62
NtRp4616
(dp4617
g65
(dp4618
g92
g93
ssg74
g4607
sg67
(lp4619
S':'
asbag60
(g81
g62
NtRp4620
(dp4621
g65
(dp4622
sg74
g4607
sg67
(lp4623
g60
(g61
g62
NtRp4624
(dp4625
g65
(dp4626
g73
I5
ssg74
g4620
sg67
(lp4627
S'/home/jose/DESARROLLO/web2py199/applications/streamlog/sessions/127.0.0.1-610b0c7d-3f6f-4500-a76a-b095fb30f7fd'
p4628
asbasbasbag60
(g76
g62
NtRp4629
(dp4630
g65
(dp4631
sg74
g3539
sg67
(lp4632
g60
(g81
g62
NtRp4633
(dp4634
g65
(dp4635
g85
g86
ssg74
g4629
sg67
(lp4636
S'session_id'
p4637
asbag60
(g81
g62
NtRp4638
(dp4639
g65
(dp4640
g92
g93
ssg74
g4629
sg67
(lp4641
S':'
asbag60
(g81
g62
NtRp4642
(dp4643
g65
(dp4644
sg74
g4629
sg67
(lp4645
g60
(g61
g62
NtRp4646
(dp4647
g65
(dp4648
g73
I5
ssg74
g4642
sg67
(lp4649
S'127.0.0.1-610b0c7d-3f6f-4500-a76a-b095fb30f7fd'
p4650
asbasbasbag60
(g76
g62
NtRp4651
(dp4652
g65
(dp4653
sg74
g3539
sg67
(lp4654
g60
(g81
g62
NtRp4655
(dp4656
g65
(dp4657
g85
g86
ssg74
g4651
sg67
(lp4658
S'session_id_name'
p4659
asbag60
(g81
g62
NtRp4660
(dp4661
g65
(dp4662
g92
g93
ssg74
g4651
sg67
(lp4663
S':'
asbag60
(g81
g62
NtRp4664
(dp4665
g65
(dp4666
sg74
g4651
sg67
(lp4667
g60
(g61
g62
NtRp4668
(dp4669
g65
(dp4670
g73
I5
ssg74
g4664
sg67
(lp4671
g3596
asbasbasbag60
(g76
g62
NtRp4672
(dp4673
g65
(dp4674
sg74
g3539
sg67
(lp4675
g60
(g81
g62
NtRp4676
(dp4677
g65
(dp4678
g85
g86
ssg74
g4672
sg67
(lp4679
S'session_locked'
p4680
asbag60
(g81
g62
NtRp4681
(dp4682
g65
(dp4683
g92
g93
ssg74
g4672
sg67
(lp4684
S':'
asbag60
(g81
g62
NtRp4685
(dp4686
g65
(dp4687
sg74
g4672
sg67
(lp4688
g60
(g61
g62
NtRp4689
(dp4690
g65
(dp4691
g73
I5
ssg74
g4685
sg67
(lp4692
g1660
asbasbasbag60
(g76
g62
NtRp4693
(dp4694
g65
(dp4695
sg74
g3539
sg67
(lp4696
g60
(g81
g62
NtRp4697
(dp4698
g65
(dp4699
g85
g86
ssg74
g4693
sg67
(lp4700
S'session_new'
p4701
asbag60
(g81
g62
NtRp4702
(dp4703
g65
(dp4704
g92
g93
ssg74
g4693
sg67
(lp4705
S':'
asbag60
(g81
g62
NtRp4706
(dp4707
g65
(dp4708
sg74
g4693
sg67
(lp4709
g60
(g61
g62
NtRp4710
(dp4711
g65
(dp4712
g73
I5
ssg74
g4706
sg67
(lp4713
g103
asbasbasbag60
(g76
g62
NtRp4714
(dp4715
g65
(dp4716
sg74
g3539
sg67
(lp4717
g60
(g81
g62
NtRp4718
(dp4719
g65
(dp4720
g85
g86
ssg74
g4714
sg67
(lp4721
S'status'
p4722
asbag60
(g81
g62
NtRp4723
(dp4724
g65
(dp4725
g92
g93
ssg74
g4714
sg67
(lp4726
S':'
asbag60
(g81
g62
NtRp4727
(dp4728
g65
(dp4729
sg74
g4714
sg67
(lp4730
g60
(g61
g62
NtRp4731
(dp4732
g65
(dp4733
g73
I5
ssg74
g4727
sg67
(lp4734
S'200'
p4735
asbasbasbag60
(g76
g62
NtRp4736
(dp4737
g65
(dp4738
sg74
g3539
sg67
(lp4739
g60
(g81
g62
NtRp4740
(dp4741
g65
(dp4742
g85
g86
ssg74
g4736
sg67
(lp4743
S'subtitle'
p4744
asbag60
(g81
g62
NtRp4745
(dp4746
g65
(dp4747
g92
g93
ssg74
g4736
sg67
(lp4748
S':'
asbag60
(g81
g62
NtRp4749
(dp4750
g65
(dp4751
sg74
g4736
sg67
(lp4752
g60
(g61
g62
NtRp4753
(dp4754
g65
(dp4755
g73
I5
ssg74
g4749
sg67
(lp4756
g4044
(S's\x12\x00\x00\x00Stream Log Client!'
tRp4757
asbasbasbag60
(g76
g62
NtRp4758
(dp4759
g65
(dp4760
sg74
g3539
sg67
(lp4761
g60
(g81
g62
NtRp4762
(dp4763
g65
(dp4764
g85
g86
ssg74
g4758
sg67
(lp4765
S'title'
p4766
asbag60
(g81
g62
NtRp4767
(dp4768
g65
(dp4769
g92
g93
ssg74
g4758
sg67
(lp4770
S':'
asbag60
(g81
g62
NtRp4771
(dp4772
g65
(dp4773
sg74
g4758
sg67
(lp4774
g60
(g61
g62
NtRp4775
(dp4776
g65
(dp4777
g73
I5
ssg74
g4771
sg67
(lp4778
g125
asbasbasbag60
(g76
g62
NtRp4779
(dp4780
g65
(dp4781
sg74
g3539
sg67
(lp4782
g60
(g81
g62
NtRp4783
(dp4784
g65
(dp4785
g85
g86
ssg74
g4779
sg67
(lp4786
g2304
asbag60
(g81
g62
NtRp4787
(dp4788
g65
(dp4789
g92
g93
ssg74
g4779
sg67
(lp4790
S':'
asbag60
(g81
g62
NtRp4791
(dp4792
g65
(dp4793
sg74
g4779
sg67
(lp4794
g60
(g61
g62
NtRp4795
(dp4796
g65
(dp4797
g73
I5
ssg74
g4791
sg67
(lp4798
g2317
asbasbasbag60
(g76
g62
NtRp4799
(dp4800
g65
(dp4801
sg74
g3539
sg67
(lp4802
g60
(g81
g62
NtRp4803
(dp4804
g65
(dp4805
g85
g86
ssg74
g4799
sg67
(lp4806
S'view'
p4807
asbag60
(g81
g62
NtRp4808
(dp4809
g65
(dp4810
g92
g93
ssg74
g4799
sg67
(lp4811
S':'
asbag60
(g81
g62
NtRp4812
(dp4813
g65
(dp4814
sg74
g4799
sg67
(lp4815
g60
(g61
g62
NtRp4816
(dp4817
g65
(dp4818
g73
I5
ssg74
g4812
sg67
(lp4819
S'default/type_log_manage.html'
p4820
asbasbasbasbasbsS'locals'
p4821
(dp4822
S'a'
S"('SELECT  t_type_log.id, t_type_log.name, t_type_l...dified FROM t_type_log WHERE (t_type_log.id > 0);',)"
p4823
sS'self'
p4824
S'<gluon.dal.SQLiteAdapter object>'
p4825
sS'b'
g20
sS't0'
p4826
S'1338094148.377778'
p4827
sssS'traceback'
p4828
S'Traceback (most recent call last):\n  File "/home/jose/DESARROLLO/web2py199/gluon/restricted.py", line 194, in restricted\n    exec ccode in environment\n  File "/home/jose/DESARROLLO/web2py199/applications/streamlog/controllers/default.py", line 184, in <module>\n  File "/home/jose/DESARROLLO/web2py199/gluon/globals.py", line 149, in <lambda>\n    self._caller = lambda f: f()\n  File "/home/jose/DESARROLLO/web2py199/applications/streamlog/controllers/default.py", line 146, in type_log_manage\n    form=SQLFORM.grid(db.t_type_log)\n  File "/home/jose/DESARROLLO/web2py199/gluon/sqlhtml.py", line 1640, in grid\n    rows = dbset.select(left=left,orderby=orderby,limitby=limitby,*fields)\n  File "/home/jose/DESARROLLO/web2py199/gluon/dal.py", line 5697, in select\n    return self.db._adapter.select(self.query,fields,attributes)\n  File "/home/jose/DESARROLLO/web2py199/gluon/dal.py", line 1233, in select\n    rows = response(sql)\n  File "/home/jose/DESARROLLO/web2py199/gluon/dal.py", line 1223, in response\n    self.execute(sql)\n  File "/home/jose/DESARROLLO/web2py199/gluon/dal.py", line 1309, in execute\n    return self.log_execute(*a, **b)\n  File "/home/jose/DESARROLLO/web2py199/gluon/dal.py", line 1304, in log_execute\n    ret = self.cursor.execute(*a,**b)\nOperationalError: no such table: t_type_log\n'
p4829
s.