(dp1
S'output'
p2
S''
sS'layer'
p3
S'/home/jose/DESARROLLO/web2py199/applications/streamlog/controllers/default.py'
p4
sS'code'
p5
S'# -*- coding: utf-8 -*-\n# this file is released under public domain and you can use without limitations\n\n#########################################################################\n## This is a samples controller\n## - index is the default action of any application\n## - user is required for authentication and authorization\n## - download is for downloading files uploaded in the db (does streaming)\n## - call exposes all registered services (none by default)\n#########################################################################\n\n\n\ndef index():\n    """\n    example action using the internationalization operator T and flash\n    rendered by views/default/index.html or views/generic.html\n    """\n    form=SQLFORM.smartgrid(db.t_log, selectable=True, csv=False,create=False, deletable=False, editable=False)\n    return dict(message=T(\'Hello World2\'), form=form)\n\n\ndef choose_log():\n    """\n    example action using the internationalization operator T and flash\n    rendered by views/default/index.html or views/generic.html\n    """\n    \n    \n    return dict(message="log")\n\n\ndef type_table():\n    """\n    example action using the internationalization operator T and flash\n    rendered by views/default/index.html or views/generic.html\n    """\n    \n    table=\'<table cellpadding="0" cellspacing="0" border="0" class="display" id="tablelog"> \\\n    <thead> \\\n        <tr> \\\n            <th>IP</th> \\\n            <th>hyphen</th> \\\n            <th>userid</th> \\\n            <th>Time Request</th> \\\n        <th>Request Time</th> \\\n        <th>Status Code</th> \\\n        <th>Size Object</th> \\\n        </tr>\\\n    </thead> \\\n    <tfoot> \\\n        <tr> \\\n            <th>IP</th> \\\n            <th>hyphen</th> \\\n            <th>userid</th>\\\n            <th>Time Request</th> \\\n        <th>Request Time</th> \\\n        <th>Status Code</th> \\\n        <th>Size Object</th> \\\n        </tr>  \\\n    </tfoot>  \\\n        <tbody> \\\n        </tbody> \\\n    </table>\'\n    \n    return table\n\n\ndef user():\n    """\n    exposes:\n    http://..../[app]/default/user/login\n    http://..../[app]/default/user/logout\n    http://..../[app]/default/user/register\n    http://..../[app]/default/user/profile\n    http://..../[app]/default/user/retrieve_password\n    http://..../[app]/default/user/change_password\n    use @auth.requires_login()\n        @auth.requires_membership(\'group name\')\n        @auth.requires_permission(\'read\',\'table name\',record_id)\n    to decorate functions that need access control\n    """\n    return dict(form=auth())\n\ndef error():\n    return dict()\n\n\ndef project_manage():\n    \n    form = SQLFORM.smartgrid(db.t_project)\n    return locals()\n\n\n\ndef server_manage():\n\n    form=SQLFORM.grid(db.t_server)\n    return locals()\n\ndef log_manage():\n \n    #form = SQLFORM.smartgrid(db.t_log,constraints=dict(t_log=query), selectable=True,searchable=False, csv=False,showbuttontext=True,onupdate=auth.archive)\n    #form = SQLFORM.smartgrid(db.t_log)\n    form=SQLFORM.grid(db.t_log)\n    return locals()\n\ndef type_log_manage():\n\n    form=SQLFORM.grid(db.t_type_log)\n    return locals()\n\ndef download():\n    """\n    allows downloading of uploaded files\n    http://..../[app]/default/download/[filename]\n    """\n    return response.download(request,db)\n\n\ndef call():\n    """\n    exposes services. for example:\n    http://..../[app]/default/call/jsonrpc\n    decorate with @services.jsonrpc the functions to expose\n    supports xml, json, xmlrpc, jsonrpc, amfrpc, rss, csv\n    """\n    return service()\n\n\n@auth.requires_signature()\ndef data():\n    """\n    http://..../[app]/default/data/tables\n    http://..../[app]/default/data/create/[table]\n    http://..../[app]/default/data/read/[table]/[id]\n    http://..../[app]/default/data/update/[table]/[id]\n    http://..../[app]/default/data/delete/[table]/[id]\n    http://..../[app]/default/data/select/[table]\n    http://..../[app]/default/data/search/[table]\n    but URLs bust be signed, i.e. linked with\n      A(\'table\',_href=URL(\'data/tables\',user_signature=True))\n    or with the signed load operator\n      LOAD(\'default\',\'data.load\',args=\'tables\',ajax=True,user_signature=True)\n    """\n    return dict(form=crud())\n\nresponse._vars=response._caller(index)\n'
p6
sS'snapshot'
p7
(dp8
S'exception'
p9
(dp10
S'__hash__'
p11
S"<method-wrapper '__hash__' of exceptions.TypeError object>"
p12
sS'__setattr__'
p13
S"<method-wrapper '__setattr__' of exceptions.TypeError object>"
p14
sS'__reduce_ex__'
p15
S'<built-in method __reduce_ex__ of exceptions.TypeError object>'
p16
sS'__getslice__'
p17
S"<method-wrapper '__getslice__' of exceptions.TypeError object>"
p18
sS'__getitem__'
p19
S"<method-wrapper '__getitem__' of exceptions.TypeError object>"
p20
sS'__setstate__'
p21
S'<built-in method __setstate__ of exceptions.TypeError object>'
p22
sS'args'
p23
S'("\'bool\' object is not callable",)'
p24
sS'__reduce__'
p25
S'<built-in method __reduce__ of exceptions.TypeError object>'
p26
sS'__str__'
p27
S"<method-wrapper '__str__' of exceptions.TypeError object>"
p28
sS'__format__'
p29
S'<built-in method __format__ of exceptions.TypeError object>'
p30
sS'__getattribute__'
p31
S"<method-wrapper '__getattribute__' of exceptions.TypeError object>"
p32
sS'__class__'
p33
S"<type 'exceptions.TypeError'>"
p34
sS'__unicode__'
p35
S'<built-in method __unicode__ of exceptions.TypeError object>'
p36
sS'__delattr__'
p37
S"<method-wrapper '__delattr__' of exceptions.TypeError object>"
p38
sS'__subclasshook__'
p39
S'<built-in method __subclasshook__ of type object>'
p40
sS'__repr__'
p41
S"<method-wrapper '__repr__' of exceptions.TypeError object>"
p42
sS'__dict__'
p43
S'{}'
p44
sS'__sizeof__'
p45
S'<built-in method __sizeof__ of exceptions.TypeError object>'
p46
sS'__doc__'
p47
S"'Inappropriate argument type.'"
p48
sS'__init__'
p49
S"<method-wrapper '__init__' of exceptions.TypeError object>"
p50
sS'__new__'
p51
S'<built-in method __new__ of type object>'
p52
ssS'evalue'
p53
S"'bool' object is not callable"
p54
sS'request'
p55
ccopy_reg
_reconstructor
p56
(cgluon.html
BEAUTIFY
p57
c__builtin__
object
p58
NtRp59
(dp60
S'attributes'
p61
(dp62
sS'components'
p63
(lp64
g56
(cgluon.html
TABLE
p65
g58
NtRp66
(dp67
g61
(dp68
S'level'
p69
I5
ssS'parent'
p70
Nsg63
(lp71
g56
(cgluon.html
TR
p72
g58
NtRp73
(dp74
g61
(dp75
sg70
g66
sg63
(lp76
g56
(cgluon.html
TD
p77
g58
NtRp78
(dp79
g61
(dp80
S'_style'
p81
S'font-weight:bold;'
p82
ssg70
g73
sg63
(lp83
S'ajax'
p84
asbag56
(g77
g58
NtRp85
(dp86
g61
(dp87
S'_valign'
p88
S'top'
p89
ssg70
g73
sg63
(lp90
S':'
asbag56
(g77
g58
NtRp91
(dp92
g61
(dp93
sg70
g73
sg63
(lp94
g56
(g57
g58
NtRp95
(dp96
g61
(dp97
g69
I5
ssg70
g91
sg63
(lp98
S'False'
p99
asbasbasbag56
(g72
g58
NtRp100
(dp101
g61
(dp102
sg70
g66
sg63
(lp103
g56
(g77
g58
NtRp104
(dp105
g61
(dp106
g81
g82
ssg70
g100
sg63
(lp107
S'application'
p108
asbag56
(g77
g58
NtRp109
(dp110
g61
(dp111
g88
g89
ssg70
g100
sg63
(lp112
S':'
asbag56
(g77
g58
NtRp113
(dp114
g61
(dp115
sg70
g100
sg63
(lp116
g56
(g57
g58
NtRp117
(dp118
g61
(dp119
g69
I5
ssg70
g113
sg63
(lp120
S'streamlog'
p121
asbasbasbag56
(g72
g58
NtRp122
(dp123
g61
(dp124
sg70
g66
sg63
(lp125
g56
(g77
g58
NtRp126
(dp127
g61
(dp128
g81
g82
ssg70
g122
sg63
(lp129
g23
asbag56
(g77
g58
NtRp130
(dp131
g61
(dp132
g88
g89
ssg70
g122
sg63
(lp133
S':'
asbag56
(g77
g58
NtRp134
(dp135
g61
(dp136
sg70
g122
sg63
(lp137
g56
(g57
g58
NtRp138
(dp139
g61
(dp140
g69
I5
ssg70
g134
sg63
(lp141
g56
(g65
g58
NtRp142
(dp143
g61
(dp144
g69
I4
ssg70
Nsg63
(lp145
g56
(g72
g58
NtRp146
(dp147
g61
(dp148
sg70
g142
sg63
(lp149
g56
(g77
g58
NtRp150
(dp151
g61
(dp152
sg70
g146
sg63
(lp153
g56
(g57
g58
NtRp154
(dp155
g61
(dp156
g69
I4
ssg70
g150
sg63
(lp157
S't_log'
p158
asbasbasbasbasbasbasbag56
(g72
g58
NtRp159
(dp160
g61
(dp161
sg70
g66
sg63
(lp162
g56
(g77
g58
NtRp163
(dp164
g61
(dp165
g81
g82
ssg70
g159
sg63
(lp166
S'body'
p167
asbag56
(g77
g58
NtRp168
(dp169
g61
(dp170
g88
g89
ssg70
g159
sg63
(lp171
S':'
asbag56
(g77
g58
NtRp172
(dp173
g61
(dp174
sg70
g159
sg63
(lp175
g56
(g57
g58
NtRp176
(dp177
g61
(dp178
g69
I5
ssg70
g172
sg63
(lp179
S"<open file '<fdopen>', mode 'w+b' at 0x2ab6810>"
p180
asbasbasbag56
(g72
g58
NtRp181
(dp182
g61
(dp183
sg70
g66
sg63
(lp184
g56
(g77
g58
NtRp185
(dp186
g61
(dp187
g81
g82
ssg70
g181
sg63
(lp188
S'client'
p189
asbag56
(g77
g58
NtRp190
(dp191
g61
(dp192
g88
g89
ssg70
g181
sg63
(lp193
S':'
asbag56
(g77
g58
NtRp194
(dp195
g61
(dp196
sg70
g181
sg63
(lp197
g56
(g57
g58
NtRp198
(dp199
g61
(dp200
g69
I5
ssg70
g194
sg63
(lp201
S'127.0.0.1'
p202
asbasbasbag56
(g72
g58
NtRp203
(dp204
g61
(dp205
sg70
g66
sg63
(lp206
g56
(g77
g58
NtRp207
(dp208
g61
(dp209
g81
g82
ssg70
g203
sg63
(lp210
S'controller'
p211
asbag56
(g77
g58
NtRp212
(dp213
g61
(dp214
g88
g89
ssg70
g203
sg63
(lp215
S':'
asbag56
(g77
g58
NtRp216
(dp217
g61
(dp218
sg70
g203
sg63
(lp219
g56
(g57
g58
NtRp220
(dp221
g61
(dp222
g69
I5
ssg70
g216
sg63
(lp223
S'default'
p224
asbasbasbag56
(g72
g58
NtRp225
(dp226
g61
(dp227
sg70
g66
sg63
(lp228
g56
(g77
g58
NtRp229
(dp230
g61
(dp231
g81
g82
ssg70
g225
sg63
(lp232
S'cookies'
p233
asbag56
(g77
g58
NtRp234
(dp235
g61
(dp236
g88
g89
ssg70
g225
sg63
(lp237
S':'
asbag56
(g77
g58
NtRp238
(dp239
g61
(dp240
sg70
g225
sg63
(lp241
g56
(g57
g58
NtRp242
(dp243
g61
(dp244
g69
I5
ssg70
g238
sg63
(lp245
g56
(g65
g58
NtRp246
(dp247
g61
(dp248
g69
I4
ssg70
Nsg63
(lp249
g56
(g72
g58
NtRp250
(dp251
g61
(dp252
sg70
g246
sg63
(lp253
g56
(g77
g58
NtRp254
(dp255
g61
(dp256
g81
g82
ssg70
g250
sg63
(lp257
S'session_id_admin'
p258
asbag56
(g77
g58
NtRp259
(dp260
g61
(dp261
g88
g89
ssg70
g250
sg63
(lp262
S':'
asbag56
(g77
g58
NtRp263
(dp264
g61
(dp265
sg70
g250
sg63
(lp266
g56
(g57
g58
NtRp267
(dp268
g61
(dp269
g69
I4
ssg70
g263
sg63
(lp270
g56
(g65
g58
NtRp271
(dp272
g61
(dp273
g69
I3
ssg70
Nsg63
(lp274
g56
(g72
g58
NtRp275
(dp276
g61
(dp277
sg70
g271
sg63
(lp278
g56
(g77
g58
NtRp279
(dp280
g61
(dp281
g81
g82
ssg70
g275
sg63
(lp282
S'comment'
p283
asbag56
(g77
g58
NtRp284
(dp285
g61
(dp286
g88
g89
ssg70
g275
sg63
(lp287
S':'
asbag56
(g77
g58
NtRp288
(dp289
g61
(dp290
sg70
g275
sg63
(lp291
g56
(g57
g58
NtRp292
(dp293
g61
(dp294
g69
I3
ssg70
g288
sg63
(lp295
S''
asbasbasbag56
(g72
g58
NtRp296
(dp297
g61
(dp298
sg70
g271
sg63
(lp299
g56
(g77
g58
NtRp300
(dp301
g61
(dp302
g81
g82
ssg70
g296
sg63
(lp303
S'domain'
p304
asbag56
(g77
g58
NtRp305
(dp306
g61
(dp307
g88
g89
ssg70
g296
sg63
(lp308
S':'
asbag56
(g77
g58
NtRp309
(dp310
g61
(dp311
sg70
g296
sg63
(lp312
g56
(g57
g58
NtRp313
(dp314
g61
(dp315
g69
I3
ssg70
g309
sg63
(lp316
S''
asbasbasbag56
(g72
g58
NtRp317
(dp318
g61
(dp319
sg70
g271
sg63
(lp320
g56
(g77
g58
NtRp321
(dp322
g61
(dp323
g81
g82
ssg70
g317
sg63
(lp324
S'expires'
p325
asbag56
(g77
g58
NtRp326
(dp327
g61
(dp328
g88
g89
ssg70
g317
sg63
(lp329
S':'
asbag56
(g77
g58
NtRp330
(dp331
g61
(dp332
sg70
g317
sg63
(lp333
g56
(g57
g58
NtRp334
(dp335
g61
(dp336
g69
I3
ssg70
g330
sg63
(lp337
S''
asbasbasbag56
(g72
g58
NtRp338
(dp339
g61
(dp340
sg70
g271
sg63
(lp341
g56
(g77
g58
NtRp342
(dp343
g61
(dp344
g81
g82
ssg70
g338
sg63
(lp345
S'httponly'
p346
asbag56
(g77
g58
NtRp347
(dp348
g61
(dp349
g88
g89
ssg70
g338
sg63
(lp350
S':'
asbag56
(g77
g58
NtRp351
(dp352
g61
(dp353
sg70
g338
sg63
(lp354
g56
(g57
g58
NtRp355
(dp356
g61
(dp357
g69
I3
ssg70
g351
sg63
(lp358
S''
asbasbasbag56
(g72
g58
NtRp359
(dp360
g61
(dp361
sg70
g271
sg63
(lp362
g56
(g77
g58
NtRp363
(dp364
g61
(dp365
g81
g82
ssg70
g359
sg63
(lp366
S'max-age'
p367
asbag56
(g77
g58
NtRp368
(dp369
g61
(dp370
g88
g89
ssg70
g359
sg63
(lp371
S':'
asbag56
(g77
g58
NtRp372
(dp373
g61
(dp374
sg70
g359
sg63
(lp375
g56
(g57
g58
NtRp376
(dp377
g61
(dp378
g69
I3
ssg70
g372
sg63
(lp379
S''
asbasbasbag56
(g72
g58
NtRp380
(dp381
g61
(dp382
sg70
g271
sg63
(lp383
g56
(g77
g58
NtRp384
(dp385
g61
(dp386
g81
g82
ssg70
g380
sg63
(lp387
S'path'
p388
asbag56
(g77
g58
NtRp389
(dp390
g61
(dp391
g88
g89
ssg70
g380
sg63
(lp392
S':'
asbag56
(g77
g58
NtRp393
(dp394
g61
(dp395
sg70
g380
sg63
(lp396
g56
(g57
g58
NtRp397
(dp398
g61
(dp399
g69
I3
ssg70
g393
sg63
(lp400
S''
asbasbasbag56
(g72
g58
NtRp401
(dp402
g61
(dp403
sg70
g271
sg63
(lp404
g56
(g77
g58
NtRp405
(dp406
g61
(dp407
g81
g82
ssg70
g401
sg63
(lp408
S'secure'
p409
asbag56
(g77
g58
NtRp410
(dp411
g61
(dp412
g88
g89
ssg70
g401
sg63
(lp413
S':'
asbag56
(g77
g58
NtRp414
(dp415
g61
(dp416
sg70
g401
sg63
(lp417
g56
(g57
g58
NtRp418
(dp419
g61
(dp420
g69
I3
ssg70
g414
sg63
(lp421
S''
asbasbasbag56
(g72
g58
NtRp422
(dp423
g61
(dp424
sg70
g271
sg63
(lp425
g56
(g77
g58
NtRp426
(dp427
g61
(dp428
g81
g82
ssg70
g422
sg63
(lp429
S'version'
p430
asbag56
(g77
g58
NtRp431
(dp432
g61
(dp433
g88
g89
ssg70
g422
sg63
(lp434
S':'
asbag56
(g77
g58
NtRp435
(dp436
g61
(dp437
sg70
g422
sg63
(lp438
g56
(g57
g58
NtRp439
(dp440
g61
(dp441
g69
I3
ssg70
g435
sg63
(lp442
S''
asbasbasbasbasbasbasbag56
(g72
g58
NtRp443
(dp444
g61
(dp445
sg70
g246
sg63
(lp446
g56
(g77
g58
NtRp447
(dp448
g61
(dp449
g81
g82
ssg70
g443
sg63
(lp450
S'session_id_streamlog'
p451
asbag56
(g77
g58
NtRp452
(dp453
g61
(dp454
g88
g89
ssg70
g443
sg63
(lp455
S':'
asbag56
(g77
g58
NtRp456
(dp457
g61
(dp458
sg70
g443
sg63
(lp459
g56
(g57
g58
NtRp460
(dp461
g61
(dp462
g69
I4
ssg70
g456
sg63
(lp463
g56
(g65
g58
NtRp464
(dp465
g61
(dp466
g69
I3
ssg70
Nsg63
(lp467
g56
(g72
g58
NtRp468
(dp469
g61
(dp470
sg70
g464
sg63
(lp471
g56
(g77
g58
NtRp472
(dp473
g61
(dp474
g81
g82
ssg70
g468
sg63
(lp475
g283
asbag56
(g77
g58
NtRp476
(dp477
g61
(dp478
g88
g89
ssg70
g468
sg63
(lp479
S':'
asbag56
(g77
g58
NtRp480
(dp481
g61
(dp482
sg70
g468
sg63
(lp483
g56
(g57
g58
NtRp484
(dp485
g61
(dp486
g69
I3
ssg70
g480
sg63
(lp487
S''
asbasbasbag56
(g72
g58
NtRp488
(dp489
g61
(dp490
sg70
g464
sg63
(lp491
g56
(g77
g58
NtRp492
(dp493
g61
(dp494
g81
g82
ssg70
g488
sg63
(lp495
g304
asbag56
(g77
g58
NtRp496
(dp497
g61
(dp498
g88
g89
ssg70
g488
sg63
(lp499
S':'
asbag56
(g77
g58
NtRp500
(dp501
g61
(dp502
sg70
g488
sg63
(lp503
g56
(g57
g58
NtRp504
(dp505
g61
(dp506
g69
I3
ssg70
g500
sg63
(lp507
S''
asbasbasbag56
(g72
g58
NtRp508
(dp509
g61
(dp510
sg70
g464
sg63
(lp511
g56
(g77
g58
NtRp512
(dp513
g61
(dp514
g81
g82
ssg70
g508
sg63
(lp515
g325
asbag56
(g77
g58
NtRp516
(dp517
g61
(dp518
g88
g89
ssg70
g508
sg63
(lp519
S':'
asbag56
(g77
g58
NtRp520
(dp521
g61
(dp522
sg70
g508
sg63
(lp523
g56
(g57
g58
NtRp524
(dp525
g61
(dp526
g69
I3
ssg70
g520
sg63
(lp527
S''
asbasbasbag56
(g72
g58
NtRp528
(dp529
g61
(dp530
sg70
g464
sg63
(lp531
g56
(g77
g58
NtRp532
(dp533
g61
(dp534
g81
g82
ssg70
g528
sg63
(lp535
g346
asbag56
(g77
g58
NtRp536
(dp537
g61
(dp538
g88
g89
ssg70
g528
sg63
(lp539
S':'
asbag56
(g77
g58
NtRp540
(dp541
g61
(dp542
sg70
g528
sg63
(lp543
g56
(g57
g58
NtRp544
(dp545
g61
(dp546
g69
I3
ssg70
g540
sg63
(lp547
S''
asbasbasbag56
(g72
g58
NtRp548
(dp549
g61
(dp550
sg70
g464
sg63
(lp551
g56
(g77
g58
NtRp552
(dp553
g61
(dp554
g81
g82
ssg70
g548
sg63
(lp555
g367
asbag56
(g77
g58
NtRp556
(dp557
g61
(dp558
g88
g89
ssg70
g548
sg63
(lp559
S':'
asbag56
(g77
g58
NtRp560
(dp561
g61
(dp562
sg70
g548
sg63
(lp563
g56
(g57
g58
NtRp564
(dp565
g61
(dp566
g69
I3
ssg70
g560
sg63
(lp567
S''
asbasbasbag56
(g72
g58
NtRp568
(dp569
g61
(dp570
sg70
g464
sg63
(lp571
g56
(g77
g58
NtRp572
(dp573
g61
(dp574
g81
g82
ssg70
g568
sg63
(lp575
g388
asbag56
(g77
g58
NtRp576
(dp577
g61
(dp578
g88
g89
ssg70
g568
sg63
(lp579
S':'
asbag56
(g77
g58
NtRp580
(dp581
g61
(dp582
sg70
g568
sg63
(lp583
g56
(g57
g58
NtRp584
(dp585
g61
(dp586
g69
I3
ssg70
g580
sg63
(lp587
S''
asbasbasbag56
(g72
g58
NtRp588
(dp589
g61
(dp590
sg70
g464
sg63
(lp591
g56
(g77
g58
NtRp592
(dp593
g61
(dp594
g81
g82
ssg70
g588
sg63
(lp595
g409
asbag56
(g77
g58
NtRp596
(dp597
g61
(dp598
g88
g89
ssg70
g588
sg63
(lp599
S':'
asbag56
(g77
g58
NtRp600
(dp601
g61
(dp602
sg70
g588
sg63
(lp603
g56
(g57
g58
NtRp604
(dp605
g61
(dp606
g69
I3
ssg70
g600
sg63
(lp607
S''
asbasbasbag56
(g72
g58
NtRp608
(dp609
g61
(dp610
sg70
g464
sg63
(lp611
g56
(g77
g58
NtRp612
(dp613
g61
(dp614
g81
g82
ssg70
g608
sg63
(lp615
g430
asbag56
(g77
g58
NtRp616
(dp617
g61
(dp618
g88
g89
ssg70
g608
sg63
(lp619
S':'
asbag56
(g77
g58
NtRp620
(dp621
g61
(dp622
sg70
g608
sg63
(lp623
g56
(g57
g58
NtRp624
(dp625
g61
(dp626
g69
I3
ssg70
g620
sg63
(lp627
S''
asbasbasbasbasbasbasbag56
(g72
g58
NtRp628
(dp629
g61
(dp630
sg70
g246
sg63
(lp631
g56
(g77
g58
NtRp632
(dp633
g61
(dp634
g81
g82
ssg70
g628
sg63
(lp635
S'session_id_test3'
p636
asbag56
(g77
g58
NtRp637
(dp638
g61
(dp639
g88
g89
ssg70
g628
sg63
(lp640
S':'
asbag56
(g77
g58
NtRp641
(dp642
g61
(dp643
sg70
g628
sg63
(lp644
g56
(g57
g58
NtRp645
(dp646
g61
(dp647
g69
I4
ssg70
g641
sg63
(lp648
g56
(g65
g58
NtRp649
(dp650
g61
(dp651
g69
I3
ssg70
Nsg63
(lp652
g56
(g72
g58
NtRp653
(dp654
g61
(dp655
sg70
g649
sg63
(lp656
g56
(g77
g58
NtRp657
(dp658
g61
(dp659
g81
g82
ssg70
g653
sg63
(lp660
g283
asbag56
(g77
g58
NtRp661
(dp662
g61
(dp663
g88
g89
ssg70
g653
sg63
(lp664
S':'
asbag56
(g77
g58
NtRp665
(dp666
g61
(dp667
sg70
g653
sg63
(lp668
g56
(g57
g58
NtRp669
(dp670
g61
(dp671
g69
I3
ssg70
g665
sg63
(lp672
S''
asbasbasbag56
(g72
g58
NtRp673
(dp674
g61
(dp675
sg70
g649
sg63
(lp676
g56
(g77
g58
NtRp677
(dp678
g61
(dp679
g81
g82
ssg70
g673
sg63
(lp680
g304
asbag56
(g77
g58
NtRp681
(dp682
g61
(dp683
g88
g89
ssg70
g673
sg63
(lp684
S':'
asbag56
(g77
g58
NtRp685
(dp686
g61
(dp687
sg70
g673
sg63
(lp688
g56
(g57
g58
NtRp689
(dp690
g61
(dp691
g69
I3
ssg70
g685
sg63
(lp692
S''
asbasbasbag56
(g72
g58
NtRp693
(dp694
g61
(dp695
sg70
g649
sg63
(lp696
g56
(g77
g58
NtRp697
(dp698
g61
(dp699
g81
g82
ssg70
g693
sg63
(lp700
g325
asbag56
(g77
g58
NtRp701
(dp702
g61
(dp703
g88
g89
ssg70
g693
sg63
(lp704
S':'
asbag56
(g77
g58
NtRp705
(dp706
g61
(dp707
sg70
g693
sg63
(lp708
g56
(g57
g58
NtRp709
(dp710
g61
(dp711
g69
I3
ssg70
g705
sg63
(lp712
S''
asbasbasbag56
(g72
g58
NtRp713
(dp714
g61
(dp715
sg70
g649
sg63
(lp716
g56
(g77
g58
NtRp717
(dp718
g61
(dp719
g81
g82
ssg70
g713
sg63
(lp720
g346
asbag56
(g77
g58
NtRp721
(dp722
g61
(dp723
g88
g89
ssg70
g713
sg63
(lp724
S':'
asbag56
(g77
g58
NtRp725
(dp726
g61
(dp727
sg70
g713
sg63
(lp728
g56
(g57
g58
NtRp729
(dp730
g61
(dp731
g69
I3
ssg70
g725
sg63
(lp732
S''
asbasbasbag56
(g72
g58
NtRp733
(dp734
g61
(dp735
sg70
g649
sg63
(lp736
g56
(g77
g58
NtRp737
(dp738
g61
(dp739
g81
g82
ssg70
g733
sg63
(lp740
g367
asbag56
(g77
g58
NtRp741
(dp742
g61
(dp743
g88
g89
ssg70
g733
sg63
(lp744
S':'
asbag56
(g77
g58
NtRp745
(dp746
g61
(dp747
sg70
g733
sg63
(lp748
g56
(g57
g58
NtRp749
(dp750
g61
(dp751
g69
I3
ssg70
g745
sg63
(lp752
S''
asbasbasbag56
(g72
g58
NtRp753
(dp754
g61
(dp755
sg70
g649
sg63
(lp756
g56
(g77
g58
NtRp757
(dp758
g61
(dp759
g81
g82
ssg70
g753
sg63
(lp760
g388
asbag56
(g77
g58
NtRp761
(dp762
g61
(dp763
g88
g89
ssg70
g753
sg63
(lp764
S':'
asbag56
(g77
g58
NtRp765
(dp766
g61
(dp767
sg70
g753
sg63
(lp768
g56
(g57
g58
NtRp769
(dp770
g61
(dp771
g69
I3
ssg70
g765
sg63
(lp772
S''
asbasbasbag56
(g72
g58
NtRp773
(dp774
g61
(dp775
sg70
g649
sg63
(lp776
g56
(g77
g58
NtRp777
(dp778
g61
(dp779
g81
g82
ssg70
g773
sg63
(lp780
g409
asbag56
(g77
g58
NtRp781
(dp782
g61
(dp783
g88
g89
ssg70
g773
sg63
(lp784
S':'
asbag56
(g77
g58
NtRp785
(dp786
g61
(dp787
sg70
g773
sg63
(lp788
g56
(g57
g58
NtRp789
(dp790
g61
(dp791
g69
I3
ssg70
g785
sg63
(lp792
S''
asbasbasbag56
(g72
g58
NtRp793
(dp794
g61
(dp795
sg70
g649
sg63
(lp796
g56
(g77
g58
NtRp797
(dp798
g61
(dp799
g81
g82
ssg70
g793
sg63
(lp800
g430
asbag56
(g77
g58
NtRp801
(dp802
g61
(dp803
g88
g89
ssg70
g793
sg63
(lp804
S':'
asbag56
(g77
g58
NtRp805
(dp806
g61
(dp807
sg70
g793
sg63
(lp808
g56
(g57
g58
NtRp809
(dp810
g61
(dp811
g69
I3
ssg70
g805
sg63
(lp812
S''
asbasbasbasbasbasbasbasbasbasbasbag56
(g72
g58
NtRp813
(dp814
g61
(dp815
sg70
g66
sg63
(lp816
g56
(g77
g58
NtRp817
(dp818
g61
(dp819
g81
g82
ssg70
g813
sg63
(lp820
S'env'
p821
asbag56
(g77
g58
NtRp822
(dp823
g61
(dp824
g88
g89
ssg70
g813
sg63
(lp825
S':'
asbag56
(g77
g58
NtRp826
(dp827
g61
(dp828
sg70
g813
sg63
(lp829
g56
(g57
g58
NtRp830
(dp831
g61
(dp832
g69
I5
ssg70
g826
sg63
(lp833
g56
(g65
g58
NtRp834
(dp835
g61
(dp836
g69
I4
ssg70
Nsg63
(lp837
g56
(g72
g58
NtRp838
(dp839
g61
(dp840
sg70
g834
sg63
(lp841
g56
(g77
g58
NtRp842
(dp843
g61
(dp844
g81
g82
ssg70
g838
sg63
(lp845
S'app_folders'
p846
asbag56
(g77
g58
NtRp847
(dp848
g61
(dp849
g88
g89
ssg70
g838
sg63
(lp850
S':'
asbag56
(g77
g58
NtRp851
(dp852
g61
(dp853
sg70
g838
sg63
(lp854
g56
(g57
g58
NtRp855
(dp856
g61
(dp857
g69
I4
ssg70
g851
sg63
(lp858
S"set(['/home/jose/DESARROLLO/web2py199/applications/streamlog/', '/home/jose/DESARROLLO/web2py199/applications/admin/'])"
p859
asbasbasbag56
(g72
g58
NtRp860
(dp861
g61
(dp862
sg70
g834
sg63
(lp863
g56
(g77
g58
NtRp864
(dp865
g61
(dp866
g81
g82
ssg70
g860
sg63
(lp867
S'applications_parent'
p868
asbag56
(g77
g58
NtRp869
(dp870
g61
(dp871
g88
g89
ssg70
g860
sg63
(lp872
S':'
asbag56
(g77
g58
NtRp873
(dp874
g61
(dp875
sg70
g860
sg63
(lp876
g56
(g57
g58
NtRp877
(dp878
g61
(dp879
g69
I4
ssg70
g873
sg63
(lp880
S'/home/jose/DESARROLLO/web2py199'
p881
asbasbasbag56
(g72
g58
NtRp882
(dp883
g61
(dp884
sg70
g834
sg63
(lp885
g56
(g77
g58
NtRp886
(dp887
g61
(dp888
g81
g82
ssg70
g882
sg63
(lp889
S'cmd_args'
p890
asbag56
(g77
g58
NtRp891
(dp892
g61
(dp893
g88
g89
ssg70
g882
sg63
(lp894
S':'
asbag56
(g77
g58
NtRp895
(dp896
g61
(dp897
sg70
g882
sg63
(lp898
g56
(g57
g58
NtRp899
(dp900
g61
(dp901
g69
I4
ssg70
g895
sg63
(lp902
g56
(g65
g58
NtRp903
(dp904
g61
(dp905
g69
I3
ssg70
Nsg63
(lp906
sbasbasbasbag56
(g72
g58
NtRp907
(dp908
g61
(dp909
sg70
g834
sg63
(lp910
g56
(g77
g58
NtRp911
(dp912
g61
(dp913
g81
g82
ssg70
g907
sg63
(lp914
S'cmd_options'
p915
asbag56
(g77
g58
NtRp916
(dp917
g61
(dp918
g88
g89
ssg70
g907
sg63
(lp919
S':'
asbag56
(g77
g58
NtRp920
(dp921
g61
(dp922
sg70
g907
sg63
(lp923
g56
(g57
g58
NtRp924
(dp925
g61
(dp926
g69
I4
ssg70
g920
sg63
(lp927
S"<Values at 0x1c79f80: {'verbose': False, 'ip': '127.0.0.1', 'shutdown_timeout': 5, 'taskbar': False, 'nocron': False, 'pid_filename': 'httpserver.pid', 'maxthreads': None, 'softcron': False, 'server_name': 'jose', 'bpython': False, 'nogui': False, 'port': 8000, 'extcron': False, 'debuglevel': 30, 'test': None, 'folder': '/home/jose/DESARROLLO/web2py199', 'config': '', 'import_models': False, 'winservice': '', 'shell': None, 'run': '', 'log_filename': 'httpserver.log', 'args': [''], 'ssl_ca_certificate': None, 'scheduler': None, 'profiler_filename': None, 'ssl_private_key': '', 'password': 't', 'request_queue_size': 5, 'ssl_certificate': '', 'cronjob': False, 'plain': False, 'quiet': False, 'interfaces': None, 'minthreads': None, 'timeout': 10, 'numthreads': None, 'nobanner': False}>"
p928
asbasbasbag56
(g72
g58
NtRp929
(dp930
g61
(dp931
sg70
g834
sg63
(lp932
g56
(g77
g58
NtRp933
(dp934
g61
(dp935
g81
g82
ssg70
g929
sg63
(lp936
S'content_length'
p937
asbag56
(g77
g58
NtRp938
(dp939
g61
(dp940
g88
g89
ssg70
g929
sg63
(lp941
S':'
asbag56
(g77
g58
NtRp942
(dp943
g61
(dp944
sg70
g929
sg63
(lp945
g56
(g57
g58
NtRp946
(dp947
g61
(dp948
g69
I4
ssg70
g942
sg63
(lp949
S'449'
p950
asbasbasbag56
(g72
g58
NtRp951
(dp952
g61
(dp953
sg70
g834
sg63
(lp954
g56
(g77
g58
NtRp955
(dp956
g61
(dp957
g81
g82
ssg70
g951
sg63
(lp958
S'content_type'
p959
asbag56
(g77
g58
NtRp960
(dp961
g61
(dp962
g88
g89
ssg70
g951
sg63
(lp963
S':'
asbag56
(g77
g58
NtRp964
(dp965
g61
(dp966
sg70
g951
sg63
(lp967
g56
(g57
g58
NtRp968
(dp969
g61
(dp970
g69
I4
ssg70
g964
sg63
(lp971
S'multipart/form-data; boundary=---------------------------68682581814333890621136902507'
p972
asbasbasbag56
(g72
g58
NtRp973
(dp974
g61
(dp975
sg70
g834
sg63
(lp976
g56
(g77
g58
NtRp977
(dp978
g61
(dp979
g81
g82
ssg70
g973
sg63
(lp980
S'db_sessions'
p981
asbag56
(g77
g58
NtRp982
(dp983
g61
(dp984
g88
g89
ssg70
g973
sg63
(lp985
S':'
asbag56
(g77
g58
NtRp986
(dp987
g61
(dp988
sg70
g973
sg63
(lp989
g56
(g57
g58
NtRp990
(dp991
g61
(dp992
g69
I4
ssg70
g986
sg63
(lp993
S'set([])'
p994
asbasbasbag56
(g72
g58
NtRp995
(dp996
g61
(dp997
sg70
g834
sg63
(lp998
g56
(g77
g58
NtRp999
(dp1000
g61
(dp1001
g81
g82
ssg70
g995
sg63
(lp1002
S'debugging'
p1003
asbag56
(g77
g58
NtRp1004
(dp1005
g61
(dp1006
g88
g89
ssg70
g995
sg63
(lp1007
S':'
asbag56
(g77
g58
NtRp1008
(dp1009
g61
(dp1010
sg70
g995
sg63
(lp1011
g56
(g57
g58
NtRp1012
(dp1013
g61
(dp1014
g69
I4
ssg70
g1008
sg63
(lp1015
g99
asbasbasbag56
(g72
g58
NtRp1016
(dp1017
g61
(dp1018
sg70
g834
sg63
(lp1019
g56
(g77
g58
NtRp1020
(dp1021
g61
(dp1022
g81
g82
ssg70
g1016
sg63
(lp1023
S'gluon_parent'
p1024
asbag56
(g77
g58
NtRp1025
(dp1026
g61
(dp1027
g88
g89
ssg70
g1016
sg63
(lp1028
S':'
asbag56
(g77
g58
NtRp1029
(dp1030
g61
(dp1031
sg70
g1016
sg63
(lp1032
g56
(g57
g58
NtRp1033
(dp1034
g61
(dp1035
g69
I4
ssg70
g1029
sg63
(lp1036
S'/home/jose/DESARROLLO/web2py199'
p1037
asbasbasbag56
(g72
g58
NtRp1038
(dp1039
g61
(dp1040
sg70
g834
sg63
(lp1041
g56
(g77
g58
NtRp1042
(dp1043
g61
(dp1044
g81
g82
ssg70
g1038
sg63
(lp1045
S'http_accept'
p1046
asbag56
(g77
g58
NtRp1047
(dp1048
g61
(dp1049
g88
g89
ssg70
g1038
sg63
(lp1050
S':'
asbag56
(g77
g58
NtRp1051
(dp1052
g61
(dp1053
sg70
g1038
sg63
(lp1054
g56
(g57
g58
NtRp1055
(dp1056
g61
(dp1057
g69
I4
ssg70
g1051
sg63
(lp1058
S'text/html,application/xhtml+xml,application/xml;q=0.9,*/*;q=0.8'
p1059
asbasbasbag56
(g72
g58
NtRp1060
(dp1061
g61
(dp1062
sg70
g834
sg63
(lp1063
g56
(g77
g58
NtRp1064
(dp1065
g61
(dp1066
g81
g82
ssg70
g1060
sg63
(lp1067
S'http_accept_encoding'
p1068
asbag56
(g77
g58
NtRp1069
(dp1070
g61
(dp1071
g88
g89
ssg70
g1060
sg63
(lp1072
S':'
asbag56
(g77
g58
NtRp1073
(dp1074
g61
(dp1075
sg70
g1060
sg63
(lp1076
g56
(g57
g58
NtRp1077
(dp1078
g61
(dp1079
g69
I4
ssg70
g1073
sg63
(lp1080
S'gzip, deflate'
p1081
asbasbasbag56
(g72
g58
NtRp1082
(dp1083
g61
(dp1084
sg70
g834
sg63
(lp1085
g56
(g77
g58
NtRp1086
(dp1087
g61
(dp1088
g81
g82
ssg70
g1082
sg63
(lp1089
S'http_accept_language'
p1090
asbag56
(g77
g58
NtRp1091
(dp1092
g61
(dp1093
g88
g89
ssg70
g1082
sg63
(lp1094
S':'
asbag56
(g77
g58
NtRp1095
(dp1096
g61
(dp1097
sg70
g1082
sg63
(lp1098
g56
(g57
g58
NtRp1099
(dp1100
g61
(dp1101
g69
I4
ssg70
g1095
sg63
(lp1102
S'en-us,en;q=0.5'
p1103
asbasbasbag56
(g72
g58
NtRp1104
(dp1105
g61
(dp1106
sg70
g834
sg63
(lp1107
g56
(g77
g58
NtRp1108
(dp1109
g61
(dp1110
g81
g82
ssg70
g1104
sg63
(lp1111
S'http_connection'
p1112
asbag56
(g77
g58
NtRp1113
(dp1114
g61
(dp1115
g88
g89
ssg70
g1104
sg63
(lp1116
S':'
asbag56
(g77
g58
NtRp1117
(dp1118
g61
(dp1119
sg70
g1104
sg63
(lp1120
g56
(g57
g58
NtRp1121
(dp1122
g61
(dp1123
g69
I4
ssg70
g1117
sg63
(lp1124
S'keep-alive'
p1125
asbasbasbag56
(g72
g58
NtRp1126
(dp1127
g61
(dp1128
sg70
g834
sg63
(lp1129
g56
(g77
g58
NtRp1130
(dp1131
g61
(dp1132
g81
g82
ssg70
g1126
sg63
(lp1133
S'http_content_length'
p1134
asbag56
(g77
g58
NtRp1135
(dp1136
g61
(dp1137
g88
g89
ssg70
g1126
sg63
(lp1138
S':'
asbag56
(g77
g58
NtRp1139
(dp1140
g61
(dp1141
sg70
g1126
sg63
(lp1142
g56
(g57
g58
NtRp1143
(dp1144
g61
(dp1145
g69
I4
ssg70
g1139
sg63
(lp1146
g950
asbasbasbag56
(g72
g58
NtRp1147
(dp1148
g61
(dp1149
sg70
g834
sg63
(lp1150
g56
(g77
g58
NtRp1151
(dp1152
g61
(dp1153
g81
g82
ssg70
g1147
sg63
(lp1154
S'http_content_type'
p1155
asbag56
(g77
g58
NtRp1156
(dp1157
g61
(dp1158
g88
g89
ssg70
g1147
sg63
(lp1159
S':'
asbag56
(g77
g58
NtRp1160
(dp1161
g61
(dp1162
sg70
g1147
sg63
(lp1163
g56
(g57
g58
NtRp1164
(dp1165
g61
(dp1166
g69
I4
ssg70
g1160
sg63
(lp1167
g972
asbasbasbag56
(g72
g58
NtRp1168
(dp1169
g61
(dp1170
sg70
g834
sg63
(lp1171
g56
(g77
g58
NtRp1172
(dp1173
g61
(dp1174
g81
g82
ssg70
g1168
sg63
(lp1175
S'http_cookie'
p1176
asbag56
(g77
g58
NtRp1177
(dp1178
g61
(dp1179
g88
g89
ssg70
g1168
sg63
(lp1180
S':'
asbag56
(g77
g58
NtRp1181
(dp1182
g61
(dp1183
sg70
g1168
sg63
(lp1184
g56
(g57
g58
NtRp1185
(dp1186
g61
(dp1187
g69
I4
ssg70
g1181
sg63
(lp1188
S'session_id_streamlog=127.0.0.1-610b0c7d-3f6f-4500-a76a-b095fb30f7fd; session_id_admin=127.0.0.1-87ac9729-f9fb-412b-aa6d-428ca5932487; session_id_test3=127.0.0.1-380e7b29-b635-4690-b9ca-812870d6a061'
p1189
asbasbasbag56
(g72
g58
NtRp1190
(dp1191
g61
(dp1192
sg70
g834
sg63
(lp1193
g56
(g77
g58
NtRp1194
(dp1195
g61
(dp1196
g81
g82
ssg70
g1190
sg63
(lp1197
S'http_host'
p1198
asbag56
(g77
g58
NtRp1199
(dp1200
g61
(dp1201
g88
g89
ssg70
g1190
sg63
(lp1202
S':'
asbag56
(g77
g58
NtRp1203
(dp1204
g61
(dp1205
sg70
g1190
sg63
(lp1206
g56
(g57
g58
NtRp1207
(dp1208
g61
(dp1209
g69
I4
ssg70
g1203
sg63
(lp1210
S'localhost:8000'
p1211
asbasbasbag56
(g72
g58
NtRp1212
(dp1213
g61
(dp1214
sg70
g834
sg63
(lp1215
g56
(g77
g58
NtRp1216
(dp1217
g61
(dp1218
g81
g82
ssg70
g1212
sg63
(lp1219
S'http_referer'
p1220
asbag56
(g77
g58
NtRp1221
(dp1222
g61
(dp1223
g88
g89
ssg70
g1212
sg63
(lp1224
S':'
asbag56
(g77
g58
NtRp1225
(dp1226
g61
(dp1227
sg70
g1212
sg63
(lp1228
g56
(g57
g58
NtRp1229
(dp1230
g61
(dp1231
g69
I4
ssg70
g1225
sg63
(lp1232
S'http://localhost:8000/streamlog/default/index'
p1233
asbasbasbag56
(g72
g58
NtRp1234
(dp1235
g61
(dp1236
sg70
g834
sg63
(lp1237
g56
(g77
g58
NtRp1238
(dp1239
g61
(dp1240
g81
g82
ssg70
g1234
sg63
(lp1241
S'http_user_agent'
p1242
asbag56
(g77
g58
NtRp1243
(dp1244
g61
(dp1245
g88
g89
ssg70
g1234
sg63
(lp1246
S':'
asbag56
(g77
g58
NtRp1247
(dp1248
g61
(dp1249
sg70
g1234
sg63
(lp1250
g56
(g57
g58
NtRp1251
(dp1252
g61
(dp1253
g69
I4
ssg70
g1247
sg63
(lp1254
S'Mozilla/5.0 (X11; Ubuntu; Linux x86_64; rv:12.0) Gecko/20100101 Firefox/12.0'
p1255
asbasbasbag56
(g72
g58
NtRp1256
(dp1257
g61
(dp1258
sg70
g834
sg63
(lp1259
g56
(g77
g58
NtRp1260
(dp1261
g61
(dp1262
g81
g82
ssg70
g1256
sg63
(lp1263
S'is_jython'
p1264
asbag56
(g77
g58
NtRp1265
(dp1266
g61
(dp1267
g88
g89
ssg70
g1256
sg63
(lp1268
S':'
asbag56
(g77
g58
NtRp1269
(dp1270
g61
(dp1271
sg70
g1256
sg63
(lp1272
g56
(g57
g58
NtRp1273
(dp1274
g61
(dp1275
g69
I4
ssg70
g1269
sg63
(lp1276
g99
asbasbasbag56
(g72
g58
NtRp1277
(dp1278
g61
(dp1279
sg70
g834
sg63
(lp1280
g56
(g77
g58
NtRp1281
(dp1282
g61
(dp1283
g81
g82
ssg70
g1277
sg63
(lp1284
S'path_info'
p1285
asbag56
(g77
g58
NtRp1286
(dp1287
g61
(dp1288
g88
g89
ssg70
g1277
sg63
(lp1289
S':'
asbag56
(g77
g58
NtRp1290
(dp1291
g61
(dp1292
sg70
g1277
sg63
(lp1293
g56
(g57
g58
NtRp1294
(dp1295
g61
(dp1296
g69
I4
ssg70
g1290
sg63
(lp1297
S'/streamlog/default/index'
p1298
asbasbasbag56
(g72
g58
NtRp1299
(dp1300
g61
(dp1301
sg70
g834
sg63
(lp1302
g56
(g77
g58
NtRp1303
(dp1304
g61
(dp1305
g81
g82
ssg70
g1299
sg63
(lp1306
S'query_string'
p1307
asbag56
(g77
g58
NtRp1308
(dp1309
g61
(dp1310
g88
g89
ssg70
g1299
sg63
(lp1311
S':'
asbag56
(g77
g58
NtRp1312
(dp1313
g61
(dp1314
sg70
g1299
sg63
(lp1315
g56
(g57
g58
NtRp1316
(dp1317
g61
(dp1318
g69
I4
ssg70
g1312
sg63
(lp1319
S''
asbasbasbag56
(g72
g58
NtRp1320
(dp1321
g61
(dp1322
sg70
g834
sg63
(lp1323
g56
(g77
g58
NtRp1324
(dp1325
g61
(dp1326
g81
g82
ssg70
g1320
sg63
(lp1327
S'remote_addr'
p1328
asbag56
(g77
g58
NtRp1329
(dp1330
g61
(dp1331
g88
g89
ssg70
g1320
sg63
(lp1332
S':'
asbag56
(g77
g58
NtRp1333
(dp1334
g61
(dp1335
sg70
g1320
sg63
(lp1336
g56
(g57
g58
NtRp1337
(dp1338
g61
(dp1339
g69
I4
ssg70
g1333
sg63
(lp1340
g202
asbasbasbag56
(g72
g58
NtRp1341
(dp1342
g61
(dp1343
sg70
g834
sg63
(lp1344
g56
(g77
g58
NtRp1345
(dp1346
g61
(dp1347
g81
g82
ssg70
g1341
sg63
(lp1348
S'remote_port'
p1349
asbag56
(g77
g58
NtRp1350
(dp1351
g61
(dp1352
g88
g89
ssg70
g1341
sg63
(lp1353
S':'
asbag56
(g77
g58
NtRp1354
(dp1355
g61
(dp1356
sg70
g1341
sg63
(lp1357
g56
(g57
g58
NtRp1358
(dp1359
g61
(dp1360
g69
I4
ssg70
g1354
sg63
(lp1361
S'34210'
p1362
asbasbasbag56
(g72
g58
NtRp1363
(dp1364
g61
(dp1365
sg70
g834
sg63
(lp1366
g56
(g77
g58
NtRp1367
(dp1368
g61
(dp1369
g81
g82
ssg70
g1363
sg63
(lp1370
S'request_method'
p1371
asbag56
(g77
g58
NtRp1372
(dp1373
g61
(dp1374
g88
g89
ssg70
g1363
sg63
(lp1375
S':'
asbag56
(g77
g58
NtRp1376
(dp1377
g61
(dp1378
sg70
g1363
sg63
(lp1379
g56
(g57
g58
NtRp1380
(dp1381
g61
(dp1382
g69
I4
ssg70
g1376
sg63
(lp1383
S'POST'
p1384
asbasbasbag56
(g72
g58
NtRp1385
(dp1386
g61
(dp1387
sg70
g834
sg63
(lp1388
g56
(g77
g58
NtRp1389
(dp1390
g61
(dp1391
g81
g82
ssg70
g1385
sg63
(lp1392
S'script_name'
p1393
asbag56
(g77
g58
NtRp1394
(dp1395
g61
(dp1396
g88
g89
ssg70
g1385
sg63
(lp1397
S':'
asbag56
(g77
g58
NtRp1398
(dp1399
g61
(dp1400
sg70
g1385
sg63
(lp1401
g56
(g57
g58
NtRp1402
(dp1403
g61
(dp1404
g69
I4
ssg70
g1398
sg63
(lp1405
S''
asbasbasbag56
(g72
g58
NtRp1406
(dp1407
g61
(dp1408
sg70
g834
sg63
(lp1409
g56
(g77
g58
NtRp1410
(dp1411
g61
(dp1412
g81
g82
ssg70
g1406
sg63
(lp1413
S'server_name'
p1414
asbag56
(g77
g58
NtRp1415
(dp1416
g61
(dp1417
g88
g89
ssg70
g1406
sg63
(lp1418
S':'
asbag56
(g77
g58
NtRp1419
(dp1420
g61
(dp1421
sg70
g1406
sg63
(lp1422
g56
(g57
g58
NtRp1423
(dp1424
g61
(dp1425
g69
I4
ssg70
g1419
sg63
(lp1426
S'jose'
p1427
asbasbasbag56
(g72
g58
NtRp1428
(dp1429
g61
(dp1430
sg70
g834
sg63
(lp1431
g56
(g77
g58
NtRp1432
(dp1433
g61
(dp1434
g81
g82
ssg70
g1428
sg63
(lp1435
S'server_port'
p1436
asbag56
(g77
g58
NtRp1437
(dp1438
g61
(dp1439
g88
g89
ssg70
g1428
sg63
(lp1440
S':'
asbag56
(g77
g58
NtRp1441
(dp1442
g61
(dp1443
sg70
g1428
sg63
(lp1444
g56
(g57
g58
NtRp1445
(dp1446
g61
(dp1447
g69
I4
ssg70
g1441
sg63
(lp1448
S'8000'
p1449
asbasbasbag56
(g72
g58
NtRp1450
(dp1451
g61
(dp1452
sg70
g834
sg63
(lp1453
g56
(g77
g58
NtRp1454
(dp1455
g61
(dp1456
g81
g82
ssg70
g1450
sg63
(lp1457
S'server_protocol'
p1458
asbag56
(g77
g58
NtRp1459
(dp1460
g61
(dp1461
g88
g89
ssg70
g1450
sg63
(lp1462
S':'
asbag56
(g77
g58
NtRp1463
(dp1464
g61
(dp1465
sg70
g1450
sg63
(lp1466
g56
(g57
g58
NtRp1467
(dp1468
g61
(dp1469
g69
I4
ssg70
g1463
sg63
(lp1470
S'HTTP/1.1'
p1471
asbasbasbag56
(g72
g58
NtRp1472
(dp1473
g61
(dp1474
sg70
g834
sg63
(lp1475
g56
(g77
g58
NtRp1476
(dp1477
g61
(dp1478
g81
g82
ssg70
g1472
sg63
(lp1479
S'server_software'
p1480
asbag56
(g77
g58
NtRp1481
(dp1482
g61
(dp1483
g88
g89
ssg70
g1472
sg63
(lp1484
S':'
asbag56
(g77
g58
NtRp1485
(dp1486
g61
(dp1487
sg70
g1472
sg63
(lp1488
g56
(g57
g58
NtRp1489
(dp1490
g61
(dp1491
g69
I4
ssg70
g1485
sg63
(lp1492
S'Rocket 1.2.4'
p1493
asbasbasbag56
(g72
g58
NtRp1494
(dp1495
g61
(dp1496
sg70
g834
sg63
(lp1497
g56
(g77
g58
NtRp1498
(dp1499
g61
(dp1500
g81
g82
ssg70
g1494
sg63
(lp1501
S'web2py_crontype'
p1502
asbag56
(g77
g58
NtRp1503
(dp1504
g61
(dp1505
g88
g89
ssg70
g1494
sg63
(lp1506
S':'
asbag56
(g77
g58
NtRp1507
(dp1508
g61
(dp1509
sg70
g1494
sg63
(lp1510
g56
(g57
g58
NtRp1511
(dp1512
g61
(dp1513
g69
I4
ssg70
g1507
sg63
(lp1514
S'hard'
p1515
asbasbasbag56
(g72
g58
NtRp1516
(dp1517
g61
(dp1518
sg70
g834
sg63
(lp1519
g56
(g77
g58
NtRp1520
(dp1521
g61
(dp1522
g81
g82
ssg70
g1516
sg63
(lp1523
S'web2py_path'
p1524
asbag56
(g77
g58
NtRp1525
(dp1526
g61
(dp1527
g88
g89
ssg70
g1516
sg63
(lp1528
S':'
asbag56
(g77
g58
NtRp1529
(dp1530
g61
(dp1531
sg70
g1516
sg63
(lp1532
g56
(g57
g58
NtRp1533
(dp1534
g61
(dp1535
g69
I4
ssg70
g1529
sg63
(lp1536
g881
asbasbasbag56
(g72
g58
NtRp1537
(dp1538
g61
(dp1539
sg70
g834
sg63
(lp1540
g56
(g77
g58
NtRp1541
(dp1542
g61
(dp1543
g81
g82
ssg70
g1537
sg63
(lp1544
S'web2py_version'
p1545
asbag56
(g77
g58
NtRp1546
(dp1547
g61
(dp1548
g88
g89
ssg70
g1537
sg63
(lp1549
S':'
asbag56
(g77
g58
NtRp1550
(dp1551
g61
(dp1552
sg70
g1537
sg63
(lp1553
g56
(g57
g58
NtRp1554
(dp1555
g61
(dp1556
g69
I4
ssg70
g1550
sg63
(lp1557
g56
(g65
g58
NtRp1558
(dp1559
g61
(dp1560
g69
I3
ssg70
Nsg63
(lp1561
g56
(g72
g58
NtRp1562
(dp1563
g61
(dp1564
sg70
g1558
sg63
(lp1565
g56
(g77
g58
NtRp1566
(dp1567
g61
(dp1568
sg70
g1562
sg63
(lp1569
g56
(g57
g58
NtRp1570
(dp1571
g61
(dp1572
g69
I3
ssg70
g1566
sg63
(lp1573
S'1'
asbasbasbag56
(g72
g58
NtRp1574
(dp1575
g61
(dp1576
sg70
g1558
sg63
(lp1577
g56
(g77
g58
NtRp1578
(dp1579
g61
(dp1580
sg70
g1574
sg63
(lp1581
g56
(g57
g58
NtRp1582
(dp1583
g61
(dp1584
g69
I3
ssg70
g1578
sg63
(lp1585
S'99'
p1586
asbasbasbag56
(g72
g58
NtRp1587
(dp1588
g61
(dp1589
sg70
g1558
sg63
(lp1590
g56
(g77
g58
NtRp1591
(dp1592
g61
(dp1593
sg70
g1587
sg63
(lp1594
g56
(g57
g58
NtRp1595
(dp1596
g61
(dp1597
g69
I3
ssg70
g1591
sg63
(lp1598
S'2'
asbasbasbag56
(g72
g58
NtRp1599
(dp1600
g61
(dp1601
sg70
g1558
sg63
(lp1602
g56
(g77
g58
NtRp1603
(dp1604
g61
(dp1605
sg70
g1599
sg63
(lp1606
g56
(g57
g58
NtRp1607
(dp1608
g61
(dp1609
g69
I3
ssg70
g1603
sg63
(lp1610
S'datetime.datetime(2011, 9, 26, 6, 55, 33)'
p1611
asbasbasbag56
(g72
g58
NtRp1612
(dp1613
g61
(dp1614
sg70
g1558
sg63
(lp1615
g56
(g77
g58
NtRp1616
(dp1617
g61
(dp1618
sg70
g1612
sg63
(lp1619
g56
(g57
g58
NtRp1620
(dp1621
g61
(dp1622
g69
I3
ssg70
g1616
sg63
(lp1623
S'stable'
p1624
asbasbasbasbasbasbasbag56
(g72
g58
NtRp1625
(dp1626
g61
(dp1627
sg70
g834
sg63
(lp1628
g56
(g77
g58
NtRp1629
(dp1630
g61
(dp1631
g81
g82
ssg70
g1625
sg63
(lp1632
S'wsgi_errors'
p1633
asbag56
(g77
g58
NtRp1634
(dp1635
g61
(dp1636
g88
g89
ssg70
g1625
sg63
(lp1637
S':'
asbag56
(g77
g58
NtRp1638
(dp1639
g61
(dp1640
sg70
g1625
sg63
(lp1641
g56
(g57
g58
NtRp1642
(dp1643
g61
(dp1644
g69
I4
ssg70
g1638
sg63
(lp1645
S"<open file '<stderr>', mode 'w' at 0x7f84db3ff270>"
p1646
asbasbasbag56
(g72
g58
NtRp1647
(dp1648
g61
(dp1649
sg70
g834
sg63
(lp1650
g56
(g77
g58
NtRp1651
(dp1652
g61
(dp1653
g81
g82
ssg70
g1647
sg63
(lp1654
S'wsgi_file_wrapper'
p1655
asbag56
(g77
g58
NtRp1656
(dp1657
g61
(dp1658
g88
g89
ssg70
g1647
sg63
(lp1659
S':'
asbag56
(g77
g58
NtRp1660
(dp1661
g61
(dp1662
sg70
g1647
sg63
(lp1663
g56
(g57
g58
NtRp1664
(dp1665
g61
(dp1666
g69
I4
ssg70
g1660
sg63
(lp1667
S'<class wsgiref.util.FileWrapper at 0x1b96d50>'
p1668
asbasbasbag56
(g72
g58
NtRp1669
(dp1670
g61
(dp1671
sg70
g834
sg63
(lp1672
g56
(g77
g58
NtRp1673
(dp1674
g61
(dp1675
g81
g82
ssg70
g1669
sg63
(lp1676
S'wsgi_input'
p1677
asbag56
(g77
g58
NtRp1678
(dp1679
g61
(dp1680
g88
g89
ssg70
g1669
sg63
(lp1681
S':'
asbag56
(g77
g58
NtRp1682
(dp1683
g61
(dp1684
sg70
g1669
sg63
(lp1685
g56
(g57
g58
NtRp1686
(dp1687
g61
(dp1688
g69
I4
ssg70
g1682
sg63
(lp1689
S'<socket._fileobject object at 0x1f000d0>'
p1690
asbasbasbag56
(g72
g58
NtRp1691
(dp1692
g61
(dp1693
sg70
g834
sg63
(lp1694
g56
(g77
g58
NtRp1695
(dp1696
g61
(dp1697
g81
g82
ssg70
g1691
sg63
(lp1698
S'wsgi_multiprocess'
p1699
asbag56
(g77
g58
NtRp1700
(dp1701
g61
(dp1702
g88
g89
ssg70
g1691
sg63
(lp1703
S':'
asbag56
(g77
g58
NtRp1704
(dp1705
g61
(dp1706
sg70
g1691
sg63
(lp1707
g56
(g57
g58
NtRp1708
(dp1709
g61
(dp1710
g69
I4
ssg70
g1704
sg63
(lp1711
g99
asbasbasbag56
(g72
g58
NtRp1712
(dp1713
g61
(dp1714
sg70
g834
sg63
(lp1715
g56
(g77
g58
NtRp1716
(dp1717
g61
(dp1718
g81
g82
ssg70
g1712
sg63
(lp1719
S'wsgi_multithread'
p1720
asbag56
(g77
g58
NtRp1721
(dp1722
g61
(dp1723
g88
g89
ssg70
g1712
sg63
(lp1724
S':'
asbag56
(g77
g58
NtRp1725
(dp1726
g61
(dp1727
sg70
g1712
sg63
(lp1728
g56
(g57
g58
NtRp1729
(dp1730
g61
(dp1731
g69
I4
ssg70
g1725
sg63
(lp1732
S'True'
p1733
asbasbasbag56
(g72
g58
NtRp1734
(dp1735
g61
(dp1736
sg70
g834
sg63
(lp1737
g56
(g77
g58
NtRp1738
(dp1739
g61
(dp1740
g81
g82
ssg70
g1734
sg63
(lp1741
S'wsgi_run_once'
p1742
asbag56
(g77
g58
NtRp1743
(dp1744
g61
(dp1745
g88
g89
ssg70
g1734
sg63
(lp1746
S':'
asbag56
(g77
g58
NtRp1747
(dp1748
g61
(dp1749
sg70
g1734
sg63
(lp1750
g56
(g57
g58
NtRp1751
(dp1752
g61
(dp1753
g69
I4
ssg70
g1747
sg63
(lp1754
g99
asbasbasbag56
(g72
g58
NtRp1755
(dp1756
g61
(dp1757
sg70
g834
sg63
(lp1758
g56
(g77
g58
NtRp1759
(dp1760
g61
(dp1761
g81
g82
ssg70
g1755
sg63
(lp1762
S'wsgi_url_scheme'
p1763
asbag56
(g77
g58
NtRp1764
(dp1765
g61
(dp1766
g88
g89
ssg70
g1755
sg63
(lp1767
S':'
asbag56
(g77
g58
NtRp1768
(dp1769
g61
(dp1770
sg70
g1755
sg63
(lp1771
g56
(g57
g58
NtRp1772
(dp1773
g61
(dp1774
g69
I4
ssg70
g1768
sg63
(lp1775
S'http'
p1776
asbasbasbag56
(g72
g58
NtRp1777
(dp1778
g61
(dp1779
sg70
g834
sg63
(lp1780
g56
(g77
g58
NtRp1781
(dp1782
g61
(dp1783
g81
g82
ssg70
g1777
sg63
(lp1784
S'wsgi_version'
p1785
asbag56
(g77
g58
NtRp1786
(dp1787
g61
(dp1788
g88
g89
ssg70
g1777
sg63
(lp1789
S':'
asbag56
(g77
g58
NtRp1790
(dp1791
g61
(dp1792
sg70
g1777
sg63
(lp1793
g56
(g57
g58
NtRp1794
(dp1795
g61
(dp1796
g69
I4
ssg70
g1790
sg63
(lp1797
g56
(g65
g58
NtRp1798
(dp1799
g61
(dp1800
g69
I3
ssg70
Nsg63
(lp1801
g56
(g72
g58
NtRp1802
(dp1803
g61
(dp1804
sg70
g1798
sg63
(lp1805
g56
(g77
g58
NtRp1806
(dp1807
g61
(dp1808
sg70
g1802
sg63
(lp1809
g56
(g57
g58
NtRp1810
(dp1811
g61
(dp1812
g69
I3
ssg70
g1806
sg63
(lp1813
S'1'
asbasbasbag56
(g72
g58
NtRp1814
(dp1815
g61
(dp1816
sg70
g1798
sg63
(lp1817
g56
(g77
g58
NtRp1818
(dp1819
g61
(dp1820
sg70
g1814
sg63
(lp1821
g56
(g57
g58
NtRp1822
(dp1823
g61
(dp1824
g69
I3
ssg70
g1818
sg63
(lp1825
S'0'
asbasbasbasbasbasbasbasbasbasbasbag56
(g72
g58
NtRp1826
(dp1827
g61
(dp1828
sg70
g66
sg63
(lp1829
g56
(g77
g58
NtRp1830
(dp1831
g61
(dp1832
g81
g82
ssg70
g1826
sg63
(lp1833
S'extension'
p1834
asbag56
(g77
g58
NtRp1835
(dp1836
g61
(dp1837
g88
g89
ssg70
g1826
sg63
(lp1838
S':'
asbag56
(g77
g58
NtRp1839
(dp1840
g61
(dp1841
sg70
g1826
sg63
(lp1842
g56
(g57
g58
NtRp1843
(dp1844
g61
(dp1845
g69
I5
ssg70
g1839
sg63
(lp1846
S'html'
p1847
asbasbasbag56
(g72
g58
NtRp1848
(dp1849
g61
(dp1850
sg70
g66
sg63
(lp1851
g56
(g77
g58
NtRp1852
(dp1853
g61
(dp1854
g81
g82
ssg70
g1848
sg63
(lp1855
S'folder'
p1856
asbag56
(g77
g58
NtRp1857
(dp1858
g61
(dp1859
g88
g89
ssg70
g1848
sg63
(lp1860
S':'
asbag56
(g77
g58
NtRp1861
(dp1862
g61
(dp1863
sg70
g1848
sg63
(lp1864
g56
(g57
g58
NtRp1865
(dp1866
g61
(dp1867
g69
I5
ssg70
g1861
sg63
(lp1868
S'/home/jose/DESARROLLO/web2py199/applications/streamlog/'
p1869
asbasbasbag56
(g72
g58
NtRp1870
(dp1871
g61
(dp1872
sg70
g66
sg63
(lp1873
g56
(g77
g58
NtRp1874
(dp1875
g61
(dp1876
g81
g82
ssg70
g1870
sg63
(lp1877
S'function'
p1878
asbag56
(g77
g58
NtRp1879
(dp1880
g61
(dp1881
g88
g89
ssg70
g1870
sg63
(lp1882
S':'
asbag56
(g77
g58
NtRp1883
(dp1884
g61
(dp1885
sg70
g1870
sg63
(lp1886
g56
(g57
g58
NtRp1887
(dp1888
g61
(dp1889
g69
I5
ssg70
g1883
sg63
(lp1890
S'index'
p1891
asbasbasbag56
(g72
g58
NtRp1892
(dp1893
g61
(dp1894
sg70
g66
sg63
(lp1895
g56
(g77
g58
NtRp1896
(dp1897
g61
(dp1898
g81
g82
ssg70
g1892
sg63
(lp1899
S'get_vars'
p1900
asbag56
(g77
g58
NtRp1901
(dp1902
g61
(dp1903
g88
g89
ssg70
g1892
sg63
(lp1904
S':'
asbag56
(g77
g58
NtRp1905
(dp1906
g61
(dp1907
sg70
g1892
sg63
(lp1908
g56
(g57
g58
NtRp1909
(dp1910
g61
(dp1911
g69
I5
ssg70
g1905
sg63
(lp1912
g56
(g65
g58
NtRp1913
(dp1914
g61
(dp1915
g69
I4
ssg70
Nsg63
(lp1916
sbasbasbasbag56
(g72
g58
NtRp1917
(dp1918
g61
(dp1919
sg70
g66
sg63
(lp1920
g56
(g77
g58
NtRp1921
(dp1922
g61
(dp1923
g81
g82
ssg70
g1917
sg63
(lp1924
S'global_settings'
p1925
asbag56
(g77
g58
NtRp1926
(dp1927
g61
(dp1928
g88
g89
ssg70
g1917
sg63
(lp1929
S':'
asbag56
(g77
g58
NtRp1930
(dp1931
g61
(dp1932
sg70
g1917
sg63
(lp1933
g56
(g57
g58
NtRp1934
(dp1935
g61
(dp1936
g69
I5
ssg70
g1930
sg63
(lp1937
g56
(g65
g58
NtRp1938
(dp1939
g61
(dp1940
g69
I4
ssg70
Nsg63
(lp1941
g56
(g72
g58
NtRp1942
(dp1943
g61
(dp1944
sg70
g1938
sg63
(lp1945
g56
(g77
g58
NtRp1946
(dp1947
g61
(dp1948
g81
g82
ssg70
g1942
sg63
(lp1949
g846
asbag56
(g77
g58
NtRp1950
(dp1951
g61
(dp1952
g88
g89
ssg70
g1942
sg63
(lp1953
S':'
asbag56
(g77
g58
NtRp1954
(dp1955
g61
(dp1956
sg70
g1942
sg63
(lp1957
g56
(g57
g58
NtRp1958
(dp1959
g61
(dp1960
g69
I4
ssg70
g1954
sg63
(lp1961
S"set(['/home/jose/DESARROLLO/web2py199/applications/streamlog/', '/home/jose/DESARROLLO/web2py199/applications/admin/'])"
p1962
asbasbasbag56
(g72
g58
NtRp1963
(dp1964
g61
(dp1965
sg70
g1938
sg63
(lp1966
g56
(g77
g58
NtRp1967
(dp1968
g61
(dp1969
g81
g82
ssg70
g1963
sg63
(lp1970
g868
asbag56
(g77
g58
NtRp1971
(dp1972
g61
(dp1973
g88
g89
ssg70
g1963
sg63
(lp1974
S':'
asbag56
(g77
g58
NtRp1975
(dp1976
g61
(dp1977
sg70
g1963
sg63
(lp1978
g56
(g57
g58
NtRp1979
(dp1980
g61
(dp1981
g69
I4
ssg70
g1975
sg63
(lp1982
g881
asbasbasbag56
(g72
g58
NtRp1983
(dp1984
g61
(dp1985
sg70
g1938
sg63
(lp1986
g56
(g77
g58
NtRp1987
(dp1988
g61
(dp1989
g81
g82
ssg70
g1983
sg63
(lp1990
g890
asbag56
(g77
g58
NtRp1991
(dp1992
g61
(dp1993
g88
g89
ssg70
g1983
sg63
(lp1994
S':'
asbag56
(g77
g58
NtRp1995
(dp1996
g61
(dp1997
sg70
g1983
sg63
(lp1998
g56
(g57
g58
NtRp1999
(dp2000
g61
(dp2001
g69
I4
ssg70
g1995
sg63
(lp2002
g56
(g65
g58
NtRp2003
(dp2004
g61
(dp2005
g69
I3
ssg70
Nsg63
(lp2006
sbasbasbasbag56
(g72
g58
NtRp2007
(dp2008
g61
(dp2009
sg70
g1938
sg63
(lp2010
g56
(g77
g58
NtRp2011
(dp2012
g61
(dp2013
g81
g82
ssg70
g2007
sg63
(lp2014
g915
asbag56
(g77
g58
NtRp2015
(dp2016
g61
(dp2017
g88
g89
ssg70
g2007
sg63
(lp2018
S':'
asbag56
(g77
g58
NtRp2019
(dp2020
g61
(dp2021
sg70
g2007
sg63
(lp2022
g56
(g57
g58
NtRp2023
(dp2024
g61
(dp2025
g69
I4
ssg70
g2019
sg63
(lp2026
S"<Values at 0x1c79f80: {'verbose': False, 'ip': '127.0.0.1', 'shutdown_timeout': 5, 'taskbar': False, 'nocron': False, 'pid_filename': 'httpserver.pid', 'maxthreads': None, 'softcron': False, 'server_name': 'jose', 'bpython': False, 'nogui': False, 'port': 8000, 'extcron': False, 'debuglevel': 30, 'test': None, 'folder': '/home/jose/DESARROLLO/web2py199', 'config': '', 'import_models': False, 'winservice': '', 'shell': None, 'run': '', 'log_filename': 'httpserver.log', 'args': [''], 'ssl_ca_certificate': None, 'scheduler': None, 'profiler_filename': None, 'ssl_private_key': '', 'password': 't', 'request_queue_size': 5, 'ssl_certificate': '', 'cronjob': False, 'plain': False, 'quiet': False, 'interfaces': None, 'minthreads': None, 'timeout': 10, 'numthreads': None, 'nobanner': False}>"
p2027
asbasbasbag56
(g72
g58
NtRp2028
(dp2029
g61
(dp2030
sg70
g1938
sg63
(lp2031
g56
(g77
g58
NtRp2032
(dp2033
g61
(dp2034
g81
g82
ssg70
g2028
sg63
(lp2035
g981
asbag56
(g77
g58
NtRp2036
(dp2037
g61
(dp2038
g88
g89
ssg70
g2028
sg63
(lp2039
S':'
asbag56
(g77
g58
NtRp2040
(dp2041
g61
(dp2042
sg70
g2028
sg63
(lp2043
g56
(g57
g58
NtRp2044
(dp2045
g61
(dp2046
g69
I4
ssg70
g2040
sg63
(lp2047
S'set([])'
p2048
asbasbasbag56
(g72
g58
NtRp2049
(dp2050
g61
(dp2051
sg70
g1938
sg63
(lp2052
g56
(g77
g58
NtRp2053
(dp2054
g61
(dp2055
g81
g82
ssg70
g2049
sg63
(lp2056
g1003
asbag56
(g77
g58
NtRp2057
(dp2058
g61
(dp2059
g88
g89
ssg70
g2049
sg63
(lp2060
S':'
asbag56
(g77
g58
NtRp2061
(dp2062
g61
(dp2063
sg70
g2049
sg63
(lp2064
g56
(g57
g58
NtRp2065
(dp2066
g61
(dp2067
g69
I4
ssg70
g2061
sg63
(lp2068
g99
asbasbasbag56
(g72
g58
NtRp2069
(dp2070
g61
(dp2071
sg70
g1938
sg63
(lp2072
g56
(g77
g58
NtRp2073
(dp2074
g61
(dp2075
g81
g82
ssg70
g2069
sg63
(lp2076
g1024
asbag56
(g77
g58
NtRp2077
(dp2078
g61
(dp2079
g88
g89
ssg70
g2069
sg63
(lp2080
S':'
asbag56
(g77
g58
NtRp2081
(dp2082
g61
(dp2083
sg70
g2069
sg63
(lp2084
g56
(g57
g58
NtRp2085
(dp2086
g61
(dp2087
g69
I4
ssg70
g2081
sg63
(lp2088
g1037
asbasbasbag56
(g72
g58
NtRp2089
(dp2090
g61
(dp2091
sg70
g1938
sg63
(lp2092
g56
(g77
g58
NtRp2093
(dp2094
g61
(dp2095
g81
g82
ssg70
g2089
sg63
(lp2096
g1264
asbag56
(g77
g58
NtRp2097
(dp2098
g61
(dp2099
g88
g89
ssg70
g2089
sg63
(lp2100
S':'
asbag56
(g77
g58
NtRp2101
(dp2102
g61
(dp2103
sg70
g2089
sg63
(lp2104
g56
(g57
g58
NtRp2105
(dp2106
g61
(dp2107
g69
I4
ssg70
g2101
sg63
(lp2108
g99
asbasbasbag56
(g72
g58
NtRp2109
(dp2110
g61
(dp2111
sg70
g1938
sg63
(lp2112
g56
(g77
g58
NtRp2113
(dp2114
g61
(dp2115
g81
g82
ssg70
g2109
sg63
(lp2116
g1502
asbag56
(g77
g58
NtRp2117
(dp2118
g61
(dp2119
g88
g89
ssg70
g2109
sg63
(lp2120
S':'
asbag56
(g77
g58
NtRp2121
(dp2122
g61
(dp2123
sg70
g2109
sg63
(lp2124
g56
(g57
g58
NtRp2125
(dp2126
g61
(dp2127
g69
I4
ssg70
g2121
sg63
(lp2128
g1515
asbasbasbag56
(g72
g58
NtRp2129
(dp2130
g61
(dp2131
sg70
g1938
sg63
(lp2132
g56
(g77
g58
NtRp2133
(dp2134
g61
(dp2135
g81
g82
ssg70
g2129
sg63
(lp2136
g1545
asbag56
(g77
g58
NtRp2137
(dp2138
g61
(dp2139
g88
g89
ssg70
g2129
sg63
(lp2140
S':'
asbag56
(g77
g58
NtRp2141
(dp2142
g61
(dp2143
sg70
g2129
sg63
(lp2144
g56
(g57
g58
NtRp2145
(dp2146
g61
(dp2147
g69
I4
ssg70
g2141
sg63
(lp2148
g56
(g65
g58
NtRp2149
(dp2150
g61
(dp2151
g69
I3
ssg70
Nsg63
(lp2152
g56
(g72
g58
NtRp2153
(dp2154
g61
(dp2155
sg70
g2149
sg63
(lp2156
g56
(g77
g58
NtRp2157
(dp2158
g61
(dp2159
sg70
g2153
sg63
(lp2160
g56
(g57
g58
NtRp2161
(dp2162
g61
(dp2163
g69
I3
ssg70
g2157
sg63
(lp2164
S'1'
asbasbasbag56
(g72
g58
NtRp2165
(dp2166
g61
(dp2167
sg70
g2149
sg63
(lp2168
g56
(g77
g58
NtRp2169
(dp2170
g61
(dp2171
sg70
g2165
sg63
(lp2172
g56
(g57
g58
NtRp2173
(dp2174
g61
(dp2175
g69
I3
ssg70
g2169
sg63
(lp2176
S'99'
p2177
asbasbasbag56
(g72
g58
NtRp2178
(dp2179
g61
(dp2180
sg70
g2149
sg63
(lp2181
g56
(g77
g58
NtRp2182
(dp2183
g61
(dp2184
sg70
g2178
sg63
(lp2185
g56
(g57
g58
NtRp2186
(dp2187
g61
(dp2188
g69
I3
ssg70
g2182
sg63
(lp2189
S'2'
asbasbasbag56
(g72
g58
NtRp2190
(dp2191
g61
(dp2192
sg70
g2149
sg63
(lp2193
g56
(g77
g58
NtRp2194
(dp2195
g61
(dp2196
sg70
g2190
sg63
(lp2197
g56
(g57
g58
NtRp2198
(dp2199
g61
(dp2200
g69
I3
ssg70
g2194
sg63
(lp2201
S'datetime.datetime(2011, 9, 26, 6, 55, 33)'
p2202
asbasbasbag56
(g72
g58
NtRp2203
(dp2204
g61
(dp2205
sg70
g2149
sg63
(lp2206
g56
(g77
g58
NtRp2207
(dp2208
g61
(dp2209
sg70
g2203
sg63
(lp2210
g56
(g57
g58
NtRp2211
(dp2212
g61
(dp2213
g69
I3
ssg70
g2207
sg63
(lp2214
g1624
asbasbasbasbasbasbasbasbasbasbasbag56
(g72
g58
NtRp2215
(dp2216
g61
(dp2217
sg70
g66
sg63
(lp2218
g56
(g77
g58
NtRp2219
(dp2220
g61
(dp2221
g81
g82
ssg70
g2215
sg63
(lp2222
S'is_https'
p2223
asbag56
(g77
g58
NtRp2224
(dp2225
g61
(dp2226
g88
g89
ssg70
g2215
sg63
(lp2227
S':'
asbag56
(g77
g58
NtRp2228
(dp2229
g61
(dp2230
sg70
g2215
sg63
(lp2231
g56
(g57
g58
NtRp2232
(dp2233
g61
(dp2234
g69
I5
ssg70
g2228
sg63
(lp2235
g99
asbasbasbag56
(g72
g58
NtRp2236
(dp2237
g61
(dp2238
sg70
g66
sg63
(lp2239
g56
(g77
g58
NtRp2240
(dp2241
g61
(dp2242
g81
g82
ssg70
g2236
sg63
(lp2243
S'is_local'
p2244
asbag56
(g77
g58
NtRp2245
(dp2246
g61
(dp2247
g88
g89
ssg70
g2236
sg63
(lp2248
S':'
asbag56
(g77
g58
NtRp2249
(dp2250
g61
(dp2251
sg70
g2236
sg63
(lp2252
g56
(g57
g58
NtRp2253
(dp2254
g61
(dp2255
g69
I5
ssg70
g2249
sg63
(lp2256
g1733
asbasbasbag56
(g72
g58
NtRp2257
(dp2258
g61
(dp2259
sg70
g66
sg63
(lp2260
g56
(g77
g58
NtRp2261
(dp2262
g61
(dp2263
g81
g82
ssg70
g2257
sg63
(lp2264
S'is_restful'
p2265
asbag56
(g77
g58
NtRp2266
(dp2267
g61
(dp2268
g88
g89
ssg70
g2257
sg63
(lp2269
S':'
asbag56
(g77
g58
NtRp2270
(dp2271
g61
(dp2272
sg70
g2257
sg63
(lp2273
g56
(g57
g58
NtRp2274
(dp2275
g61
(dp2276
g69
I5
ssg70
g2270
sg63
(lp2277
g99
asbasbasbag56
(g72
g58
NtRp2278
(dp2279
g61
(dp2280
sg70
g66
sg63
(lp2281
g56
(g77
g58
NtRp2282
(dp2283
g61
(dp2284
g81
g82
ssg70
g2278
sg63
(lp2285
S'now'
p2286
asbag56
(g77
g58
NtRp2287
(dp2288
g61
(dp2289
g88
g89
ssg70
g2278
sg63
(lp2290
S':'
asbag56
(g77
g58
NtRp2291
(dp2292
g61
(dp2293
sg70
g2278
sg63
(lp2294
g56
(g57
g58
NtRp2295
(dp2296
g61
(dp2297
g69
I5
ssg70
g2291
sg63
(lp2298
S'datetime.datetime(2012, 5, 26, 16, 29, 27, 72980)'
p2299
asbasbasbag56
(g72
g58
NtRp2300
(dp2301
g61
(dp2302
sg70
g66
sg63
(lp2303
g56
(g77
g58
NtRp2304
(dp2305
g61
(dp2306
g81
g82
ssg70
g2300
sg63
(lp2307
S'post_vars'
p2308
asbag56
(g77
g58
NtRp2309
(dp2310
g61
(dp2311
g88
g89
ssg70
g2300
sg63
(lp2312
S':'
asbag56
(g77
g58
NtRp2313
(dp2314
g61
(dp2315
sg70
g2300
sg63
(lp2316
g56
(g57
g58
NtRp2317
(dp2318
g61
(dp2319
g69
I5
ssg70
g2313
sg63
(lp2320
g56
(g65
g58
NtRp2321
(dp2322
g61
(dp2323
g69
I4
ssg70
Nsg63
(lp2324
g56
(g72
g58
NtRp2325
(dp2326
g61
(dp2327
sg70
g2321
sg63
(lp2328
g56
(g77
g58
NtRp2329
(dp2330
g61
(dp2331
g81
g82
ssg70
g2325
sg63
(lp2332
S'records'
p2333
asbag56
(g77
g58
NtRp2334
(dp2335
g61
(dp2336
g88
g89
ssg70
g2325
sg63
(lp2337
S':'
asbag56
(g77
g58
NtRp2338
(dp2339
g61
(dp2340
sg70
g2325
sg63
(lp2341
g56
(g57
g58
NtRp2342
(dp2343
g61
(dp2344
g69
I4
ssg70
g2338
sg63
(lp2345
S'1'
asbasbasbasbasbasbasbag56
(g72
g58
NtRp2346
(dp2347
g61
(dp2348
sg70
g66
sg63
(lp2349
g56
(g77
g58
NtRp2350
(dp2351
g61
(dp2352
g81
g82
ssg70
g2346
sg63
(lp2353
S'url'
p2354
asbag56
(g77
g58
NtRp2355
(dp2356
g61
(dp2357
g88
g89
ssg70
g2346
sg63
(lp2358
S':'
asbag56
(g77
g58
NtRp2359
(dp2360
g61
(dp2361
sg70
g2346
sg63
(lp2362
g56
(g57
g58
NtRp2363
(dp2364
g61
(dp2365
g69
I5
ssg70
g2359
sg63
(lp2366
S'/streamlog/default/index'
p2367
asbasbasbag56
(g72
g58
NtRp2368
(dp2369
g61
(dp2370
sg70
g66
sg63
(lp2371
g56
(g77
g58
NtRp2372
(dp2373
g61
(dp2374
g81
g82
ssg70
g2368
sg63
(lp2375
S'utcnow'
p2376
asbag56
(g77
g58
NtRp2377
(dp2378
g61
(dp2379
g88
g89
ssg70
g2368
sg63
(lp2380
S':'
asbag56
(g77
g58
NtRp2381
(dp2382
g61
(dp2383
sg70
g2368
sg63
(lp2384
g56
(g57
g58
NtRp2385
(dp2386
g61
(dp2387
g69
I5
ssg70
g2381
sg63
(lp2388
S'datetime.datetime(2012, 5, 26, 9, 29, 27, 73019)'
p2389
asbasbasbag56
(g72
g58
NtRp2390
(dp2391
g61
(dp2392
sg70
g66
sg63
(lp2393
g56
(g77
g58
NtRp2394
(dp2395
g61
(dp2396
g81
g82
ssg70
g2390
sg63
(lp2397
S'uuid'
p2398
asbag56
(g77
g58
NtRp2399
(dp2400
g61
(dp2401
g88
g89
ssg70
g2390
sg63
(lp2402
S':'
asbag56
(g77
g58
NtRp2403
(dp2404
g61
(dp2405
sg70
g2390
sg63
(lp2406
g56
(g57
g58
NtRp2407
(dp2408
g61
(dp2409
g69
I5
ssg70
g2403
sg63
(lp2410
S'streamlog/127.0.0.1.2012-05-26.16-29-27.d60e68ef-b8c5-46a9-8b61-d8721970fddd'
p2411
asbasbasbag56
(g72
g58
NtRp2412
(dp2413
g61
(dp2414
sg70
g66
sg63
(lp2415
g56
(g77
g58
NtRp2416
(dp2417
g61
(dp2418
g81
g82
ssg70
g2412
sg63
(lp2419
S'vars'
p2420
asbag56
(g77
g58
NtRp2421
(dp2422
g61
(dp2423
g88
g89
ssg70
g2412
sg63
(lp2424
S':'
asbag56
(g77
g58
NtRp2425
(dp2426
g61
(dp2427
sg70
g2412
sg63
(lp2428
g56
(g57
g58
NtRp2429
(dp2430
g61
(dp2431
g69
I5
ssg70
g2425
sg63
(lp2432
g56
(g65
g58
NtRp2433
(dp2434
g61
(dp2435
g69
I4
ssg70
Nsg63
(lp2436
g56
(g72
g58
NtRp2437
(dp2438
g61
(dp2439
sg70
g2433
sg63
(lp2440
g56
(g77
g58
NtRp2441
(dp2442
g61
(dp2443
g81
g82
ssg70
g2437
sg63
(lp2444
g2333
asbag56
(g77
g58
NtRp2445
(dp2446
g61
(dp2447
g88
g89
ssg70
g2437
sg63
(lp2448
S':'
asbag56
(g77
g58
NtRp2449
(dp2450
g61
(dp2451
sg70
g2437
sg63
(lp2452
g56
(g57
g58
NtRp2453
(dp2454
g61
(dp2455
g69
I4
ssg70
g2449
sg63
(lp2456
g56
(g65
g58
NtRp2457
(dp2458
g61
(dp2459
g69
I3
ssg70
Nsg63
(lp2460
g56
(g72
g58
NtRp2461
(dp2462
g61
(dp2463
sg70
g2457
sg63
(lp2464
g56
(g77
g58
NtRp2465
(dp2466
g61
(dp2467
sg70
g2461
sg63
(lp2468
g56
(g57
g58
NtRp2469
(dp2470
g61
(dp2471
g69
I3
ssg70
g2465
sg63
(lp2472
S'1'
asbasbasbasbasbasbasbasbasbasbasbag56
(g72
g58
NtRp2473
(dp2474
g61
(dp2475
sg70
g66
sg63
(lp2476
g56
(g77
g58
NtRp2477
(dp2478
g61
(dp2479
g81
g82
ssg70
g2473
sg63
(lp2480
S'wsgi'
p2481
asbag56
(g77
g58
NtRp2482
(dp2483
g61
(dp2484
g88
g89
ssg70
g2473
sg63
(lp2485
S':'
asbag56
(g77
g58
NtRp2486
(dp2487
g61
(dp2488
sg70
g2473
sg63
(lp2489
g56
(g57
g58
NtRp2490
(dp2491
g61
(dp2492
g69
I5
ssg70
g2486
sg63
(lp2493
g56
(g65
g58
NtRp2494
(dp2495
g61
(dp2496
g69
I4
ssg70
Nsg63
(lp2497
g56
(g72
g58
NtRp2498
(dp2499
g61
(dp2500
sg70
g2494
sg63
(lp2501
g56
(g77
g58
NtRp2502
(dp2503
g61
(dp2504
g81
g82
ssg70
g2498
sg63
(lp2505
S'environ'
p2506
asbag56
(g77
g58
NtRp2507
(dp2508
g61
(dp2509
g88
g89
ssg70
g2498
sg63
(lp2510
S':'
asbag56
(g77
g58
NtRp2511
(dp2512
g61
(dp2513
sg70
g2498
sg63
(lp2514
g56
(g57
g58
NtRp2515
(dp2516
g61
(dp2517
g69
I4
ssg70
g2511
sg63
(lp2518
g56
(g65
g58
NtRp2519
(dp2520
g61
(dp2521
g69
I3
ssg70
Nsg63
(lp2522
g56
(g72
g58
NtRp2523
(dp2524
g61
(dp2525
sg70
g2519
sg63
(lp2526
g56
(g77
g58
NtRp2527
(dp2528
g61
(dp2529
g81
g82
ssg70
g2523
sg63
(lp2530
S'CONTENT_LENGTH'
p2531
asbag56
(g77
g58
NtRp2532
(dp2533
g61
(dp2534
g88
g89
ssg70
g2523
sg63
(lp2535
S':'
asbag56
(g77
g58
NtRp2536
(dp2537
g61
(dp2538
sg70
g2523
sg63
(lp2539
g56
(g57
g58
NtRp2540
(dp2541
g61
(dp2542
g69
I3
ssg70
g2536
sg63
(lp2543
g950
asbasbasbag56
(g72
g58
NtRp2544
(dp2545
g61
(dp2546
sg70
g2519
sg63
(lp2547
g56
(g77
g58
NtRp2548
(dp2549
g61
(dp2550
g81
g82
ssg70
g2544
sg63
(lp2551
S'CONTENT_TYPE'
p2552
asbag56
(g77
g58
NtRp2553
(dp2554
g61
(dp2555
g88
g89
ssg70
g2544
sg63
(lp2556
S':'
asbag56
(g77
g58
NtRp2557
(dp2558
g61
(dp2559
sg70
g2544
sg63
(lp2560
g56
(g57
g58
NtRp2561
(dp2562
g61
(dp2563
g69
I3
ssg70
g2557
sg63
(lp2564
g972
asbasbasbag56
(g72
g58
NtRp2565
(dp2566
g61
(dp2567
sg70
g2519
sg63
(lp2568
g56
(g77
g58
NtRp2569
(dp2570
g61
(dp2571
g81
g82
ssg70
g2565
sg63
(lp2572
S'HTTP_ACCEPT'
p2573
asbag56
(g77
g58
NtRp2574
(dp2575
g61
(dp2576
g88
g89
ssg70
g2565
sg63
(lp2577
S':'
asbag56
(g77
g58
NtRp2578
(dp2579
g61
(dp2580
sg70
g2565
sg63
(lp2581
g56
(g57
g58
NtRp2582
(dp2583
g61
(dp2584
g69
I3
ssg70
g2578
sg63
(lp2585
g1059
asbasbasbag56
(g72
g58
NtRp2586
(dp2587
g61
(dp2588
sg70
g2519
sg63
(lp2589
g56
(g77
g58
NtRp2590
(dp2591
g61
(dp2592
g81
g82
ssg70
g2586
sg63
(lp2593
S'HTTP_ACCEPT_ENCODING'
p2594
asbag56
(g77
g58
NtRp2595
(dp2596
g61
(dp2597
g88
g89
ssg70
g2586
sg63
(lp2598
S':'
asbag56
(g77
g58
NtRp2599
(dp2600
g61
(dp2601
sg70
g2586
sg63
(lp2602
g56
(g57
g58
NtRp2603
(dp2604
g61
(dp2605
g69
I3
ssg70
g2599
sg63
(lp2606
g1081
asbasbasbag56
(g72
g58
NtRp2607
(dp2608
g61
(dp2609
sg70
g2519
sg63
(lp2610
g56
(g77
g58
NtRp2611
(dp2612
g61
(dp2613
g81
g82
ssg70
g2607
sg63
(lp2614
S'HTTP_ACCEPT_LANGUAGE'
p2615
asbag56
(g77
g58
NtRp2616
(dp2617
g61
(dp2618
g88
g89
ssg70
g2607
sg63
(lp2619
S':'
asbag56
(g77
g58
NtRp2620
(dp2621
g61
(dp2622
sg70
g2607
sg63
(lp2623
g56
(g57
g58
NtRp2624
(dp2625
g61
(dp2626
g69
I3
ssg70
g2620
sg63
(lp2627
g1103
asbasbasbag56
(g72
g58
NtRp2628
(dp2629
g61
(dp2630
sg70
g2519
sg63
(lp2631
g56
(g77
g58
NtRp2632
(dp2633
g61
(dp2634
g81
g82
ssg70
g2628
sg63
(lp2635
S'HTTP_CONNECTION'
p2636
asbag56
(g77
g58
NtRp2637
(dp2638
g61
(dp2639
g88
g89
ssg70
g2628
sg63
(lp2640
S':'
asbag56
(g77
g58
NtRp2641
(dp2642
g61
(dp2643
sg70
g2628
sg63
(lp2644
g56
(g57
g58
NtRp2645
(dp2646
g61
(dp2647
g69
I3
ssg70
g2641
sg63
(lp2648
g1125
asbasbasbag56
(g72
g58
NtRp2649
(dp2650
g61
(dp2651
sg70
g2519
sg63
(lp2652
g56
(g77
g58
NtRp2653
(dp2654
g61
(dp2655
g81
g82
ssg70
g2649
sg63
(lp2656
S'HTTP_CONTENT_LENGTH'
p2657
asbag56
(g77
g58
NtRp2658
(dp2659
g61
(dp2660
g88
g89
ssg70
g2649
sg63
(lp2661
S':'
asbag56
(g77
g58
NtRp2662
(dp2663
g61
(dp2664
sg70
g2649
sg63
(lp2665
g56
(g57
g58
NtRp2666
(dp2667
g61
(dp2668
g69
I3
ssg70
g2662
sg63
(lp2669
g950
asbasbasbag56
(g72
g58
NtRp2670
(dp2671
g61
(dp2672
sg70
g2519
sg63
(lp2673
g56
(g77
g58
NtRp2674
(dp2675
g61
(dp2676
g81
g82
ssg70
g2670
sg63
(lp2677
S'HTTP_CONTENT_TYPE'
p2678
asbag56
(g77
g58
NtRp2679
(dp2680
g61
(dp2681
g88
g89
ssg70
g2670
sg63
(lp2682
S':'
asbag56
(g77
g58
NtRp2683
(dp2684
g61
(dp2685
sg70
g2670
sg63
(lp2686
g56
(g57
g58
NtRp2687
(dp2688
g61
(dp2689
g69
I3
ssg70
g2683
sg63
(lp2690
g972
asbasbasbag56
(g72
g58
NtRp2691
(dp2692
g61
(dp2693
sg70
g2519
sg63
(lp2694
g56
(g77
g58
NtRp2695
(dp2696
g61
(dp2697
g81
g82
ssg70
g2691
sg63
(lp2698
S'HTTP_COOKIE'
p2699
asbag56
(g77
g58
NtRp2700
(dp2701
g61
(dp2702
g88
g89
ssg70
g2691
sg63
(lp2703
S':'
asbag56
(g77
g58
NtRp2704
(dp2705
g61
(dp2706
sg70
g2691
sg63
(lp2707
g56
(g57
g58
NtRp2708
(dp2709
g61
(dp2710
g69
I3
ssg70
g2704
sg63
(lp2711
g1189
asbasbasbag56
(g72
g58
NtRp2712
(dp2713
g61
(dp2714
sg70
g2519
sg63
(lp2715
g56
(g77
g58
NtRp2716
(dp2717
g61
(dp2718
g81
g82
ssg70
g2712
sg63
(lp2719
S'HTTP_HOST'
p2720
asbag56
(g77
g58
NtRp2721
(dp2722
g61
(dp2723
g88
g89
ssg70
g2712
sg63
(lp2724
S':'
asbag56
(g77
g58
NtRp2725
(dp2726
g61
(dp2727
sg70
g2712
sg63
(lp2728
g56
(g57
g58
NtRp2729
(dp2730
g61
(dp2731
g69
I3
ssg70
g2725
sg63
(lp2732
g1211
asbasbasbag56
(g72
g58
NtRp2733
(dp2734
g61
(dp2735
sg70
g2519
sg63
(lp2736
g56
(g77
g58
NtRp2737
(dp2738
g61
(dp2739
g81
g82
ssg70
g2733
sg63
(lp2740
S'HTTP_REFERER'
p2741
asbag56
(g77
g58
NtRp2742
(dp2743
g61
(dp2744
g88
g89
ssg70
g2733
sg63
(lp2745
S':'
asbag56
(g77
g58
NtRp2746
(dp2747
g61
(dp2748
sg70
g2733
sg63
(lp2749
g56
(g57
g58
NtRp2750
(dp2751
g61
(dp2752
g69
I3
ssg70
g2746
sg63
(lp2753
g1233
asbasbasbag56
(g72
g58
NtRp2754
(dp2755
g61
(dp2756
sg70
g2519
sg63
(lp2757
g56
(g77
g58
NtRp2758
(dp2759
g61
(dp2760
g81
g82
ssg70
g2754
sg63
(lp2761
S'HTTP_USER_AGENT'
p2762
asbag56
(g77
g58
NtRp2763
(dp2764
g61
(dp2765
g88
g89
ssg70
g2754
sg63
(lp2766
S':'
asbag56
(g77
g58
NtRp2767
(dp2768
g61
(dp2769
sg70
g2754
sg63
(lp2770
g56
(g57
g58
NtRp2771
(dp2772
g61
(dp2773
g69
I3
ssg70
g2767
sg63
(lp2774
g1255
asbasbasbag56
(g72
g58
NtRp2775
(dp2776
g61
(dp2777
sg70
g2519
sg63
(lp2778
g56
(g77
g58
NtRp2779
(dp2780
g61
(dp2781
g81
g82
ssg70
g2775
sg63
(lp2782
S'PATH_INFO'
p2783
asbag56
(g77
g58
NtRp2784
(dp2785
g61
(dp2786
g88
g89
ssg70
g2775
sg63
(lp2787
S':'
asbag56
(g77
g58
NtRp2788
(dp2789
g61
(dp2790
sg70
g2775
sg63
(lp2791
g56
(g57
g58
NtRp2792
(dp2793
g61
(dp2794
g69
I3
ssg70
g2788
sg63
(lp2795
g1298
asbasbasbag56
(g72
g58
NtRp2796
(dp2797
g61
(dp2798
sg70
g2519
sg63
(lp2799
g56
(g77
g58
NtRp2800
(dp2801
g61
(dp2802
g81
g82
ssg70
g2796
sg63
(lp2803
S'QUERY_STRING'
p2804
asbag56
(g77
g58
NtRp2805
(dp2806
g61
(dp2807
g88
g89
ssg70
g2796
sg63
(lp2808
S':'
asbag56
(g77
g58
NtRp2809
(dp2810
g61
(dp2811
sg70
g2796
sg63
(lp2812
g56
(g57
g58
NtRp2813
(dp2814
g61
(dp2815
g69
I3
ssg70
g2809
sg63
(lp2816
S''
asbasbasbag56
(g72
g58
NtRp2817
(dp2818
g61
(dp2819
sg70
g2519
sg63
(lp2820
g56
(g77
g58
NtRp2821
(dp2822
g61
(dp2823
g81
g82
ssg70
g2817
sg63
(lp2824
S'REMOTE_ADDR'
p2825
asbag56
(g77
g58
NtRp2826
(dp2827
g61
(dp2828
g88
g89
ssg70
g2817
sg63
(lp2829
S':'
asbag56
(g77
g58
NtRp2830
(dp2831
g61
(dp2832
sg70
g2817
sg63
(lp2833
g56
(g57
g58
NtRp2834
(dp2835
g61
(dp2836
g69
I3
ssg70
g2830
sg63
(lp2837
g202
asbasbasbag56
(g72
g58
NtRp2838
(dp2839
g61
(dp2840
sg70
g2519
sg63
(lp2841
g56
(g77
g58
NtRp2842
(dp2843
g61
(dp2844
g81
g82
ssg70
g2838
sg63
(lp2845
S'REMOTE_PORT'
p2846
asbag56
(g77
g58
NtRp2847
(dp2848
g61
(dp2849
g88
g89
ssg70
g2838
sg63
(lp2850
S':'
asbag56
(g77
g58
NtRp2851
(dp2852
g61
(dp2853
sg70
g2838
sg63
(lp2854
g56
(g57
g58
NtRp2855
(dp2856
g61
(dp2857
g69
I3
ssg70
g2851
sg63
(lp2858
g1362
asbasbasbag56
(g72
g58
NtRp2859
(dp2860
g61
(dp2861
sg70
g2519
sg63
(lp2862
g56
(g77
g58
NtRp2863
(dp2864
g61
(dp2865
g81
g82
ssg70
g2859
sg63
(lp2866
S'REQUEST_METHOD'
p2867
asbag56
(g77
g58
NtRp2868
(dp2869
g61
(dp2870
g88
g89
ssg70
g2859
sg63
(lp2871
S':'
asbag56
(g77
g58
NtRp2872
(dp2873
g61
(dp2874
sg70
g2859
sg63
(lp2875
g56
(g57
g58
NtRp2876
(dp2877
g61
(dp2878
g69
I3
ssg70
g2872
sg63
(lp2879
g1384
asbasbasbag56
(g72
g58
NtRp2880
(dp2881
g61
(dp2882
sg70
g2519
sg63
(lp2883
g56
(g77
g58
NtRp2884
(dp2885
g61
(dp2886
g81
g82
ssg70
g2880
sg63
(lp2887
S'SCRIPT_NAME'
p2888
asbag56
(g77
g58
NtRp2889
(dp2890
g61
(dp2891
g88
g89
ssg70
g2880
sg63
(lp2892
S':'
asbag56
(g77
g58
NtRp2893
(dp2894
g61
(dp2895
sg70
g2880
sg63
(lp2896
g56
(g57
g58
NtRp2897
(dp2898
g61
(dp2899
g69
I3
ssg70
g2893
sg63
(lp2900
S''
asbasbasbag56
(g72
g58
NtRp2901
(dp2902
g61
(dp2903
sg70
g2519
sg63
(lp2904
g56
(g77
g58
NtRp2905
(dp2906
g61
(dp2907
g81
g82
ssg70
g2901
sg63
(lp2908
S'SERVER_NAME'
p2909
asbag56
(g77
g58
NtRp2910
(dp2911
g61
(dp2912
g88
g89
ssg70
g2901
sg63
(lp2913
S':'
asbag56
(g77
g58
NtRp2914
(dp2915
g61
(dp2916
sg70
g2901
sg63
(lp2917
g56
(g57
g58
NtRp2918
(dp2919
g61
(dp2920
g69
I3
ssg70
g2914
sg63
(lp2921
g1427
asbasbasbag56
(g72
g58
NtRp2922
(dp2923
g61
(dp2924
sg70
g2519
sg63
(lp2925
g56
(g77
g58
NtRp2926
(dp2927
g61
(dp2928
g81
g82
ssg70
g2922
sg63
(lp2929
S'SERVER_PORT'
p2930
asbag56
(g77
g58
NtRp2931
(dp2932
g61
(dp2933
g88
g89
ssg70
g2922
sg63
(lp2934
S':'
asbag56
(g77
g58
NtRp2935
(dp2936
g61
(dp2937
sg70
g2922
sg63
(lp2938
g56
(g57
g58
NtRp2939
(dp2940
g61
(dp2941
g69
I3
ssg70
g2935
sg63
(lp2942
g1449
asbasbasbag56
(g72
g58
NtRp2943
(dp2944
g61
(dp2945
sg70
g2519
sg63
(lp2946
g56
(g77
g58
NtRp2947
(dp2948
g61
(dp2949
g81
g82
ssg70
g2943
sg63
(lp2950
S'SERVER_PROTOCOL'
p2951
asbag56
(g77
g58
NtRp2952
(dp2953
g61
(dp2954
g88
g89
ssg70
g2943
sg63
(lp2955
S':'
asbag56
(g77
g58
NtRp2956
(dp2957
g61
(dp2958
sg70
g2943
sg63
(lp2959
g56
(g57
g58
NtRp2960
(dp2961
g61
(dp2962
g69
I3
ssg70
g2956
sg63
(lp2963
g1471
asbasbasbag56
(g72
g58
NtRp2964
(dp2965
g61
(dp2966
sg70
g2519
sg63
(lp2967
g56
(g77
g58
NtRp2968
(dp2969
g61
(dp2970
g81
g82
ssg70
g2964
sg63
(lp2971
S'SERVER_SOFTWARE'
p2972
asbag56
(g77
g58
NtRp2973
(dp2974
g61
(dp2975
g88
g89
ssg70
g2964
sg63
(lp2976
S':'
asbag56
(g77
g58
NtRp2977
(dp2978
g61
(dp2979
sg70
g2964
sg63
(lp2980
g56
(g57
g58
NtRp2981
(dp2982
g61
(dp2983
g69
I3
ssg70
g2977
sg63
(lp2984
g1493
asbasbasbag56
(g72
g58
NtRp2985
(dp2986
g61
(dp2987
sg70
g2519
sg63
(lp2988
g56
(g77
g58
NtRp2989
(dp2990
g61
(dp2991
g81
g82
ssg70
g2985
sg63
(lp2992
S'wsgi.errors'
p2993
asbag56
(g77
g58
NtRp2994
(dp2995
g61
(dp2996
g88
g89
ssg70
g2985
sg63
(lp2997
S':'
asbag56
(g77
g58
NtRp2998
(dp2999
g61
(dp3000
sg70
g2985
sg63
(lp3001
g56
(g57
g58
NtRp3002
(dp3003
g61
(dp3004
g69
I3
ssg70
g2998
sg63
(lp3005
S"<open file '<stderr>', mode 'w' at 0x7f84db3ff270>"
p3006
asbasbasbag56
(g72
g58
NtRp3007
(dp3008
g61
(dp3009
sg70
g2519
sg63
(lp3010
g56
(g77
g58
NtRp3011
(dp3012
g61
(dp3013
g81
g82
ssg70
g3007
sg63
(lp3014
S'wsgi.file_wrapper'
p3015
asbag56
(g77
g58
NtRp3016
(dp3017
g61
(dp3018
g88
g89
ssg70
g3007
sg63
(lp3019
S':'
asbag56
(g77
g58
NtRp3020
(dp3021
g61
(dp3022
sg70
g3007
sg63
(lp3023
g56
(g57
g58
NtRp3024
(dp3025
g61
(dp3026
g69
I3
ssg70
g3020
sg63
(lp3027
S'<class wsgiref.util.FileWrapper at 0x1b96d50>'
p3028
asbasbasbag56
(g72
g58
NtRp3029
(dp3030
g61
(dp3031
sg70
g2519
sg63
(lp3032
g56
(g77
g58
NtRp3033
(dp3034
g61
(dp3035
g81
g82
ssg70
g3029
sg63
(lp3036
S'wsgi.input'
p3037
asbag56
(g77
g58
NtRp3038
(dp3039
g61
(dp3040
g88
g89
ssg70
g3029
sg63
(lp3041
S':'
asbag56
(g77
g58
NtRp3042
(dp3043
g61
(dp3044
sg70
g3029
sg63
(lp3045
g56
(g57
g58
NtRp3046
(dp3047
g61
(dp3048
g69
I3
ssg70
g3042
sg63
(lp3049
S"<open file '<fdopen>', mode 'w+b' at 0x2ab6810>"
p3050
asbasbasbag56
(g72
g58
NtRp3051
(dp3052
g61
(dp3053
sg70
g2519
sg63
(lp3054
g56
(g77
g58
NtRp3055
(dp3056
g61
(dp3057
g81
g82
ssg70
g3051
sg63
(lp3058
S'wsgi.multiprocess'
p3059
asbag56
(g77
g58
NtRp3060
(dp3061
g61
(dp3062
g88
g89
ssg70
g3051
sg63
(lp3063
S':'
asbag56
(g77
g58
NtRp3064
(dp3065
g61
(dp3066
sg70
g3051
sg63
(lp3067
g56
(g57
g58
NtRp3068
(dp3069
g61
(dp3070
g69
I3
ssg70
g3064
sg63
(lp3071
g99
asbasbasbag56
(g72
g58
NtRp3072
(dp3073
g61
(dp3074
sg70
g2519
sg63
(lp3075
g56
(g77
g58
NtRp3076
(dp3077
g61
(dp3078
g81
g82
ssg70
g3072
sg63
(lp3079
S'wsgi.multithread'
p3080
asbag56
(g77
g58
NtRp3081
(dp3082
g61
(dp3083
g88
g89
ssg70
g3072
sg63
(lp3084
S':'
asbag56
(g77
g58
NtRp3085
(dp3086
g61
(dp3087
sg70
g3072
sg63
(lp3088
g56
(g57
g58
NtRp3089
(dp3090
g61
(dp3091
g69
I3
ssg70
g3085
sg63
(lp3092
g1733
asbasbasbag56
(g72
g58
NtRp3093
(dp3094
g61
(dp3095
sg70
g2519
sg63
(lp3096
g56
(g77
g58
NtRp3097
(dp3098
g61
(dp3099
g81
g82
ssg70
g3093
sg63
(lp3100
S'wsgi.run_once'
p3101
asbag56
(g77
g58
NtRp3102
(dp3103
g61
(dp3104
g88
g89
ssg70
g3093
sg63
(lp3105
S':'
asbag56
(g77
g58
NtRp3106
(dp3107
g61
(dp3108
sg70
g3093
sg63
(lp3109
g56
(g57
g58
NtRp3110
(dp3111
g61
(dp3112
g69
I3
ssg70
g3106
sg63
(lp3113
g99
asbasbasbag56
(g72
g58
NtRp3114
(dp3115
g61
(dp3116
sg70
g2519
sg63
(lp3117
g56
(g77
g58
NtRp3118
(dp3119
g61
(dp3120
g81
g82
ssg70
g3114
sg63
(lp3121
S'wsgi.url_scheme'
p3122
asbag56
(g77
g58
NtRp3123
(dp3124
g61
(dp3125
g88
g89
ssg70
g3114
sg63
(lp3126
S':'
asbag56
(g77
g58
NtRp3127
(dp3128
g61
(dp3129
sg70
g3114
sg63
(lp3130
g56
(g57
g58
NtRp3131
(dp3132
g61
(dp3133
g69
I3
ssg70
g3127
sg63
(lp3134
g1776
asbasbasbag56
(g72
g58
NtRp3135
(dp3136
g61
(dp3137
sg70
g2519
sg63
(lp3138
g56
(g77
g58
NtRp3139
(dp3140
g61
(dp3141
g81
g82
ssg70
g3135
sg63
(lp3142
S'wsgi.version'
p3143
asbag56
(g77
g58
NtRp3144
(dp3145
g61
(dp3146
g88
g89
ssg70
g3135
sg63
(lp3147
S':'
asbag56
(g77
g58
NtRp3148
(dp3149
g61
(dp3150
sg70
g3135
sg63
(lp3151
g56
(g57
g58
NtRp3152
(dp3153
g61
(dp3154
g69
I3
ssg70
g3148
sg63
(lp3155
S'1'
asbasbasbasbasbasbasbasbasbasbasbasbasbsS'frames'
p3156
(lp3157
(dp3158
S'file'
p3159
S'/home/jose/DESARROLLO/web2py199/gluon/restricted.py'
p3160
sS'dump'
p3161
(dp3162
S'environment'
p3163
S"{'A': <class 'gluon.html.A'>, 'Auth': <class 'gluon.tools.Auth'>, 'B': <class 'gluon.html.B'>, 'BEAUTIFY': <class 'gluon.html.BEAUTIFY'>, 'BODY': <class 'gluon.html.BODY'>, 'BR': <class 'gluon.html.BR'>, 'BUTTON': <class 'gluon.html.BUTTON'>, 'CAT': <class 'gluon.html.CAT'>, 'CENTER': <class 'gluon.html.CENTER'>, 'CLEANUP': <class 'gluon.validators.CLEANUP'>, ...}"
p3164
sS'ccode'
p3165
S'<code object <module> at 0x24d3630, file "/home/...tions/streamlog/controllers/default.py", line 14>'
p3166
ssS'lnum'
p3167
I194
sS'lines'
p3168
(dp3169
I192
S'        else:'
p3170
sI193
S'            ccode = compile2(code,layer)'
p3171
sI194
S'        exec ccode in environment'
p3172
sI195
S'    except HTTP:'
p3173
sI196
S'        raise'
p3174
sI197
S'    except Exception, error:'
p3175
sI198
S'        # XXX Show exception in Wing IDE if running in debugger'
p3176
sI189
S'    try:'
p3177
sI190
S'        if type(code) == types.CodeType:'
p3178
sI191
S'            ccode = code'
p3179
ssS'call'
p3180
S"(code='# -*- coding: utf-8 -*-\\n# this file is released ...=crud())\\n\\nresponse._vars=response._caller(index)\\n', environment={'A': <class 'gluon.html.A'>, 'Auth': <class 'gluon.tools.Auth'>, 'B': <class 'gluon.html.B'>, 'BEAUTIFY': <class 'gluon.html.BEAUTIFY'>, 'BODY': <class 'gluon.html.BODY'>, 'BR': <class 'gluon.html.BR'>, 'BUTTON': <class 'gluon.html.BUTTON'>, 'CAT': <class 'gluon.html.CAT'>, 'CENTER': <class 'gluon.html.CENTER'>, 'CLEANUP': <class 'gluon.validators.CLEANUP'>, ...}, layer='/home/jose/DESARROLLO/web2py199/applications/streamlog/controllers/default.py')"
p3181
sS'func'
p3182
S'restricted'
p3183
sa(dp3184
g3159
S'/home/jose/DESARROLLO/web2py199/applications/streamlog/controllers/default.py'
p3185
sg3161
(dp3186
sg3167
I148
sg3168
(dp3187
I137
S'    http://..../[app]/default/data/update/[table]/[id]'
p3188
sI138
S'    http://..../[app]/default/data/delete/[table]/[id]'
p3189
sI139
S'    http://..../[app]/default/data/select/[table]'
p3190
sI140
S'    http://..../[app]/default/data/search/[table]'
p3191
sI141
S'    but URLs bust be signed, i.e. linked with'
p3192
sI142
S"      A('table',_href=URL('data/tables',user_signature=True))"
p3193
sI143
S'    or with the signed load operator'
p3194
sI144
S"      LOAD('default','data.load',args='tables',ajax=True,user_signature=True)"
p3195
sI145
S'    """'
p3196
sI146
S'    return dict(form=crud())'
p3197
ssg3180
S'()'
p3198
sg3182
S'<module>'
p3199
sa(dp3200
g3159
S'/home/jose/DESARROLLO/web2py199/gluon/globals.py'
p3201
sg3161
(dp3202
S'self'
p3203
S'undefined'
p3204
sS'f'
S'<function index>'
p3205
ssg3167
I149
sg3168
(dp3206
I144
S'        self.meta = Storage()      # used by web2py_ajax.html'
p3207
sI145
S'        self.menu = []             # used by the default view layout'
p3208
sI146
S'        self.files = []            # used by web2py_ajax.html'
p3209
sI147
S'        self.generic_patterns = [] # patterns to allow generic views'
p3210
sI148
S'        self._vars = None'
p3211
sI149
S'        self._caller = lambda f: f()'
p3212
sI150
S'        self._view_environment = None'
p3213
sI151
S'        self._custom_commit = None'
p3214
sI152
S'        self._custom_rollback = None'
p3215
sI153
S''
ssg3180
S'(f=<function index>)'
p3216
sg3182
S'<lambda>'
p3217
sa(dp3218
g3159
S'/home/jose/DESARROLLO/web2py199/applications/streamlog/controllers/default.py'
p3219
sg3161
(dp3220
S'create'
p3221
g3204
sS'builtinFalse'
p3222
g99
sS'form'
p3223
g3204
sS'global SQLFORM'
p3224
S"<class 'gluon.sqlhtml.SQLFORM'>"
p3225
sS'builtinTrue'
p3226
g1733
sS'editable'
p3227
g3204
sS'db.t_log'
p3228
S"<Table {'ALL': <gluon.dal.SQLALL object at 0x24f...ription': <gluon.dal.Field object at 0x24f9a90>}>"
p3229
sS'deletable'
p3230
g3204
sS'global db'
p3231
S"<DAL {'auth_event': <Table {'origin': <gluon.dal..., 'id': <gluon.dal.Field object at 0x24e3450>}>}>"
p3232
sS'SQLFORM.smartgrid'
p3233
S'<function smartgrid>'
p3234
sS'csv'
p3235
g3204
sS'selectable'
p3236
g3204
ssg3167
I19
sg3168
(dp3237
I14
S'def index():'
p3238
sI15
S'    """'
p3239
sI16
S'    example action using the internationalization operator T and flash'
p3240
sI17
S'    rendered by views/default/index.html or views/generic.html'
p3241
sI18
S'    """'
p3242
sI19
S'    form=SQLFORM.smartgrid(db.t_log, selectable=True, csv=False,create=False, deletable=False, editable=False)'
p3243
sI20
S"    return dict(message=T('Hello World2'), form=form)"
p3244
sI21
S''
sI22
S''
sI23
S'def choose_log():'
p3245
ssg3180
S'()'
p3246
sg3182
S'index'
p3247
sa(dp3248
g3159
S'/home/jose/DESARROLLO/web2py199/gluon/sqlhtml.py'
p3249
sg3161
(dp3250
S'user_signature'
p3251
g1733
sS'kwargs'
p3252
S"{'create': False, 'csv': False, 'deletable': False, 'editable': False, 'selectable': True}"
p3253
ssg3167
I1821
sg3168
(dp3254
I1824
S'                                 _href=URL(args=request.args[:args])))'
p3255
sI1825
S"            grid.insert(0,DIV(H3(*breadcrumbs),_class='web2py_breadcrumbs'))"
p3256
sI1816
S'            if linked_tables is None or tablename in linked_tables:'
p3257
sI1817
S"                args0 = tablename+'.'+fieldname"
p3258
sI1818
S'                links.append(lambda row,t=T(tablename),args=args,args0=args0:\\'
p3259
sI1819
S'                                 A(SPAN(t),_href=URL(args=request.args[:args]+[args0,row.id])))'
p3260
sI1820
S'        grid=SQLFORM.grid(query,args=request.args[:args],links=links,'
p3261
sI1821
S'                          user_signature=user_signature,**kwargs)'
p3262
sI1822
S'        if isinstance(grid,DIV):'
p3263
sI1823
S'            breadcrumbs.append(A(T(table._tablename),'
p3264
ssg3180
S"(table=<Table {'ALL': <gluon.dal.SQLALL object at 0x24f...ription': <gluon.dal.Field object at 0x24f9a90>}>, constraints={}, links=[], linked_tables=None, user_signature=True, **kwargs={'create': False, 'csv': False, 'deletable': False, 'editable': False, 'selectable': True})"
p3265
sg3182
S'smartgrid'
p3266
sa(dp3267
g3159
S'/home/jose/DESARROLLO/web2py199/gluon/sqlhtml.py'
p3268
sg3161
(dp3269
S'records'
p3270
S'[1]'
p3271
sS'selectable'
p3272
g1733
ssg3167
I1714
sg3168
(dp3273
I1709
S'            htmltable.append(tbody)'
p3274
sI1710
S'            if selectable:'
p3275
sI1711
S'                htmltable = FORM(htmltable,INPUT(_type="submit"))'
p3276
sI1712
S'                if htmltable.process(formname=formname).accepted:'
p3277
sI1713
S'                    records = [int(r) for r in htmltable.vars.records or []]'
p3278
sI1714
S'                    selectable(records)'
p3279
sI1715
S'                    redirect(referrer)'
p3280
sI1716
S'        else:'
p3281
sI1717
S"            htmltable = DIV(T('No records found'))"
p3282
sI1718
S'        res = DIV(console,'
p3283
ssg3180
S"(query=<gluon.dal.Query object>, fields=[<gluon.dal.Field object>, <gluon.dal.Field object>, <gluon.dal.Field object>, <gluon.dal.Field object>, <gluon.dal.Field object>, <gluon.dal.Field object>, <gluon.dal.Field object>, <gluon.dal.Field object>, <gluon.dal.Field object>], field_id=<gluon.dal.Field object>, left=None, headers={}, columns=None, orderby=None, searchable=True, sortable=True, paginate=20, deletable=False, editable=False, details=True, selectable=True, create=False, csv=False, links=[], upload=<function <lambda>>, args=['t_log'], user_signature=True, maxtextlengths={}, maxtextlength=20, onvalidation=None, oncreate=None, onupdate=None, ondelete=None, sorter_icons=('[^]', '[v]'), ui={'button': 'button', 'buttonadd': 'icon plus', 'buttonback': 'icon leftarrow', 'buttondelete': 'icon trash', 'buttonedit': 'icon pen', 'buttonexport': 'icon downarrow', 'buttontable': 'icon rightarrow', 'buttontext': 'buttontext button', 'buttonview': 'icon magnifier', 'content': '', ...}, showbuttontext=True, _class='web2py_grid', formname='web2py_grid')"
p3284
sg3182
S'grid'
p3285
sasS'pyver'
p3286
S'Python 2.7.2+: /usr/bin/python'
p3287
sS'session'
p3288
g56
(g57
g58
NtRp3289
(dp3290
g61
(dp3291
sg63
(lp3292
g56
(g65
g58
NtRp3293
(dp3294
g61
(dp3295
g69
I5
ssg70
Nsg63
(lp3296
g56
(g72
g58
NtRp3297
(dp3298
g61
(dp3299
sg70
g3293
sg63
(lp3300
g56
(g77
g58
NtRp3301
(dp3302
g61
(dp3303
g81
g82
ssg70
g3297
sg63
(lp3304
S'auth'
p3305
asbag56
(g77
g58
NtRp3306
(dp3307
g61
(dp3308
g88
g89
ssg70
g3297
sg63
(lp3309
S':'
asbag56
(g77
g58
NtRp3310
(dp3311
g61
(dp3312
sg70
g3297
sg63
(lp3313
g56
(g57
g58
NtRp3314
(dp3315
g61
(dp3316
g69
I5
ssg70
g3310
sg63
(lp3317
g56
(g65
g58
NtRp3318
(dp3319
g61
(dp3320
g69
I4
ssg70
Nsg63
(lp3321
g56
(g72
g58
NtRp3322
(dp3323
g61
(dp3324
sg70
g3318
sg63
(lp3325
g56
(g77
g58
NtRp3326
(dp3327
g61
(dp3328
g81
g82
ssg70
g3322
sg63
(lp3329
S'expiration'
p3330
asbag56
(g77
g58
NtRp3331
(dp3332
g61
(dp3333
g88
g89
ssg70
g3322
sg63
(lp3334
S':'
asbag56
(g77
g58
NtRp3335
(dp3336
g61
(dp3337
sg70
g3322
sg63
(lp3338
g56
(g57
g58
NtRp3339
(dp3340
g61
(dp3341
g69
I4
ssg70
g3335
sg63
(lp3342
S'3600'
p3343
asbasbasbag56
(g72
g58
NtRp3344
(dp3345
g61
(dp3346
sg70
g3318
sg63
(lp3347
g56
(g77
g58
NtRp3348
(dp3349
g61
(dp3350
g81
g82
ssg70
g3344
sg63
(lp3351
S'hmac_key'
p3352
asbag56
(g77
g58
NtRp3353
(dp3354
g61
(dp3355
g88
g89
ssg70
g3344
sg63
(lp3356
S':'
asbag56
(g77
g58
NtRp3357
(dp3358
g61
(dp3359
sg70
g3344
sg63
(lp3360
g56
(g57
g58
NtRp3361
(dp3362
g61
(dp3363
g69
I4
ssg70
g3357
sg63
(lp3364
S'4939d400-e4c9-4a5c-be3b-b030e1657229'
p3365
asbasbasbag56
(g72
g58
NtRp3366
(dp3367
g61
(dp3368
sg70
g3318
sg63
(lp3369
g56
(g77
g58
NtRp3370
(dp3371
g61
(dp3372
g81
g82
ssg70
g3366
sg63
(lp3373
S'last_visit'
p3374
asbag56
(g77
g58
NtRp3375
(dp3376
g61
(dp3377
g88
g89
ssg70
g3366
sg63
(lp3378
S':'
asbag56
(g77
g58
NtRp3379
(dp3380
g61
(dp3381
sg70
g3366
sg63
(lp3382
g56
(g57
g58
NtRp3383
(dp3384
g61
(dp3385
g69
I4
ssg70
g3379
sg63
(lp3386
S'datetime.datetime(2012, 5, 26, 16, 26, 0, 103509)'
p3387
asbasbasbag56
(g72
g58
NtRp3388
(dp3389
g61
(dp3390
sg70
g3318
sg63
(lp3391
g56
(g77
g58
NtRp3392
(dp3393
g61
(dp3394
g81
g82
ssg70
g3388
sg63
(lp3395
S'user'
p3396
asbag56
(g77
g58
NtRp3397
(dp3398
g61
(dp3399
g88
g89
ssg70
g3388
sg63
(lp3400
S':'
asbag56
(g77
g58
NtRp3401
(dp3402
g61
(dp3403
sg70
g3388
sg63
(lp3404
g56
(g57
g58
NtRp3405
(dp3406
g61
(dp3407
g69
I4
ssg70
g3401
sg63
(lp3408
g56
(g65
g58
NtRp3409
(dp3410
g61
(dp3411
g69
I3
ssg70
Nsg63
(lp3412
g56
(g72
g58
NtRp3413
(dp3414
g61
(dp3415
sg70
g3409
sg63
(lp3416
g56
(g77
g58
NtRp3417
(dp3418
g61
(dp3419
g81
g82
ssg70
g3413
sg63
(lp3420
S'email'
p3421
asbag56
(g77
g58
NtRp3422
(dp3423
g61
(dp3424
g88
g89
ssg70
g3413
sg63
(lp3425
S':'
asbag56
(g77
g58
NtRp3426
(dp3427
g61
(dp3428
sg70
g3413
sg63
(lp3429
g56
(g57
g58
NtRp3430
(dp3431
g61
(dp3432
g69
I3
ssg70
g3426
sg63
(lp3433
S'josedesoto@gmail.com'
p3434
asbasbasbag56
(g72
g58
NtRp3435
(dp3436
g61
(dp3437
sg70
g3409
sg63
(lp3438
g56
(g77
g58
NtRp3439
(dp3440
g61
(dp3441
g81
g82
ssg70
g3435
sg63
(lp3442
S'first_name'
p3443
asbag56
(g77
g58
NtRp3444
(dp3445
g61
(dp3446
g88
g89
ssg70
g3435
sg63
(lp3447
S':'
asbag56
(g77
g58
NtRp3448
(dp3449
g61
(dp3450
sg70
g3435
sg63
(lp3451
g56
(g57
g58
NtRp3452
(dp3453
g61
(dp3454
g69
I3
ssg70
g3448
sg63
(lp3455
S'jose'
p3456
asbasbasbag56
(g72
g58
NtRp3457
(dp3458
g61
(dp3459
sg70
g3409
sg63
(lp3460
g56
(g77
g58
NtRp3461
(dp3462
g61
(dp3463
g81
g82
ssg70
g3457
sg63
(lp3464
S'id'
p3465
asbag56
(g77
g58
NtRp3466
(dp3467
g61
(dp3468
g88
g89
ssg70
g3457
sg63
(lp3469
S':'
asbag56
(g77
g58
NtRp3470
(dp3471
g61
(dp3472
sg70
g3457
sg63
(lp3473
g56
(g57
g58
NtRp3474
(dp3475
g61
(dp3476
g69
I3
ssg70
g3470
sg63
(lp3477
S'1'
asbasbasbag56
(g72
g58
NtRp3478
(dp3479
g61
(dp3480
sg70
g3409
sg63
(lp3481
g56
(g77
g58
NtRp3482
(dp3483
g61
(dp3484
g81
g82
ssg70
g3478
sg63
(lp3485
S'last_name'
p3486
asbag56
(g77
g58
NtRp3487
(dp3488
g61
(dp3489
g88
g89
ssg70
g3478
sg63
(lp3490
S':'
asbag56
(g77
g58
NtRp3491
(dp3492
g61
(dp3493
sg70
g3478
sg63
(lp3494
g56
(g57
g58
NtRp3495
(dp3496
g61
(dp3497
g69
I3
ssg70
g3491
sg63
(lp3498
S'jose'
p3499
asbasbasbag56
(g72
g58
NtRp3500
(dp3501
g61
(dp3502
sg70
g3409
sg63
(lp3503
g56
(g77
g58
NtRp3504
(dp3505
g61
(dp3506
g81
g82
ssg70
g3500
sg63
(lp3507
S'password'
p3508
asbag56
(g77
g58
NtRp3509
(dp3510
g61
(dp3511
g88
g89
ssg70
g3500
sg63
(lp3512
S':'
asbag56
(g77
g58
NtRp3513
(dp3514
g61
(dp3515
sg70
g3500
sg63
(lp3516
g56
(g57
g58
NtRp3517
(dp3518
g61
(dp3519
g69
I3
ssg70
g3513
sg63
(lp3520
S'2b32eaa2baa0c63b755a4cde1e4dda83'
p3521
asbasbasbag56
(g72
g58
NtRp3522
(dp3523
g61
(dp3524
sg70
g3409
sg63
(lp3525
g56
(g77
g58
NtRp3526
(dp3527
g61
(dp3528
g81
g82
ssg70
g3522
sg63
(lp3529
S'registration_key'
p3530
asbag56
(g77
g58
NtRp3531
(dp3532
g61
(dp3533
g88
g89
ssg70
g3522
sg63
(lp3534
S':'
asbag56
(g77
g58
NtRp3535
(dp3536
g61
(dp3537
sg70
g3522
sg63
(lp3538
g56
(g57
g58
NtRp3539
(dp3540
g61
(dp3541
g69
I3
ssg70
g3535
sg63
(lp3542
S''
asbasbasbag56
(g72
g58
NtRp3543
(dp3544
g61
(dp3545
sg70
g3409
sg63
(lp3546
g56
(g77
g58
NtRp3547
(dp3548
g61
(dp3549
g81
g82
ssg70
g3543
sg63
(lp3550
S'reset_password_key'
p3551
asbag56
(g77
g58
NtRp3552
(dp3553
g61
(dp3554
g88
g89
ssg70
g3543
sg63
(lp3555
S':'
asbag56
(g77
g58
NtRp3556
(dp3557
g61
(dp3558
sg70
g3543
sg63
(lp3559
g56
(g57
g58
NtRp3560
(dp3561
g61
(dp3562
g69
I3
ssg70
g3556
sg63
(lp3563
S''
asbasbasbasbasbasbasbasbasbasbasbag56
(g72
g58
NtRp3564
(dp3565
g61
(dp3566
sg70
g3293
sg63
(lp3567
g56
(g77
g58
NtRp3568
(dp3569
g61
(dp3570
g81
g82
ssg70
g3564
sg63
(lp3571
S'last_query'
p3572
asbag56
(g77
g58
NtRp3573
(dp3574
g61
(dp3575
g88
g89
ssg70
g3564
sg63
(lp3576
S':'
asbag56
(g77
g58
NtRp3577
(dp3578
g61
(dp3579
sg70
g3564
sg63
(lp3580
g56
(g57
g58
NtRp3581
(dp3582
g61
(dp3583
g69
I5
ssg70
g3577
sg63
(lp3584
S'((db.t_project.user==me)&(db.t_server.project==db.t_project.id)&(db.t_log.server==db.t_server.id))'
p3585
asbasbasbasbasbsS'etype'
p3586
S"<type 'exceptions.TypeError'>"
p3587
sS'date'
p3588
S'Sat May 26 16:29:27 2012'
p3589
sS'response'
p3590
g56
(g57
g58
NtRp3591
(dp3592
g61
(dp3593
sg63
(lp3594
g56
(g65
g58
NtRp3595
(dp3596
g61
(dp3597
g69
I5
ssg70
Nsg63
(lp3598
g56
(g72
g58
NtRp3599
(dp3600
g61
(dp3601
sg70
g3595
sg63
(lp3602
g56
(g77
g58
NtRp3603
(dp3604
g61
(dp3605
g81
g82
ssg70
g3599
sg63
(lp3606
g167
asbag56
(g77
g58
NtRp3607
(dp3608
g61
(dp3609
g88
g89
ssg70
g3599
sg63
(lp3610
S':'
asbag56
(g77
g58
NtRp3611
(dp3612
g61
(dp3613
sg70
g3599
sg63
(lp3614
g56
(g57
g58
NtRp3615
(dp3616
g61
(dp3617
g69
I5
ssg70
g3611
sg63
(lp3618
S'<cStringIO.StringO object at 0x4385848>'
p3619
asbasbasbag56
(g72
g58
NtRp3620
(dp3621
g61
(dp3622
sg70
g3595
sg63
(lp3623
g56
(g77
g58
NtRp3624
(dp3625
g61
(dp3626
g81
g82
ssg70
g3620
sg63
(lp3627
g233
asbag56
(g77
g58
NtRp3628
(dp3629
g61
(dp3630
g88
g89
ssg70
g3620
sg63
(lp3631
S':'
asbag56
(g77
g58
NtRp3632
(dp3633
g61
(dp3634
sg70
g3620
sg63
(lp3635
g56
(g57
g58
NtRp3636
(dp3637
g61
(dp3638
g69
I5
ssg70
g3632
sg63
(lp3639
g56
(g65
g58
NtRp3640
(dp3641
g61
(dp3642
g69
I4
ssg70
Nsg63
(lp3643
g56
(g72
g58
NtRp3644
(dp3645
g61
(dp3646
sg70
g3640
sg63
(lp3647
g56
(g77
g58
NtRp3648
(dp3649
g61
(dp3650
g81
g82
ssg70
g3644
sg63
(lp3651
S'session_id_streamlog'
p3652
asbag56
(g77
g58
NtRp3653
(dp3654
g61
(dp3655
g88
g89
ssg70
g3644
sg63
(lp3656
S':'
asbag56
(g77
g58
NtRp3657
(dp3658
g61
(dp3659
sg70
g3644
sg63
(lp3660
g56
(g57
g58
NtRp3661
(dp3662
g61
(dp3663
g69
I4
ssg70
g3657
sg63
(lp3664
g56
(g65
g58
NtRp3665
(dp3666
g61
(dp3667
g69
I3
ssg70
Nsg63
(lp3668
g56
(g72
g58
NtRp3669
(dp3670
g61
(dp3671
sg70
g3665
sg63
(lp3672
g56
(g77
g58
NtRp3673
(dp3674
g61
(dp3675
g81
g82
ssg70
g3669
sg63
(lp3676
g283
asbag56
(g77
g58
NtRp3677
(dp3678
g61
(dp3679
g88
g89
ssg70
g3669
sg63
(lp3680
S':'
asbag56
(g77
g58
NtRp3681
(dp3682
g61
(dp3683
sg70
g3669
sg63
(lp3684
g56
(g57
g58
NtRp3685
(dp3686
g61
(dp3687
g69
I3
ssg70
g3681
sg63
(lp3688
S''
asbasbasbag56
(g72
g58
NtRp3689
(dp3690
g61
(dp3691
sg70
g3665
sg63
(lp3692
g56
(g77
g58
NtRp3693
(dp3694
g61
(dp3695
g81
g82
ssg70
g3689
sg63
(lp3696
g304
asbag56
(g77
g58
NtRp3697
(dp3698
g61
(dp3699
g88
g89
ssg70
g3689
sg63
(lp3700
S':'
asbag56
(g77
g58
NtRp3701
(dp3702
g61
(dp3703
sg70
g3689
sg63
(lp3704
g56
(g57
g58
NtRp3705
(dp3706
g61
(dp3707
g69
I3
ssg70
g3701
sg63
(lp3708
S''
asbasbasbag56
(g72
g58
NtRp3709
(dp3710
g61
(dp3711
sg70
g3665
sg63
(lp3712
g56
(g77
g58
NtRp3713
(dp3714
g61
(dp3715
g81
g82
ssg70
g3709
sg63
(lp3716
g325
asbag56
(g77
g58
NtRp3717
(dp3718
g61
(dp3719
g88
g89
ssg70
g3709
sg63
(lp3720
S':'
asbag56
(g77
g58
NtRp3721
(dp3722
g61
(dp3723
sg70
g3709
sg63
(lp3724
g56
(g57
g58
NtRp3725
(dp3726
g61
(dp3727
g69
I3
ssg70
g3721
sg63
(lp3728
S''
asbasbasbag56
(g72
g58
NtRp3729
(dp3730
g61
(dp3731
sg70
g3665
sg63
(lp3732
g56
(g77
g58
NtRp3733
(dp3734
g61
(dp3735
g81
g82
ssg70
g3729
sg63
(lp3736
g346
asbag56
(g77
g58
NtRp3737
(dp3738
g61
(dp3739
g88
g89
ssg70
g3729
sg63
(lp3740
S':'
asbag56
(g77
g58
NtRp3741
(dp3742
g61
(dp3743
sg70
g3729
sg63
(lp3744
g56
(g57
g58
NtRp3745
(dp3746
g61
(dp3747
g69
I3
ssg70
g3741
sg63
(lp3748
S''
asbasbasbag56
(g72
g58
NtRp3749
(dp3750
g61
(dp3751
sg70
g3665
sg63
(lp3752
g56
(g77
g58
NtRp3753
(dp3754
g61
(dp3755
g81
g82
ssg70
g3749
sg63
(lp3756
g367
asbag56
(g77
g58
NtRp3757
(dp3758
g61
(dp3759
g88
g89
ssg70
g3749
sg63
(lp3760
S':'
asbag56
(g77
g58
NtRp3761
(dp3762
g61
(dp3763
sg70
g3749
sg63
(lp3764
g56
(g57
g58
NtRp3765
(dp3766
g61
(dp3767
g69
I3
ssg70
g3761
sg63
(lp3768
S''
asbasbasbag56
(g72
g58
NtRp3769
(dp3770
g61
(dp3771
sg70
g3665
sg63
(lp3772
g56
(g77
g58
NtRp3773
(dp3774
g61
(dp3775
g81
g82
ssg70
g3769
sg63
(lp3776
g388
asbag56
(g77
g58
NtRp3777
(dp3778
g61
(dp3779
g88
g89
ssg70
g3769
sg63
(lp3780
S':'
asbag56
(g77
g58
NtRp3781
(dp3782
g61
(dp3783
sg70
g3769
sg63
(lp3784
g56
(g57
g58
NtRp3785
(dp3786
g61
(dp3787
g69
I3
ssg70
g3781
sg63
(lp3788
S'/'
asbasbasbag56
(g72
g58
NtRp3789
(dp3790
g61
(dp3791
sg70
g3665
sg63
(lp3792
g56
(g77
g58
NtRp3793
(dp3794
g61
(dp3795
g81
g82
ssg70
g3789
sg63
(lp3796
g409
asbag56
(g77
g58
NtRp3797
(dp3798
g61
(dp3799
g88
g89
ssg70
g3789
sg63
(lp3800
S':'
asbag56
(g77
g58
NtRp3801
(dp3802
g61
(dp3803
sg70
g3789
sg63
(lp3804
g56
(g57
g58
NtRp3805
(dp3806
g61
(dp3807
g69
I3
ssg70
g3801
sg63
(lp3808
S''
asbasbasbag56
(g72
g58
NtRp3809
(dp3810
g61
(dp3811
sg70
g3665
sg63
(lp3812
g56
(g77
g58
NtRp3813
(dp3814
g61
(dp3815
g81
g82
ssg70
g3809
sg63
(lp3816
g430
asbag56
(g77
g58
NtRp3817
(dp3818
g61
(dp3819
g88
g89
ssg70
g3809
sg63
(lp3820
S':'
asbag56
(g77
g58
NtRp3821
(dp3822
g61
(dp3823
sg70
g3809
sg63
(lp3824
g56
(g57
g58
NtRp3825
(dp3826
g61
(dp3827
g69
I3
ssg70
g3821
sg63
(lp3828
S''
asbasbasbasbasbasbasbasbasbasbasbag56
(g72
g58
NtRp3829
(dp3830
g61
(dp3831
sg70
g3595
sg63
(lp3832
g56
(g77
g58
NtRp3833
(dp3834
g61
(dp3835
g81
g82
ssg70
g3829
sg63
(lp3836
S'files'
p3837
asbag56
(g77
g58
NtRp3838
(dp3839
g61
(dp3840
g88
g89
ssg70
g3829
sg63
(lp3841
S':'
asbag56
(g77
g58
NtRp3842
(dp3843
g61
(dp3844
sg70
g3829
sg63
(lp3845
g56
(g57
g58
NtRp3846
(dp3847
g61
(dp3848
g69
I5
ssg70
g3842
sg63
(lp3849
g56
(g65
g58
NtRp3850
(dp3851
g61
(dp3852
g69
I4
ssg70
Nsg63
(lp3853
sbasbasbasbag56
(g72
g58
NtRp3854
(dp3855
g61
(dp3856
sg70
g3595
sg63
(lp3857
g56
(g77
g58
NtRp3858
(dp3859
g61
(dp3860
g81
g82
ssg70
g3854
sg63
(lp3861
S'flash'
p3862
asbag56
(g77
g58
NtRp3863
(dp3864
g61
(dp3865
g88
g89
ssg70
g3854
sg63
(lp3866
S':'
asbag56
(g77
g58
NtRp3867
(dp3868
g61
(dp3869
sg70
g3854
sg63
(lp3870
g56
(g57
g58
NtRp3871
(dp3872
g61
(dp3873
g69
I5
ssg70
g3867
sg63
(lp3874
cgluon.languages
lazyT_unpickle
p3875
(S's\x08\x00\x00\x00Success!'
tRp3876
asbasbasbag56
(g72
g58
NtRp3877
(dp3878
g61
(dp3879
sg70
g3595
sg63
(lp3880
g56
(g77
g58
NtRp3881
(dp3882
g61
(dp3883
g81
g82
ssg70
g3877
sg63
(lp3884
S'generic_patterns'
p3885
asbag56
(g77
g58
NtRp3886
(dp3887
g61
(dp3888
g88
g89
ssg70
g3877
sg63
(lp3889
S':'
asbag56
(g77
g58
NtRp3890
(dp3891
g61
(dp3892
sg70
g3877
sg63
(lp3893
g56
(g57
g58
NtRp3894
(dp3895
g61
(dp3896
g69
I5
ssg70
g3890
sg63
(lp3897
g56
(g65
g58
NtRp3898
(dp3899
g61
(dp3900
g69
I4
ssg70
Nsg63
(lp3901
g56
(g72
g58
NtRp3902
(dp3903
g61
(dp3904
sg70
g3898
sg63
(lp3905
g56
(g77
g58
NtRp3906
(dp3907
g61
(dp3908
sg70
g3902
sg63
(lp3909
g56
(g57
g58
NtRp3910
(dp3911
g61
(dp3912
g69
I4
ssg70
g3906
sg63
(lp3913
S'*'
asbasbasbasbasbasbasbag56
(g72
g58
NtRp3914
(dp3915
g61
(dp3916
sg70
g3595
sg63
(lp3917
g56
(g77
g58
NtRp3918
(dp3919
g61
(dp3920
g81
g82
ssg70
g3914
sg63
(lp3921
S'headers'
p3922
asbag56
(g77
g58
NtRp3923
(dp3924
g61
(dp3925
g88
g89
ssg70
g3914
sg63
(lp3926
S':'
asbag56
(g77
g58
NtRp3927
(dp3928
g61
(dp3929
sg70
g3914
sg63
(lp3930
g56
(g57
g58
NtRp3931
(dp3932
g61
(dp3933
g69
I5
ssg70
g3927
sg63
(lp3934
g56
(g65
g58
NtRp3935
(dp3936
g61
(dp3937
g69
I4
ssg70
Nsg63
(lp3938
g56
(g72
g58
NtRp3939
(dp3940
g61
(dp3941
sg70
g3935
sg63
(lp3942
g56
(g77
g58
NtRp3943
(dp3944
g61
(dp3945
g81
g82
ssg70
g3939
sg63
(lp3946
S'Cache-Control'
p3947
asbag56
(g77
g58
NtRp3948
(dp3949
g61
(dp3950
g88
g89
ssg70
g3939
sg63
(lp3951
S':'
asbag56
(g77
g58
NtRp3952
(dp3953
g61
(dp3954
sg70
g3939
sg63
(lp3955
g56
(g57
g58
NtRp3956
(dp3957
g61
(dp3958
g69
I4
ssg70
g3952
sg63
(lp3959
S'no-store, no-cache, must-revalidate, post-check=0, pre-check=0'
p3960
asbasbasbag56
(g72
g58
NtRp3961
(dp3962
g61
(dp3963
sg70
g3935
sg63
(lp3964
g56
(g77
g58
NtRp3965
(dp3966
g61
(dp3967
g81
g82
ssg70
g3961
sg63
(lp3968
S'Content-Type'
p3969
asbag56
(g77
g58
NtRp3970
(dp3971
g61
(dp3972
g88
g89
ssg70
g3961
sg63
(lp3973
S':'
asbag56
(g77
g58
NtRp3974
(dp3975
g61
(dp3976
sg70
g3961
sg63
(lp3977
g56
(g57
g58
NtRp3978
(dp3979
g61
(dp3980
g69
I4
ssg70
g3974
sg63
(lp3981
S'text/html; charset=utf-8'
p3982
asbasbasbag56
(g72
g58
NtRp3983
(dp3984
g61
(dp3985
sg70
g3935
sg63
(lp3986
g56
(g77
g58
NtRp3987
(dp3988
g61
(dp3989
g81
g82
ssg70
g3983
sg63
(lp3990
S'Expires'
p3991
asbag56
(g77
g58
NtRp3992
(dp3993
g61
(dp3994
g88
g89
ssg70
g3983
sg63
(lp3995
S':'
asbag56
(g77
g58
NtRp3996
(dp3997
g61
(dp3998
sg70
g3983
sg63
(lp3999
g56
(g57
g58
NtRp4000
(dp4001
g61
(dp4002
g69
I4
ssg70
g3996
sg63
(lp4003
S'Sat, 26 May 2012 09:29:27 GMT'
p4004
asbasbasbag56
(g72
g58
NtRp4005
(dp4006
g61
(dp4007
sg70
g3935
sg63
(lp4008
g56
(g77
g58
NtRp4009
(dp4010
g61
(dp4011
g81
g82
ssg70
g4005
sg63
(lp4012
S'Pragma'
p4013
asbag56
(g77
g58
NtRp4014
(dp4015
g61
(dp4016
g88
g89
ssg70
g4005
sg63
(lp4017
S':'
asbag56
(g77
g58
NtRp4018
(dp4019
g61
(dp4020
sg70
g4005
sg63
(lp4021
g56
(g57
g58
NtRp4022
(dp4023
g61
(dp4024
g69
I4
ssg70
g4018
sg63
(lp4025
S'no-cache'
p4026
asbasbasbag56
(g72
g58
NtRp4027
(dp4028
g61
(dp4029
sg70
g3935
sg63
(lp4030
g56
(g77
g58
NtRp4031
(dp4032
g61
(dp4033
g81
g82
ssg70
g4027
sg63
(lp4034
S'X-Powered-By'
p4035
asbag56
(g77
g58
NtRp4036
(dp4037
g61
(dp4038
g88
g89
ssg70
g4027
sg63
(lp4039
S':'
asbag56
(g77
g58
NtRp4040
(dp4041
g61
(dp4042
sg70
g4027
sg63
(lp4043
g56
(g57
g58
NtRp4044
(dp4045
g61
(dp4046
g69
I4
ssg70
g4040
sg63
(lp4047
S'web2py'
p4048
asbasbasbasbasbasbasbag56
(g72
g58
NtRp4049
(dp4050
g61
(dp4051
sg70
g3595
sg63
(lp4052
g56
(g77
g58
NtRp4053
(dp4054
g61
(dp4055
g81
g82
ssg70
g4049
sg63
(lp4056
S'menu'
p4057
asbag56
(g77
g58
NtRp4058
(dp4059
g61
(dp4060
g88
g89
ssg70
g4049
sg63
(lp4061
S':'
asbag56
(g77
g58
NtRp4062
(dp4063
g61
(dp4064
sg70
g4049
sg63
(lp4065
g56
(g57
g58
NtRp4066
(dp4067
g61
(dp4068
g69
I5
ssg70
g4062
sg63
(lp4069
g56
(g65
g58
NtRp4070
(dp4071
g61
(dp4072
g69
I4
ssg70
Nsg63
(lp4073
g56
(g72
g58
NtRp4074
(dp4075
g61
(dp4076
sg70
g4070
sg63
(lp4077
g56
(g77
g58
NtRp4078
(dp4079
g61
(dp4080
sg70
g4074
sg63
(lp4081
g56
(g57
g58
NtRp4082
(dp4083
g61
(dp4084
g69
I4
ssg70
g4078
sg63
(lp4085
g56
(g65
g58
NtRp4086
(dp4087
g61
(dp4088
g69
I3
ssg70
Nsg63
(lp4089
g56
(g72
g58
NtRp4090
(dp4091
g61
(dp4092
sg70
g4086
sg63
(lp4093
g56
(g77
g58
NtRp4094
(dp4095
g61
(dp4096
sg70
g4090
sg63
(lp4097
g56
(g57
g58
NtRp4098
(dp4099
g61
(dp4100
g69
I3
ssg70
g4094
sg63
(lp4101
g3875
(S's\n\x00\x00\x00Clear Page'
tRp4102
asbasbasbag56
(g72
g58
NtRp4103
(dp4104
g61
(dp4105
sg70
g4086
sg63
(lp4106
g56
(g77
g58
NtRp4107
(dp4108
g61
(dp4109
sg70
g4103
sg63
(lp4110
g56
(g57
g58
NtRp4111
(dp4112
g61
(dp4113
g69
I3
ssg70
g4107
sg63
(lp4114
g99
asbasbasbag56
(g72
g58
NtRp4115
(dp4116
g61
(dp4117
sg70
g4086
sg63
(lp4118
g56
(g77
g58
NtRp4119
(dp4120
g61
(dp4121
sg70
g4115
sg63
(lp4122
g56
(g57
g58
NtRp4123
(dp4124
g61
(dp4125
g69
I3
ssg70
g4119
sg63
(lp4126
S'/streamlog/default/index'
p4127
asbasbasbag56
(g72
g58
NtRp4128
(dp4129
g61
(dp4130
sg70
g4086
sg63
(lp4131
g56
(g77
g58
NtRp4132
(dp4133
g61
(dp4134
sg70
g4128
sg63
(lp4135
g56
(g57
g58
NtRp4136
(dp4137
g61
(dp4138
g69
I3
ssg70
g4132
sg63
(lp4139
g56
(g65
g58
NtRp4140
(dp4141
g61
(dp4142
g69
I2
ssg70
Nsg63
(lp4143
sbasbasbasbasbasbasbasbag56
(g72
g58
NtRp4144
(dp4145
g61
(dp4146
sg70
g4070
sg63
(lp4147
g56
(g77
g58
NtRp4148
(dp4149
g61
(dp4150
sg70
g4144
sg63
(lp4151
g56
(g57
g58
NtRp4152
(dp4153
g61
(dp4154
g69
I4
ssg70
g4148
sg63
(lp4155
g56
(g65
g58
NtRp4156
(dp4157
g61
(dp4158
g69
I3
ssg70
Nsg63
(lp4159
g56
(g72
g58
NtRp4160
(dp4161
g61
(dp4162
sg70
g4156
sg63
(lp4163
g56
(g77
g58
NtRp4164
(dp4165
g61
(dp4166
sg70
g4160
sg63
(lp4167
g56
(g57
g58
NtRp4168
(dp4169
g61
(dp4170
g69
I3
ssg70
g4164
sg63
(lp4171
g3875
(S't\x06\x00\x00\x00Manage'
tRp4172
asbasbasbag56
(g72
g58
NtRp4173
(dp4174
g61
(dp4175
sg70
g4156
sg63
(lp4176
g56
(g77
g58
NtRp4177
(dp4178
g61
(dp4179
sg70
g4173
sg63
(lp4180
g56
(g57
g58
NtRp4181
(dp4182
g61
(dp4183
g69
I3
ssg70
g4177
sg63
(lp4184
g99
asbasbasbag56
(g72
g58
NtRp4185
(dp4186
g61
(dp4187
sg70
g4156
sg63
(lp4188
g56
(g77
g58
NtRp4189
(dp4190
g61
(dp4191
sg70
g4185
sg63
(lp4192
g56
(g57
g58
NtRp4193
(dp4194
g61
(dp4195
g69
I3
ssg70
g4189
sg63
(lp4196
S'None'
p4197
asbasbasbag56
(g72
g58
NtRp4198
(dp4199
g61
(dp4200
sg70
g4156
sg63
(lp4201
g56
(g77
g58
NtRp4202
(dp4203
g61
(dp4204
sg70
g4198
sg63
(lp4205
g56
(g57
g58
NtRp4206
(dp4207
g61
(dp4208
g69
I3
ssg70
g4202
sg63
(lp4209
g56
(g65
g58
NtRp4210
(dp4211
g61
(dp4212
g69
I2
ssg70
Nsg63
(lp4213
g56
(g72
g58
NtRp4214
(dp4215
g61
(dp4216
sg70
g4210
sg63
(lp4217
g56
(g77
g58
NtRp4218
(dp4219
g61
(dp4220
sg70
g4214
sg63
(lp4221
g56
(g57
g58
NtRp4222
(dp4223
g61
(dp4224
g69
I2
ssg70
g4218
sg63
(lp4225
g56
(g65
g58
NtRp4226
(dp4227
g61
(dp4228
g69
I1
ssg70
Nsg63
(lp4229
g56
(g72
g58
NtRp4230
(dp4231
g61
(dp4232
sg70
g4226
sg63
(lp4233
g56
(g77
g58
NtRp4234
(dp4235
g61
(dp4236
sg70
g4230
sg63
(lp4237
g56
(g57
g58
NtRp4238
(dp4239
g61
(dp4240
g69
I1
ssg70
g4234
sg63
(lp4241
g3875
(S't\x04\x00\x00\x00Logs'
tRp4242
asbasbasbag56
(g72
g58
NtRp4243
(dp4244
g61
(dp4245
sg70
g4226
sg63
(lp4246
g56
(g77
g58
NtRp4247
(dp4248
g61
(dp4249
sg70
g4243
sg63
(lp4250
g56
(g57
g58
NtRp4251
(dp4252
g61
(dp4253
g69
I1
ssg70
g4247
sg63
(lp4254
I00
asbasbasbag56
(g72
g58
NtRp4255
(dp4256
g61
(dp4257
sg70
g4226
sg63
(lp4258
g56
(g77
g58
NtRp4259
(dp4260
g61
(dp4261
sg70
g4255
sg63
(lp4262
g56
(g57
g58
NtRp4263
(dp4264
g61
(dp4265
g69
I1
ssg70
g4259
sg63
(lp4266
S'/streamlog/default/log_manage'
p4267
asbasbasbag56
(g72
g58
NtRp4268
(dp4269
g61
(dp4270
sg70
g4226
sg63
(lp4271
g56
(g77
g58
NtRp4272
(dp4273
g61
(dp4274
sg70
g4268
sg63
(lp4275
g56
(g57
g58
NtRp4276
(dp4277
g61
(dp4278
g69
I1
ssg70
g4272
sg63
(lp4279
(lp4280
asbasbasbasbasbasbasbag56
(g72
g58
NtRp4281
(dp4282
g61
(dp4283
sg70
g4210
sg63
(lp4284
g56
(g77
g58
NtRp4285
(dp4286
g61
(dp4287
sg70
g4281
sg63
(lp4288
g56
(g57
g58
NtRp4289
(dp4290
g61
(dp4291
g69
I2
ssg70
g4285
sg63
(lp4292
g56
(g65
g58
NtRp4293
(dp4294
g61
(dp4295
g69
I1
ssg70
Nsg63
(lp4296
g56
(g72
g58
NtRp4297
(dp4298
g61
(dp4299
sg70
g4293
sg63
(lp4300
g56
(g77
g58
NtRp4301
(dp4302
g61
(dp4303
sg70
g4297
sg63
(lp4304
g56
(g57
g58
NtRp4305
(dp4306
g61
(dp4307
g69
I1
ssg70
g4301
sg63
(lp4308
g3875
(S't\x07\x00\x00\x00Servers'
tRp4309
asbasbasbag56
(g72
g58
NtRp4310
(dp4311
g61
(dp4312
sg70
g4293
sg63
(lp4313
g56
(g77
g58
NtRp4314
(dp4315
g61
(dp4316
sg70
g4310
sg63
(lp4317
g56
(g57
g58
NtRp4318
(dp4319
g61
(dp4320
g69
I1
ssg70
g4314
sg63
(lp4321
I00
asbasbasbag56
(g72
g58
NtRp4322
(dp4323
g61
(dp4324
sg70
g4293
sg63
(lp4325
g56
(g77
g58
NtRp4326
(dp4327
g61
(dp4328
sg70
g4322
sg63
(lp4329
g56
(g57
g58
NtRp4330
(dp4331
g61
(dp4332
g69
I1
ssg70
g4326
sg63
(lp4333
S'/streamlog/default/server_manage'
p4334
asbasbasbag56
(g72
g58
NtRp4335
(dp4336
g61
(dp4337
sg70
g4293
sg63
(lp4338
g56
(g77
g58
NtRp4339
(dp4340
g61
(dp4341
sg70
g4335
sg63
(lp4342
g56
(g57
g58
NtRp4343
(dp4344
g61
(dp4345
g69
I1
ssg70
g4339
sg63
(lp4346
(lp4347
asbasbasbasbasbasbasbag56
(g72
g58
NtRp4348
(dp4349
g61
(dp4350
sg70
g4210
sg63
(lp4351
g56
(g77
g58
NtRp4352
(dp4353
g61
(dp4354
sg70
g4348
sg63
(lp4355
g56
(g57
g58
NtRp4356
(dp4357
g61
(dp4358
g69
I2
ssg70
g4352
sg63
(lp4359
g56
(g65
g58
NtRp4360
(dp4361
g61
(dp4362
g69
I1
ssg70
Nsg63
(lp4363
g56
(g72
g58
NtRp4364
(dp4365
g61
(dp4366
sg70
g4360
sg63
(lp4367
g56
(g77
g58
NtRp4368
(dp4369
g61
(dp4370
sg70
g4364
sg63
(lp4371
g56
(g57
g58
NtRp4372
(dp4373
g61
(dp4374
g69
I1
ssg70
g4368
sg63
(lp4375
g3875
(S't\x08\x00\x00\x00Projects'
tRp4376
asbasbasbag56
(g72
g58
NtRp4377
(dp4378
g61
(dp4379
sg70
g4360
sg63
(lp4380
g56
(g77
g58
NtRp4381
(dp4382
g61
(dp4383
sg70
g4377
sg63
(lp4384
g56
(g57
g58
NtRp4385
(dp4386
g61
(dp4387
g69
I1
ssg70
g4381
sg63
(lp4388
I00
asbasbasbag56
(g72
g58
NtRp4389
(dp4390
g61
(dp4391
sg70
g4360
sg63
(lp4392
g56
(g77
g58
NtRp4393
(dp4394
g61
(dp4395
sg70
g4389
sg63
(lp4396
g56
(g57
g58
NtRp4397
(dp4398
g61
(dp4399
g69
I1
ssg70
g4393
sg63
(lp4400
S'/streamlog/default/project_manage'
p4401
asbasbasbag56
(g72
g58
NtRp4402
(dp4403
g61
(dp4404
sg70
g4360
sg63
(lp4405
g56
(g77
g58
NtRp4406
(dp4407
g61
(dp4408
sg70
g4402
sg63
(lp4409
g56
(g57
g58
NtRp4410
(dp4411
g61
(dp4412
g69
I1
ssg70
g4406
sg63
(lp4413
(lp4414
asbasbasbasbasbasbasbag56
(g72
g58
NtRp4415
(dp4416
g61
(dp4417
sg70
g4210
sg63
(lp4418
g56
(g77
g58
NtRp4419
(dp4420
g61
(dp4421
sg70
g4415
sg63
(lp4422
g56
(g57
g58
NtRp4423
(dp4424
g61
(dp4425
g69
I2
ssg70
g4419
sg63
(lp4426
g56
(g65
g58
NtRp4427
(dp4428
g61
(dp4429
g69
I1
ssg70
Nsg63
(lp4430
g56
(g72
g58
NtRp4431
(dp4432
g61
(dp4433
sg70
g4427
sg63
(lp4434
g56
(g77
g58
NtRp4435
(dp4436
g61
(dp4437
sg70
g4431
sg63
(lp4438
g56
(g57
g58
NtRp4439
(dp4440
g61
(dp4441
g69
I1
ssg70
g4435
sg63
(lp4442
g3875
(S's\t\x00\x00\x00Type Logs'
tRp4443
asbasbasbag56
(g72
g58
NtRp4444
(dp4445
g61
(dp4446
sg70
g4427
sg63
(lp4447
g56
(g77
g58
NtRp4448
(dp4449
g61
(dp4450
sg70
g4444
sg63
(lp4451
g56
(g57
g58
NtRp4452
(dp4453
g61
(dp4454
g69
I1
ssg70
g4448
sg63
(lp4455
I00
asbasbasbag56
(g72
g58
NtRp4456
(dp4457
g61
(dp4458
sg70
g4427
sg63
(lp4459
g56
(g77
g58
NtRp4460
(dp4461
g61
(dp4462
sg70
g4456
sg63
(lp4463
g56
(g57
g58
NtRp4464
(dp4465
g61
(dp4466
g69
I1
ssg70
g4460
sg63
(lp4467
S'/streamlog/default/type_log_manage'
p4468
asbasbasbag56
(g72
g58
NtRp4469
(dp4470
g61
(dp4471
sg70
g4427
sg63
(lp4472
g56
(g77
g58
NtRp4473
(dp4474
g61
(dp4475
sg70
g4469
sg63
(lp4476
g56
(g57
g58
NtRp4477
(dp4478
g61
(dp4479
g69
I1
ssg70
g4473
sg63
(lp4480
(lp4481
asbasbasbasbasbasbasbasbasbasbasbasbasbasbasbasbasbasbasbag56
(g72
g58
NtRp4482
(dp4483
g61
(dp4484
sg70
g3595
sg63
(lp4485
g56
(g77
g58
NtRp4486
(dp4487
g61
(dp4488
g81
g82
ssg70
g4482
sg63
(lp4489
S'meta'
p4490
asbag56
(g77
g58
NtRp4491
(dp4492
g61
(dp4493
g88
g89
ssg70
g4482
sg63
(lp4494
S':'
asbag56
(g77
g58
NtRp4495
(dp4496
g61
(dp4497
sg70
g4482
sg63
(lp4498
g56
(g57
g58
NtRp4499
(dp4500
g61
(dp4501
g69
I5
ssg70
g4495
sg63
(lp4502
g56
(g65
g58
NtRp4503
(dp4504
g61
(dp4505
g69
I4
ssg70
Nsg63
(lp4506
g56
(g72
g58
NtRp4507
(dp4508
g61
(dp4509
sg70
g4503
sg63
(lp4510
g56
(g77
g58
NtRp4511
(dp4512
g61
(dp4513
g81
g82
ssg70
g4507
sg63
(lp4514
S'author'
p4515
asbag56
(g77
g58
NtRp4516
(dp4517
g61
(dp4518
g88
g89
ssg70
g4507
sg63
(lp4519
S':'
asbag56
(g77
g58
NtRp4520
(dp4521
g61
(dp4522
sg70
g4507
sg63
(lp4523
g56
(g57
g58
NtRp4524
(dp4525
g61
(dp4526
g69
I4
ssg70
g4520
sg63
(lp4527
S'Jose de Soto <josedesoto@gmail.com>'
p4528
asbasbasbag56
(g72
g58
NtRp4529
(dp4530
g61
(dp4531
sg70
g4503
sg63
(lp4532
g56
(g77
g58
NtRp4533
(dp4534
g61
(dp4535
g81
g82
ssg70
g4529
sg63
(lp4536
S'copyright'
p4537
asbag56
(g77
g58
NtRp4538
(dp4539
g61
(dp4540
g88
g89
ssg70
g4529
sg63
(lp4541
S':'
asbag56
(g77
g58
NtRp4542
(dp4543
g61
(dp4544
sg70
g4529
sg63
(lp4545
g56
(g57
g58
NtRp4546
(dp4547
g61
(dp4548
g69
I4
ssg70
g4542
sg63
(lp4549
S'Copyright 2011'
p4550
asbasbasbag56
(g72
g58
NtRp4551
(dp4552
g61
(dp4553
sg70
g4503
sg63
(lp4554
g56
(g77
g58
NtRp4555
(dp4556
g61
(dp4557
g81
g82
ssg70
g4551
sg63
(lp4558
S'description'
p4559
asbag56
(g77
g58
NtRp4560
(dp4561
g61
(dp4562
g88
g89
ssg70
g4551
sg63
(lp4563
S':'
asbag56
(g77
g58
NtRp4564
(dp4565
g61
(dp4566
sg70
g4551
sg63
(lp4567
g56
(g57
g58
NtRp4568
(dp4569
g61
(dp4570
g69
I4
ssg70
g4564
sg63
(lp4571
S'a cool new app'
p4572
asbasbasbag56
(g72
g58
NtRp4573
(dp4574
g61
(dp4575
sg70
g4503
sg63
(lp4576
g56
(g77
g58
NtRp4577
(dp4578
g61
(dp4579
g81
g82
ssg70
g4573
sg63
(lp4580
S'generator'
p4581
asbag56
(g77
g58
NtRp4582
(dp4583
g61
(dp4584
g88
g89
ssg70
g4573
sg63
(lp4585
S':'
asbag56
(g77
g58
NtRp4586
(dp4587
g61
(dp4588
sg70
g4573
sg63
(lp4589
g56
(g57
g58
NtRp4590
(dp4591
g61
(dp4592
g69
I4
ssg70
g4586
sg63
(lp4593
S'Web2py Web Framework'
p4594
asbasbasbag56
(g72
g58
NtRp4595
(dp4596
g61
(dp4597
sg70
g4503
sg63
(lp4598
g56
(g77
g58
NtRp4599
(dp4600
g61
(dp4601
g81
g82
ssg70
g4595
sg63
(lp4602
S'keywords'
p4603
asbag56
(g77
g58
NtRp4604
(dp4605
g61
(dp4606
g88
g89
ssg70
g4595
sg63
(lp4607
S':'
asbag56
(g77
g58
NtRp4608
(dp4609
g61
(dp4610
sg70
g4595
sg63
(lp4611
g56
(g57
g58
NtRp4612
(dp4613
g61
(dp4614
g69
I4
ssg70
g4608
sg63
(lp4615
S'web2py, python, framework'
p4616
asbasbasbasbasbasbasbag56
(g72
g58
NtRp4617
(dp4618
g61
(dp4619
sg70
g3595
sg63
(lp4620
g56
(g77
g58
NtRp4621
(dp4622
g61
(dp4623
g81
g82
ssg70
g4617
sg63
(lp4624
S'postprocessing'
p4625
asbag56
(g77
g58
NtRp4626
(dp4627
g61
(dp4628
g88
g89
ssg70
g4617
sg63
(lp4629
S':'
asbag56
(g77
g58
NtRp4630
(dp4631
g61
(dp4632
sg70
g4617
sg63
(lp4633
g56
(g57
g58
NtRp4634
(dp4635
g61
(dp4636
g69
I5
ssg70
g4630
sg63
(lp4637
g56
(g65
g58
NtRp4638
(dp4639
g61
(dp4640
g69
I4
ssg70
Nsg63
(lp4641
sbasbasbasbag56
(g72
g58
NtRp4642
(dp4643
g61
(dp4644
sg70
g3595
sg63
(lp4645
g56
(g77
g58
NtRp4646
(dp4647
g61
(dp4648
g81
g82
ssg70
g4642
sg63
(lp4649
S'session_file'
p4650
asbag56
(g77
g58
NtRp4651
(dp4652
g61
(dp4653
g88
g89
ssg70
g4642
sg63
(lp4654
S':'
asbag56
(g77
g58
NtRp4655
(dp4656
g61
(dp4657
sg70
g4642
sg63
(lp4658
g56
(g57
g58
NtRp4659
(dp4660
g61
(dp4661
g69
I5
ssg70
g4655
sg63
(lp4662
S"<open file '/home/jose/DESARROLLO/web2py199/applications/streamlog/sessions/127.0.0.1-610b0c7d-3f6f-4500-a76a-b095fb30f7fd', mode 'rb+' at 0x2ab6300>"
p4663
asbasbasbag56
(g72
g58
NtRp4664
(dp4665
g61
(dp4666
sg70
g3595
sg63
(lp4667
g56
(g77
g58
NtRp4668
(dp4669
g61
(dp4670
g81
g82
ssg70
g4664
sg63
(lp4671
S'session_filename'
p4672
asbag56
(g77
g58
NtRp4673
(dp4674
g61
(dp4675
g88
g89
ssg70
g4664
sg63
(lp4676
S':'
asbag56
(g77
g58
NtRp4677
(dp4678
g61
(dp4679
sg70
g4664
sg63
(lp4680
g56
(g57
g58
NtRp4681
(dp4682
g61
(dp4683
g69
I5
ssg70
g4677
sg63
(lp4684
S'/home/jose/DESARROLLO/web2py199/applications/streamlog/sessions/127.0.0.1-610b0c7d-3f6f-4500-a76a-b095fb30f7fd'
p4685
asbasbasbag56
(g72
g58
NtRp4686
(dp4687
g61
(dp4688
sg70
g3595
sg63
(lp4689
g56
(g77
g58
NtRp4690
(dp4691
g61
(dp4692
g81
g82
ssg70
g4686
sg63
(lp4693
S'session_id'
p4694
asbag56
(g77
g58
NtRp4695
(dp4696
g61
(dp4697
g88
g89
ssg70
g4686
sg63
(lp4698
S':'
asbag56
(g77
g58
NtRp4699
(dp4700
g61
(dp4701
sg70
g4686
sg63
(lp4702
g56
(g57
g58
NtRp4703
(dp4704
g61
(dp4705
g69
I5
ssg70
g4699
sg63
(lp4706
S'127.0.0.1-610b0c7d-3f6f-4500-a76a-b095fb30f7fd'
p4707
asbasbasbag56
(g72
g58
NtRp4708
(dp4709
g61
(dp4710
sg70
g3595
sg63
(lp4711
g56
(g77
g58
NtRp4712
(dp4713
g61
(dp4714
g81
g82
ssg70
g4708
sg63
(lp4715
S'session_id_name'
p4716
asbag56
(g77
g58
NtRp4717
(dp4718
g61
(dp4719
g88
g89
ssg70
g4708
sg63
(lp4720
S':'
asbag56
(g77
g58
NtRp4721
(dp4722
g61
(dp4723
sg70
g4708
sg63
(lp4724
g56
(g57
g58
NtRp4725
(dp4726
g61
(dp4727
g69
I5
ssg70
g4721
sg63
(lp4728
g3652
asbasbasbag56
(g72
g58
NtRp4729
(dp4730
g61
(dp4731
sg70
g3595
sg63
(lp4732
g56
(g77
g58
NtRp4733
(dp4734
g61
(dp4735
g81
g82
ssg70
g4729
sg63
(lp4736
S'session_locked'
p4737
asbag56
(g77
g58
NtRp4738
(dp4739
g61
(dp4740
g88
g89
ssg70
g4729
sg63
(lp4741
S':'
asbag56
(g77
g58
NtRp4742
(dp4743
g61
(dp4744
sg70
g4729
sg63
(lp4745
g56
(g57
g58
NtRp4746
(dp4747
g61
(dp4748
g69
I5
ssg70
g4742
sg63
(lp4749
g1733
asbasbasbag56
(g72
g58
NtRp4750
(dp4751
g61
(dp4752
sg70
g3595
sg63
(lp4753
g56
(g77
g58
NtRp4754
(dp4755
g61
(dp4756
g81
g82
ssg70
g4750
sg63
(lp4757
S'session_new'
p4758
asbag56
(g77
g58
NtRp4759
(dp4760
g61
(dp4761
g88
g89
ssg70
g4750
sg63
(lp4762
S':'
asbag56
(g77
g58
NtRp4763
(dp4764
g61
(dp4765
sg70
g4750
sg63
(lp4766
g56
(g57
g58
NtRp4767
(dp4768
g61
(dp4769
g69
I5
ssg70
g4763
sg63
(lp4770
g99
asbasbasbag56
(g72
g58
NtRp4771
(dp4772
g61
(dp4773
sg70
g3595
sg63
(lp4774
g56
(g77
g58
NtRp4775
(dp4776
g61
(dp4777
g81
g82
ssg70
g4771
sg63
(lp4778
S'status'
p4779
asbag56
(g77
g58
NtRp4780
(dp4781
g61
(dp4782
g88
g89
ssg70
g4771
sg63
(lp4783
S':'
asbag56
(g77
g58
NtRp4784
(dp4785
g61
(dp4786
sg70
g4771
sg63
(lp4787
g56
(g57
g58
NtRp4788
(dp4789
g61
(dp4790
g69
I5
ssg70
g4784
sg63
(lp4791
S'200'
p4792
asbasbasbag56
(g72
g58
NtRp4793
(dp4794
g61
(dp4795
sg70
g3595
sg63
(lp4796
g56
(g77
g58
NtRp4797
(dp4798
g61
(dp4799
g81
g82
ssg70
g4793
sg63
(lp4800
S'subtitle'
p4801
asbag56
(g77
g58
NtRp4802
(dp4803
g61
(dp4804
g88
g89
ssg70
g4793
sg63
(lp4805
S':'
asbag56
(g77
g58
NtRp4806
(dp4807
g61
(dp4808
sg70
g4793
sg63
(lp4809
g56
(g57
g58
NtRp4810
(dp4811
g61
(dp4812
g69
I5
ssg70
g4806
sg63
(lp4813
g3875
(S's\x12\x00\x00\x00Stream Log Client!'
tRp4814
asbasbasbag56
(g72
g58
NtRp4815
(dp4816
g61
(dp4817
sg70
g3595
sg63
(lp4818
g56
(g77
g58
NtRp4819
(dp4820
g61
(dp4821
g81
g82
ssg70
g4815
sg63
(lp4822
S'title'
p4823
asbag56
(g77
g58
NtRp4824
(dp4825
g61
(dp4826
g88
g89
ssg70
g4815
sg63
(lp4827
S':'
asbag56
(g77
g58
NtRp4828
(dp4829
g61
(dp4830
sg70
g4815
sg63
(lp4831
g56
(g57
g58
NtRp4832
(dp4833
g61
(dp4834
g69
I5
ssg70
g4828
sg63
(lp4835
g121
asbasbasbag56
(g72
g58
NtRp4836
(dp4837
g61
(dp4838
sg70
g3595
sg63
(lp4839
g56
(g77
g58
NtRp4840
(dp4841
g61
(dp4842
g81
g82
ssg70
g4836
sg63
(lp4843
g2398
asbag56
(g77
g58
NtRp4844
(dp4845
g61
(dp4846
g88
g89
ssg70
g4836
sg63
(lp4847
S':'
asbag56
(g77
g58
NtRp4848
(dp4849
g61
(dp4850
sg70
g4836
sg63
(lp4851
g56
(g57
g58
NtRp4852
(dp4853
g61
(dp4854
g69
I5
ssg70
g4848
sg63
(lp4855
g2411
asbasbasbag56
(g72
g58
NtRp4856
(dp4857
g61
(dp4858
sg70
g3595
sg63
(lp4859
g56
(g77
g58
NtRp4860
(dp4861
g61
(dp4862
g81
g82
ssg70
g4856
sg63
(lp4863
S'view'
p4864
asbag56
(g77
g58
NtRp4865
(dp4866
g61
(dp4867
g88
g89
ssg70
g4856
sg63
(lp4868
S':'
asbag56
(g77
g58
NtRp4869
(dp4870
g61
(dp4871
sg70
g4856
sg63
(lp4872
g56
(g57
g58
NtRp4873
(dp4874
g61
(dp4875
g69
I5
ssg70
g4869
sg63
(lp4876
S'default/index.html'
p4877
asbasbasbasbasbsS'locals'
p4878
(dp4879
S'classtr'
p4880
S"'even'"
p4881
sS'left'
p4882
S'None'
p4883
sS'key'
p4884
S"'t_log.description'"
p4885
sS'links'
p4886
S'[]'
p4887
sS'tr'
p4888
S'<gluon.html.TR object>'
p4889
sS'paginate'
p4890
S'20'
p4891
sS'head'
p4892
S'<gluon.html.TR object>'
p4893
sS'limitby'
p4894
S'None'
p4895
sS'db'
p4896
S"<DAL {'auth_event': <Table {'origin': <gluon.dal..., 'id': <gluon.dal.Field object at 0x24e3450>}>}>"
p4897
sS'header'
p4898
S'<gluon.html.A object>'
p4899
sS'wenabled'
p4900
S"<Storage {'reset_password_key': '', 'first_name'...': '', 'id': 1, 'email': 'josedesoto@gmail.com'}>"
p4901
sg3288
S"<Storage {'last_query': '((db.t_project.user==me...login]': '6d6d0da1-8b2e-4081-8a6c-829b8a5813e5'}>"
p4902
sS'table'
p4903
S"<Table {'ALL': <gluon.dal.SQLALL object at 0x24f...ription': <gluon.dal.Field object at 0x24f9a90>}>"
p4904
sS'marker'
p4905
S"''"
p4906
sS'query'
p4907
S'<gluon.dal.Query object>'
p4908
sS'message'
p4909
S"<lazyT '1 records found'>"
p4910
sS'id'
p4911
S'1'
sS'row'
p4912
S"<Row {'name_to_connect': 'xhtml', 'name': 'xhtml...ambda> at 0x24cc140>, 'description': 'sdgfsdfg'}>"
p4913
sS'paginator'
p4914
S'<gluon.html.UL object>'
p4915
sS'formfooter'
p4916
S'<gluon.html.DIV object>'
p4917
sS'create_form'
p4918
S'None'
p4919
sS'rows'
p4920
S'<gluon.dal.Rows object>'
p4921
sS'console'
p4922
S'<gluon.html.DIV object>'
p4923
sS'search_actions'
p4924
S'<gluon.html.DIV object>'
p4925
sS'create'
p4926
g99
sS'tablename'
p4927
S"'t_log'"
p4928
sS'tbody'
p4929
S'<gluon.html.TBODY object>'
p4930
sS'row_buttons'
p4931
S'<gluon.html.TD object>'
p4932
sS'buttons'
p4933
S'<function buttons>'
p4934
sS'field'
p4935
S'<gluon.dal.Field object>'
p4936
sS'parts'
p4937
S'None'
p4938
sS'user_signature'
p4939
g1733
sS'details'
p4940
g1733
sS'onvalidation'
p4941
S'None'
p4942
sS'rrow'
p4943
S"<Row {'name_to_connect': 'xhtml', 'name': 'xhtml...ambda> at 0x24cc140>, 'description': 'sdgfsdfg'}>"
p4944
sS'dbset'
p4945
S'<gluon.dal.Set object>'
p4946
sS'edit_form'
p4947
S'None'
p4948
sS'columns'
p4949
S'None'
p4950
sS'redirect'
p4951
S'<function redirect>'
p4952
sS'ondelete'
p4953
S'None'
p4954
sS'oncreate'
p4955
S'None'
p4956
sS'form'
p4957
S'<gluon.html.FORM object>'
p4958
sS'tables'
p4959
S"[<Table {'ALL': <gluon.dal.SQLALL object at 0x24f...ription': <gluon.dal.Field object at 0x24f9a90>}>]"
p4960
sS'editable'
p4961
g99
sg23
S"['t_log']"
p4962
sS'field_id'
p4963
S'<gluon.dal.Field object>'
p4964
sS'maxtextlength'
p4965
S'20'
p4966
sS'numrec'
p4967
S'1'
sS'nrows'
p4968
S'1'
sS'records'
p4969
S'[1]'
p4970
sS'T'
S'<gluon.languages.translator object>'
p4971
sS'gridbutton'
p4972
S'<function gridbutton>'
p4973
sS'check_authorization'
p4974
S'<function check_authorization>'
p4975
sS'selectable'
p4976
g1733
sS'htmltable'
p4977
S'<gluon.html.FORM object>'
p4978
sg3590
S"<Storage {'body': <cStringIO.StringO object at 0...da> at 0x3401b18>, 'view': 'default/index.html'}>"
p4979
sS'formname'
p4980
S"'web2py_grid'"
p4981
sS'orderby'
p4982
S'None'
p4983
sS'OR'
p4984
S'<function OR>'
p4985
sS'_class'
p4986
S"'web2py_grid'"
p4987
sS'sortable'
p4988
g1733
sS'AND'
p4989
S'<function AND>'
p4990
sS'onupdate'
p4991
S'None'
p4992
sg2354
S'<function url>'
p4993
sS'fields'
p4994
S'[<gluon.dal.Field object>, <gluon.dal.Field object>, <gluon.dal.Field object>, <gluon.dal.Field object>, <gluon.dal.Field object>, <gluon.dal.Field object>, <gluon.dal.Field object>, <gluon.dal.Field object>, <gluon.dal.Field object>]'
p4995
sS'search_form'
p4996
S'<gluon.html.FORM object>'
p4997
sS'current'
p4998
S'<thread._local object>'
p4999
sg55
S"<Storage {'body': <open file '<fdopen>', mode 'w...b4b-dde7a911844e', '_formname': 'web2py_grid'}>}>"
p5000
sS'upload'
p5001
S'<function <lambda>>'
p5002
sS'value'
p5003
S"'sdgfsdfg'"
p5004
sS'order'
p5005
S"''"
p5006
sg3922
g44
sS'subquery'
p5007
S'None'
p5008
sS'r'
S"'1'"
p5009
sS'ui'
p5010
S"{'button': 'button', 'buttonadd': 'icon plus', 'buttonback': 'icon leftarrow', 'buttondelete': 'icon trash', 'buttonedit': 'icon pen', 'buttonexport': 'icon downarrow', 'buttontable': 'icon rightarrow', 'buttontext': 'buttontext button', 'buttonview': 'icon magnifier', 'content': '', ...}"
p5011
sS'searchable'
p5012
g1733
sS'error'
p5013
S'None'
p5014
sS'showbuttontext'
p5015
g1733
sS'referrer'
p5016
S"'/streamlog/default/index/t_log?_signature=b0a2c59179043c00e0d75d25302eb331ad8a01a2'"
p5017
sS'maxtextlengths'
p5018
g44
sS'csv'
p5019
g99
sS'sorter_icons'
p5020
S"('[^]', '[v]')"
p5021
sS'deletable'
p5022
g99
sssS'traceback'
p5023
S'Traceback (most recent call last):\n  File "/home/jose/DESARROLLO/web2py199/gluon/restricted.py", line 194, in restricted\n    exec ccode in environment\n  File "/home/jose/DESARROLLO/web2py199/applications/streamlog/controllers/default.py", line 148, in <module>\n  File "/home/jose/DESARROLLO/web2py199/gluon/globals.py", line 149, in <lambda>\n    self._caller = lambda f: f()\n  File "/home/jose/DESARROLLO/web2py199/applications/streamlog/controllers/default.py", line 19, in index\n    form=SQLFORM.smartgrid(db.t_log, selectable=True, csv=False,create=False, deletable=False, editable=False)\n  File "/home/jose/DESARROLLO/web2py199/gluon/sqlhtml.py", line 1821, in smartgrid\n    user_signature=user_signature,**kwargs)\n  File "/home/jose/DESARROLLO/web2py199/gluon/sqlhtml.py", line 1714, in grid\n    selectable(records)\nTypeError: \'bool\' object is not callable\n'
p5024
s.