(dp1
S'output'
p2
S''
sS'layer'
p3
S'/home/jose/DESARROLLO/web2py199/applications/streamlog/controllers/default.py'
p4
sS'code'
p5
S'# -*- coding: utf-8 -*-\n# this file is released under public domain and you can use without limitations\n\n#########################################################################\n## This is a samples controller\n## - index is the default action of any application\n## - user is required for authentication and authorization\n## - download is for downloading files uploaded in the db (does streaming)\n## - call exposes all registered services (none by default)\n#########################################################################\n\n\n\ndef index():\n    """\n    example action using the internationalization operator T and flash\n    rendered by views/default/index.html or views/generic.html\n    """\n    links = [lambda row:  INPUT(_type=\'button\',_value=\'START STREAM\', _onclick=\'createStream(\'+str(row.id)+\')\')]\n    form=SQLFORM.grid(db.t_log, selectable=False, csv=False,create=False, deletable=False, editable=False, links=links, user_signature=False)\n    return dict(message=T(\'Hello World2\'), form=form)\n\n@service.json\ndef getConnectionData():\n    \n    id_log=request.args[0]\n    ip=\'\'\n    port=\'\'\n    name_log=\'\'\n    \n    data_connection=db((db.t_log.id==id_log)&(db.t_log.server==db.t_server.id)).select(db.t_log.name,db.t_server.IP,db.t_server.port)\n  \n    for row in data_connection:\n        ip=row.IP\n        port=row.port\n        name_log=row.name\n        \n    print ip\n    print port\n    print name_log\n    \n    return response.json({"connection": [{\'name_log\': \'xhtml\',\'IP\': \'127.0.0.1\',\'port\': \'8888\'}]})\n\ndef choose_log():\n    """\n    example action using the internationalization operator T and flash\n    rendered by views/default/index.html or views/generic.html\n    """\n    \n    \n    return dict(message="log")\n\n\ndef getTypeTable():\n    """\n    example action using the internationalization operator T and flash\n    rendered by views/default/index.html or views/generic.html\n    """\n    table=\'\'\n    id_log=request.args[0]\n    type_table=db((db.t_log.id==id_log)&(db.t_log.type_log==db.t_type_log.id)).select(db.t_type_log.html_table)\n    for row in type_table:\n        table=row.html_table\n        \n    \'\'\'\n    table=\'<table cellpadding="0" cellspacing="0" border="0" class="display" id="tablelog"> \\\n    <thead> \\\n        <tr> \\\n            <th>IP</th> \\\n            <th>hyphen</th> \\\n            <th>userid</th> \\\n            <th>Time Request</th> \\\n        <th>Request Time</th> \\\n        <th>Status Code</th> \\\n        <th>Size Object</th> \\\n        </tr>\\\n    </thead> \\\n    <tfoot> \\\n        <tr> \\\n            <th>IP</th> \\\n            <th>hyphen</th> \\\n            <th>userid</th>\\\n            <th>Time Request</th> \\\n        <th>Request Time</th> \\\n        <th>Status Code</th> \\\n        <th>Size Object</th> \\\n        </tr>  \\\n    </tfoot>  \\\n        <tbody> \\\n        </tbody> \\\n    </table>\'\n    \'\'\'\n    \n    return table\n\n\ndef user():\n    """\n    exposes:\n    http://..../[app]/default/user/login\n    http://..../[app]/default/user/logout\n    http://..../[app]/default/user/register\n    http://..../[app]/default/user/profile\n    http://..../[app]/default/user/retrieve_password\n    http://..../[app]/default/user/change_password\n    use @auth.requires_login()\n        @auth.requires_membership(\'group name\')\n        @auth.requires_permission(\'read\',\'table name\',record_id)\n    to decorate functions that need access control\n    """\n    return dict(form=auth())\n\ndef error():\n    return dict()\n\n\ndef project_manage():\n    \n    form = SQLFORM.smartgrid(db.t_project)\n    return locals()\n\n\n\ndef server_manage():\n\n    form=SQLFORM.grid(db.t_server)\n    return locals()\n\ndef log_manage():\n \n    #form = SQLFORM.smartgrid(db.t_log,constraints=dict(t_log=query), selectable=True,searchable=False, csv=False,showbuttontext=True,onupdate=auth.archive)\n    #form = SQLFORM.smartgrid(db.t_log)\n    form=SQLFORM.grid(db.t_log)\n    return locals()\n\ndef type_log_manage():\n\n    form=SQLFORM.grid(db.t_type_log)\n    return locals()\n\ndef download():\n    """\n    allows downloading of uploaded files\n    http://..../[app]/default/download/[filename]\n    """\n    return response.download(request,db)\n\n\ndef call():\n    """\n    exposes services. for example:\n    http://..../[app]/default/call/jsonrpc\n    decorate with @services.jsonrpc the functions to expose\n    supports xml, json, xmlrpc, jsonrpc, amfrpc, rss, csv\n    """\n    return service()\n\n\n@auth.requires_signature()\ndef data():\n    """\n    http://..../[app]/default/data/tables\n    http://..../[app]/default/data/create/[table]\n    http://..../[app]/default/data/read/[table]/[id]\n    http://..../[app]/default/data/update/[table]/[id]\n    http://..../[app]/default/data/delete/[table]/[id]\n    http://..../[app]/default/data/select/[table]\n    http://..../[app]/default/data/search/[table]\n    but URLs bust be signed, i.e. linked with\n      A(\'table\',_href=URL(\'data/tables\',user_signature=True))\n    or with the signed load operator\n      LOAD(\'default\',\'data.load\',args=\'tables\',ajax=True,user_signature=True)\n    """\n    return dict(form=crud())\n\nresponse._vars=response._caller(call)\n'
p6
sS'snapshot'
p7
(dp8
S'exception'
p9
(dp10
S'__hash__'
p11
S"<method-wrapper '__hash__' of exceptions.ValueError object>"
p12
sS'__setattr__'
p13
S"<method-wrapper '__setattr__' of exceptions.ValueError object>"
p14
sS'__reduce_ex__'
p15
S'<built-in method __reduce_ex__ of exceptions.ValueError object>'
p16
sS'__getslice__'
p17
S"<method-wrapper '__getslice__' of exceptions.ValueError object>"
p18
sS'__getitem__'
p19
S"<method-wrapper '__getitem__' of exceptions.ValueError object>"
p20
sS'__setstate__'
p21
S'<built-in method __setstate__ of exceptions.ValueError object>'
p22
sS'args'
p23
S'("invalid literal for int() with base 10: \'json\'",)'
p24
sS'__reduce__'
p25
S'<built-in method __reduce__ of exceptions.ValueError object>'
p26
sS'__str__'
p27
S"<method-wrapper '__str__' of exceptions.ValueError object>"
p28
sS'__format__'
p29
S'<built-in method __format__ of exceptions.ValueError object>'
p30
sS'__getattribute__'
p31
S"<method-wrapper '__getattribute__' of exceptions.ValueError object>"
p32
sS'__class__'
p33
S"<type 'exceptions.ValueError'>"
p34
sS'__unicode__'
p35
S'<built-in method __unicode__ of exceptions.ValueError object>'
p36
sS'__delattr__'
p37
S"<method-wrapper '__delattr__' of exceptions.ValueError object>"
p38
sS'__subclasshook__'
p39
S'<built-in method __subclasshook__ of type object>'
p40
sS'__repr__'
p41
S"<method-wrapper '__repr__' of exceptions.ValueError object>"
p42
sS'__dict__'
p43
S'{}'
p44
sS'__sizeof__'
p45
S'<built-in method __sizeof__ of exceptions.ValueError object>'
p46
sS'__doc__'
p47
S"'Inappropriate argument value (of correct type).'"
p48
sS'__init__'
p49
S"<method-wrapper '__init__' of exceptions.ValueError object>"
p50
sS'__new__'
p51
S'<built-in method __new__ of type object>'
p52
ssS'evalue'
p53
S"invalid literal for int() with base 10: 'json'"
p54
sS'request'
p55
ccopy_reg
_reconstructor
p56
(cgluon.html
BEAUTIFY
p57
c__builtin__
object
p58
NtRp59
(dp60
S'attributes'
p61
(dp62
sS'components'
p63
(lp64
g56
(cgluon.html
TABLE
p65
g58
NtRp66
(dp67
g61
(dp68
S'level'
p69
I5
ssS'parent'
p70
Nsg63
(lp71
g56
(cgluon.html
TR
p72
g58
NtRp73
(dp74
g61
(dp75
sg70
g66
sg63
(lp76
g56
(cgluon.html
TD
p77
g58
NtRp78
(dp79
g61
(dp80
S'_style'
p81
S'font-weight:bold;'
p82
ssg70
g73
sg63
(lp83
S'ajax'
p84
asbag56
(g77
g58
NtRp85
(dp86
g61
(dp87
S'_valign'
p88
S'top'
p89
ssg70
g73
sg63
(lp90
S':'
asbag56
(g77
g58
NtRp91
(dp92
g61
(dp93
sg70
g73
sg63
(lp94
g56
(g57
g58
NtRp95
(dp96
g61
(dp97
g69
I5
ssg70
g91
sg63
(lp98
S'True'
p99
asbasbasbag56
(g72
g58
NtRp100
(dp101
g61
(dp102
sg70
g66
sg63
(lp103
g56
(g77
g58
NtRp104
(dp105
g61
(dp106
g81
g82
ssg70
g100
sg63
(lp107
S'application'
p108
asbag56
(g77
g58
NtRp109
(dp110
g61
(dp111
g88
g89
ssg70
g100
sg63
(lp112
S':'
asbag56
(g77
g58
NtRp113
(dp114
g61
(dp115
sg70
g100
sg63
(lp116
g56
(g57
g58
NtRp117
(dp118
g61
(dp119
g69
I5
ssg70
g113
sg63
(lp120
S'streamlog'
p121
asbasbasbag56
(g72
g58
NtRp122
(dp123
g61
(dp124
sg70
g66
sg63
(lp125
g56
(g77
g58
NtRp126
(dp127
g61
(dp128
g81
g82
ssg70
g122
sg63
(lp129
g23
asbag56
(g77
g58
NtRp130
(dp131
g61
(dp132
g88
g89
ssg70
g122
sg63
(lp133
S':'
asbag56
(g77
g58
NtRp134
(dp135
g61
(dp136
sg70
g122
sg63
(lp137
g56
(g57
g58
NtRp138
(dp139
g61
(dp140
g69
I5
ssg70
g134
sg63
(lp141
g56
(g65
g58
NtRp142
(dp143
g61
(dp144
g69
I4
ssg70
Nsg63
(lp145
g56
(g72
g58
NtRp146
(dp147
g61
(dp148
sg70
g142
sg63
(lp149
g56
(g77
g58
NtRp150
(dp151
g61
(dp152
sg70
g146
sg63
(lp153
g56
(g57
g58
NtRp154
(dp155
g61
(dp156
g69
I4
ssg70
g150
sg63
(lp157
S'json'
p158
asbasbasbag56
(g72
g58
NtRp159
(dp160
g61
(dp161
sg70
g142
sg63
(lp162
g56
(g77
g58
NtRp163
(dp164
g61
(dp165
sg70
g159
sg63
(lp166
g56
(g57
g58
NtRp167
(dp168
g61
(dp169
g69
I4
ssg70
g163
sg63
(lp170
S'getConnectionData'
p171
asbasbasbasbasbasbasbag56
(g72
g58
NtRp172
(dp173
g61
(dp174
sg70
g66
sg63
(lp175
g56
(g77
g58
NtRp176
(dp177
g61
(dp178
g81
g82
ssg70
g172
sg63
(lp179
S'body'
p180
asbag56
(g77
g58
NtRp181
(dp182
g61
(dp183
g88
g89
ssg70
g172
sg63
(lp184
S':'
asbag56
(g77
g58
NtRp185
(dp186
g61
(dp187
sg70
g172
sg63
(lp188
g56
(g57
g58
NtRp189
(dp190
g61
(dp191
g69
I5
ssg70
g185
sg63
(lp192
S'<cStringIO.StringO object at 0x24d9b90>'
p193
asbasbasbag56
(g72
g58
NtRp194
(dp195
g61
(dp196
sg70
g66
sg63
(lp197
g56
(g77
g58
NtRp198
(dp199
g61
(dp200
g81
g82
ssg70
g194
sg63
(lp201
S'client'
p202
asbag56
(g77
g58
NtRp203
(dp204
g61
(dp205
g88
g89
ssg70
g194
sg63
(lp206
S':'
asbag56
(g77
g58
NtRp207
(dp208
g61
(dp209
sg70
g194
sg63
(lp210
g56
(g57
g58
NtRp211
(dp212
g61
(dp213
g69
I5
ssg70
g207
sg63
(lp214
S'127.0.0.1'
p215
asbasbasbag56
(g72
g58
NtRp216
(dp217
g61
(dp218
sg70
g66
sg63
(lp219
g56
(g77
g58
NtRp220
(dp221
g61
(dp222
g81
g82
ssg70
g216
sg63
(lp223
S'controller'
p224
asbag56
(g77
g58
NtRp225
(dp226
g61
(dp227
g88
g89
ssg70
g216
sg63
(lp228
S':'
asbag56
(g77
g58
NtRp229
(dp230
g61
(dp231
sg70
g216
sg63
(lp232
g56
(g57
g58
NtRp233
(dp234
g61
(dp235
g69
I5
ssg70
g229
sg63
(lp236
S'default'
p237
asbasbasbag56
(g72
g58
NtRp238
(dp239
g61
(dp240
sg70
g66
sg63
(lp241
g56
(g77
g58
NtRp242
(dp243
g61
(dp244
g81
g82
ssg70
g238
sg63
(lp245
S'cookies'
p246
asbag56
(g77
g58
NtRp247
(dp248
g61
(dp249
g88
g89
ssg70
g238
sg63
(lp250
S':'
asbag56
(g77
g58
NtRp251
(dp252
g61
(dp253
sg70
g238
sg63
(lp254
g56
(g57
g58
NtRp255
(dp256
g61
(dp257
g69
I5
ssg70
g251
sg63
(lp258
g56
(g65
g58
NtRp259
(dp260
g61
(dp261
g69
I4
ssg70
Nsg63
(lp262
g56
(g72
g58
NtRp263
(dp264
g61
(dp265
sg70
g259
sg63
(lp266
g56
(g77
g58
NtRp267
(dp268
g61
(dp269
g81
g82
ssg70
g263
sg63
(lp270
S'session_id_admin'
p271
asbag56
(g77
g58
NtRp272
(dp273
g61
(dp274
g88
g89
ssg70
g263
sg63
(lp275
S':'
asbag56
(g77
g58
NtRp276
(dp277
g61
(dp278
sg70
g263
sg63
(lp279
g56
(g57
g58
NtRp280
(dp281
g61
(dp282
g69
I4
ssg70
g276
sg63
(lp283
g56
(g65
g58
NtRp284
(dp285
g61
(dp286
g69
I3
ssg70
Nsg63
(lp287
g56
(g72
g58
NtRp288
(dp289
g61
(dp290
sg70
g284
sg63
(lp291
g56
(g77
g58
NtRp292
(dp293
g61
(dp294
g81
g82
ssg70
g288
sg63
(lp295
S'comment'
p296
asbag56
(g77
g58
NtRp297
(dp298
g61
(dp299
g88
g89
ssg70
g288
sg63
(lp300
S':'
asbag56
(g77
g58
NtRp301
(dp302
g61
(dp303
sg70
g288
sg63
(lp304
g56
(g57
g58
NtRp305
(dp306
g61
(dp307
g69
I3
ssg70
g301
sg63
(lp308
S''
asbasbasbag56
(g72
g58
NtRp309
(dp310
g61
(dp311
sg70
g284
sg63
(lp312
g56
(g77
g58
NtRp313
(dp314
g61
(dp315
g81
g82
ssg70
g309
sg63
(lp316
S'domain'
p317
asbag56
(g77
g58
NtRp318
(dp319
g61
(dp320
g88
g89
ssg70
g309
sg63
(lp321
S':'
asbag56
(g77
g58
NtRp322
(dp323
g61
(dp324
sg70
g309
sg63
(lp325
g56
(g57
g58
NtRp326
(dp327
g61
(dp328
g69
I3
ssg70
g322
sg63
(lp329
S''
asbasbasbag56
(g72
g58
NtRp330
(dp331
g61
(dp332
sg70
g284
sg63
(lp333
g56
(g77
g58
NtRp334
(dp335
g61
(dp336
g81
g82
ssg70
g330
sg63
(lp337
S'expires'
p338
asbag56
(g77
g58
NtRp339
(dp340
g61
(dp341
g88
g89
ssg70
g330
sg63
(lp342
S':'
asbag56
(g77
g58
NtRp343
(dp344
g61
(dp345
sg70
g330
sg63
(lp346
g56
(g57
g58
NtRp347
(dp348
g61
(dp349
g69
I3
ssg70
g343
sg63
(lp350
S''
asbasbasbag56
(g72
g58
NtRp351
(dp352
g61
(dp353
sg70
g284
sg63
(lp354
g56
(g77
g58
NtRp355
(dp356
g61
(dp357
g81
g82
ssg70
g351
sg63
(lp358
S'httponly'
p359
asbag56
(g77
g58
NtRp360
(dp361
g61
(dp362
g88
g89
ssg70
g351
sg63
(lp363
S':'
asbag56
(g77
g58
NtRp364
(dp365
g61
(dp366
sg70
g351
sg63
(lp367
g56
(g57
g58
NtRp368
(dp369
g61
(dp370
g69
I3
ssg70
g364
sg63
(lp371
S''
asbasbasbag56
(g72
g58
NtRp372
(dp373
g61
(dp374
sg70
g284
sg63
(lp375
g56
(g77
g58
NtRp376
(dp377
g61
(dp378
g81
g82
ssg70
g372
sg63
(lp379
S'max-age'
p380
asbag56
(g77
g58
NtRp381
(dp382
g61
(dp383
g88
g89
ssg70
g372
sg63
(lp384
S':'
asbag56
(g77
g58
NtRp385
(dp386
g61
(dp387
sg70
g372
sg63
(lp388
g56
(g57
g58
NtRp389
(dp390
g61
(dp391
g69
I3
ssg70
g385
sg63
(lp392
S''
asbasbasbag56
(g72
g58
NtRp393
(dp394
g61
(dp395
sg70
g284
sg63
(lp396
g56
(g77
g58
NtRp397
(dp398
g61
(dp399
g81
g82
ssg70
g393
sg63
(lp400
S'path'
p401
asbag56
(g77
g58
NtRp402
(dp403
g61
(dp404
g88
g89
ssg70
g393
sg63
(lp405
S':'
asbag56
(g77
g58
NtRp406
(dp407
g61
(dp408
sg70
g393
sg63
(lp409
g56
(g57
g58
NtRp410
(dp411
g61
(dp412
g69
I3
ssg70
g406
sg63
(lp413
S''
asbasbasbag56
(g72
g58
NtRp414
(dp415
g61
(dp416
sg70
g284
sg63
(lp417
g56
(g77
g58
NtRp418
(dp419
g61
(dp420
g81
g82
ssg70
g414
sg63
(lp421
S'secure'
p422
asbag56
(g77
g58
NtRp423
(dp424
g61
(dp425
g88
g89
ssg70
g414
sg63
(lp426
S':'
asbag56
(g77
g58
NtRp427
(dp428
g61
(dp429
sg70
g414
sg63
(lp430
g56
(g57
g58
NtRp431
(dp432
g61
(dp433
g69
I3
ssg70
g427
sg63
(lp434
S''
asbasbasbag56
(g72
g58
NtRp435
(dp436
g61
(dp437
sg70
g284
sg63
(lp438
g56
(g77
g58
NtRp439
(dp440
g61
(dp441
g81
g82
ssg70
g435
sg63
(lp442
S'version'
p443
asbag56
(g77
g58
NtRp444
(dp445
g61
(dp446
g88
g89
ssg70
g435
sg63
(lp447
S':'
asbag56
(g77
g58
NtRp448
(dp449
g61
(dp450
sg70
g435
sg63
(lp451
g56
(g57
g58
NtRp452
(dp453
g61
(dp454
g69
I3
ssg70
g448
sg63
(lp455
S''
asbasbasbasbasbasbasbag56
(g72
g58
NtRp456
(dp457
g61
(dp458
sg70
g259
sg63
(lp459
g56
(g77
g58
NtRp460
(dp461
g61
(dp462
g81
g82
ssg70
g456
sg63
(lp463
S'session_id_streamlog'
p464
asbag56
(g77
g58
NtRp465
(dp466
g61
(dp467
g88
g89
ssg70
g456
sg63
(lp468
S':'
asbag56
(g77
g58
NtRp469
(dp470
g61
(dp471
sg70
g456
sg63
(lp472
g56
(g57
g58
NtRp473
(dp474
g61
(dp475
g69
I4
ssg70
g469
sg63
(lp476
g56
(g65
g58
NtRp477
(dp478
g61
(dp479
g69
I3
ssg70
Nsg63
(lp480
g56
(g72
g58
NtRp481
(dp482
g61
(dp483
sg70
g477
sg63
(lp484
g56
(g77
g58
NtRp485
(dp486
g61
(dp487
g81
g82
ssg70
g481
sg63
(lp488
g296
asbag56
(g77
g58
NtRp489
(dp490
g61
(dp491
g88
g89
ssg70
g481
sg63
(lp492
S':'
asbag56
(g77
g58
NtRp493
(dp494
g61
(dp495
sg70
g481
sg63
(lp496
g56
(g57
g58
NtRp497
(dp498
g61
(dp499
g69
I3
ssg70
g493
sg63
(lp500
S''
asbasbasbag56
(g72
g58
NtRp501
(dp502
g61
(dp503
sg70
g477
sg63
(lp504
g56
(g77
g58
NtRp505
(dp506
g61
(dp507
g81
g82
ssg70
g501
sg63
(lp508
g317
asbag56
(g77
g58
NtRp509
(dp510
g61
(dp511
g88
g89
ssg70
g501
sg63
(lp512
S':'
asbag56
(g77
g58
NtRp513
(dp514
g61
(dp515
sg70
g501
sg63
(lp516
g56
(g57
g58
NtRp517
(dp518
g61
(dp519
g69
I3
ssg70
g513
sg63
(lp520
S''
asbasbasbag56
(g72
g58
NtRp521
(dp522
g61
(dp523
sg70
g477
sg63
(lp524
g56
(g77
g58
NtRp525
(dp526
g61
(dp527
g81
g82
ssg70
g521
sg63
(lp528
g338
asbag56
(g77
g58
NtRp529
(dp530
g61
(dp531
g88
g89
ssg70
g521
sg63
(lp532
S':'
asbag56
(g77
g58
NtRp533
(dp534
g61
(dp535
sg70
g521
sg63
(lp536
g56
(g57
g58
NtRp537
(dp538
g61
(dp539
g69
I3
ssg70
g533
sg63
(lp540
S''
asbasbasbag56
(g72
g58
NtRp541
(dp542
g61
(dp543
sg70
g477
sg63
(lp544
g56
(g77
g58
NtRp545
(dp546
g61
(dp547
g81
g82
ssg70
g541
sg63
(lp548
g359
asbag56
(g77
g58
NtRp549
(dp550
g61
(dp551
g88
g89
ssg70
g541
sg63
(lp552
S':'
asbag56
(g77
g58
NtRp553
(dp554
g61
(dp555
sg70
g541
sg63
(lp556
g56
(g57
g58
NtRp557
(dp558
g61
(dp559
g69
I3
ssg70
g553
sg63
(lp560
S''
asbasbasbag56
(g72
g58
NtRp561
(dp562
g61
(dp563
sg70
g477
sg63
(lp564
g56
(g77
g58
NtRp565
(dp566
g61
(dp567
g81
g82
ssg70
g561
sg63
(lp568
g380
asbag56
(g77
g58
NtRp569
(dp570
g61
(dp571
g88
g89
ssg70
g561
sg63
(lp572
S':'
asbag56
(g77
g58
NtRp573
(dp574
g61
(dp575
sg70
g561
sg63
(lp576
g56
(g57
g58
NtRp577
(dp578
g61
(dp579
g69
I3
ssg70
g573
sg63
(lp580
S''
asbasbasbag56
(g72
g58
NtRp581
(dp582
g61
(dp583
sg70
g477
sg63
(lp584
g56
(g77
g58
NtRp585
(dp586
g61
(dp587
g81
g82
ssg70
g581
sg63
(lp588
g401
asbag56
(g77
g58
NtRp589
(dp590
g61
(dp591
g88
g89
ssg70
g581
sg63
(lp592
S':'
asbag56
(g77
g58
NtRp593
(dp594
g61
(dp595
sg70
g581
sg63
(lp596
g56
(g57
g58
NtRp597
(dp598
g61
(dp599
g69
I3
ssg70
g593
sg63
(lp600
S''
asbasbasbag56
(g72
g58
NtRp601
(dp602
g61
(dp603
sg70
g477
sg63
(lp604
g56
(g77
g58
NtRp605
(dp606
g61
(dp607
g81
g82
ssg70
g601
sg63
(lp608
g422
asbag56
(g77
g58
NtRp609
(dp610
g61
(dp611
g88
g89
ssg70
g601
sg63
(lp612
S':'
asbag56
(g77
g58
NtRp613
(dp614
g61
(dp615
sg70
g601
sg63
(lp616
g56
(g57
g58
NtRp617
(dp618
g61
(dp619
g69
I3
ssg70
g613
sg63
(lp620
S''
asbasbasbag56
(g72
g58
NtRp621
(dp622
g61
(dp623
sg70
g477
sg63
(lp624
g56
(g77
g58
NtRp625
(dp626
g61
(dp627
g81
g82
ssg70
g621
sg63
(lp628
g443
asbag56
(g77
g58
NtRp629
(dp630
g61
(dp631
g88
g89
ssg70
g621
sg63
(lp632
S':'
asbag56
(g77
g58
NtRp633
(dp634
g61
(dp635
sg70
g621
sg63
(lp636
g56
(g57
g58
NtRp637
(dp638
g61
(dp639
g69
I3
ssg70
g633
sg63
(lp640
S''
asbasbasbasbasbasbasbag56
(g72
g58
NtRp641
(dp642
g61
(dp643
sg70
g259
sg63
(lp644
g56
(g77
g58
NtRp645
(dp646
g61
(dp647
g81
g82
ssg70
g641
sg63
(lp648
S'session_id_test3'
p649
asbag56
(g77
g58
NtRp650
(dp651
g61
(dp652
g88
g89
ssg70
g641
sg63
(lp653
S':'
asbag56
(g77
g58
NtRp654
(dp655
g61
(dp656
sg70
g641
sg63
(lp657
g56
(g57
g58
NtRp658
(dp659
g61
(dp660
g69
I4
ssg70
g654
sg63
(lp661
g56
(g65
g58
NtRp662
(dp663
g61
(dp664
g69
I3
ssg70
Nsg63
(lp665
g56
(g72
g58
NtRp666
(dp667
g61
(dp668
sg70
g662
sg63
(lp669
g56
(g77
g58
NtRp670
(dp671
g61
(dp672
g81
g82
ssg70
g666
sg63
(lp673
g296
asbag56
(g77
g58
NtRp674
(dp675
g61
(dp676
g88
g89
ssg70
g666
sg63
(lp677
S':'
asbag56
(g77
g58
NtRp678
(dp679
g61
(dp680
sg70
g666
sg63
(lp681
g56
(g57
g58
NtRp682
(dp683
g61
(dp684
g69
I3
ssg70
g678
sg63
(lp685
S''
asbasbasbag56
(g72
g58
NtRp686
(dp687
g61
(dp688
sg70
g662
sg63
(lp689
g56
(g77
g58
NtRp690
(dp691
g61
(dp692
g81
g82
ssg70
g686
sg63
(lp693
g317
asbag56
(g77
g58
NtRp694
(dp695
g61
(dp696
g88
g89
ssg70
g686
sg63
(lp697
S':'
asbag56
(g77
g58
NtRp698
(dp699
g61
(dp700
sg70
g686
sg63
(lp701
g56
(g57
g58
NtRp702
(dp703
g61
(dp704
g69
I3
ssg70
g698
sg63
(lp705
S''
asbasbasbag56
(g72
g58
NtRp706
(dp707
g61
(dp708
sg70
g662
sg63
(lp709
g56
(g77
g58
NtRp710
(dp711
g61
(dp712
g81
g82
ssg70
g706
sg63
(lp713
g338
asbag56
(g77
g58
NtRp714
(dp715
g61
(dp716
g88
g89
ssg70
g706
sg63
(lp717
S':'
asbag56
(g77
g58
NtRp718
(dp719
g61
(dp720
sg70
g706
sg63
(lp721
g56
(g57
g58
NtRp722
(dp723
g61
(dp724
g69
I3
ssg70
g718
sg63
(lp725
S''
asbasbasbag56
(g72
g58
NtRp726
(dp727
g61
(dp728
sg70
g662
sg63
(lp729
g56
(g77
g58
NtRp730
(dp731
g61
(dp732
g81
g82
ssg70
g726
sg63
(lp733
g359
asbag56
(g77
g58
NtRp734
(dp735
g61
(dp736
g88
g89
ssg70
g726
sg63
(lp737
S':'
asbag56
(g77
g58
NtRp738
(dp739
g61
(dp740
sg70
g726
sg63
(lp741
g56
(g57
g58
NtRp742
(dp743
g61
(dp744
g69
I3
ssg70
g738
sg63
(lp745
S''
asbasbasbag56
(g72
g58
NtRp746
(dp747
g61
(dp748
sg70
g662
sg63
(lp749
g56
(g77
g58
NtRp750
(dp751
g61
(dp752
g81
g82
ssg70
g746
sg63
(lp753
g380
asbag56
(g77
g58
NtRp754
(dp755
g61
(dp756
g88
g89
ssg70
g746
sg63
(lp757
S':'
asbag56
(g77
g58
NtRp758
(dp759
g61
(dp760
sg70
g746
sg63
(lp761
g56
(g57
g58
NtRp762
(dp763
g61
(dp764
g69
I3
ssg70
g758
sg63
(lp765
S''
asbasbasbag56
(g72
g58
NtRp766
(dp767
g61
(dp768
sg70
g662
sg63
(lp769
g56
(g77
g58
NtRp770
(dp771
g61
(dp772
g81
g82
ssg70
g766
sg63
(lp773
g401
asbag56
(g77
g58
NtRp774
(dp775
g61
(dp776
g88
g89
ssg70
g766
sg63
(lp777
S':'
asbag56
(g77
g58
NtRp778
(dp779
g61
(dp780
sg70
g766
sg63
(lp781
g56
(g57
g58
NtRp782
(dp783
g61
(dp784
g69
I3
ssg70
g778
sg63
(lp785
S''
asbasbasbag56
(g72
g58
NtRp786
(dp787
g61
(dp788
sg70
g662
sg63
(lp789
g56
(g77
g58
NtRp790
(dp791
g61
(dp792
g81
g82
ssg70
g786
sg63
(lp793
g422
asbag56
(g77
g58
NtRp794
(dp795
g61
(dp796
g88
g89
ssg70
g786
sg63
(lp797
S':'
asbag56
(g77
g58
NtRp798
(dp799
g61
(dp800
sg70
g786
sg63
(lp801
g56
(g57
g58
NtRp802
(dp803
g61
(dp804
g69
I3
ssg70
g798
sg63
(lp805
S''
asbasbasbag56
(g72
g58
NtRp806
(dp807
g61
(dp808
sg70
g662
sg63
(lp809
g56
(g77
g58
NtRp810
(dp811
g61
(dp812
g81
g82
ssg70
g806
sg63
(lp813
g443
asbag56
(g77
g58
NtRp814
(dp815
g61
(dp816
g88
g89
ssg70
g806
sg63
(lp817
S':'
asbag56
(g77
g58
NtRp818
(dp819
g61
(dp820
sg70
g806
sg63
(lp821
g56
(g57
g58
NtRp822
(dp823
g61
(dp824
g69
I3
ssg70
g818
sg63
(lp825
S''
asbasbasbasbasbasbasbasbasbasbasbag56
(g72
g58
NtRp826
(dp827
g61
(dp828
sg70
g66
sg63
(lp829
g56
(g77
g58
NtRp830
(dp831
g61
(dp832
g81
g82
ssg70
g826
sg63
(lp833
S'env'
p834
asbag56
(g77
g58
NtRp835
(dp836
g61
(dp837
g88
g89
ssg70
g826
sg63
(lp838
S':'
asbag56
(g77
g58
NtRp839
(dp840
g61
(dp841
sg70
g826
sg63
(lp842
g56
(g57
g58
NtRp843
(dp844
g61
(dp845
g69
I5
ssg70
g839
sg63
(lp846
g56
(g65
g58
NtRp847
(dp848
g61
(dp849
g69
I4
ssg70
Nsg63
(lp850
g56
(g72
g58
NtRp851
(dp852
g61
(dp853
sg70
g847
sg63
(lp854
g56
(g77
g58
NtRp855
(dp856
g61
(dp857
g81
g82
ssg70
g851
sg63
(lp858
S'app_folders'
p859
asbag56
(g77
g58
NtRp860
(dp861
g61
(dp862
g88
g89
ssg70
g851
sg63
(lp863
S':'
asbag56
(g77
g58
NtRp864
(dp865
g61
(dp866
sg70
g851
sg63
(lp867
g56
(g57
g58
NtRp868
(dp869
g61
(dp870
g69
I4
ssg70
g864
sg63
(lp871
S"set(['/home/jose/DESARROLLO/web2py199/applications/streamlog/', '/home/jose/DESARROLLO/web2py199/applications/admin/'])"
p872
asbasbasbag56
(g72
g58
NtRp873
(dp874
g61
(dp875
sg70
g847
sg63
(lp876
g56
(g77
g58
NtRp877
(dp878
g61
(dp879
g81
g82
ssg70
g873
sg63
(lp880
S'applications_parent'
p881
asbag56
(g77
g58
NtRp882
(dp883
g61
(dp884
g88
g89
ssg70
g873
sg63
(lp885
S':'
asbag56
(g77
g58
NtRp886
(dp887
g61
(dp888
sg70
g873
sg63
(lp889
g56
(g57
g58
NtRp890
(dp891
g61
(dp892
g69
I4
ssg70
g886
sg63
(lp893
S'/home/jose/DESARROLLO/web2py199'
p894
asbasbasbag56
(g72
g58
NtRp895
(dp896
g61
(dp897
sg70
g847
sg63
(lp898
g56
(g77
g58
NtRp899
(dp900
g61
(dp901
g81
g82
ssg70
g895
sg63
(lp902
S'cmd_args'
p903
asbag56
(g77
g58
NtRp904
(dp905
g61
(dp906
g88
g89
ssg70
g895
sg63
(lp907
S':'
asbag56
(g77
g58
NtRp908
(dp909
g61
(dp910
sg70
g895
sg63
(lp911
g56
(g57
g58
NtRp912
(dp913
g61
(dp914
g69
I4
ssg70
g908
sg63
(lp915
g56
(g65
g58
NtRp916
(dp917
g61
(dp918
g69
I3
ssg70
Nsg63
(lp919
sbasbasbasbag56
(g72
g58
NtRp920
(dp921
g61
(dp922
sg70
g847
sg63
(lp923
g56
(g77
g58
NtRp924
(dp925
g61
(dp926
g81
g82
ssg70
g920
sg63
(lp927
S'cmd_options'
p928
asbag56
(g77
g58
NtRp929
(dp930
g61
(dp931
g88
g89
ssg70
g920
sg63
(lp932
S':'
asbag56
(g77
g58
NtRp933
(dp934
g61
(dp935
sg70
g920
sg63
(lp936
g56
(g57
g58
NtRp937
(dp938
g61
(dp939
g69
I4
ssg70
g933
sg63
(lp940
S"<Values at 0x1c79f80: {'verbose': False, 'ip': '127.0.0.1', 'shutdown_timeout': 5, 'taskbar': False, 'nocron': False, 'pid_filename': 'httpserver.pid', 'maxthreads': None, 'softcron': False, 'server_name': 'jose', 'bpython': False, 'nogui': False, 'port': 8000, 'extcron': False, 'debuglevel': 30, 'test': None, 'folder': '/home/jose/DESARROLLO/web2py199', 'config': '', 'import_models': False, 'winservice': '', 'shell': None, 'run': '', 'log_filename': 'httpserver.log', 'args': [''], 'ssl_ca_certificate': None, 'scheduler': None, 'profiler_filename': None, 'ssl_private_key': '', 'password': 't', 'request_queue_size': 5, 'ssl_certificate': '', 'cronjob': False, 'plain': False, 'quiet': False, 'interfaces': None, 'minthreads': None, 'timeout': 10, 'numthreads': None, 'nobanner': False}>"
p941
asbasbasbag56
(g72
g58
NtRp942
(dp943
g61
(dp944
sg70
g847
sg63
(lp945
g56
(g77
g58
NtRp946
(dp947
g61
(dp948
g81
g82
ssg70
g942
sg63
(lp949
S'db_sessions'
p950
asbag56
(g77
g58
NtRp951
(dp952
g61
(dp953
g88
g89
ssg70
g942
sg63
(lp954
S':'
asbag56
(g77
g58
NtRp955
(dp956
g61
(dp957
sg70
g942
sg63
(lp958
g56
(g57
g58
NtRp959
(dp960
g61
(dp961
g69
I4
ssg70
g955
sg63
(lp962
S'set([])'
p963
asbasbasbag56
(g72
g58
NtRp964
(dp965
g61
(dp966
sg70
g847
sg63
(lp967
g56
(g77
g58
NtRp968
(dp969
g61
(dp970
g81
g82
ssg70
g964
sg63
(lp971
S'debugging'
p972
asbag56
(g77
g58
NtRp973
(dp974
g61
(dp975
g88
g89
ssg70
g964
sg63
(lp976
S':'
asbag56
(g77
g58
NtRp977
(dp978
g61
(dp979
sg70
g964
sg63
(lp980
g56
(g57
g58
NtRp981
(dp982
g61
(dp983
g69
I4
ssg70
g977
sg63
(lp984
S'False'
p985
asbasbasbag56
(g72
g58
NtRp986
(dp987
g61
(dp988
sg70
g847
sg63
(lp989
g56
(g77
g58
NtRp990
(dp991
g61
(dp992
g81
g82
ssg70
g986
sg63
(lp993
S'gluon_parent'
p994
asbag56
(g77
g58
NtRp995
(dp996
g61
(dp997
g88
g89
ssg70
g986
sg63
(lp998
S':'
asbag56
(g77
g58
NtRp999
(dp1000
g61
(dp1001
sg70
g986
sg63
(lp1002
g56
(g57
g58
NtRp1003
(dp1004
g61
(dp1005
g69
I4
ssg70
g999
sg63
(lp1006
S'/home/jose/DESARROLLO/web2py199'
p1007
asbasbasbag56
(g72
g58
NtRp1008
(dp1009
g61
(dp1010
sg70
g847
sg63
(lp1011
g56
(g77
g58
NtRp1012
(dp1013
g61
(dp1014
g81
g82
ssg70
g1008
sg63
(lp1015
S'http_accept'
p1016
asbag56
(g77
g58
NtRp1017
(dp1018
g61
(dp1019
g88
g89
ssg70
g1008
sg63
(lp1020
S':'
asbag56
(g77
g58
NtRp1021
(dp1022
g61
(dp1023
sg70
g1008
sg63
(lp1024
g56
(g57
g58
NtRp1025
(dp1026
g61
(dp1027
g69
I4
ssg70
g1021
sg63
(lp1028
S'application/json, text/javascript, */*; q=0.01'
p1029
asbasbasbag56
(g72
g58
NtRp1030
(dp1031
g61
(dp1032
sg70
g847
sg63
(lp1033
g56
(g77
g58
NtRp1034
(dp1035
g61
(dp1036
g81
g82
ssg70
g1030
sg63
(lp1037
S'http_accept_encoding'
p1038
asbag56
(g77
g58
NtRp1039
(dp1040
g61
(dp1041
g88
g89
ssg70
g1030
sg63
(lp1042
S':'
asbag56
(g77
g58
NtRp1043
(dp1044
g61
(dp1045
sg70
g1030
sg63
(lp1046
g56
(g57
g58
NtRp1047
(dp1048
g61
(dp1049
g69
I4
ssg70
g1043
sg63
(lp1050
S'gzip, deflate'
p1051
asbasbasbag56
(g72
g58
NtRp1052
(dp1053
g61
(dp1054
sg70
g847
sg63
(lp1055
g56
(g77
g58
NtRp1056
(dp1057
g61
(dp1058
g81
g82
ssg70
g1052
sg63
(lp1059
S'http_accept_language'
p1060
asbag56
(g77
g58
NtRp1061
(dp1062
g61
(dp1063
g88
g89
ssg70
g1052
sg63
(lp1064
S':'
asbag56
(g77
g58
NtRp1065
(dp1066
g61
(dp1067
sg70
g1052
sg63
(lp1068
g56
(g57
g58
NtRp1069
(dp1070
g61
(dp1071
g69
I4
ssg70
g1065
sg63
(lp1072
S'en-us,en;q=0.5'
p1073
asbasbasbag56
(g72
g58
NtRp1074
(dp1075
g61
(dp1076
sg70
g847
sg63
(lp1077
g56
(g77
g58
NtRp1078
(dp1079
g61
(dp1080
g81
g82
ssg70
g1074
sg63
(lp1081
S'http_connection'
p1082
asbag56
(g77
g58
NtRp1083
(dp1084
g61
(dp1085
g88
g89
ssg70
g1074
sg63
(lp1086
S':'
asbag56
(g77
g58
NtRp1087
(dp1088
g61
(dp1089
sg70
g1074
sg63
(lp1090
g56
(g57
g58
NtRp1091
(dp1092
g61
(dp1093
g69
I4
ssg70
g1087
sg63
(lp1094
S'keep-alive'
p1095
asbasbasbag56
(g72
g58
NtRp1096
(dp1097
g61
(dp1098
sg70
g847
sg63
(lp1099
g56
(g77
g58
NtRp1100
(dp1101
g61
(dp1102
g81
g82
ssg70
g1096
sg63
(lp1103
S'http_cookie'
p1104
asbag56
(g77
g58
NtRp1105
(dp1106
g61
(dp1107
g88
g89
ssg70
g1096
sg63
(lp1108
S':'
asbag56
(g77
g58
NtRp1109
(dp1110
g61
(dp1111
sg70
g1096
sg63
(lp1112
g56
(g57
g58
NtRp1113
(dp1114
g61
(dp1115
g69
I4
ssg70
g1109
sg63
(lp1116
S'session_id_streamlog=127.0.0.1-610b0c7d-3f6f-4500-a76a-b095fb30f7fd; session_id_admin=127.0.0.1-8f69464e-4a83-4875-ad25-00cf5c7e8e11; session_id_test3=127.0.0.1-380e7b29-b635-4690-b9ca-812870d6a061'
p1117
asbasbasbag56
(g72
g58
NtRp1118
(dp1119
g61
(dp1120
sg70
g847
sg63
(lp1121
g56
(g77
g58
NtRp1122
(dp1123
g61
(dp1124
g81
g82
ssg70
g1118
sg63
(lp1125
S'http_host'
p1126
asbag56
(g77
g58
NtRp1127
(dp1128
g61
(dp1129
g88
g89
ssg70
g1118
sg63
(lp1130
S':'
asbag56
(g77
g58
NtRp1131
(dp1132
g61
(dp1133
sg70
g1118
sg63
(lp1134
g56
(g57
g58
NtRp1135
(dp1136
g61
(dp1137
g69
I4
ssg70
g1131
sg63
(lp1138
S'localhost:8000'
p1139
asbasbasbag56
(g72
g58
NtRp1140
(dp1141
g61
(dp1142
sg70
g847
sg63
(lp1143
g56
(g77
g58
NtRp1144
(dp1145
g61
(dp1146
g81
g82
ssg70
g1140
sg63
(lp1147
S'http_referer'
p1148
asbag56
(g77
g58
NtRp1149
(dp1150
g61
(dp1151
g88
g89
ssg70
g1140
sg63
(lp1152
S':'
asbag56
(g77
g58
NtRp1153
(dp1154
g61
(dp1155
sg70
g1140
sg63
(lp1156
g56
(g57
g58
NtRp1157
(dp1158
g61
(dp1159
g69
I4
ssg70
g1153
sg63
(lp1160
S'http://localhost:8000/streamlog/default/index'
p1161
asbasbasbag56
(g72
g58
NtRp1162
(dp1163
g61
(dp1164
sg70
g847
sg63
(lp1165
g56
(g77
g58
NtRp1166
(dp1167
g61
(dp1168
g81
g82
ssg70
g1162
sg63
(lp1169
S'http_user_agent'
p1170
asbag56
(g77
g58
NtRp1171
(dp1172
g61
(dp1173
g88
g89
ssg70
g1162
sg63
(lp1174
S':'
asbag56
(g77
g58
NtRp1175
(dp1176
g61
(dp1177
sg70
g1162
sg63
(lp1178
g56
(g57
g58
NtRp1179
(dp1180
g61
(dp1181
g69
I4
ssg70
g1175
sg63
(lp1182
S'Mozilla/5.0 (X11; Ubuntu; Linux x86_64; rv:12.0) Gecko/20100101 Firefox/12.0'
p1183
asbasbasbag56
(g72
g58
NtRp1184
(dp1185
g61
(dp1186
sg70
g847
sg63
(lp1187
g56
(g77
g58
NtRp1188
(dp1189
g61
(dp1190
g81
g82
ssg70
g1184
sg63
(lp1191
S'http_x_requested_with'
p1192
asbag56
(g77
g58
NtRp1193
(dp1194
g61
(dp1195
g88
g89
ssg70
g1184
sg63
(lp1196
S':'
asbag56
(g77
g58
NtRp1197
(dp1198
g61
(dp1199
sg70
g1184
sg63
(lp1200
g56
(g57
g58
NtRp1201
(dp1202
g61
(dp1203
g69
I4
ssg70
g1197
sg63
(lp1204
S'XMLHttpRequest'
p1205
asbasbasbag56
(g72
g58
NtRp1206
(dp1207
g61
(dp1208
sg70
g847
sg63
(lp1209
g56
(g77
g58
NtRp1210
(dp1211
g61
(dp1212
g81
g82
ssg70
g1206
sg63
(lp1213
S'is_jython'
p1214
asbag56
(g77
g58
NtRp1215
(dp1216
g61
(dp1217
g88
g89
ssg70
g1206
sg63
(lp1218
S':'
asbag56
(g77
g58
NtRp1219
(dp1220
g61
(dp1221
sg70
g1206
sg63
(lp1222
g56
(g57
g58
NtRp1223
(dp1224
g61
(dp1225
g69
I4
ssg70
g1219
sg63
(lp1226
g985
asbasbasbag56
(g72
g58
NtRp1227
(dp1228
g61
(dp1229
sg70
g847
sg63
(lp1230
g56
(g77
g58
NtRp1231
(dp1232
g61
(dp1233
g81
g82
ssg70
g1227
sg63
(lp1234
S'path_info'
p1235
asbag56
(g77
g58
NtRp1236
(dp1237
g61
(dp1238
g88
g89
ssg70
g1227
sg63
(lp1239
S':'
asbag56
(g77
g58
NtRp1240
(dp1241
g61
(dp1242
sg70
g1227
sg63
(lp1243
g56
(g57
g58
NtRp1244
(dp1245
g61
(dp1246
g69
I4
ssg70
g1240
sg63
(lp1247
S'/streamlog/default/call/json/getConnectionData'
p1248
asbasbasbag56
(g72
g58
NtRp1249
(dp1250
g61
(dp1251
sg70
g847
sg63
(lp1252
g56
(g77
g58
NtRp1253
(dp1254
g61
(dp1255
g81
g82
ssg70
g1249
sg63
(lp1256
S'query_string'
p1257
asbag56
(g77
g58
NtRp1258
(dp1259
g61
(dp1260
g88
g89
ssg70
g1249
sg63
(lp1261
S':'
asbag56
(g77
g58
NtRp1262
(dp1263
g61
(dp1264
sg70
g1249
sg63
(lp1265
g56
(g57
g58
NtRp1266
(dp1267
g61
(dp1268
g69
I4
ssg70
g1262
sg63
(lp1269
S''
asbasbasbag56
(g72
g58
NtRp1270
(dp1271
g61
(dp1272
sg70
g847
sg63
(lp1273
g56
(g77
g58
NtRp1274
(dp1275
g61
(dp1276
g81
g82
ssg70
g1270
sg63
(lp1277
S'remote_addr'
p1278
asbag56
(g77
g58
NtRp1279
(dp1280
g61
(dp1281
g88
g89
ssg70
g1270
sg63
(lp1282
S':'
asbag56
(g77
g58
NtRp1283
(dp1284
g61
(dp1285
sg70
g1270
sg63
(lp1286
g56
(g57
g58
NtRp1287
(dp1288
g61
(dp1289
g69
I4
ssg70
g1283
sg63
(lp1290
g215
asbasbasbag56
(g72
g58
NtRp1291
(dp1292
g61
(dp1293
sg70
g847
sg63
(lp1294
g56
(g77
g58
NtRp1295
(dp1296
g61
(dp1297
g81
g82
ssg70
g1291
sg63
(lp1298
S'remote_port'
p1299
asbag56
(g77
g58
NtRp1300
(dp1301
g61
(dp1302
g88
g89
ssg70
g1291
sg63
(lp1303
S':'
asbag56
(g77
g58
NtRp1304
(dp1305
g61
(dp1306
sg70
g1291
sg63
(lp1307
g56
(g57
g58
NtRp1308
(dp1309
g61
(dp1310
g69
I4
ssg70
g1304
sg63
(lp1311
S'36198'
p1312
asbasbasbag56
(g72
g58
NtRp1313
(dp1314
g61
(dp1315
sg70
g847
sg63
(lp1316
g56
(g77
g58
NtRp1317
(dp1318
g61
(dp1319
g81
g82
ssg70
g1313
sg63
(lp1320
S'request_method'
p1321
asbag56
(g77
g58
NtRp1322
(dp1323
g61
(dp1324
g88
g89
ssg70
g1313
sg63
(lp1325
S':'
asbag56
(g77
g58
NtRp1326
(dp1327
g61
(dp1328
sg70
g1313
sg63
(lp1329
g56
(g57
g58
NtRp1330
(dp1331
g61
(dp1332
g69
I4
ssg70
g1326
sg63
(lp1333
S'GET'
p1334
asbasbasbag56
(g72
g58
NtRp1335
(dp1336
g61
(dp1337
sg70
g847
sg63
(lp1338
g56
(g77
g58
NtRp1339
(dp1340
g61
(dp1341
g81
g82
ssg70
g1335
sg63
(lp1342
S'script_name'
p1343
asbag56
(g77
g58
NtRp1344
(dp1345
g61
(dp1346
g88
g89
ssg70
g1335
sg63
(lp1347
S':'
asbag56
(g77
g58
NtRp1348
(dp1349
g61
(dp1350
sg70
g1335
sg63
(lp1351
g56
(g57
g58
NtRp1352
(dp1353
g61
(dp1354
g69
I4
ssg70
g1348
sg63
(lp1355
S''
asbasbasbag56
(g72
g58
NtRp1356
(dp1357
g61
(dp1358
sg70
g847
sg63
(lp1359
g56
(g77
g58
NtRp1360
(dp1361
g61
(dp1362
g81
g82
ssg70
g1356
sg63
(lp1363
S'server_name'
p1364
asbag56
(g77
g58
NtRp1365
(dp1366
g61
(dp1367
g88
g89
ssg70
g1356
sg63
(lp1368
S':'
asbag56
(g77
g58
NtRp1369
(dp1370
g61
(dp1371
sg70
g1356
sg63
(lp1372
g56
(g57
g58
NtRp1373
(dp1374
g61
(dp1375
g69
I4
ssg70
g1369
sg63
(lp1376
S'jose'
p1377
asbasbasbag56
(g72
g58
NtRp1378
(dp1379
g61
(dp1380
sg70
g847
sg63
(lp1381
g56
(g77
g58
NtRp1382
(dp1383
g61
(dp1384
g81
g82
ssg70
g1378
sg63
(lp1385
S'server_port'
p1386
asbag56
(g77
g58
NtRp1387
(dp1388
g61
(dp1389
g88
g89
ssg70
g1378
sg63
(lp1390
S':'
asbag56
(g77
g58
NtRp1391
(dp1392
g61
(dp1393
sg70
g1378
sg63
(lp1394
g56
(g57
g58
NtRp1395
(dp1396
g61
(dp1397
g69
I4
ssg70
g1391
sg63
(lp1398
S'8000'
p1399
asbasbasbag56
(g72
g58
NtRp1400
(dp1401
g61
(dp1402
sg70
g847
sg63
(lp1403
g56
(g77
g58
NtRp1404
(dp1405
g61
(dp1406
g81
g82
ssg70
g1400
sg63
(lp1407
S'server_protocol'
p1408
asbag56
(g77
g58
NtRp1409
(dp1410
g61
(dp1411
g88
g89
ssg70
g1400
sg63
(lp1412
S':'
asbag56
(g77
g58
NtRp1413
(dp1414
g61
(dp1415
sg70
g1400
sg63
(lp1416
g56
(g57
g58
NtRp1417
(dp1418
g61
(dp1419
g69
I4
ssg70
g1413
sg63
(lp1420
S'HTTP/1.1'
p1421
asbasbasbag56
(g72
g58
NtRp1422
(dp1423
g61
(dp1424
sg70
g847
sg63
(lp1425
g56
(g77
g58
NtRp1426
(dp1427
g61
(dp1428
g81
g82
ssg70
g1422
sg63
(lp1429
S'server_software'
p1430
asbag56
(g77
g58
NtRp1431
(dp1432
g61
(dp1433
g88
g89
ssg70
g1422
sg63
(lp1434
S':'
asbag56
(g77
g58
NtRp1435
(dp1436
g61
(dp1437
sg70
g1422
sg63
(lp1438
g56
(g57
g58
NtRp1439
(dp1440
g61
(dp1441
g69
I4
ssg70
g1435
sg63
(lp1442
S'Rocket 1.2.4'
p1443
asbasbasbag56
(g72
g58
NtRp1444
(dp1445
g61
(dp1446
sg70
g847
sg63
(lp1447
g56
(g77
g58
NtRp1448
(dp1449
g61
(dp1450
g81
g82
ssg70
g1444
sg63
(lp1451
S'web2py_crontype'
p1452
asbag56
(g77
g58
NtRp1453
(dp1454
g61
(dp1455
g88
g89
ssg70
g1444
sg63
(lp1456
S':'
asbag56
(g77
g58
NtRp1457
(dp1458
g61
(dp1459
sg70
g1444
sg63
(lp1460
g56
(g57
g58
NtRp1461
(dp1462
g61
(dp1463
g69
I4
ssg70
g1457
sg63
(lp1464
S'hard'
p1465
asbasbasbag56
(g72
g58
NtRp1466
(dp1467
g61
(dp1468
sg70
g847
sg63
(lp1469
g56
(g77
g58
NtRp1470
(dp1471
g61
(dp1472
g81
g82
ssg70
g1466
sg63
(lp1473
S'web2py_path'
p1474
asbag56
(g77
g58
NtRp1475
(dp1476
g61
(dp1477
g88
g89
ssg70
g1466
sg63
(lp1478
S':'
asbag56
(g77
g58
NtRp1479
(dp1480
g61
(dp1481
sg70
g1466
sg63
(lp1482
g56
(g57
g58
NtRp1483
(dp1484
g61
(dp1485
g69
I4
ssg70
g1479
sg63
(lp1486
g894
asbasbasbag56
(g72
g58
NtRp1487
(dp1488
g61
(dp1489
sg70
g847
sg63
(lp1490
g56
(g77
g58
NtRp1491
(dp1492
g61
(dp1493
g81
g82
ssg70
g1487
sg63
(lp1494
S'web2py_version'
p1495
asbag56
(g77
g58
NtRp1496
(dp1497
g61
(dp1498
g88
g89
ssg70
g1487
sg63
(lp1499
S':'
asbag56
(g77
g58
NtRp1500
(dp1501
g61
(dp1502
sg70
g1487
sg63
(lp1503
g56
(g57
g58
NtRp1504
(dp1505
g61
(dp1506
g69
I4
ssg70
g1500
sg63
(lp1507
g56
(g65
g58
NtRp1508
(dp1509
g61
(dp1510
g69
I3
ssg70
Nsg63
(lp1511
g56
(g72
g58
NtRp1512
(dp1513
g61
(dp1514
sg70
g1508
sg63
(lp1515
g56
(g77
g58
NtRp1516
(dp1517
g61
(dp1518
sg70
g1512
sg63
(lp1519
g56
(g57
g58
NtRp1520
(dp1521
g61
(dp1522
g69
I3
ssg70
g1516
sg63
(lp1523
S'1'
asbasbasbag56
(g72
g58
NtRp1524
(dp1525
g61
(dp1526
sg70
g1508
sg63
(lp1527
g56
(g77
g58
NtRp1528
(dp1529
g61
(dp1530
sg70
g1524
sg63
(lp1531
g56
(g57
g58
NtRp1532
(dp1533
g61
(dp1534
g69
I3
ssg70
g1528
sg63
(lp1535
S'99'
p1536
asbasbasbag56
(g72
g58
NtRp1537
(dp1538
g61
(dp1539
sg70
g1508
sg63
(lp1540
g56
(g77
g58
NtRp1541
(dp1542
g61
(dp1543
sg70
g1537
sg63
(lp1544
g56
(g57
g58
NtRp1545
(dp1546
g61
(dp1547
g69
I3
ssg70
g1541
sg63
(lp1548
S'2'
asbasbasbag56
(g72
g58
NtRp1549
(dp1550
g61
(dp1551
sg70
g1508
sg63
(lp1552
g56
(g77
g58
NtRp1553
(dp1554
g61
(dp1555
sg70
g1549
sg63
(lp1556
g56
(g57
g58
NtRp1557
(dp1558
g61
(dp1559
g69
I3
ssg70
g1553
sg63
(lp1560
S'datetime.datetime(2011, 9, 26, 6, 55, 33)'
p1561
asbasbasbag56
(g72
g58
NtRp1562
(dp1563
g61
(dp1564
sg70
g1508
sg63
(lp1565
g56
(g77
g58
NtRp1566
(dp1567
g61
(dp1568
sg70
g1562
sg63
(lp1569
g56
(g57
g58
NtRp1570
(dp1571
g61
(dp1572
g69
I3
ssg70
g1566
sg63
(lp1573
S'stable'
p1574
asbasbasbasbasbasbasbag56
(g72
g58
NtRp1575
(dp1576
g61
(dp1577
sg70
g847
sg63
(lp1578
g56
(g77
g58
NtRp1579
(dp1580
g61
(dp1581
g81
g82
ssg70
g1575
sg63
(lp1582
S'wsgi_errors'
p1583
asbag56
(g77
g58
NtRp1584
(dp1585
g61
(dp1586
g88
g89
ssg70
g1575
sg63
(lp1587
S':'
asbag56
(g77
g58
NtRp1588
(dp1589
g61
(dp1590
sg70
g1575
sg63
(lp1591
g56
(g57
g58
NtRp1592
(dp1593
g61
(dp1594
g69
I4
ssg70
g1588
sg63
(lp1595
S"<open file '<stderr>', mode 'w' at 0x7f84db3ff270>"
p1596
asbasbasbag56
(g72
g58
NtRp1597
(dp1598
g61
(dp1599
sg70
g847
sg63
(lp1600
g56
(g77
g58
NtRp1601
(dp1602
g61
(dp1603
g81
g82
ssg70
g1597
sg63
(lp1604
S'wsgi_file_wrapper'
p1605
asbag56
(g77
g58
NtRp1606
(dp1607
g61
(dp1608
g88
g89
ssg70
g1597
sg63
(lp1609
S':'
asbag56
(g77
g58
NtRp1610
(dp1611
g61
(dp1612
sg70
g1597
sg63
(lp1613
g56
(g57
g58
NtRp1614
(dp1615
g61
(dp1616
g69
I4
ssg70
g1610
sg63
(lp1617
S'<class wsgiref.util.FileWrapper at 0x1b96d50>'
p1618
asbasbasbag56
(g72
g58
NtRp1619
(dp1620
g61
(dp1621
sg70
g847
sg63
(lp1622
g56
(g77
g58
NtRp1623
(dp1624
g61
(dp1625
g81
g82
ssg70
g1619
sg63
(lp1626
S'wsgi_input'
p1627
asbag56
(g77
g58
NtRp1628
(dp1629
g61
(dp1630
g88
g89
ssg70
g1619
sg63
(lp1631
S':'
asbag56
(g77
g58
NtRp1632
(dp1633
g61
(dp1634
sg70
g1619
sg63
(lp1635
g56
(g57
g58
NtRp1636
(dp1637
g61
(dp1638
g69
I4
ssg70
g1632
sg63
(lp1639
S'<socket._fileobject object at 0x29e0cd0>'
p1640
asbasbasbag56
(g72
g58
NtRp1641
(dp1642
g61
(dp1643
sg70
g847
sg63
(lp1644
g56
(g77
g58
NtRp1645
(dp1646
g61
(dp1647
g81
g82
ssg70
g1641
sg63
(lp1648
S'wsgi_multiprocess'
p1649
asbag56
(g77
g58
NtRp1650
(dp1651
g61
(dp1652
g88
g89
ssg70
g1641
sg63
(lp1653
S':'
asbag56
(g77
g58
NtRp1654
(dp1655
g61
(dp1656
sg70
g1641
sg63
(lp1657
g56
(g57
g58
NtRp1658
(dp1659
g61
(dp1660
g69
I4
ssg70
g1654
sg63
(lp1661
g985
asbasbasbag56
(g72
g58
NtRp1662
(dp1663
g61
(dp1664
sg70
g847
sg63
(lp1665
g56
(g77
g58
NtRp1666
(dp1667
g61
(dp1668
g81
g82
ssg70
g1662
sg63
(lp1669
S'wsgi_multithread'
p1670
asbag56
(g77
g58
NtRp1671
(dp1672
g61
(dp1673
g88
g89
ssg70
g1662
sg63
(lp1674
S':'
asbag56
(g77
g58
NtRp1675
(dp1676
g61
(dp1677
sg70
g1662
sg63
(lp1678
g56
(g57
g58
NtRp1679
(dp1680
g61
(dp1681
g69
I4
ssg70
g1675
sg63
(lp1682
g99
asbasbasbag56
(g72
g58
NtRp1683
(dp1684
g61
(dp1685
sg70
g847
sg63
(lp1686
g56
(g77
g58
NtRp1687
(dp1688
g61
(dp1689
g81
g82
ssg70
g1683
sg63
(lp1690
S'wsgi_run_once'
p1691
asbag56
(g77
g58
NtRp1692
(dp1693
g61
(dp1694
g88
g89
ssg70
g1683
sg63
(lp1695
S':'
asbag56
(g77
g58
NtRp1696
(dp1697
g61
(dp1698
sg70
g1683
sg63
(lp1699
g56
(g57
g58
NtRp1700
(dp1701
g61
(dp1702
g69
I4
ssg70
g1696
sg63
(lp1703
g985
asbasbasbag56
(g72
g58
NtRp1704
(dp1705
g61
(dp1706
sg70
g847
sg63
(lp1707
g56
(g77
g58
NtRp1708
(dp1709
g61
(dp1710
g81
g82
ssg70
g1704
sg63
(lp1711
S'wsgi_url_scheme'
p1712
asbag56
(g77
g58
NtRp1713
(dp1714
g61
(dp1715
g88
g89
ssg70
g1704
sg63
(lp1716
S':'
asbag56
(g77
g58
NtRp1717
(dp1718
g61
(dp1719
sg70
g1704
sg63
(lp1720
g56
(g57
g58
NtRp1721
(dp1722
g61
(dp1723
g69
I4
ssg70
g1717
sg63
(lp1724
S'http'
p1725
asbasbasbag56
(g72
g58
NtRp1726
(dp1727
g61
(dp1728
sg70
g847
sg63
(lp1729
g56
(g77
g58
NtRp1730
(dp1731
g61
(dp1732
g81
g82
ssg70
g1726
sg63
(lp1733
S'wsgi_version'
p1734
asbag56
(g77
g58
NtRp1735
(dp1736
g61
(dp1737
g88
g89
ssg70
g1726
sg63
(lp1738
S':'
asbag56
(g77
g58
NtRp1739
(dp1740
g61
(dp1741
sg70
g1726
sg63
(lp1742
g56
(g57
g58
NtRp1743
(dp1744
g61
(dp1745
g69
I4
ssg70
g1739
sg63
(lp1746
g56
(g65
g58
NtRp1747
(dp1748
g61
(dp1749
g69
I3
ssg70
Nsg63
(lp1750
g56
(g72
g58
NtRp1751
(dp1752
g61
(dp1753
sg70
g1747
sg63
(lp1754
g56
(g77
g58
NtRp1755
(dp1756
g61
(dp1757
sg70
g1751
sg63
(lp1758
g56
(g57
g58
NtRp1759
(dp1760
g61
(dp1761
g69
I3
ssg70
g1755
sg63
(lp1762
S'1'
asbasbasbag56
(g72
g58
NtRp1763
(dp1764
g61
(dp1765
sg70
g1747
sg63
(lp1766
g56
(g77
g58
NtRp1767
(dp1768
g61
(dp1769
sg70
g1763
sg63
(lp1770
g56
(g57
g58
NtRp1771
(dp1772
g61
(dp1773
g69
I3
ssg70
g1767
sg63
(lp1774
S'0'
asbasbasbasbasbasbasbasbasbasbasbag56
(g72
g58
NtRp1775
(dp1776
g61
(dp1777
sg70
g66
sg63
(lp1778
g56
(g77
g58
NtRp1779
(dp1780
g61
(dp1781
g81
g82
ssg70
g1775
sg63
(lp1782
S'extension'
p1783
asbag56
(g77
g58
NtRp1784
(dp1785
g61
(dp1786
g88
g89
ssg70
g1775
sg63
(lp1787
S':'
asbag56
(g77
g58
NtRp1788
(dp1789
g61
(dp1790
sg70
g1775
sg63
(lp1791
g56
(g57
g58
NtRp1792
(dp1793
g61
(dp1794
g69
I5
ssg70
g1788
sg63
(lp1795
S'html'
p1796
asbasbasbag56
(g72
g58
NtRp1797
(dp1798
g61
(dp1799
sg70
g66
sg63
(lp1800
g56
(g77
g58
NtRp1801
(dp1802
g61
(dp1803
g81
g82
ssg70
g1797
sg63
(lp1804
S'folder'
p1805
asbag56
(g77
g58
NtRp1806
(dp1807
g61
(dp1808
g88
g89
ssg70
g1797
sg63
(lp1809
S':'
asbag56
(g77
g58
NtRp1810
(dp1811
g61
(dp1812
sg70
g1797
sg63
(lp1813
g56
(g57
g58
NtRp1814
(dp1815
g61
(dp1816
g69
I5
ssg70
g1810
sg63
(lp1817
S'/home/jose/DESARROLLO/web2py199/applications/streamlog/'
p1818
asbasbasbag56
(g72
g58
NtRp1819
(dp1820
g61
(dp1821
sg70
g66
sg63
(lp1822
g56
(g77
g58
NtRp1823
(dp1824
g61
(dp1825
g81
g82
ssg70
g1819
sg63
(lp1826
S'function'
p1827
asbag56
(g77
g58
NtRp1828
(dp1829
g61
(dp1830
g88
g89
ssg70
g1819
sg63
(lp1831
S':'
asbag56
(g77
g58
NtRp1832
(dp1833
g61
(dp1834
sg70
g1819
sg63
(lp1835
g56
(g57
g58
NtRp1836
(dp1837
g61
(dp1838
g69
I5
ssg70
g1832
sg63
(lp1839
S'call'
p1840
asbasbasbag56
(g72
g58
NtRp1841
(dp1842
g61
(dp1843
sg70
g66
sg63
(lp1844
g56
(g77
g58
NtRp1845
(dp1846
g61
(dp1847
g81
g82
ssg70
g1841
sg63
(lp1848
S'get_vars'
p1849
asbag56
(g77
g58
NtRp1850
(dp1851
g61
(dp1852
g88
g89
ssg70
g1841
sg63
(lp1853
S':'
asbag56
(g77
g58
NtRp1854
(dp1855
g61
(dp1856
sg70
g1841
sg63
(lp1857
g56
(g57
g58
NtRp1858
(dp1859
g61
(dp1860
g69
I5
ssg70
g1854
sg63
(lp1861
g56
(g65
g58
NtRp1862
(dp1863
g61
(dp1864
g69
I4
ssg70
Nsg63
(lp1865
sbasbasbasbag56
(g72
g58
NtRp1866
(dp1867
g61
(dp1868
sg70
g66
sg63
(lp1869
g56
(g77
g58
NtRp1870
(dp1871
g61
(dp1872
g81
g82
ssg70
g1866
sg63
(lp1873
S'global_settings'
p1874
asbag56
(g77
g58
NtRp1875
(dp1876
g61
(dp1877
g88
g89
ssg70
g1866
sg63
(lp1878
S':'
asbag56
(g77
g58
NtRp1879
(dp1880
g61
(dp1881
sg70
g1866
sg63
(lp1882
g56
(g57
g58
NtRp1883
(dp1884
g61
(dp1885
g69
I5
ssg70
g1879
sg63
(lp1886
g56
(g65
g58
NtRp1887
(dp1888
g61
(dp1889
g69
I4
ssg70
Nsg63
(lp1890
g56
(g72
g58
NtRp1891
(dp1892
g61
(dp1893
sg70
g1887
sg63
(lp1894
g56
(g77
g58
NtRp1895
(dp1896
g61
(dp1897
g81
g82
ssg70
g1891
sg63
(lp1898
g859
asbag56
(g77
g58
NtRp1899
(dp1900
g61
(dp1901
g88
g89
ssg70
g1891
sg63
(lp1902
S':'
asbag56
(g77
g58
NtRp1903
(dp1904
g61
(dp1905
sg70
g1891
sg63
(lp1906
g56
(g57
g58
NtRp1907
(dp1908
g61
(dp1909
g69
I4
ssg70
g1903
sg63
(lp1910
S"set(['/home/jose/DESARROLLO/web2py199/applications/streamlog/', '/home/jose/DESARROLLO/web2py199/applications/admin/'])"
p1911
asbasbasbag56
(g72
g58
NtRp1912
(dp1913
g61
(dp1914
sg70
g1887
sg63
(lp1915
g56
(g77
g58
NtRp1916
(dp1917
g61
(dp1918
g81
g82
ssg70
g1912
sg63
(lp1919
g881
asbag56
(g77
g58
NtRp1920
(dp1921
g61
(dp1922
g88
g89
ssg70
g1912
sg63
(lp1923
S':'
asbag56
(g77
g58
NtRp1924
(dp1925
g61
(dp1926
sg70
g1912
sg63
(lp1927
g56
(g57
g58
NtRp1928
(dp1929
g61
(dp1930
g69
I4
ssg70
g1924
sg63
(lp1931
g894
asbasbasbag56
(g72
g58
NtRp1932
(dp1933
g61
(dp1934
sg70
g1887
sg63
(lp1935
g56
(g77
g58
NtRp1936
(dp1937
g61
(dp1938
g81
g82
ssg70
g1932
sg63
(lp1939
g903
asbag56
(g77
g58
NtRp1940
(dp1941
g61
(dp1942
g88
g89
ssg70
g1932
sg63
(lp1943
S':'
asbag56
(g77
g58
NtRp1944
(dp1945
g61
(dp1946
sg70
g1932
sg63
(lp1947
g56
(g57
g58
NtRp1948
(dp1949
g61
(dp1950
g69
I4
ssg70
g1944
sg63
(lp1951
g56
(g65
g58
NtRp1952
(dp1953
g61
(dp1954
g69
I3
ssg70
Nsg63
(lp1955
sbasbasbasbag56
(g72
g58
NtRp1956
(dp1957
g61
(dp1958
sg70
g1887
sg63
(lp1959
g56
(g77
g58
NtRp1960
(dp1961
g61
(dp1962
g81
g82
ssg70
g1956
sg63
(lp1963
g928
asbag56
(g77
g58
NtRp1964
(dp1965
g61
(dp1966
g88
g89
ssg70
g1956
sg63
(lp1967
S':'
asbag56
(g77
g58
NtRp1968
(dp1969
g61
(dp1970
sg70
g1956
sg63
(lp1971
g56
(g57
g58
NtRp1972
(dp1973
g61
(dp1974
g69
I4
ssg70
g1968
sg63
(lp1975
S"<Values at 0x1c79f80: {'verbose': False, 'ip': '127.0.0.1', 'shutdown_timeout': 5, 'taskbar': False, 'nocron': False, 'pid_filename': 'httpserver.pid', 'maxthreads': None, 'softcron': False, 'server_name': 'jose', 'bpython': False, 'nogui': False, 'port': 8000, 'extcron': False, 'debuglevel': 30, 'test': None, 'folder': '/home/jose/DESARROLLO/web2py199', 'config': '', 'import_models': False, 'winservice': '', 'shell': None, 'run': '', 'log_filename': 'httpserver.log', 'args': [''], 'ssl_ca_certificate': None, 'scheduler': None, 'profiler_filename': None, 'ssl_private_key': '', 'password': 't', 'request_queue_size': 5, 'ssl_certificate': '', 'cronjob': False, 'plain': False, 'quiet': False, 'interfaces': None, 'minthreads': None, 'timeout': 10, 'numthreads': None, 'nobanner': False}>"
p1976
asbasbasbag56
(g72
g58
NtRp1977
(dp1978
g61
(dp1979
sg70
g1887
sg63
(lp1980
g56
(g77
g58
NtRp1981
(dp1982
g61
(dp1983
g81
g82
ssg70
g1977
sg63
(lp1984
g950
asbag56
(g77
g58
NtRp1985
(dp1986
g61
(dp1987
g88
g89
ssg70
g1977
sg63
(lp1988
S':'
asbag56
(g77
g58
NtRp1989
(dp1990
g61
(dp1991
sg70
g1977
sg63
(lp1992
g56
(g57
g58
NtRp1993
(dp1994
g61
(dp1995
g69
I4
ssg70
g1989
sg63
(lp1996
S'set([])'
p1997
asbasbasbag56
(g72
g58
NtRp1998
(dp1999
g61
(dp2000
sg70
g1887
sg63
(lp2001
g56
(g77
g58
NtRp2002
(dp2003
g61
(dp2004
g81
g82
ssg70
g1998
sg63
(lp2005
g972
asbag56
(g77
g58
NtRp2006
(dp2007
g61
(dp2008
g88
g89
ssg70
g1998
sg63
(lp2009
S':'
asbag56
(g77
g58
NtRp2010
(dp2011
g61
(dp2012
sg70
g1998
sg63
(lp2013
g56
(g57
g58
NtRp2014
(dp2015
g61
(dp2016
g69
I4
ssg70
g2010
sg63
(lp2017
g985
asbasbasbag56
(g72
g58
NtRp2018
(dp2019
g61
(dp2020
sg70
g1887
sg63
(lp2021
g56
(g77
g58
NtRp2022
(dp2023
g61
(dp2024
g81
g82
ssg70
g2018
sg63
(lp2025
g994
asbag56
(g77
g58
NtRp2026
(dp2027
g61
(dp2028
g88
g89
ssg70
g2018
sg63
(lp2029
S':'
asbag56
(g77
g58
NtRp2030
(dp2031
g61
(dp2032
sg70
g2018
sg63
(lp2033
g56
(g57
g58
NtRp2034
(dp2035
g61
(dp2036
g69
I4
ssg70
g2030
sg63
(lp2037
g1007
asbasbasbag56
(g72
g58
NtRp2038
(dp2039
g61
(dp2040
sg70
g1887
sg63
(lp2041
g56
(g77
g58
NtRp2042
(dp2043
g61
(dp2044
g81
g82
ssg70
g2038
sg63
(lp2045
g1214
asbag56
(g77
g58
NtRp2046
(dp2047
g61
(dp2048
g88
g89
ssg70
g2038
sg63
(lp2049
S':'
asbag56
(g77
g58
NtRp2050
(dp2051
g61
(dp2052
sg70
g2038
sg63
(lp2053
g56
(g57
g58
NtRp2054
(dp2055
g61
(dp2056
g69
I4
ssg70
g2050
sg63
(lp2057
g985
asbasbasbag56
(g72
g58
NtRp2058
(dp2059
g61
(dp2060
sg70
g1887
sg63
(lp2061
g56
(g77
g58
NtRp2062
(dp2063
g61
(dp2064
g81
g82
ssg70
g2058
sg63
(lp2065
g1452
asbag56
(g77
g58
NtRp2066
(dp2067
g61
(dp2068
g88
g89
ssg70
g2058
sg63
(lp2069
S':'
asbag56
(g77
g58
NtRp2070
(dp2071
g61
(dp2072
sg70
g2058
sg63
(lp2073
g56
(g57
g58
NtRp2074
(dp2075
g61
(dp2076
g69
I4
ssg70
g2070
sg63
(lp2077
g1465
asbasbasbag56
(g72
g58
NtRp2078
(dp2079
g61
(dp2080
sg70
g1887
sg63
(lp2081
g56
(g77
g58
NtRp2082
(dp2083
g61
(dp2084
g81
g82
ssg70
g2078
sg63
(lp2085
g1495
asbag56
(g77
g58
NtRp2086
(dp2087
g61
(dp2088
g88
g89
ssg70
g2078
sg63
(lp2089
S':'
asbag56
(g77
g58
NtRp2090
(dp2091
g61
(dp2092
sg70
g2078
sg63
(lp2093
g56
(g57
g58
NtRp2094
(dp2095
g61
(dp2096
g69
I4
ssg70
g2090
sg63
(lp2097
g56
(g65
g58
NtRp2098
(dp2099
g61
(dp2100
g69
I3
ssg70
Nsg63
(lp2101
g56
(g72
g58
NtRp2102
(dp2103
g61
(dp2104
sg70
g2098
sg63
(lp2105
g56
(g77
g58
NtRp2106
(dp2107
g61
(dp2108
sg70
g2102
sg63
(lp2109
g56
(g57
g58
NtRp2110
(dp2111
g61
(dp2112
g69
I3
ssg70
g2106
sg63
(lp2113
S'1'
asbasbasbag56
(g72
g58
NtRp2114
(dp2115
g61
(dp2116
sg70
g2098
sg63
(lp2117
g56
(g77
g58
NtRp2118
(dp2119
g61
(dp2120
sg70
g2114
sg63
(lp2121
g56
(g57
g58
NtRp2122
(dp2123
g61
(dp2124
g69
I3
ssg70
g2118
sg63
(lp2125
S'99'
p2126
asbasbasbag56
(g72
g58
NtRp2127
(dp2128
g61
(dp2129
sg70
g2098
sg63
(lp2130
g56
(g77
g58
NtRp2131
(dp2132
g61
(dp2133
sg70
g2127
sg63
(lp2134
g56
(g57
g58
NtRp2135
(dp2136
g61
(dp2137
g69
I3
ssg70
g2131
sg63
(lp2138
S'2'
asbasbasbag56
(g72
g58
NtRp2139
(dp2140
g61
(dp2141
sg70
g2098
sg63
(lp2142
g56
(g77
g58
NtRp2143
(dp2144
g61
(dp2145
sg70
g2139
sg63
(lp2146
g56
(g57
g58
NtRp2147
(dp2148
g61
(dp2149
g69
I3
ssg70
g2143
sg63
(lp2150
S'datetime.datetime(2011, 9, 26, 6, 55, 33)'
p2151
asbasbasbag56
(g72
g58
NtRp2152
(dp2153
g61
(dp2154
sg70
g2098
sg63
(lp2155
g56
(g77
g58
NtRp2156
(dp2157
g61
(dp2158
sg70
g2152
sg63
(lp2159
g56
(g57
g58
NtRp2160
(dp2161
g61
(dp2162
g69
I3
ssg70
g2156
sg63
(lp2163
g1574
asbasbasbasbasbasbasbasbasbasbasbag56
(g72
g58
NtRp2164
(dp2165
g61
(dp2166
sg70
g66
sg63
(lp2167
g56
(g77
g58
NtRp2168
(dp2169
g61
(dp2170
g81
g82
ssg70
g2164
sg63
(lp2171
S'is_https'
p2172
asbag56
(g77
g58
NtRp2173
(dp2174
g61
(dp2175
g88
g89
ssg70
g2164
sg63
(lp2176
S':'
asbag56
(g77
g58
NtRp2177
(dp2178
g61
(dp2179
sg70
g2164
sg63
(lp2180
g56
(g57
g58
NtRp2181
(dp2182
g61
(dp2183
g69
I5
ssg70
g2177
sg63
(lp2184
g985
asbasbasbag56
(g72
g58
NtRp2185
(dp2186
g61
(dp2187
sg70
g66
sg63
(lp2188
g56
(g77
g58
NtRp2189
(dp2190
g61
(dp2191
g81
g82
ssg70
g2185
sg63
(lp2192
S'is_local'
p2193
asbag56
(g77
g58
NtRp2194
(dp2195
g61
(dp2196
g88
g89
ssg70
g2185
sg63
(lp2197
S':'
asbag56
(g77
g58
NtRp2198
(dp2199
g61
(dp2200
sg70
g2185
sg63
(lp2201
g56
(g57
g58
NtRp2202
(dp2203
g61
(dp2204
g69
I5
ssg70
g2198
sg63
(lp2205
g99
asbasbasbag56
(g72
g58
NtRp2206
(dp2207
g61
(dp2208
sg70
g66
sg63
(lp2209
g56
(g77
g58
NtRp2210
(dp2211
g61
(dp2212
g81
g82
ssg70
g2206
sg63
(lp2213
S'is_restful'
p2214
asbag56
(g77
g58
NtRp2215
(dp2216
g61
(dp2217
g88
g89
ssg70
g2206
sg63
(lp2218
S':'
asbag56
(g77
g58
NtRp2219
(dp2220
g61
(dp2221
sg70
g2206
sg63
(lp2222
g56
(g57
g58
NtRp2223
(dp2224
g61
(dp2225
g69
I5
ssg70
g2219
sg63
(lp2226
g985
asbasbasbag56
(g72
g58
NtRp2227
(dp2228
g61
(dp2229
sg70
g66
sg63
(lp2230
g56
(g77
g58
NtRp2231
(dp2232
g61
(dp2233
g81
g82
ssg70
g2227
sg63
(lp2234
S'now'
p2235
asbag56
(g77
g58
NtRp2236
(dp2237
g61
(dp2238
g88
g89
ssg70
g2227
sg63
(lp2239
S':'
asbag56
(g77
g58
NtRp2240
(dp2241
g61
(dp2242
sg70
g2227
sg63
(lp2243
g56
(g57
g58
NtRp2244
(dp2245
g61
(dp2246
g69
I5
ssg70
g2240
sg63
(lp2247
S'datetime.datetime(2012, 5, 26, 21, 27, 23, 478276)'
p2248
asbasbasbag56
(g72
g58
NtRp2249
(dp2250
g61
(dp2251
sg70
g66
sg63
(lp2252
g56
(g77
g58
NtRp2253
(dp2254
g61
(dp2255
g81
g82
ssg70
g2249
sg63
(lp2256
S'post_vars'
p2257
asbag56
(g77
g58
NtRp2258
(dp2259
g61
(dp2260
g88
g89
ssg70
g2249
sg63
(lp2261
S':'
asbag56
(g77
g58
NtRp2262
(dp2263
g61
(dp2264
sg70
g2249
sg63
(lp2265
g56
(g57
g58
NtRp2266
(dp2267
g61
(dp2268
g69
I5
ssg70
g2262
sg63
(lp2269
g56
(g65
g58
NtRp2270
(dp2271
g61
(dp2272
g69
I4
ssg70
Nsg63
(lp2273
sbasbasbasbag56
(g72
g58
NtRp2274
(dp2275
g61
(dp2276
sg70
g66
sg63
(lp2277
g56
(g77
g58
NtRp2278
(dp2279
g61
(dp2280
g81
g82
ssg70
g2274
sg63
(lp2281
S'raw_args'
p2282
asbag56
(g77
g58
NtRp2283
(dp2284
g61
(dp2285
g88
g89
ssg70
g2274
sg63
(lp2286
S':'
asbag56
(g77
g58
NtRp2287
(dp2288
g61
(dp2289
sg70
g2274
sg63
(lp2290
g56
(g57
g58
NtRp2291
(dp2292
g61
(dp2293
g69
I5
ssg70
g2287
sg63
(lp2294
S'json/getConnectionData'
p2295
asbasbasbag56
(g72
g58
NtRp2296
(dp2297
g61
(dp2298
sg70
g66
sg63
(lp2299
g56
(g77
g58
NtRp2300
(dp2301
g61
(dp2302
g81
g82
ssg70
g2296
sg63
(lp2303
S'url'
p2304
asbag56
(g77
g58
NtRp2305
(dp2306
g61
(dp2307
g88
g89
ssg70
g2296
sg63
(lp2308
S':'
asbag56
(g77
g58
NtRp2309
(dp2310
g61
(dp2311
sg70
g2296
sg63
(lp2312
g56
(g57
g58
NtRp2313
(dp2314
g61
(dp2315
g69
I5
ssg70
g2309
sg63
(lp2316
S'/streamlog/default/call/json/getConnectionData'
p2317
asbasbasbag56
(g72
g58
NtRp2318
(dp2319
g61
(dp2320
sg70
g66
sg63
(lp2321
g56
(g77
g58
NtRp2322
(dp2323
g61
(dp2324
g81
g82
ssg70
g2318
sg63
(lp2325
S'utcnow'
p2326
asbag56
(g77
g58
NtRp2327
(dp2328
g61
(dp2329
g88
g89
ssg70
g2318
sg63
(lp2330
S':'
asbag56
(g77
g58
NtRp2331
(dp2332
g61
(dp2333
sg70
g2318
sg63
(lp2334
g56
(g57
g58
NtRp2335
(dp2336
g61
(dp2337
g69
I5
ssg70
g2331
sg63
(lp2338
S'datetime.datetime(2012, 5, 26, 14, 27, 23, 478312)'
p2339
asbasbasbag56
(g72
g58
NtRp2340
(dp2341
g61
(dp2342
sg70
g66
sg63
(lp2343
g56
(g77
g58
NtRp2344
(dp2345
g61
(dp2346
g81
g82
ssg70
g2340
sg63
(lp2347
S'uuid'
p2348
asbag56
(g77
g58
NtRp2349
(dp2350
g61
(dp2351
g88
g89
ssg70
g2340
sg63
(lp2352
S':'
asbag56
(g77
g58
NtRp2353
(dp2354
g61
(dp2355
sg70
g2340
sg63
(lp2356
g56
(g57
g58
NtRp2357
(dp2358
g61
(dp2359
g69
I5
ssg70
g2353
sg63
(lp2360
S'streamlog/127.0.0.1.2012-05-26.21-27-23.d1ee6220-1848-439a-ba3a-b7d9d65326aa'
p2361
asbasbasbag56
(g72
g58
NtRp2362
(dp2363
g61
(dp2364
sg70
g66
sg63
(lp2365
g56
(g77
g58
NtRp2366
(dp2367
g61
(dp2368
g81
g82
ssg70
g2362
sg63
(lp2369
S'vars'
p2370
asbag56
(g77
g58
NtRp2371
(dp2372
g61
(dp2373
g88
g89
ssg70
g2362
sg63
(lp2374
S':'
asbag56
(g77
g58
NtRp2375
(dp2376
g61
(dp2377
sg70
g2362
sg63
(lp2378
g56
(g57
g58
NtRp2379
(dp2380
g61
(dp2381
g69
I5
ssg70
g2375
sg63
(lp2382
g56
(g65
g58
NtRp2383
(dp2384
g61
(dp2385
g69
I4
ssg70
Nsg63
(lp2386
sbasbasbasbag56
(g72
g58
NtRp2387
(dp2388
g61
(dp2389
sg70
g66
sg63
(lp2390
g56
(g77
g58
NtRp2391
(dp2392
g61
(dp2393
g81
g82
ssg70
g2387
sg63
(lp2394
S'wsgi'
p2395
asbag56
(g77
g58
NtRp2396
(dp2397
g61
(dp2398
g88
g89
ssg70
g2387
sg63
(lp2399
S':'
asbag56
(g77
g58
NtRp2400
(dp2401
g61
(dp2402
sg70
g2387
sg63
(lp2403
g56
(g57
g58
NtRp2404
(dp2405
g61
(dp2406
g69
I5
ssg70
g2400
sg63
(lp2407
g56
(g65
g58
NtRp2408
(dp2409
g61
(dp2410
g69
I4
ssg70
Nsg63
(lp2411
g56
(g72
g58
NtRp2412
(dp2413
g61
(dp2414
sg70
g2408
sg63
(lp2415
g56
(g77
g58
NtRp2416
(dp2417
g61
(dp2418
g81
g82
ssg70
g2412
sg63
(lp2419
S'environ'
p2420
asbag56
(g77
g58
NtRp2421
(dp2422
g61
(dp2423
g88
g89
ssg70
g2412
sg63
(lp2424
S':'
asbag56
(g77
g58
NtRp2425
(dp2426
g61
(dp2427
sg70
g2412
sg63
(lp2428
g56
(g57
g58
NtRp2429
(dp2430
g61
(dp2431
g69
I4
ssg70
g2425
sg63
(lp2432
g56
(g65
g58
NtRp2433
(dp2434
g61
(dp2435
g69
I3
ssg70
Nsg63
(lp2436
g56
(g72
g58
NtRp2437
(dp2438
g61
(dp2439
sg70
g2433
sg63
(lp2440
g56
(g77
g58
NtRp2441
(dp2442
g61
(dp2443
g81
g82
ssg70
g2437
sg63
(lp2444
S'HTTP_ACCEPT'
p2445
asbag56
(g77
g58
NtRp2446
(dp2447
g61
(dp2448
g88
g89
ssg70
g2437
sg63
(lp2449
S':'
asbag56
(g77
g58
NtRp2450
(dp2451
g61
(dp2452
sg70
g2437
sg63
(lp2453
g56
(g57
g58
NtRp2454
(dp2455
g61
(dp2456
g69
I3
ssg70
g2450
sg63
(lp2457
g1029
asbasbasbag56
(g72
g58
NtRp2458
(dp2459
g61
(dp2460
sg70
g2433
sg63
(lp2461
g56
(g77
g58
NtRp2462
(dp2463
g61
(dp2464
g81
g82
ssg70
g2458
sg63
(lp2465
S'HTTP_ACCEPT_ENCODING'
p2466
asbag56
(g77
g58
NtRp2467
(dp2468
g61
(dp2469
g88
g89
ssg70
g2458
sg63
(lp2470
S':'
asbag56
(g77
g58
NtRp2471
(dp2472
g61
(dp2473
sg70
g2458
sg63
(lp2474
g56
(g57
g58
NtRp2475
(dp2476
g61
(dp2477
g69
I3
ssg70
g2471
sg63
(lp2478
g1051
asbasbasbag56
(g72
g58
NtRp2479
(dp2480
g61
(dp2481
sg70
g2433
sg63
(lp2482
g56
(g77
g58
NtRp2483
(dp2484
g61
(dp2485
g81
g82
ssg70
g2479
sg63
(lp2486
S'HTTP_ACCEPT_LANGUAGE'
p2487
asbag56
(g77
g58
NtRp2488
(dp2489
g61
(dp2490
g88
g89
ssg70
g2479
sg63
(lp2491
S':'
asbag56
(g77
g58
NtRp2492
(dp2493
g61
(dp2494
sg70
g2479
sg63
(lp2495
g56
(g57
g58
NtRp2496
(dp2497
g61
(dp2498
g69
I3
ssg70
g2492
sg63
(lp2499
g1073
asbasbasbag56
(g72
g58
NtRp2500
(dp2501
g61
(dp2502
sg70
g2433
sg63
(lp2503
g56
(g77
g58
NtRp2504
(dp2505
g61
(dp2506
g81
g82
ssg70
g2500
sg63
(lp2507
S'HTTP_CONNECTION'
p2508
asbag56
(g77
g58
NtRp2509
(dp2510
g61
(dp2511
g88
g89
ssg70
g2500
sg63
(lp2512
S':'
asbag56
(g77
g58
NtRp2513
(dp2514
g61
(dp2515
sg70
g2500
sg63
(lp2516
g56
(g57
g58
NtRp2517
(dp2518
g61
(dp2519
g69
I3
ssg70
g2513
sg63
(lp2520
g1095
asbasbasbag56
(g72
g58
NtRp2521
(dp2522
g61
(dp2523
sg70
g2433
sg63
(lp2524
g56
(g77
g58
NtRp2525
(dp2526
g61
(dp2527
g81
g82
ssg70
g2521
sg63
(lp2528
S'HTTP_COOKIE'
p2529
asbag56
(g77
g58
NtRp2530
(dp2531
g61
(dp2532
g88
g89
ssg70
g2521
sg63
(lp2533
S':'
asbag56
(g77
g58
NtRp2534
(dp2535
g61
(dp2536
sg70
g2521
sg63
(lp2537
g56
(g57
g58
NtRp2538
(dp2539
g61
(dp2540
g69
I3
ssg70
g2534
sg63
(lp2541
g1117
asbasbasbag56
(g72
g58
NtRp2542
(dp2543
g61
(dp2544
sg70
g2433
sg63
(lp2545
g56
(g77
g58
NtRp2546
(dp2547
g61
(dp2548
g81
g82
ssg70
g2542
sg63
(lp2549
S'HTTP_HOST'
p2550
asbag56
(g77
g58
NtRp2551
(dp2552
g61
(dp2553
g88
g89
ssg70
g2542
sg63
(lp2554
S':'
asbag56
(g77
g58
NtRp2555
(dp2556
g61
(dp2557
sg70
g2542
sg63
(lp2558
g56
(g57
g58
NtRp2559
(dp2560
g61
(dp2561
g69
I3
ssg70
g2555
sg63
(lp2562
g1139
asbasbasbag56
(g72
g58
NtRp2563
(dp2564
g61
(dp2565
sg70
g2433
sg63
(lp2566
g56
(g77
g58
NtRp2567
(dp2568
g61
(dp2569
g81
g82
ssg70
g2563
sg63
(lp2570
S'HTTP_REFERER'
p2571
asbag56
(g77
g58
NtRp2572
(dp2573
g61
(dp2574
g88
g89
ssg70
g2563
sg63
(lp2575
S':'
asbag56
(g77
g58
NtRp2576
(dp2577
g61
(dp2578
sg70
g2563
sg63
(lp2579
g56
(g57
g58
NtRp2580
(dp2581
g61
(dp2582
g69
I3
ssg70
g2576
sg63
(lp2583
g1161
asbasbasbag56
(g72
g58
NtRp2584
(dp2585
g61
(dp2586
sg70
g2433
sg63
(lp2587
g56
(g77
g58
NtRp2588
(dp2589
g61
(dp2590
g81
g82
ssg70
g2584
sg63
(lp2591
S'HTTP_USER_AGENT'
p2592
asbag56
(g77
g58
NtRp2593
(dp2594
g61
(dp2595
g88
g89
ssg70
g2584
sg63
(lp2596
S':'
asbag56
(g77
g58
NtRp2597
(dp2598
g61
(dp2599
sg70
g2584
sg63
(lp2600
g56
(g57
g58
NtRp2601
(dp2602
g61
(dp2603
g69
I3
ssg70
g2597
sg63
(lp2604
g1183
asbasbasbag56
(g72
g58
NtRp2605
(dp2606
g61
(dp2607
sg70
g2433
sg63
(lp2608
g56
(g77
g58
NtRp2609
(dp2610
g61
(dp2611
g81
g82
ssg70
g2605
sg63
(lp2612
S'HTTP_X_REQUESTED_WITH'
p2613
asbag56
(g77
g58
NtRp2614
(dp2615
g61
(dp2616
g88
g89
ssg70
g2605
sg63
(lp2617
S':'
asbag56
(g77
g58
NtRp2618
(dp2619
g61
(dp2620
sg70
g2605
sg63
(lp2621
g56
(g57
g58
NtRp2622
(dp2623
g61
(dp2624
g69
I3
ssg70
g2618
sg63
(lp2625
g1205
asbasbasbag56
(g72
g58
NtRp2626
(dp2627
g61
(dp2628
sg70
g2433
sg63
(lp2629
g56
(g77
g58
NtRp2630
(dp2631
g61
(dp2632
g81
g82
ssg70
g2626
sg63
(lp2633
S'PATH_INFO'
p2634
asbag56
(g77
g58
NtRp2635
(dp2636
g61
(dp2637
g88
g89
ssg70
g2626
sg63
(lp2638
S':'
asbag56
(g77
g58
NtRp2639
(dp2640
g61
(dp2641
sg70
g2626
sg63
(lp2642
g56
(g57
g58
NtRp2643
(dp2644
g61
(dp2645
g69
I3
ssg70
g2639
sg63
(lp2646
g1248
asbasbasbag56
(g72
g58
NtRp2647
(dp2648
g61
(dp2649
sg70
g2433
sg63
(lp2650
g56
(g77
g58
NtRp2651
(dp2652
g61
(dp2653
g81
g82
ssg70
g2647
sg63
(lp2654
S'QUERY_STRING'
p2655
asbag56
(g77
g58
NtRp2656
(dp2657
g61
(dp2658
g88
g89
ssg70
g2647
sg63
(lp2659
S':'
asbag56
(g77
g58
NtRp2660
(dp2661
g61
(dp2662
sg70
g2647
sg63
(lp2663
g56
(g57
g58
NtRp2664
(dp2665
g61
(dp2666
g69
I3
ssg70
g2660
sg63
(lp2667
S''
asbasbasbag56
(g72
g58
NtRp2668
(dp2669
g61
(dp2670
sg70
g2433
sg63
(lp2671
g56
(g77
g58
NtRp2672
(dp2673
g61
(dp2674
g81
g82
ssg70
g2668
sg63
(lp2675
S'REMOTE_ADDR'
p2676
asbag56
(g77
g58
NtRp2677
(dp2678
g61
(dp2679
g88
g89
ssg70
g2668
sg63
(lp2680
S':'
asbag56
(g77
g58
NtRp2681
(dp2682
g61
(dp2683
sg70
g2668
sg63
(lp2684
g56
(g57
g58
NtRp2685
(dp2686
g61
(dp2687
g69
I3
ssg70
g2681
sg63
(lp2688
g215
asbasbasbag56
(g72
g58
NtRp2689
(dp2690
g61
(dp2691
sg70
g2433
sg63
(lp2692
g56
(g77
g58
NtRp2693
(dp2694
g61
(dp2695
g81
g82
ssg70
g2689
sg63
(lp2696
S'REMOTE_PORT'
p2697
asbag56
(g77
g58
NtRp2698
(dp2699
g61
(dp2700
g88
g89
ssg70
g2689
sg63
(lp2701
S':'
asbag56
(g77
g58
NtRp2702
(dp2703
g61
(dp2704
sg70
g2689
sg63
(lp2705
g56
(g57
g58
NtRp2706
(dp2707
g61
(dp2708
g69
I3
ssg70
g2702
sg63
(lp2709
g1312
asbasbasbag56
(g72
g58
NtRp2710
(dp2711
g61
(dp2712
sg70
g2433
sg63
(lp2713
g56
(g77
g58
NtRp2714
(dp2715
g61
(dp2716
g81
g82
ssg70
g2710
sg63
(lp2717
S'REQUEST_METHOD'
p2718
asbag56
(g77
g58
NtRp2719
(dp2720
g61
(dp2721
g88
g89
ssg70
g2710
sg63
(lp2722
S':'
asbag56
(g77
g58
NtRp2723
(dp2724
g61
(dp2725
sg70
g2710
sg63
(lp2726
g56
(g57
g58
NtRp2727
(dp2728
g61
(dp2729
g69
I3
ssg70
g2723
sg63
(lp2730
g1334
asbasbasbag56
(g72
g58
NtRp2731
(dp2732
g61
(dp2733
sg70
g2433
sg63
(lp2734
g56
(g77
g58
NtRp2735
(dp2736
g61
(dp2737
g81
g82
ssg70
g2731
sg63
(lp2738
S'SCRIPT_NAME'
p2739
asbag56
(g77
g58
NtRp2740
(dp2741
g61
(dp2742
g88
g89
ssg70
g2731
sg63
(lp2743
S':'
asbag56
(g77
g58
NtRp2744
(dp2745
g61
(dp2746
sg70
g2731
sg63
(lp2747
g56
(g57
g58
NtRp2748
(dp2749
g61
(dp2750
g69
I3
ssg70
g2744
sg63
(lp2751
S''
asbasbasbag56
(g72
g58
NtRp2752
(dp2753
g61
(dp2754
sg70
g2433
sg63
(lp2755
g56
(g77
g58
NtRp2756
(dp2757
g61
(dp2758
g81
g82
ssg70
g2752
sg63
(lp2759
S'SERVER_NAME'
p2760
asbag56
(g77
g58
NtRp2761
(dp2762
g61
(dp2763
g88
g89
ssg70
g2752
sg63
(lp2764
S':'
asbag56
(g77
g58
NtRp2765
(dp2766
g61
(dp2767
sg70
g2752
sg63
(lp2768
g56
(g57
g58
NtRp2769
(dp2770
g61
(dp2771
g69
I3
ssg70
g2765
sg63
(lp2772
g1377
asbasbasbag56
(g72
g58
NtRp2773
(dp2774
g61
(dp2775
sg70
g2433
sg63
(lp2776
g56
(g77
g58
NtRp2777
(dp2778
g61
(dp2779
g81
g82
ssg70
g2773
sg63
(lp2780
S'SERVER_PORT'
p2781
asbag56
(g77
g58
NtRp2782
(dp2783
g61
(dp2784
g88
g89
ssg70
g2773
sg63
(lp2785
S':'
asbag56
(g77
g58
NtRp2786
(dp2787
g61
(dp2788
sg70
g2773
sg63
(lp2789
g56
(g57
g58
NtRp2790
(dp2791
g61
(dp2792
g69
I3
ssg70
g2786
sg63
(lp2793
g1399
asbasbasbag56
(g72
g58
NtRp2794
(dp2795
g61
(dp2796
sg70
g2433
sg63
(lp2797
g56
(g77
g58
NtRp2798
(dp2799
g61
(dp2800
g81
g82
ssg70
g2794
sg63
(lp2801
S'SERVER_PROTOCOL'
p2802
asbag56
(g77
g58
NtRp2803
(dp2804
g61
(dp2805
g88
g89
ssg70
g2794
sg63
(lp2806
S':'
asbag56
(g77
g58
NtRp2807
(dp2808
g61
(dp2809
sg70
g2794
sg63
(lp2810
g56
(g57
g58
NtRp2811
(dp2812
g61
(dp2813
g69
I3
ssg70
g2807
sg63
(lp2814
g1421
asbasbasbag56
(g72
g58
NtRp2815
(dp2816
g61
(dp2817
sg70
g2433
sg63
(lp2818
g56
(g77
g58
NtRp2819
(dp2820
g61
(dp2821
g81
g82
ssg70
g2815
sg63
(lp2822
S'SERVER_SOFTWARE'
p2823
asbag56
(g77
g58
NtRp2824
(dp2825
g61
(dp2826
g88
g89
ssg70
g2815
sg63
(lp2827
S':'
asbag56
(g77
g58
NtRp2828
(dp2829
g61
(dp2830
sg70
g2815
sg63
(lp2831
g56
(g57
g58
NtRp2832
(dp2833
g61
(dp2834
g69
I3
ssg70
g2828
sg63
(lp2835
g1443
asbasbasbag56
(g72
g58
NtRp2836
(dp2837
g61
(dp2838
sg70
g2433
sg63
(lp2839
g56
(g77
g58
NtRp2840
(dp2841
g61
(dp2842
g81
g82
ssg70
g2836
sg63
(lp2843
S'wsgi.errors'
p2844
asbag56
(g77
g58
NtRp2845
(dp2846
g61
(dp2847
g88
g89
ssg70
g2836
sg63
(lp2848
S':'
asbag56
(g77
g58
NtRp2849
(dp2850
g61
(dp2851
sg70
g2836
sg63
(lp2852
g56
(g57
g58
NtRp2853
(dp2854
g61
(dp2855
g69
I3
ssg70
g2849
sg63
(lp2856
S"<open file '<stderr>', mode 'w' at 0x7f84db3ff270>"
p2857
asbasbasbag56
(g72
g58
NtRp2858
(dp2859
g61
(dp2860
sg70
g2433
sg63
(lp2861
g56
(g77
g58
NtRp2862
(dp2863
g61
(dp2864
g81
g82
ssg70
g2858
sg63
(lp2865
S'wsgi.file_wrapper'
p2866
asbag56
(g77
g58
NtRp2867
(dp2868
g61
(dp2869
g88
g89
ssg70
g2858
sg63
(lp2870
S':'
asbag56
(g77
g58
NtRp2871
(dp2872
g61
(dp2873
sg70
g2858
sg63
(lp2874
g56
(g57
g58
NtRp2875
(dp2876
g61
(dp2877
g69
I3
ssg70
g2871
sg63
(lp2878
S'<class wsgiref.util.FileWrapper at 0x1b96d50>'
p2879
asbasbasbag56
(g72
g58
NtRp2880
(dp2881
g61
(dp2882
sg70
g2433
sg63
(lp2883
g56
(g77
g58
NtRp2884
(dp2885
g61
(dp2886
g81
g82
ssg70
g2880
sg63
(lp2887
S'wsgi.input'
p2888
asbag56
(g77
g58
NtRp2889
(dp2890
g61
(dp2891
g88
g89
ssg70
g2880
sg63
(lp2892
S':'
asbag56
(g77
g58
NtRp2893
(dp2894
g61
(dp2895
sg70
g2880
sg63
(lp2896
g56
(g57
g58
NtRp2897
(dp2898
g61
(dp2899
g69
I3
ssg70
g2893
sg63
(lp2900
S'<cStringIO.StringO object at 0x24d9b90>'
p2901
asbasbasbag56
(g72
g58
NtRp2902
(dp2903
g61
(dp2904
sg70
g2433
sg63
(lp2905
g56
(g77
g58
NtRp2906
(dp2907
g61
(dp2908
g81
g82
ssg70
g2902
sg63
(lp2909
S'wsgi.multiprocess'
p2910
asbag56
(g77
g58
NtRp2911
(dp2912
g61
(dp2913
g88
g89
ssg70
g2902
sg63
(lp2914
S':'
asbag56
(g77
g58
NtRp2915
(dp2916
g61
(dp2917
sg70
g2902
sg63
(lp2918
g56
(g57
g58
NtRp2919
(dp2920
g61
(dp2921
g69
I3
ssg70
g2915
sg63
(lp2922
g985
asbasbasbag56
(g72
g58
NtRp2923
(dp2924
g61
(dp2925
sg70
g2433
sg63
(lp2926
g56
(g77
g58
NtRp2927
(dp2928
g61
(dp2929
g81
g82
ssg70
g2923
sg63
(lp2930
S'wsgi.multithread'
p2931
asbag56
(g77
g58
NtRp2932
(dp2933
g61
(dp2934
g88
g89
ssg70
g2923
sg63
(lp2935
S':'
asbag56
(g77
g58
NtRp2936
(dp2937
g61
(dp2938
sg70
g2923
sg63
(lp2939
g56
(g57
g58
NtRp2940
(dp2941
g61
(dp2942
g69
I3
ssg70
g2936
sg63
(lp2943
g99
asbasbasbag56
(g72
g58
NtRp2944
(dp2945
g61
(dp2946
sg70
g2433
sg63
(lp2947
g56
(g77
g58
NtRp2948
(dp2949
g61
(dp2950
g81
g82
ssg70
g2944
sg63
(lp2951
S'wsgi.run_once'
p2952
asbag56
(g77
g58
NtRp2953
(dp2954
g61
(dp2955
g88
g89
ssg70
g2944
sg63
(lp2956
S':'
asbag56
(g77
g58
NtRp2957
(dp2958
g61
(dp2959
sg70
g2944
sg63
(lp2960
g56
(g57
g58
NtRp2961
(dp2962
g61
(dp2963
g69
I3
ssg70
g2957
sg63
(lp2964
g985
asbasbasbag56
(g72
g58
NtRp2965
(dp2966
g61
(dp2967
sg70
g2433
sg63
(lp2968
g56
(g77
g58
NtRp2969
(dp2970
g61
(dp2971
g81
g82
ssg70
g2965
sg63
(lp2972
S'wsgi.url_scheme'
p2973
asbag56
(g77
g58
NtRp2974
(dp2975
g61
(dp2976
g88
g89
ssg70
g2965
sg63
(lp2977
S':'
asbag56
(g77
g58
NtRp2978
(dp2979
g61
(dp2980
sg70
g2965
sg63
(lp2981
g56
(g57
g58
NtRp2982
(dp2983
g61
(dp2984
g69
I3
ssg70
g2978
sg63
(lp2985
g1725
asbasbasbag56
(g72
g58
NtRp2986
(dp2987
g61
(dp2988
sg70
g2433
sg63
(lp2989
g56
(g77
g58
NtRp2990
(dp2991
g61
(dp2992
g81
g82
ssg70
g2986
sg63
(lp2993
S'wsgi.version'
p2994
asbag56
(g77
g58
NtRp2995
(dp2996
g61
(dp2997
g88
g89
ssg70
g2986
sg63
(lp2998
S':'
asbag56
(g77
g58
NtRp2999
(dp3000
g61
(dp3001
sg70
g2986
sg63
(lp3002
g56
(g57
g58
NtRp3003
(dp3004
g61
(dp3005
g69
I3
ssg70
g2999
sg63
(lp3006
S'1'
asbasbasbasbasbasbasbasbasbasbasbasbasbsS'frames'
p3007
(lp3008
(dp3009
S'file'
p3010
S'/home/jose/DESARROLLO/web2py199/gluon/restricted.py'
p3011
sS'dump'
p3012
(dp3013
S'environment'
p3014
S"{'A': <class 'gluon.html.A'>, 'Auth': <class 'gluon.tools.Auth'>, 'B': <class 'gluon.html.B'>, 'BEAUTIFY': <class 'gluon.html.BEAUTIFY'>, 'BODY': <class 'gluon.html.BODY'>, 'BR': <class 'gluon.html.BR'>, 'BUTTON': <class 'gluon.html.BUTTON'>, 'CAT': <class 'gluon.html.CAT'>, 'CENTER': <class 'gluon.html.CENTER'>, 'CLEANUP': <class 'gluon.validators.CLEANUP'>, ...}"
p3015
sS'ccode'
p3016
S'<code object <module> at 0x36a84b0, file "/home/...tions/streamlog/controllers/default.py", line 14>'
p3017
ssS'lnum'
p3018
I194
sS'lines'
p3019
(dp3020
I192
S'        else:'
p3021
sI193
S'            ccode = compile2(code,layer)'
p3022
sI194
S'        exec ccode in environment'
p3023
sI195
S'    except HTTP:'
p3024
sI196
S'        raise'
p3025
sI197
S'    except Exception, error:'
p3026
sI198
S'        # XXX Show exception in Wing IDE if running in debugger'
p3027
sI189
S'    try:'
p3028
sI190
S'        if type(code) == types.CodeType:'
p3029
sI191
S'            ccode = code'
p3030
ssS'call'
p3031
S"(code='# -*- coding: utf-8 -*-\\n# this file is released ...m=crud())\\n\\nresponse._vars=response._caller(call)\\n', environment={'A': <class 'gluon.html.A'>, 'Auth': <class 'gluon.tools.Auth'>, 'B': <class 'gluon.html.B'>, 'BEAUTIFY': <class 'gluon.html.BEAUTIFY'>, 'BODY': <class 'gluon.html.BODY'>, 'BR': <class 'gluon.html.BR'>, 'BUTTON': <class 'gluon.html.BUTTON'>, 'CAT': <class 'gluon.html.CAT'>, 'CENTER': <class 'gluon.html.CENTER'>, 'CLEANUP': <class 'gluon.validators.CLEANUP'>, ...}, layer='/home/jose/DESARROLLO/web2py199/applications/streamlog/controllers/default.py')"
p3032
sS'func'
p3033
S'restricted'
p3034
sa(dp3035
g3010
S'/home/jose/DESARROLLO/web2py199/applications/streamlog/controllers/default.py'
p3036
sg3012
(dp3037
sg3018
I176
sg3019
(dp3038
I165
S'    http://..../[app]/default/data/update/[table]/[id]'
p3039
sI166
S'    http://..../[app]/default/data/delete/[table]/[id]'
p3040
sI167
S'    http://..../[app]/default/data/select/[table]'
p3041
sI168
S'    http://..../[app]/default/data/search/[table]'
p3042
sI169
S'    but URLs bust be signed, i.e. linked with'
p3043
sI170
S"      A('table',_href=URL('data/tables',user_signature=True))"
p3044
sI171
S'    or with the signed load operator'
p3045
sI172
S"      LOAD('default','data.load',args='tables',ajax=True,user_signature=True)"
p3046
sI173
S'    """'
p3047
sI174
S'    return dict(form=crud())'
p3048
ssg3031
S'()'
p3049
sg3033
S'<module>'
p3050
sa(dp3051
g3010
S'/home/jose/DESARROLLO/web2py199/gluon/globals.py'
p3052
sg3012
(dp3053
S'self'
p3054
S'undefined'
p3055
sS'f'
S'<function call>'
p3056
ssg3018
I149
sg3019
(dp3057
I144
S'        self.meta = Storage()      # used by web2py_ajax.html'
p3058
sI145
S'        self.menu = []             # used by the default view layout'
p3059
sI146
S'        self.files = []            # used by web2py_ajax.html'
p3060
sI147
S'        self.generic_patterns = [] # patterns to allow generic views'
p3061
sI148
S'        self._vars = None'
p3062
sI149
S'        self._caller = lambda f: f()'
p3063
sI150
S'        self._view_environment = None'
p3064
sI151
S'        self._custom_commit = None'
p3065
sI152
S'        self._custom_rollback = None'
p3066
sI153
S''
ssg3031
S'(f=<function call>)'
p3067
sg3033
S'<lambda>'
p3068
sa(dp3069
g3010
S'/home/jose/DESARROLLO/web2py199/applications/streamlog/controllers/default.py'
p3070
sg3012
(dp3071
S'global service'
p3072
S'<gluon.tools.Service object>'
p3073
ssg3018
I156
sg3019
(dp3074
I160
S'def data():'
p3075
sI151
S'    exposes services. for example:'
p3076
sI152
S'    http://..../[app]/default/call/jsonrpc'
p3077
sI153
S'    decorate with @services.jsonrpc the functions to expose'
p3078
sI154
S'    supports xml, json, xmlrpc, jsonrpc, amfrpc, rss, csv'
p3079
sI155
S'    """'
p3080
sI156
S'    return service()'
p3081
sI157
S''
sI158
S''
sI159
S'@auth.requires_signature()'
p3082
ssg3031
S'()'
p3083
sg3033
g3031
sa(dp3084
g3010
S'/home/jose/DESARROLLO/web2py199/gluon/tools.py'
p3085
sg3012
(dp3086
S'request.args'
p3087
S"['json', 'getConnectionData']"
p3088
sS'self.serve_json'
p3089
S'<bound method Service.serve_json of <gluon.tools.Service object>>'
p3090
sS'self'
p3091
S'<gluon.tools.Service object>'
p3092
sS'request'
p3093
S"<Storage {'body': <cStringIO.StringO object at 0..._vars': <Storage {}>, 'post_vars': <Storage {}>}>"
p3094
ssg3018
I3839
sg3019
(dp3095
I3840
S"        elif arg0 == 'jsonrpc':"
p3096
sI3841
S'            return self.serve_jsonrpc()'
p3097
sI3842
S"        elif arg0 == 'xmlrpc':"
p3098
sI3843
S'            return self.serve_xmlrpc()'
p3099
sI3834
S"        elif arg0 == 'csv':"
p3100
sI3835
S'            return self.serve_csv(request.args[1:])'
p3101
sI3836
S"        elif arg0 == 'xml':"
p3102
sI3837
S'            return self.serve_xml(request.args[1:])'
p3103
sI3838
S"        elif arg0 == 'json':"
p3104
sI3839
S'            return self.serve_json(request.args[1:])'
p3105
ssg3031
S'(self=<gluon.tools.Service object>)'
p3106
sg3033
S'__call__'
p3107
sa(dp3108
g3010
S'/home/jose/DESARROLLO/web2py199/gluon/tools.py'
p3109
sg3012
(dp3110
S'args'
p3111
S"['getConnectionData']"
p3112
sS'd'
g44
sS'self'
p3113
S'<gluon.tools.Service object>'
p3114
sS'global universal_caller'
p3115
S'<function universal_caller>'
p3116
sS'self.json_procedures'
p3117
S"{'getConnectionData': <function getConnectionData>}"
p3118
sS's'
g3055
ssg3018
I3656
sg3019
(dp3119
I3651
S"        response.headers['Content-Type'] = 'application/json; charset=utf-8'"
p3120
sI3652
S'        if not args:'
p3121
sI3653
S'            args = request.args'
p3122
sI3654
S'        d = dict(request.vars)'
p3123
sI3655
S'        if args and args[0] in self.json_procedures:'
p3124
sI3656
S'            s = universal_caller(self.json_procedures[args[0]],*args[1:],**d)'
p3125
sI3657
S"            if hasattr(s, 'as_list'):"
p3126
sI3658
S'                s = s.as_list()'
p3127
sI3659
S'            return response.json(s)'
p3128
sI3660
S'        self.error()'
p3129
ssg3031
S"(self=<gluon.tools.Service object>, args=['getConnectionData'])"
p3130
sg3033
S'serve_json'
p3131
sa(dp3132
g3010
S'/home/jose/DESARROLLO/web2py199/gluon/tools.py'
p3133
sg3012
(dp3134
S'arg_dict'
p3135
g44
sS'f'
S'<function getConnectionData>'
p3136
ssg3018
I3348
sg3019
(dp3137
I3343
S'        # However, we need to update the arg_dict with the values from the named arguments as well.'
p3138
sI3344
S'        for arg_name in named_args:'
p3139
sI3345
S'            if b.has_key(arg_name):'
p3140
sI3346
S'                arg_dict[arg_name] = b[arg_name]'
p3141
sI3347
S''
sI3348
S'        return f(**arg_dict)'
p3142
sI3349
S''
sI3350
S'    # Raise an error, the function cannot be called.'
p3143
sI3351
S'    raise HTTP(404, "Object does not exist")'
p3144
sI3352
S''
ssg3031
S'(f=<function getConnectionData>, *a=(), **b={})'
p3145
sg3033
S'universal_caller'
p3146
sa(dp3147
g3010
S'/home/jose/DESARROLLO/web2py199/applications/streamlog/controllers/default.py'
p3148
sg3012
(dp3149
S'db.t_server.port'
p3150
S'<gluon.dal.Field object>'
p3151
sS'db.t_log.name'
p3152
S'<gluon.dal.Field object>'
p3153
sS'data_connection'
p3154
g3055
sS'db.t_server.id'
p3155
S'<gluon.dal.Field object>'
p3156
sS').select'
p3157
g3055
sS'db.t_log.server'
p3158
S'<gluon.dal.Field object>'
p3159
sS'id_log'
p3160
S"'json'"
p3161
sS'db.t_log'
p3162
S"<Table {'ALL': <gluon.dal.SQLALL object at 0x36a...ription': <gluon.dal.Field object at 0x36a3250>}>"
p3163
sS'global db'
p3164
S"<DAL {'auth_event': <Table {'origin': <gluon.dal..., 'id': <gluon.dal.Field object at 0x36d8610>}>}>"
p3165
sS'db.t_server.IP'
p3166
S'<gluon.dal.Field object>'
p3167
sS'db.t_log.id'
p3168
S'<gluon.dal.Field object>'
p3169
sS'db.t_server'
p3170
S"<Table {'project': <gluon.dal.Field object at 0x...ription': <gluon.dal.Field object at 0x36cca10>}>"
p3171
ssg3018
I31
sg3019
(dp3172
I32
S''
sI33
S'    for row in data_connection:'
p3173
sI34
S'        ip=row.IP'
p3174
sI35
S'        port=row.port'
p3175
sI26
S'    id_log=request.args[0]'
p3176
sI27
S"    ip=''"
p3177
sI28
S"    port=''"
p3178
sI29
S"    name_log=''"
p3179
sI30
S''
sI31
S'    data_connection=db((db.t_log.id==id_log)&(db.t_log.server==db.t_server.id)).select(db.t_log.name,db.t_server.IP,db.t_server.port)'
p3180
ssg3031
S'()'
p3181
sg3033
S'getConnectionData'
p3182
sa(dp3183
g3010
S'/home/jose/DESARROLLO/web2py199/gluon/dal.py'
p3184
sg3012
(dp3185
S'self.query'
p3186
S'<gluon.dal.Query object>'
p3187
sS'fields'
p3188
S'(<gluon.dal.Field object>, <gluon.dal.Field object>, <gluon.dal.Field object>)'
p3189
sS'self'
p3190
S'<gluon.dal.Set object>'
p3191
sS'self.db._adapter.select'
p3192
S'<bound method SQLiteAdapter.select of <gluon.dal.SQLiteAdapter object>>'
p3193
sS'self.db._adapter'
p3194
S'<gluon.dal.SQLiteAdapter object>'
p3195
sS'attributes'
p3196
g44
sS'self.db'
p3197
S"<DAL {'auth_event': <Table {'origin': <gluon.dal..., 'id': <gluon.dal.Field object at 0x36d8610>}>}>"
p3198
ssg3018
I5697
sg3019
(dp3199
I5696
S'    def select(self, *fields, **attributes):'
p3200
sI5697
S'        return self.db._adapter.select(self.query,fields,attributes)'
p3201
sI5698
S''
sI5699
S'    def delete(self):'
p3202
sI5700
S'        tablename=self.db._adapter.get_table(self.query)'
p3203
sI5701
S'        self.delete_uploaded_files()'
p3204
sI5692
S''
sI5693
S'    def count(self,distinct=None):'
p3205
sI5694
S'        return self.db._adapter.count(self.query,distinct)'
p3206
sI5695
S''
ssg3031
S'(self=<gluon.dal.Set object>, *fields=(<gluon.dal.Field object>, <gluon.dal.Field object>, <gluon.dal.Field object>), **attributes={})'
p3207
sg3033
S'select'
p3208
sa(dp3209
g3010
S'/home/jose/DESARROLLO/web2py199/gluon/dal.py'
p3210
sg3012
(dp3211
S'self._select'
p3212
S'<bound method SQLiteAdapter._select of <gluon.dal.SQLiteAdapter object>>'
p3213
sS'fields'
p3214
S'(<gluon.dal.Field object>, <gluon.dal.Field object>, <gluon.dal.Field object>)'
p3215
sS'self'
p3216
S'<gluon.dal.SQLiteAdapter object>'
p3217
sS'sql'
p3218
g3055
sS'query'
p3219
S'<gluon.dal.Query object>'
p3220
sS'attributes'
p3221
g44
ssg3018
I1225
sg3019
(dp3222
I1220
S'        Always returns a Rows object, even if it may be empty'
p3223
sI1221
S'        """'
p3224
sI1222
S'        def response(sql):'
p3225
sI1223
S'            self.execute(sql)'
p3226
sI1224
S'            return self.cursor.fetchall()'
p3227
sI1225
S'        sql = self._select(query,fields,attributes)'
p3228
sI1226
S"        if attributes.get('cache', None):"
p3229
sI1227
S"            (cache_model, time_expire) = attributes['cache']"
p3230
sI1228
S"            del attributes['cache']"
p3231
sI1229
S"            key = self.uri + '/' + sql"
p3232
ssg3031
S'(self=<gluon.dal.SQLiteAdapter object>, query=<gluon.dal.Query object>, fields=(<gluon.dal.Field object>, <gluon.dal.Field object>, <gluon.dal.Field object>), attributes={})'
p3233
sg3033
g3208
sa(dp3234
g3010
S'/home/jose/DESARROLLO/web2py199/gluon/dal.py'
p3235
sg3012
(dp3236
S'query'
p3237
S'<gluon.dal.Query object>'
p3238
sS'self'
p3239
S'<gluon.dal.SQLiteAdapter object>'
p3240
sS'sql_w'
p3241
g3055
sS'self.expand'
p3242
S'<bound method SQLiteAdapter.expand of <gluon.dal.SQLiteAdapter object>>'
p3243
ssg3018
I1132
sg3019
(dp3244
I1127
S'        if len(tablenames) < 1:'
p3245
sI1128
S"            raise SyntaxError, 'Set: no tables selected'"
p3246
sI1129
S"        sql_f = ', '.join(map(self.expand,fields))"
p3247
sI1130
S"        self._colnames = [c.strip() for c in sql_f.split(', ')]"
p3248
sI1131
S'        if query:'
p3249
sI1132
S"            sql_w = ' WHERE ' + self.expand(query)"
p3250
sI1133
S'        else:'
p3251
sI1134
S"            sql_w = ''"
p3252
sI1135
S"        sql_o = ''"
p3253
sI1136
S"        sql_s = ''"
p3254
ssg3031
S'(self=<gluon.dal.SQLiteAdapter object>, query=<gluon.dal.Query object>, fields=[<gluon.dal.Field object>, <gluon.dal.Field object>, <gluon.dal.Field object>], attributes={})'
p3255
sg3033
S'_select'
p3256
sa(dp3257
g3010
S'/home/jose/DESARROLLO/web2py199/gluon/dal.py'
p3258
sg3012
(dp3259
S'expression.op'
p3260
S'<bound method SQLiteAdapter.AND of <gluon.dal.SQLiteAdapter object>>'
p3261
sS'expression'
p3262
S'<gluon.dal.Query object>'
p3263
sS'expression.first'
p3264
S'<gluon.dal.Query object>'
p3265
sS'expression.second'
p3266
S'<gluon.dal.Query object>'
p3267
ssg3018
I987
sg3019
(dp3268
I982
S'    def expand(self,expression,field_type=None):'
p3269
sI983
S'        if isinstance(expression,Field):'
p3270
sI984
S'            return str(expression)'
p3271
sI985
S'        elif isinstance(expression, (Expression, Query)):'
p3272
sI986
S'            if not expression.second is None:'
p3273
sI987
S'                return expression.op(expression.first, expression.second)'
p3274
sI988
S'            elif not expression.first is None:'
p3275
sI989
S'                return expression.op(expression.first)'
p3276
sI990
S'            elif not isinstance(expression.op,str):'
p3277
sI991
S'                return expression.op()'
p3278
ssg3031
S'(self=<gluon.dal.SQLiteAdapter object>, expression=<gluon.dal.Query object>, field_type=None)'
p3279
sg3033
S'expand'
p3280
sa(dp3281
g3010
S'/home/jose/DESARROLLO/web2py199/gluon/dal.py'
p3282
sg3012
(dp3283
S'self'
p3284
S'<gluon.dal.SQLiteAdapter object>'
p3285
sS'first'
p3286
S'<gluon.dal.Query object>'
p3287
sS'second'
p3288
S'<gluon.dal.Query object>'
p3289
sS'self.expand'
p3290
S'<bound method SQLiteAdapter.expand of <gluon.dal.SQLiteAdapter object>>'
p3291
ssg3018
I904
sg3019
(dp3292
I899
S''
sI900
S'    def NOT(self,first):'
p3293
sI901
S"        return '(NOT %s)' % self.expand(first)"
p3294
sI902
S''
sI903
S'    def AND(self,first,second):'
p3295
sI904
S"        return '(%s AND %s)' % (self.expand(first),self.expand(second))"
p3296
sI905
S''
sI906
S'    def OR(self,first,second):'
p3297
sI907
S"        return '(%s OR %s)' % (self.expand(first),self.expand(second))"
p3298
sI908
S''
ssg3031
S'(self=<gluon.dal.SQLiteAdapter object>, first=<gluon.dal.Query object>, second=<gluon.dal.Query object>)'
p3299
sg3033
S'AND'
p3300
sa(dp3301
g3010
S'/home/jose/DESARROLLO/web2py199/gluon/dal.py'
p3302
sg3012
(dp3303
S'expression.op'
p3304
S'<bound method SQLiteAdapter.EQ of <gluon.dal.SQLiteAdapter object>>'
p3305
sS'expression'
p3306
S'<gluon.dal.Query object>'
p3307
sS'expression.first'
p3308
S'<gluon.dal.Field object>'
p3309
sS'expression.second'
p3310
S"'json'"
p3311
ssg3018
I987
sg3019
(dp3312
I982
S'    def expand(self,expression,field_type=None):'
p3313
sI983
S'        if isinstance(expression,Field):'
p3314
sI984
S'            return str(expression)'
p3315
sI985
S'        elif isinstance(expression, (Expression, Query)):'
p3316
sI986
S'            if not expression.second is None:'
p3317
sI987
S'                return expression.op(expression.first, expression.second)'
p3318
sI988
S'            elif not expression.first is None:'
p3319
sI989
S'                return expression.op(expression.first)'
p3320
sI990
S'            elif not isinstance(expression.op,str):'
p3321
sI991
S'                return expression.op()'
p3322
ssg3031
S'(self=<gluon.dal.SQLiteAdapter object>, expression=<gluon.dal.Query object>, field_type=None)'
p3323
sg3033
g3280
sa(dp3324
g3010
S'/home/jose/DESARROLLO/web2py199/gluon/dal.py'
p3325
sg3012
(dp3326
S'first.type'
p3327
S"'id'"
p3328
sS'self'
p3329
S'<gluon.dal.SQLiteAdapter object>'
p3330
sS'first'
p3331
S'<gluon.dal.Field object>'
p3332
sS'second'
p3333
S"'json'"
p3334
sS'self.expand'
p3335
S'<bound method SQLiteAdapter.expand of <gluon.dal.SQLiteAdapter object>>'
p3336
ssg3018
I936
sg3019
(dp3337
I931
S"        return '(%s LIKE %s)' % (self.expand(first),self.expand(key,'string'))"
p3338
sI932
S''
sI933
S'    def EQ(self,first,second=None):'
p3339
sI934
S'        if second is None:'
p3340
sI935
S"            return '(%s IS NULL)' % self.expand(first)"
p3341
sI936
S"        return '(%s = %s)' % (self.expand(first),self.expand(second,first.type))"
p3342
sI937
S''
sI938
S'    def NE(self,first,second=None):'
p3343
sI939
S'        if second is None:'
p3344
sI940
S"            return '(%s IS NOT NULL)' % self.expand(first)"
p3345
ssg3031
S"(self=<gluon.dal.SQLiteAdapter object>, first=<gluon.dal.Field object>, second='json')"
p3346
sg3033
S'EQ'
p3347
sa(dp3348
g3010
S'/home/jose/DESARROLLO/web2py199/gluon/dal.py'
p3349
sg3012
(dp3350
S'field_type'
p3351
S"'id'"
p3352
sS'self'
p3353
S'<gluon.dal.SQLiteAdapter object>'
p3354
sS'expression'
p3355
S"'json'"
p3356
sS'self.represent'
p3357
S'<bound method SQLiteAdapter.represent of <gluon.dal.SQLiteAdapter object>>'
p3358
ssg3018
I995
sg3019
(dp3359
I992
S'            else:'
p3360
sI993
S"                return '(%s)' % expression.op"
p3361
sI994
S'        elif field_type:'
p3362
sI995
S'            return self.represent(expression,field_type)'
p3363
sI996
S'        elif isinstance(expression,(list,tuple)):'
p3364
sI997
S"            return ','.join([self.represent(item,field_type) for item in expression])"
p3365
sI998
S'        else:'
p3366
sI999
S'            return str(expression)'
p3367
sI990
S'            elif not isinstance(expression.op,str):'
p3368
sI991
S'                return expression.op()'
p3369
ssg3031
S"(self=<gluon.dal.SQLiteAdapter object>, expression='json', field_type='id')"
p3370
sg3033
g3280
sa(dp3371
g3010
S'/home/jose/DESARROLLO/web2py199/gluon/dal.py'
p3372
sg3012
(dp3373
S'builtinstr'
p3374
S"<type 'str'>"
p3375
sS'builtinint'
p3376
S"<type 'int'>"
p3377
sS'obj'
p3378
S"'json'"
p3379
ssg3018
I1338
sg3019
(dp3380
I1333
S"            if obj and not str(obj)[:1].upper() in ['F', '0']:"
p3381
sI1334
S'                return "\'T\'"'
p3382
sI1335
S'            else:'
p3383
sI1336
S'                return "\'F\'"'
p3384
sI1337
S"        if fieldtype == 'id' or fieldtype == 'integer':"
p3385
sI1338
S'            return str(int(obj))'
p3386
sI1339
S"        if fieldtype.startswith('decimal'):"
p3387
sI1340
S'            return str(obj)'
p3388
sI1341
S"        elif fieldtype.startswith('reference'): # reference"
p3389
sI1342
S"            if fieldtype.find('.')>0:"
p3390
ssg3031
S"(self=<gluon.dal.SQLiteAdapter object>, obj='json', fieldtype='id')"
p3391
sg3033
S'represent'
p3392
sasS'pyver'
p3393
S'Python 2.7.2+: /usr/bin/python'
p3394
sS'session'
p3395
g56
(g57
g58
NtRp3396
(dp3397
g61
(dp3398
sg63
(lp3399
g56
(g65
g58
NtRp3400
(dp3401
g61
(dp3402
g69
I5
ssg70
Nsg63
(lp3403
g56
(g72
g58
NtRp3404
(dp3405
g61
(dp3406
sg70
g3400
sg63
(lp3407
g56
(g77
g58
NtRp3408
(dp3409
g61
(dp3410
g81
g82
ssg70
g3404
sg63
(lp3411
S'auth'
p3412
asbag56
(g77
g58
NtRp3413
(dp3414
g61
(dp3415
g88
g89
ssg70
g3404
sg63
(lp3416
S':'
asbag56
(g77
g58
NtRp3417
(dp3418
g61
(dp3419
sg70
g3404
sg63
(lp3420
g56
(g57
g58
NtRp3421
(dp3422
g61
(dp3423
g69
I5
ssg70
g3417
sg63
(lp3424
g56
(g65
g58
NtRp3425
(dp3426
g61
(dp3427
g69
I4
ssg70
Nsg63
(lp3428
g56
(g72
g58
NtRp3429
(dp3430
g61
(dp3431
sg70
g3425
sg63
(lp3432
g56
(g77
g58
NtRp3433
(dp3434
g61
(dp3435
g81
g82
ssg70
g3429
sg63
(lp3436
S'expiration'
p3437
asbag56
(g77
g58
NtRp3438
(dp3439
g61
(dp3440
g88
g89
ssg70
g3429
sg63
(lp3441
S':'
asbag56
(g77
g58
NtRp3442
(dp3443
g61
(dp3444
sg70
g3429
sg63
(lp3445
g56
(g57
g58
NtRp3446
(dp3447
g61
(dp3448
g69
I4
ssg70
g3442
sg63
(lp3449
S'2592000'
p3450
asbasbasbag56
(g72
g58
NtRp3451
(dp3452
g61
(dp3453
sg70
g3425
sg63
(lp3454
g56
(g77
g58
NtRp3455
(dp3456
g61
(dp3457
g81
g82
ssg70
g3451
sg63
(lp3458
S'hmac_key'
p3459
asbag56
(g77
g58
NtRp3460
(dp3461
g61
(dp3462
g88
g89
ssg70
g3451
sg63
(lp3463
S':'
asbag56
(g77
g58
NtRp3464
(dp3465
g61
(dp3466
sg70
g3451
sg63
(lp3467
g56
(g57
g58
NtRp3468
(dp3469
g61
(dp3470
g69
I4
ssg70
g3464
sg63
(lp3471
S'b954f0e8-95b3-42d2-829e-2e50e94d8454'
p3472
asbasbasbag56
(g72
g58
NtRp3473
(dp3474
g61
(dp3475
sg70
g3425
sg63
(lp3476
g56
(g77
g58
NtRp3477
(dp3478
g61
(dp3479
g81
g82
ssg70
g3473
sg63
(lp3480
S'last_visit'
p3481
asbag56
(g77
g58
NtRp3482
(dp3483
g61
(dp3484
g88
g89
ssg70
g3473
sg63
(lp3485
S':'
asbag56
(g77
g58
NtRp3486
(dp3487
g61
(dp3488
sg70
g3473
sg63
(lp3489
g56
(g57
g58
NtRp3490
(dp3491
g61
(dp3492
g69
I4
ssg70
g3486
sg63
(lp3493
S'datetime.datetime(2012, 5, 26, 18, 42, 33, 844375)'
p3494
asbasbasbag56
(g72
g58
NtRp3495
(dp3496
g61
(dp3497
sg70
g3425
sg63
(lp3498
g56
(g77
g58
NtRp3499
(dp3500
g61
(dp3501
g81
g82
ssg70
g3495
sg63
(lp3502
S'remember'
p3503
asbag56
(g77
g58
NtRp3504
(dp3505
g61
(dp3506
g88
g89
ssg70
g3495
sg63
(lp3507
S':'
asbag56
(g77
g58
NtRp3508
(dp3509
g61
(dp3510
sg70
g3495
sg63
(lp3511
g56
(g57
g58
NtRp3512
(dp3513
g61
(dp3514
g69
I4
ssg70
g3508
sg63
(lp3515
g985
asbasbasbag56
(g72
g58
NtRp3516
(dp3517
g61
(dp3518
sg70
g3425
sg63
(lp3519
g56
(g77
g58
NtRp3520
(dp3521
g61
(dp3522
g81
g82
ssg70
g3516
sg63
(lp3523
S'user'
p3524
asbag56
(g77
g58
NtRp3525
(dp3526
g61
(dp3527
g88
g89
ssg70
g3516
sg63
(lp3528
S':'
asbag56
(g77
g58
NtRp3529
(dp3530
g61
(dp3531
sg70
g3516
sg63
(lp3532
g56
(g57
g58
NtRp3533
(dp3534
g61
(dp3535
g69
I4
ssg70
g3529
sg63
(lp3536
g56
(g65
g58
NtRp3537
(dp3538
g61
(dp3539
g69
I3
ssg70
Nsg63
(lp3540
g56
(g72
g58
NtRp3541
(dp3542
g61
(dp3543
sg70
g3537
sg63
(lp3544
g56
(g77
g58
NtRp3545
(dp3546
g61
(dp3547
g81
g82
ssg70
g3541
sg63
(lp3548
S'email'
p3549
asbag56
(g77
g58
NtRp3550
(dp3551
g61
(dp3552
g88
g89
ssg70
g3541
sg63
(lp3553
S':'
asbag56
(g77
g58
NtRp3554
(dp3555
g61
(dp3556
sg70
g3541
sg63
(lp3557
g56
(g57
g58
NtRp3558
(dp3559
g61
(dp3560
g69
I3
ssg70
g3554
sg63
(lp3561
S'josedesoto@gmail.com'
p3562
asbasbasbag56
(g72
g58
NtRp3563
(dp3564
g61
(dp3565
sg70
g3537
sg63
(lp3566
g56
(g77
g58
NtRp3567
(dp3568
g61
(dp3569
g81
g82
ssg70
g3563
sg63
(lp3570
S'first_name'
p3571
asbag56
(g77
g58
NtRp3572
(dp3573
g61
(dp3574
g88
g89
ssg70
g3563
sg63
(lp3575
S':'
asbag56
(g77
g58
NtRp3576
(dp3577
g61
(dp3578
sg70
g3563
sg63
(lp3579
g56
(g57
g58
NtRp3580
(dp3581
g61
(dp3582
g69
I3
ssg70
g3576
sg63
(lp3583
S'jose'
p3584
asbasbasbag56
(g72
g58
NtRp3585
(dp3586
g61
(dp3587
sg70
g3537
sg63
(lp3588
g56
(g77
g58
NtRp3589
(dp3590
g61
(dp3591
g81
g82
ssg70
g3585
sg63
(lp3592
S'id'
p3593
asbag56
(g77
g58
NtRp3594
(dp3595
g61
(dp3596
g88
g89
ssg70
g3585
sg63
(lp3597
S':'
asbag56
(g77
g58
NtRp3598
(dp3599
g61
(dp3600
sg70
g3585
sg63
(lp3601
g56
(g57
g58
NtRp3602
(dp3603
g61
(dp3604
g69
I3
ssg70
g3598
sg63
(lp3605
S'1'
asbasbasbag56
(g72
g58
NtRp3606
(dp3607
g61
(dp3608
sg70
g3537
sg63
(lp3609
g56
(g77
g58
NtRp3610
(dp3611
g61
(dp3612
g81
g82
ssg70
g3606
sg63
(lp3613
S'last_name'
p3614
asbag56
(g77
g58
NtRp3615
(dp3616
g61
(dp3617
g88
g89
ssg70
g3606
sg63
(lp3618
S':'
asbag56
(g77
g58
NtRp3619
(dp3620
g61
(dp3621
sg70
g3606
sg63
(lp3622
g56
(g57
g58
NtRp3623
(dp3624
g61
(dp3625
g69
I3
ssg70
g3619
sg63
(lp3626
S'jose'
p3627
asbasbasbag56
(g72
g58
NtRp3628
(dp3629
g61
(dp3630
sg70
g3537
sg63
(lp3631
g56
(g77
g58
NtRp3632
(dp3633
g61
(dp3634
g81
g82
ssg70
g3628
sg63
(lp3635
S'password'
p3636
asbag56
(g77
g58
NtRp3637
(dp3638
g61
(dp3639
g88
g89
ssg70
g3628
sg63
(lp3640
S':'
asbag56
(g77
g58
NtRp3641
(dp3642
g61
(dp3643
sg70
g3628
sg63
(lp3644
g56
(g57
g58
NtRp3645
(dp3646
g61
(dp3647
g69
I3
ssg70
g3641
sg63
(lp3648
S'2b32eaa2baa0c63b755a4cde1e4dda83'
p3649
asbasbasbag56
(g72
g58
NtRp3650
(dp3651
g61
(dp3652
sg70
g3537
sg63
(lp3653
g56
(g77
g58
NtRp3654
(dp3655
g61
(dp3656
g81
g82
ssg70
g3650
sg63
(lp3657
S'registration_key'
p3658
asbag56
(g77
g58
NtRp3659
(dp3660
g61
(dp3661
g88
g89
ssg70
g3650
sg63
(lp3662
S':'
asbag56
(g77
g58
NtRp3663
(dp3664
g61
(dp3665
sg70
g3650
sg63
(lp3666
g56
(g57
g58
NtRp3667
(dp3668
g61
(dp3669
g69
I3
ssg70
g3663
sg63
(lp3670
S''
asbasbasbag56
(g72
g58
NtRp3671
(dp3672
g61
(dp3673
sg70
g3537
sg63
(lp3674
g56
(g77
g58
NtRp3675
(dp3676
g61
(dp3677
g81
g82
ssg70
g3671
sg63
(lp3678
S'reset_password_key'
p3679
asbag56
(g77
g58
NtRp3680
(dp3681
g61
(dp3682
g88
g89
ssg70
g3671
sg63
(lp3683
S':'
asbag56
(g77
g58
NtRp3684
(dp3685
g61
(dp3686
sg70
g3671
sg63
(lp3687
g56
(g57
g58
NtRp3688
(dp3689
g61
(dp3690
g69
I3
ssg70
g3684
sg63
(lp3691
S''
asbasbasbasbasbasbasbasbasbasbasbag56
(g72
g58
NtRp3692
(dp3693
g61
(dp3694
sg70
g3400
sg63
(lp3695
g56
(g77
g58
NtRp3696
(dp3697
g61
(dp3698
g81
g82
ssg70
g3692
sg63
(lp3699
S'last_query'
p3700
asbag56
(g77
g58
NtRp3701
(dp3702
g61
(dp3703
g88
g89
ssg70
g3692
sg63
(lp3704
S':'
asbag56
(g77
g58
NtRp3705
(dp3706
g61
(dp3707
sg70
g3692
sg63
(lp3708
g56
(g57
g58
NtRp3709
(dp3710
g61
(dp3711
g69
I5
ssg70
g3705
sg63
(lp3712
S'((db.t_project.user==me)&(db.t_server.project==db.t_project.id)&(db.t_log.server==db.t_server.id))'
p3713
asbasbasbasbasbsS'etype'
p3714
S"<type 'exceptions.ValueError'>"
p3715
sS'date'
p3716
S'Sat May 26 21:27:23 2012'
p3717
sS'response'
p3718
g56
(g57
g58
NtRp3719
(dp3720
g61
(dp3721
sg63
(lp3722
g56
(g65
g58
NtRp3723
(dp3724
g61
(dp3725
g69
I5
ssg70
Nsg63
(lp3726
g56
(g72
g58
NtRp3727
(dp3728
g61
(dp3729
sg70
g3723
sg63
(lp3730
g56
(g77
g58
NtRp3731
(dp3732
g61
(dp3733
g81
g82
ssg70
g3727
sg63
(lp3734
g180
asbag56
(g77
g58
NtRp3735
(dp3736
g61
(dp3737
g88
g89
ssg70
g3727
sg63
(lp3738
S':'
asbag56
(g77
g58
NtRp3739
(dp3740
g61
(dp3741
sg70
g3727
sg63
(lp3742
g56
(g57
g58
NtRp3743
(dp3744
g61
(dp3745
g69
I5
ssg70
g3739
sg63
(lp3746
S'<cStringIO.StringO object at 0x24d96c0>'
p3747
asbasbasbag56
(g72
g58
NtRp3748
(dp3749
g61
(dp3750
sg70
g3723
sg63
(lp3751
g56
(g77
g58
NtRp3752
(dp3753
g61
(dp3754
g81
g82
ssg70
g3748
sg63
(lp3755
g246
asbag56
(g77
g58
NtRp3756
(dp3757
g61
(dp3758
g88
g89
ssg70
g3748
sg63
(lp3759
S':'
asbag56
(g77
g58
NtRp3760
(dp3761
g61
(dp3762
sg70
g3748
sg63
(lp3763
g56
(g57
g58
NtRp3764
(dp3765
g61
(dp3766
g69
I5
ssg70
g3760
sg63
(lp3767
g56
(g65
g58
NtRp3768
(dp3769
g61
(dp3770
g69
I4
ssg70
Nsg63
(lp3771
g56
(g72
g58
NtRp3772
(dp3773
g61
(dp3774
sg70
g3768
sg63
(lp3775
g56
(g77
g58
NtRp3776
(dp3777
g61
(dp3778
g81
g82
ssg70
g3772
sg63
(lp3779
S'session_id_streamlog'
p3780
asbag56
(g77
g58
NtRp3781
(dp3782
g61
(dp3783
g88
g89
ssg70
g3772
sg63
(lp3784
S':'
asbag56
(g77
g58
NtRp3785
(dp3786
g61
(dp3787
sg70
g3772
sg63
(lp3788
g56
(g57
g58
NtRp3789
(dp3790
g61
(dp3791
g69
I4
ssg70
g3785
sg63
(lp3792
g56
(g65
g58
NtRp3793
(dp3794
g61
(dp3795
g69
I3
ssg70
Nsg63
(lp3796
g56
(g72
g58
NtRp3797
(dp3798
g61
(dp3799
sg70
g3793
sg63
(lp3800
g56
(g77
g58
NtRp3801
(dp3802
g61
(dp3803
g81
g82
ssg70
g3797
sg63
(lp3804
g296
asbag56
(g77
g58
NtRp3805
(dp3806
g61
(dp3807
g88
g89
ssg70
g3797
sg63
(lp3808
S':'
asbag56
(g77
g58
NtRp3809
(dp3810
g61
(dp3811
sg70
g3797
sg63
(lp3812
g56
(g57
g58
NtRp3813
(dp3814
g61
(dp3815
g69
I3
ssg70
g3809
sg63
(lp3816
S''
asbasbasbag56
(g72
g58
NtRp3817
(dp3818
g61
(dp3819
sg70
g3793
sg63
(lp3820
g56
(g77
g58
NtRp3821
(dp3822
g61
(dp3823
g81
g82
ssg70
g3817
sg63
(lp3824
g317
asbag56
(g77
g58
NtRp3825
(dp3826
g61
(dp3827
g88
g89
ssg70
g3817
sg63
(lp3828
S':'
asbag56
(g77
g58
NtRp3829
(dp3830
g61
(dp3831
sg70
g3817
sg63
(lp3832
g56
(g57
g58
NtRp3833
(dp3834
g61
(dp3835
g69
I3
ssg70
g3829
sg63
(lp3836
S''
asbasbasbag56
(g72
g58
NtRp3837
(dp3838
g61
(dp3839
sg70
g3793
sg63
(lp3840
g56
(g77
g58
NtRp3841
(dp3842
g61
(dp3843
g81
g82
ssg70
g3837
sg63
(lp3844
g338
asbag56
(g77
g58
NtRp3845
(dp3846
g61
(dp3847
g88
g89
ssg70
g3837
sg63
(lp3848
S':'
asbag56
(g77
g58
NtRp3849
(dp3850
g61
(dp3851
sg70
g3837
sg63
(lp3852
g56
(g57
g58
NtRp3853
(dp3854
g61
(dp3855
g69
I3
ssg70
g3849
sg63
(lp3856
S''
asbasbasbag56
(g72
g58
NtRp3857
(dp3858
g61
(dp3859
sg70
g3793
sg63
(lp3860
g56
(g77
g58
NtRp3861
(dp3862
g61
(dp3863
g81
g82
ssg70
g3857
sg63
(lp3864
g359
asbag56
(g77
g58
NtRp3865
(dp3866
g61
(dp3867
g88
g89
ssg70
g3857
sg63
(lp3868
S':'
asbag56
(g77
g58
NtRp3869
(dp3870
g61
(dp3871
sg70
g3857
sg63
(lp3872
g56
(g57
g58
NtRp3873
(dp3874
g61
(dp3875
g69
I3
ssg70
g3869
sg63
(lp3876
S''
asbasbasbag56
(g72
g58
NtRp3877
(dp3878
g61
(dp3879
sg70
g3793
sg63
(lp3880
g56
(g77
g58
NtRp3881
(dp3882
g61
(dp3883
g81
g82
ssg70
g3877
sg63
(lp3884
g380
asbag56
(g77
g58
NtRp3885
(dp3886
g61
(dp3887
g88
g89
ssg70
g3877
sg63
(lp3888
S':'
asbag56
(g77
g58
NtRp3889
(dp3890
g61
(dp3891
sg70
g3877
sg63
(lp3892
g56
(g57
g58
NtRp3893
(dp3894
g61
(dp3895
g69
I3
ssg70
g3889
sg63
(lp3896
S''
asbasbasbag56
(g72
g58
NtRp3897
(dp3898
g61
(dp3899
sg70
g3793
sg63
(lp3900
g56
(g77
g58
NtRp3901
(dp3902
g61
(dp3903
g81
g82
ssg70
g3897
sg63
(lp3904
g401
asbag56
(g77
g58
NtRp3905
(dp3906
g61
(dp3907
g88
g89
ssg70
g3897
sg63
(lp3908
S':'
asbag56
(g77
g58
NtRp3909
(dp3910
g61
(dp3911
sg70
g3897
sg63
(lp3912
g56
(g57
g58
NtRp3913
(dp3914
g61
(dp3915
g69
I3
ssg70
g3909
sg63
(lp3916
S'/'
asbasbasbag56
(g72
g58
NtRp3917
(dp3918
g61
(dp3919
sg70
g3793
sg63
(lp3920
g56
(g77
g58
NtRp3921
(dp3922
g61
(dp3923
g81
g82
ssg70
g3917
sg63
(lp3924
g422
asbag56
(g77
g58
NtRp3925
(dp3926
g61
(dp3927
g88
g89
ssg70
g3917
sg63
(lp3928
S':'
asbag56
(g77
g58
NtRp3929
(dp3930
g61
(dp3931
sg70
g3917
sg63
(lp3932
g56
(g57
g58
NtRp3933
(dp3934
g61
(dp3935
g69
I3
ssg70
g3929
sg63
(lp3936
S''
asbasbasbag56
(g72
g58
NtRp3937
(dp3938
g61
(dp3939
sg70
g3793
sg63
(lp3940
g56
(g77
g58
NtRp3941
(dp3942
g61
(dp3943
g81
g82
ssg70
g3937
sg63
(lp3944
g443
asbag56
(g77
g58
NtRp3945
(dp3946
g61
(dp3947
g88
g89
ssg70
g3937
sg63
(lp3948
S':'
asbag56
(g77
g58
NtRp3949
(dp3950
g61
(dp3951
sg70
g3937
sg63
(lp3952
g56
(g57
g58
NtRp3953
(dp3954
g61
(dp3955
g69
I3
ssg70
g3949
sg63
(lp3956
S''
asbasbasbasbasbasbasbasbasbasbasbag56
(g72
g58
NtRp3957
(dp3958
g61
(dp3959
sg70
g3723
sg63
(lp3960
g56
(g77
g58
NtRp3961
(dp3962
g61
(dp3963
g81
g82
ssg70
g3957
sg63
(lp3964
S'files'
p3965
asbag56
(g77
g58
NtRp3966
(dp3967
g61
(dp3968
g88
g89
ssg70
g3957
sg63
(lp3969
S':'
asbag56
(g77
g58
NtRp3970
(dp3971
g61
(dp3972
sg70
g3957
sg63
(lp3973
g56
(g57
g58
NtRp3974
(dp3975
g61
(dp3976
g69
I5
ssg70
g3970
sg63
(lp3977
g56
(g65
g58
NtRp3978
(dp3979
g61
(dp3980
g69
I4
ssg70
Nsg63
(lp3981
sbasbasbasbag56
(g72
g58
NtRp3982
(dp3983
g61
(dp3984
sg70
g3723
sg63
(lp3985
g56
(g77
g58
NtRp3986
(dp3987
g61
(dp3988
g81
g82
ssg70
g3982
sg63
(lp3989
S'flash'
p3990
asbag56
(g77
g58
NtRp3991
(dp3992
g61
(dp3993
g88
g89
ssg70
g3982
sg63
(lp3994
S':'
asbag56
(g77
g58
NtRp3995
(dp3996
g61
(dp3997
sg70
g3982
sg63
(lp3998
g56
(g57
g58
NtRp3999
(dp4000
g61
(dp4001
g69
I5
ssg70
g3995
sg63
(lp4002
S''
asbasbasbag56
(g72
g58
NtRp4003
(dp4004
g61
(dp4005
sg70
g3723
sg63
(lp4006
g56
(g77
g58
NtRp4007
(dp4008
g61
(dp4009
g81
g82
ssg70
g4003
sg63
(lp4010
S'generic_patterns'
p4011
asbag56
(g77
g58
NtRp4012
(dp4013
g61
(dp4014
g88
g89
ssg70
g4003
sg63
(lp4015
S':'
asbag56
(g77
g58
NtRp4016
(dp4017
g61
(dp4018
sg70
g4003
sg63
(lp4019
g56
(g57
g58
NtRp4020
(dp4021
g61
(dp4022
g69
I5
ssg70
g4016
sg63
(lp4023
g56
(g65
g58
NtRp4024
(dp4025
g61
(dp4026
g69
I4
ssg70
Nsg63
(lp4027
g56
(g72
g58
NtRp4028
(dp4029
g61
(dp4030
sg70
g4024
sg63
(lp4031
g56
(g77
g58
NtRp4032
(dp4033
g61
(dp4034
sg70
g4028
sg63
(lp4035
g56
(g57
g58
NtRp4036
(dp4037
g61
(dp4038
g69
I4
ssg70
g4032
sg63
(lp4039
S'*'
asbasbasbasbasbasbasbag56
(g72
g58
NtRp4040
(dp4041
g61
(dp4042
sg70
g3723
sg63
(lp4043
g56
(g77
g58
NtRp4044
(dp4045
g61
(dp4046
g81
g82
ssg70
g4040
sg63
(lp4047
S'headers'
p4048
asbag56
(g77
g58
NtRp4049
(dp4050
g61
(dp4051
g88
g89
ssg70
g4040
sg63
(lp4052
S':'
asbag56
(g77
g58
NtRp4053
(dp4054
g61
(dp4055
sg70
g4040
sg63
(lp4056
g56
(g57
g58
NtRp4057
(dp4058
g61
(dp4059
g69
I5
ssg70
g4053
sg63
(lp4060
g56
(g65
g58
NtRp4061
(dp4062
g61
(dp4063
g69
I4
ssg70
Nsg63
(lp4064
g56
(g72
g58
NtRp4065
(dp4066
g61
(dp4067
sg70
g4061
sg63
(lp4068
g56
(g77
g58
NtRp4069
(dp4070
g61
(dp4071
g81
g82
ssg70
g4065
sg63
(lp4072
S'Cache-Control'
p4073
asbag56
(g77
g58
NtRp4074
(dp4075
g61
(dp4076
g88
g89
ssg70
g4065
sg63
(lp4077
S':'
asbag56
(g77
g58
NtRp4078
(dp4079
g61
(dp4080
sg70
g4065
sg63
(lp4081
g56
(g57
g58
NtRp4082
(dp4083
g61
(dp4084
g69
I4
ssg70
g4078
sg63
(lp4085
S'no-store, no-cache, must-revalidate, post-check=0, pre-check=0'
p4086
asbasbasbag56
(g72
g58
NtRp4087
(dp4088
g61
(dp4089
sg70
g4061
sg63
(lp4090
g56
(g77
g58
NtRp4091
(dp4092
g61
(dp4093
g81
g82
ssg70
g4087
sg63
(lp4094
S'Content-Type'
p4095
asbag56
(g77
g58
NtRp4096
(dp4097
g61
(dp4098
g88
g89
ssg70
g4087
sg63
(lp4099
S':'
asbag56
(g77
g58
NtRp4100
(dp4101
g61
(dp4102
sg70
g4087
sg63
(lp4103
g56
(g57
g58
NtRp4104
(dp4105
g61
(dp4106
g69
I4
ssg70
g4100
sg63
(lp4107
S'application/json; charset=utf-8'
p4108
asbasbasbag56
(g72
g58
NtRp4109
(dp4110
g61
(dp4111
sg70
g4061
sg63
(lp4112
g56
(g77
g58
NtRp4113
(dp4114
g61
(dp4115
g81
g82
ssg70
g4109
sg63
(lp4116
S'Expires'
p4117
asbag56
(g77
g58
NtRp4118
(dp4119
g61
(dp4120
g88
g89
ssg70
g4109
sg63
(lp4121
S':'
asbag56
(g77
g58
NtRp4122
(dp4123
g61
(dp4124
sg70
g4109
sg63
(lp4125
g56
(g57
g58
NtRp4126
(dp4127
g61
(dp4128
g69
I4
ssg70
g4122
sg63
(lp4129
S'Sat, 26 May 2012 14:27:23 GMT'
p4130
asbasbasbag56
(g72
g58
NtRp4131
(dp4132
g61
(dp4133
sg70
g4061
sg63
(lp4134
g56
(g77
g58
NtRp4135
(dp4136
g61
(dp4137
g81
g82
ssg70
g4131
sg63
(lp4138
S'Pragma'
p4139
asbag56
(g77
g58
NtRp4140
(dp4141
g61
(dp4142
g88
g89
ssg70
g4131
sg63
(lp4143
S':'
asbag56
(g77
g58
NtRp4144
(dp4145
g61
(dp4146
sg70
g4131
sg63
(lp4147
g56
(g57
g58
NtRp4148
(dp4149
g61
(dp4150
g69
I4
ssg70
g4144
sg63
(lp4151
S'no-cache'
p4152
asbasbasbag56
(g72
g58
NtRp4153
(dp4154
g61
(dp4155
sg70
g4061
sg63
(lp4156
g56
(g77
g58
NtRp4157
(dp4158
g61
(dp4159
g81
g82
ssg70
g4153
sg63
(lp4160
S'X-Powered-By'
p4161
asbag56
(g77
g58
NtRp4162
(dp4163
g61
(dp4164
g88
g89
ssg70
g4153
sg63
(lp4165
S':'
asbag56
(g77
g58
NtRp4166
(dp4167
g61
(dp4168
sg70
g4153
sg63
(lp4169
g56
(g57
g58
NtRp4170
(dp4171
g61
(dp4172
g69
I4
ssg70
g4166
sg63
(lp4173
S'web2py'
p4174
asbasbasbasbasbasbasbag56
(g72
g58
NtRp4175
(dp4176
g61
(dp4177
sg70
g3723
sg63
(lp4178
g56
(g77
g58
NtRp4179
(dp4180
g61
(dp4181
g81
g82
ssg70
g4175
sg63
(lp4182
S'menu'
p4183
asbag56
(g77
g58
NtRp4184
(dp4185
g61
(dp4186
g88
g89
ssg70
g4175
sg63
(lp4187
S':'
asbag56
(g77
g58
NtRp4188
(dp4189
g61
(dp4190
sg70
g4175
sg63
(lp4191
g56
(g57
g58
NtRp4192
(dp4193
g61
(dp4194
g69
I5
ssg70
g4188
sg63
(lp4195
g56
(g65
g58
NtRp4196
(dp4197
g61
(dp4198
g69
I4
ssg70
Nsg63
(lp4199
g56
(g72
g58
NtRp4200
(dp4201
g61
(dp4202
sg70
g4196
sg63
(lp4203
g56
(g77
g58
NtRp4204
(dp4205
g61
(dp4206
sg70
g4200
sg63
(lp4207
g56
(g57
g58
NtRp4208
(dp4209
g61
(dp4210
g69
I4
ssg70
g4204
sg63
(lp4211
g56
(g65
g58
NtRp4212
(dp4213
g61
(dp4214
g69
I3
ssg70
Nsg63
(lp4215
g56
(g72
g58
NtRp4216
(dp4217
g61
(dp4218
sg70
g4212
sg63
(lp4219
g56
(g77
g58
NtRp4220
(dp4221
g61
(dp4222
sg70
g4216
sg63
(lp4223
g56
(g57
g58
NtRp4224
(dp4225
g61
(dp4226
g69
I3
ssg70
g4220
sg63
(lp4227
cgluon.languages
lazyT_unpickle
p4228
(S's\n\x00\x00\x00Clear Page'
tRp4229
asbasbasbag56
(g72
g58
NtRp4230
(dp4231
g61
(dp4232
sg70
g4212
sg63
(lp4233
g56
(g77
g58
NtRp4234
(dp4235
g61
(dp4236
sg70
g4230
sg63
(lp4237
g56
(g57
g58
NtRp4238
(dp4239
g61
(dp4240
g69
I3
ssg70
g4234
sg63
(lp4241
g985
asbasbasbag56
(g72
g58
NtRp4242
(dp4243
g61
(dp4244
sg70
g4212
sg63
(lp4245
g56
(g77
g58
NtRp4246
(dp4247
g61
(dp4248
sg70
g4242
sg63
(lp4249
g56
(g57
g58
NtRp4250
(dp4251
g61
(dp4252
g69
I3
ssg70
g4246
sg63
(lp4253
S'/streamlog/default/index'
p4254
asbasbasbag56
(g72
g58
NtRp4255
(dp4256
g61
(dp4257
sg70
g4212
sg63
(lp4258
g56
(g77
g58
NtRp4259
(dp4260
g61
(dp4261
sg70
g4255
sg63
(lp4262
g56
(g57
g58
NtRp4263
(dp4264
g61
(dp4265
g69
I3
ssg70
g4259
sg63
(lp4266
g56
(g65
g58
NtRp4267
(dp4268
g61
(dp4269
g69
I2
ssg70
Nsg63
(lp4270
sbasbasbasbasbasbasbasbag56
(g72
g58
NtRp4271
(dp4272
g61
(dp4273
sg70
g4196
sg63
(lp4274
g56
(g77
g58
NtRp4275
(dp4276
g61
(dp4277
sg70
g4271
sg63
(lp4278
g56
(g57
g58
NtRp4279
(dp4280
g61
(dp4281
g69
I4
ssg70
g4275
sg63
(lp4282
g56
(g65
g58
NtRp4283
(dp4284
g61
(dp4285
g69
I3
ssg70
Nsg63
(lp4286
g56
(g72
g58
NtRp4287
(dp4288
g61
(dp4289
sg70
g4283
sg63
(lp4290
g56
(g77
g58
NtRp4291
(dp4292
g61
(dp4293
sg70
g4287
sg63
(lp4294
g56
(g57
g58
NtRp4295
(dp4296
g61
(dp4297
g69
I3
ssg70
g4291
sg63
(lp4298
g4228
(S't\x06\x00\x00\x00Manage'
tRp4299
asbasbasbag56
(g72
g58
NtRp4300
(dp4301
g61
(dp4302
sg70
g4283
sg63
(lp4303
g56
(g77
g58
NtRp4304
(dp4305
g61
(dp4306
sg70
g4300
sg63
(lp4307
g56
(g57
g58
NtRp4308
(dp4309
g61
(dp4310
g69
I3
ssg70
g4304
sg63
(lp4311
g985
asbasbasbag56
(g72
g58
NtRp4312
(dp4313
g61
(dp4314
sg70
g4283
sg63
(lp4315
g56
(g77
g58
NtRp4316
(dp4317
g61
(dp4318
sg70
g4312
sg63
(lp4319
g56
(g57
g58
NtRp4320
(dp4321
g61
(dp4322
g69
I3
ssg70
g4316
sg63
(lp4323
S'None'
p4324
asbasbasbag56
(g72
g58
NtRp4325
(dp4326
g61
(dp4327
sg70
g4283
sg63
(lp4328
g56
(g77
g58
NtRp4329
(dp4330
g61
(dp4331
sg70
g4325
sg63
(lp4332
g56
(g57
g58
NtRp4333
(dp4334
g61
(dp4335
g69
I3
ssg70
g4329
sg63
(lp4336
g56
(g65
g58
NtRp4337
(dp4338
g61
(dp4339
g69
I2
ssg70
Nsg63
(lp4340
g56
(g72
g58
NtRp4341
(dp4342
g61
(dp4343
sg70
g4337
sg63
(lp4344
g56
(g77
g58
NtRp4345
(dp4346
g61
(dp4347
sg70
g4341
sg63
(lp4348
g56
(g57
g58
NtRp4349
(dp4350
g61
(dp4351
g69
I2
ssg70
g4345
sg63
(lp4352
g56
(g65
g58
NtRp4353
(dp4354
g61
(dp4355
g69
I1
ssg70
Nsg63
(lp4356
g56
(g72
g58
NtRp4357
(dp4358
g61
(dp4359
sg70
g4353
sg63
(lp4360
g56
(g77
g58
NtRp4361
(dp4362
g61
(dp4363
sg70
g4357
sg63
(lp4364
g56
(g57
g58
NtRp4365
(dp4366
g61
(dp4367
g69
I1
ssg70
g4361
sg63
(lp4368
g4228
(S't\x04\x00\x00\x00Logs'
tRp4369
asbasbasbag56
(g72
g58
NtRp4370
(dp4371
g61
(dp4372
sg70
g4353
sg63
(lp4373
g56
(g77
g58
NtRp4374
(dp4375
g61
(dp4376
sg70
g4370
sg63
(lp4377
g56
(g57
g58
NtRp4378
(dp4379
g61
(dp4380
g69
I1
ssg70
g4374
sg63
(lp4381
I00
asbasbasbag56
(g72
g58
NtRp4382
(dp4383
g61
(dp4384
sg70
g4353
sg63
(lp4385
g56
(g77
g58
NtRp4386
(dp4387
g61
(dp4388
sg70
g4382
sg63
(lp4389
g56
(g57
g58
NtRp4390
(dp4391
g61
(dp4392
g69
I1
ssg70
g4386
sg63
(lp4393
S'/streamlog/default/log_manage'
p4394
asbasbasbag56
(g72
g58
NtRp4395
(dp4396
g61
(dp4397
sg70
g4353
sg63
(lp4398
g56
(g77
g58
NtRp4399
(dp4400
g61
(dp4401
sg70
g4395
sg63
(lp4402
g56
(g57
g58
NtRp4403
(dp4404
g61
(dp4405
g69
I1
ssg70
g4399
sg63
(lp4406
(lp4407
asbasbasbasbasbasbasbag56
(g72
g58
NtRp4408
(dp4409
g61
(dp4410
sg70
g4337
sg63
(lp4411
g56
(g77
g58
NtRp4412
(dp4413
g61
(dp4414
sg70
g4408
sg63
(lp4415
g56
(g57
g58
NtRp4416
(dp4417
g61
(dp4418
g69
I2
ssg70
g4412
sg63
(lp4419
g56
(g65
g58
NtRp4420
(dp4421
g61
(dp4422
g69
I1
ssg70
Nsg63
(lp4423
g56
(g72
g58
NtRp4424
(dp4425
g61
(dp4426
sg70
g4420
sg63
(lp4427
g56
(g77
g58
NtRp4428
(dp4429
g61
(dp4430
sg70
g4424
sg63
(lp4431
g56
(g57
g58
NtRp4432
(dp4433
g61
(dp4434
g69
I1
ssg70
g4428
sg63
(lp4435
g4228
(S't\x07\x00\x00\x00Servers'
tRp4436
asbasbasbag56
(g72
g58
NtRp4437
(dp4438
g61
(dp4439
sg70
g4420
sg63
(lp4440
g56
(g77
g58
NtRp4441
(dp4442
g61
(dp4443
sg70
g4437
sg63
(lp4444
g56
(g57
g58
NtRp4445
(dp4446
g61
(dp4447
g69
I1
ssg70
g4441
sg63
(lp4448
I00
asbasbasbag56
(g72
g58
NtRp4449
(dp4450
g61
(dp4451
sg70
g4420
sg63
(lp4452
g56
(g77
g58
NtRp4453
(dp4454
g61
(dp4455
sg70
g4449
sg63
(lp4456
g56
(g57
g58
NtRp4457
(dp4458
g61
(dp4459
g69
I1
ssg70
g4453
sg63
(lp4460
S'/streamlog/default/server_manage'
p4461
asbasbasbag56
(g72
g58
NtRp4462
(dp4463
g61
(dp4464
sg70
g4420
sg63
(lp4465
g56
(g77
g58
NtRp4466
(dp4467
g61
(dp4468
sg70
g4462
sg63
(lp4469
g56
(g57
g58
NtRp4470
(dp4471
g61
(dp4472
g69
I1
ssg70
g4466
sg63
(lp4473
(lp4474
asbasbasbasbasbasbasbag56
(g72
g58
NtRp4475
(dp4476
g61
(dp4477
sg70
g4337
sg63
(lp4478
g56
(g77
g58
NtRp4479
(dp4480
g61
(dp4481
sg70
g4475
sg63
(lp4482
g56
(g57
g58
NtRp4483
(dp4484
g61
(dp4485
g69
I2
ssg70
g4479
sg63
(lp4486
g56
(g65
g58
NtRp4487
(dp4488
g61
(dp4489
g69
I1
ssg70
Nsg63
(lp4490
g56
(g72
g58
NtRp4491
(dp4492
g61
(dp4493
sg70
g4487
sg63
(lp4494
g56
(g77
g58
NtRp4495
(dp4496
g61
(dp4497
sg70
g4491
sg63
(lp4498
g56
(g57
g58
NtRp4499
(dp4500
g61
(dp4501
g69
I1
ssg70
g4495
sg63
(lp4502
g4228
(S't\x08\x00\x00\x00Projects'
tRp4503
asbasbasbag56
(g72
g58
NtRp4504
(dp4505
g61
(dp4506
sg70
g4487
sg63
(lp4507
g56
(g77
g58
NtRp4508
(dp4509
g61
(dp4510
sg70
g4504
sg63
(lp4511
g56
(g57
g58
NtRp4512
(dp4513
g61
(dp4514
g69
I1
ssg70
g4508
sg63
(lp4515
I00
asbasbasbag56
(g72
g58
NtRp4516
(dp4517
g61
(dp4518
sg70
g4487
sg63
(lp4519
g56
(g77
g58
NtRp4520
(dp4521
g61
(dp4522
sg70
g4516
sg63
(lp4523
g56
(g57
g58
NtRp4524
(dp4525
g61
(dp4526
g69
I1
ssg70
g4520
sg63
(lp4527
S'/streamlog/default/project_manage'
p4528
asbasbasbag56
(g72
g58
NtRp4529
(dp4530
g61
(dp4531
sg70
g4487
sg63
(lp4532
g56
(g77
g58
NtRp4533
(dp4534
g61
(dp4535
sg70
g4529
sg63
(lp4536
g56
(g57
g58
NtRp4537
(dp4538
g61
(dp4539
g69
I1
ssg70
g4533
sg63
(lp4540
(lp4541
asbasbasbasbasbasbasbag56
(g72
g58
NtRp4542
(dp4543
g61
(dp4544
sg70
g4337
sg63
(lp4545
g56
(g77
g58
NtRp4546
(dp4547
g61
(dp4548
sg70
g4542
sg63
(lp4549
g56
(g57
g58
NtRp4550
(dp4551
g61
(dp4552
g69
I2
ssg70
g4546
sg63
(lp4553
g56
(g65
g58
NtRp4554
(dp4555
g61
(dp4556
g69
I1
ssg70
Nsg63
(lp4557
g56
(g72
g58
NtRp4558
(dp4559
g61
(dp4560
sg70
g4554
sg63
(lp4561
g56
(g77
g58
NtRp4562
(dp4563
g61
(dp4564
sg70
g4558
sg63
(lp4565
g56
(g57
g58
NtRp4566
(dp4567
g61
(dp4568
g69
I1
ssg70
g4562
sg63
(lp4569
g4228
(S's\t\x00\x00\x00Type Logs'
tRp4570
asbasbasbag56
(g72
g58
NtRp4571
(dp4572
g61
(dp4573
sg70
g4554
sg63
(lp4574
g56
(g77
g58
NtRp4575
(dp4576
g61
(dp4577
sg70
g4571
sg63
(lp4578
g56
(g57
g58
NtRp4579
(dp4580
g61
(dp4581
g69
I1
ssg70
g4575
sg63
(lp4582
I00
asbasbasbag56
(g72
g58
NtRp4583
(dp4584
g61
(dp4585
sg70
g4554
sg63
(lp4586
g56
(g77
g58
NtRp4587
(dp4588
g61
(dp4589
sg70
g4583
sg63
(lp4590
g56
(g57
g58
NtRp4591
(dp4592
g61
(dp4593
g69
I1
ssg70
g4587
sg63
(lp4594
S'/streamlog/default/type_log_manage'
p4595
asbasbasbag56
(g72
g58
NtRp4596
(dp4597
g61
(dp4598
sg70
g4554
sg63
(lp4599
g56
(g77
g58
NtRp4600
(dp4601
g61
(dp4602
sg70
g4596
sg63
(lp4603
g56
(g57
g58
NtRp4604
(dp4605
g61
(dp4606
g69
I1
ssg70
g4600
sg63
(lp4607
(lp4608
asbasbasbasbasbasbasbasbasbasbasbasbasbasbasbasbasbasbasbag56
(g72
g58
NtRp4609
(dp4610
g61
(dp4611
sg70
g3723
sg63
(lp4612
g56
(g77
g58
NtRp4613
(dp4614
g61
(dp4615
g81
g82
ssg70
g4609
sg63
(lp4616
S'meta'
p4617
asbag56
(g77
g58
NtRp4618
(dp4619
g61
(dp4620
g88
g89
ssg70
g4609
sg63
(lp4621
S':'
asbag56
(g77
g58
NtRp4622
(dp4623
g61
(dp4624
sg70
g4609
sg63
(lp4625
g56
(g57
g58
NtRp4626
(dp4627
g61
(dp4628
g69
I5
ssg70
g4622
sg63
(lp4629
g56
(g65
g58
NtRp4630
(dp4631
g61
(dp4632
g69
I4
ssg70
Nsg63
(lp4633
g56
(g72
g58
NtRp4634
(dp4635
g61
(dp4636
sg70
g4630
sg63
(lp4637
g56
(g77
g58
NtRp4638
(dp4639
g61
(dp4640
g81
g82
ssg70
g4634
sg63
(lp4641
S'author'
p4642
asbag56
(g77
g58
NtRp4643
(dp4644
g61
(dp4645
g88
g89
ssg70
g4634
sg63
(lp4646
S':'
asbag56
(g77
g58
NtRp4647
(dp4648
g61
(dp4649
sg70
g4634
sg63
(lp4650
g56
(g57
g58
NtRp4651
(dp4652
g61
(dp4653
g69
I4
ssg70
g4647
sg63
(lp4654
S'Jose de Soto <josedesoto@gmail.com>'
p4655
asbasbasbag56
(g72
g58
NtRp4656
(dp4657
g61
(dp4658
sg70
g4630
sg63
(lp4659
g56
(g77
g58
NtRp4660
(dp4661
g61
(dp4662
g81
g82
ssg70
g4656
sg63
(lp4663
S'copyright'
p4664
asbag56
(g77
g58
NtRp4665
(dp4666
g61
(dp4667
g88
g89
ssg70
g4656
sg63
(lp4668
S':'
asbag56
(g77
g58
NtRp4669
(dp4670
g61
(dp4671
sg70
g4656
sg63
(lp4672
g56
(g57
g58
NtRp4673
(dp4674
g61
(dp4675
g69
I4
ssg70
g4669
sg63
(lp4676
S'Copyright 2011'
p4677
asbasbasbag56
(g72
g58
NtRp4678
(dp4679
g61
(dp4680
sg70
g4630
sg63
(lp4681
g56
(g77
g58
NtRp4682
(dp4683
g61
(dp4684
g81
g82
ssg70
g4678
sg63
(lp4685
S'description'
p4686
asbag56
(g77
g58
NtRp4687
(dp4688
g61
(dp4689
g88
g89
ssg70
g4678
sg63
(lp4690
S':'
asbag56
(g77
g58
NtRp4691
(dp4692
g61
(dp4693
sg70
g4678
sg63
(lp4694
g56
(g57
g58
NtRp4695
(dp4696
g61
(dp4697
g69
I4
ssg70
g4691
sg63
(lp4698
S'a cool new app'
p4699
asbasbasbag56
(g72
g58
NtRp4700
(dp4701
g61
(dp4702
sg70
g4630
sg63
(lp4703
g56
(g77
g58
NtRp4704
(dp4705
g61
(dp4706
g81
g82
ssg70
g4700
sg63
(lp4707
S'generator'
p4708
asbag56
(g77
g58
NtRp4709
(dp4710
g61
(dp4711
g88
g89
ssg70
g4700
sg63
(lp4712
S':'
asbag56
(g77
g58
NtRp4713
(dp4714
g61
(dp4715
sg70
g4700
sg63
(lp4716
g56
(g57
g58
NtRp4717
(dp4718
g61
(dp4719
g69
I4
ssg70
g4713
sg63
(lp4720
S'Web2py Web Framework'
p4721
asbasbasbag56
(g72
g58
NtRp4722
(dp4723
g61
(dp4724
sg70
g4630
sg63
(lp4725
g56
(g77
g58
NtRp4726
(dp4727
g61
(dp4728
g81
g82
ssg70
g4722
sg63
(lp4729
S'keywords'
p4730
asbag56
(g77
g58
NtRp4731
(dp4732
g61
(dp4733
g88
g89
ssg70
g4722
sg63
(lp4734
S':'
asbag56
(g77
g58
NtRp4735
(dp4736
g61
(dp4737
sg70
g4722
sg63
(lp4738
g56
(g57
g58
NtRp4739
(dp4740
g61
(dp4741
g69
I4
ssg70
g4735
sg63
(lp4742
S'web2py, python, framework'
p4743
asbasbasbasbasbasbasbag56
(g72
g58
NtRp4744
(dp4745
g61
(dp4746
sg70
g3723
sg63
(lp4747
g56
(g77
g58
NtRp4748
(dp4749
g61
(dp4750
g81
g82
ssg70
g4744
sg63
(lp4751
S'postprocessing'
p4752
asbag56
(g77
g58
NtRp4753
(dp4754
g61
(dp4755
g88
g89
ssg70
g4744
sg63
(lp4756
S':'
asbag56
(g77
g58
NtRp4757
(dp4758
g61
(dp4759
sg70
g4744
sg63
(lp4760
g56
(g57
g58
NtRp4761
(dp4762
g61
(dp4763
g69
I5
ssg70
g4757
sg63
(lp4764
g56
(g65
g58
NtRp4765
(dp4766
g61
(dp4767
g69
I4
ssg70
Nsg63
(lp4768
sbasbasbasbag56
(g72
g58
NtRp4769
(dp4770
g61
(dp4771
sg70
g3723
sg63
(lp4772
g56
(g77
g58
NtRp4773
(dp4774
g61
(dp4775
g81
g82
ssg70
g4769
sg63
(lp4776
S'session_file'
p4777
asbag56
(g77
g58
NtRp4778
(dp4779
g61
(dp4780
g88
g89
ssg70
g4769
sg63
(lp4781
S':'
asbag56
(g77
g58
NtRp4782
(dp4783
g61
(dp4784
sg70
g4769
sg63
(lp4785
g56
(g57
g58
NtRp4786
(dp4787
g61
(dp4788
g69
I5
ssg70
g4782
sg63
(lp4789
S"<open file '/home/jose/DESARROLLO/web2py199/applications/streamlog/sessions/127.0.0.1-610b0c7d-3f6f-4500-a76a-b095fb30f7fd', mode 'rb+' at 0x2ab6f60>"
p4790
asbasbasbag56
(g72
g58
NtRp4791
(dp4792
g61
(dp4793
sg70
g3723
sg63
(lp4794
g56
(g77
g58
NtRp4795
(dp4796
g61
(dp4797
g81
g82
ssg70
g4791
sg63
(lp4798
S'session_filename'
p4799
asbag56
(g77
g58
NtRp4800
(dp4801
g61
(dp4802
g88
g89
ssg70
g4791
sg63
(lp4803
S':'
asbag56
(g77
g58
NtRp4804
(dp4805
g61
(dp4806
sg70
g4791
sg63
(lp4807
g56
(g57
g58
NtRp4808
(dp4809
g61
(dp4810
g69
I5
ssg70
g4804
sg63
(lp4811
S'/home/jose/DESARROLLO/web2py199/applications/streamlog/sessions/127.0.0.1-610b0c7d-3f6f-4500-a76a-b095fb30f7fd'
p4812
asbasbasbag56
(g72
g58
NtRp4813
(dp4814
g61
(dp4815
sg70
g3723
sg63
(lp4816
g56
(g77
g58
NtRp4817
(dp4818
g61
(dp4819
g81
g82
ssg70
g4813
sg63
(lp4820
S'session_id'
p4821
asbag56
(g77
g58
NtRp4822
(dp4823
g61
(dp4824
g88
g89
ssg70
g4813
sg63
(lp4825
S':'
asbag56
(g77
g58
NtRp4826
(dp4827
g61
(dp4828
sg70
g4813
sg63
(lp4829
g56
(g57
g58
NtRp4830
(dp4831
g61
(dp4832
g69
I5
ssg70
g4826
sg63
(lp4833
S'127.0.0.1-610b0c7d-3f6f-4500-a76a-b095fb30f7fd'
p4834
asbasbasbag56
(g72
g58
NtRp4835
(dp4836
g61
(dp4837
sg70
g3723
sg63
(lp4838
g56
(g77
g58
NtRp4839
(dp4840
g61
(dp4841
g81
g82
ssg70
g4835
sg63
(lp4842
S'session_id_name'
p4843
asbag56
(g77
g58
NtRp4844
(dp4845
g61
(dp4846
g88
g89
ssg70
g4835
sg63
(lp4847
S':'
asbag56
(g77
g58
NtRp4848
(dp4849
g61
(dp4850
sg70
g4835
sg63
(lp4851
g56
(g57
g58
NtRp4852
(dp4853
g61
(dp4854
g69
I5
ssg70
g4848
sg63
(lp4855
g3780
asbasbasbag56
(g72
g58
NtRp4856
(dp4857
g61
(dp4858
sg70
g3723
sg63
(lp4859
g56
(g77
g58
NtRp4860
(dp4861
g61
(dp4862
g81
g82
ssg70
g4856
sg63
(lp4863
S'session_locked'
p4864
asbag56
(g77
g58
NtRp4865
(dp4866
g61
(dp4867
g88
g89
ssg70
g4856
sg63
(lp4868
S':'
asbag56
(g77
g58
NtRp4869
(dp4870
g61
(dp4871
sg70
g4856
sg63
(lp4872
g56
(g57
g58
NtRp4873
(dp4874
g61
(dp4875
g69
I5
ssg70
g4869
sg63
(lp4876
g99
asbasbasbag56
(g72
g58
NtRp4877
(dp4878
g61
(dp4879
sg70
g3723
sg63
(lp4880
g56
(g77
g58
NtRp4881
(dp4882
g61
(dp4883
g81
g82
ssg70
g4877
sg63
(lp4884
S'session_new'
p4885
asbag56
(g77
g58
NtRp4886
(dp4887
g61
(dp4888
g88
g89
ssg70
g4877
sg63
(lp4889
S':'
asbag56
(g77
g58
NtRp4890
(dp4891
g61
(dp4892
sg70
g4877
sg63
(lp4893
g56
(g57
g58
NtRp4894
(dp4895
g61
(dp4896
g69
I5
ssg70
g4890
sg63
(lp4897
g985
asbasbasbag56
(g72
g58
NtRp4898
(dp4899
g61
(dp4900
sg70
g3723
sg63
(lp4901
g56
(g77
g58
NtRp4902
(dp4903
g61
(dp4904
g81
g82
ssg70
g4898
sg63
(lp4905
S'status'
p4906
asbag56
(g77
g58
NtRp4907
(dp4908
g61
(dp4909
g88
g89
ssg70
g4898
sg63
(lp4910
S':'
asbag56
(g77
g58
NtRp4911
(dp4912
g61
(dp4913
sg70
g4898
sg63
(lp4914
g56
(g57
g58
NtRp4915
(dp4916
g61
(dp4917
g69
I5
ssg70
g4911
sg63
(lp4918
S'200'
p4919
asbasbasbag56
(g72
g58
NtRp4920
(dp4921
g61
(dp4922
sg70
g3723
sg63
(lp4923
g56
(g77
g58
NtRp4924
(dp4925
g61
(dp4926
g81
g82
ssg70
g4920
sg63
(lp4927
S'subtitle'
p4928
asbag56
(g77
g58
NtRp4929
(dp4930
g61
(dp4931
g88
g89
ssg70
g4920
sg63
(lp4932
S':'
asbag56
(g77
g58
NtRp4933
(dp4934
g61
(dp4935
sg70
g4920
sg63
(lp4936
g56
(g57
g58
NtRp4937
(dp4938
g61
(dp4939
g69
I5
ssg70
g4933
sg63
(lp4940
g4228
(S's\x12\x00\x00\x00Stream Log Client!'
tRp4941
asbasbasbag56
(g72
g58
NtRp4942
(dp4943
g61
(dp4944
sg70
g3723
sg63
(lp4945
g56
(g77
g58
NtRp4946
(dp4947
g61
(dp4948
g81
g82
ssg70
g4942
sg63
(lp4949
S'title'
p4950
asbag56
(g77
g58
NtRp4951
(dp4952
g61
(dp4953
g88
g89
ssg70
g4942
sg63
(lp4954
S':'
asbag56
(g77
g58
NtRp4955
(dp4956
g61
(dp4957
sg70
g4942
sg63
(lp4958
g56
(g57
g58
NtRp4959
(dp4960
g61
(dp4961
g69
I5
ssg70
g4955
sg63
(lp4962
g121
asbasbasbag56
(g72
g58
NtRp4963
(dp4964
g61
(dp4965
sg70
g3723
sg63
(lp4966
g56
(g77
g58
NtRp4967
(dp4968
g61
(dp4969
g81
g82
ssg70
g4963
sg63
(lp4970
g2348
asbag56
(g77
g58
NtRp4971
(dp4972
g61
(dp4973
g88
g89
ssg70
g4963
sg63
(lp4974
S':'
asbag56
(g77
g58
NtRp4975
(dp4976
g61
(dp4977
sg70
g4963
sg63
(lp4978
g56
(g57
g58
NtRp4979
(dp4980
g61
(dp4981
g69
I5
ssg70
g4975
sg63
(lp4982
g2361
asbasbasbag56
(g72
g58
NtRp4983
(dp4984
g61
(dp4985
sg70
g3723
sg63
(lp4986
g56
(g77
g58
NtRp4987
(dp4988
g61
(dp4989
g81
g82
ssg70
g4983
sg63
(lp4990
S'view'
p4991
asbag56
(g77
g58
NtRp4992
(dp4993
g61
(dp4994
g88
g89
ssg70
g4983
sg63
(lp4995
S':'
asbag56
(g77
g58
NtRp4996
(dp4997
g61
(dp4998
sg70
g4983
sg63
(lp4999
g56
(g57
g58
NtRp5000
(dp5001
g61
(dp5002
g69
I5
ssg70
g4996
sg63
(lp5003
S'default/call.html'
p5004
asbasbasbasbasbsS'locals'
p5005
(dp5006
S'self'
p5007
S'<gluon.dal.SQLiteAdapter object>'
p5008
sS'r'
S'None'
p5009
sS'obj'
p5010
S"'json'"
p5011
sS'fieldtype'
p5012
S"'id'"
p5013
sssS'traceback'
p5014
S'Traceback (most recent call last):\n  File "/home/jose/DESARROLLO/web2py199/gluon/restricted.py", line 194, in restricted\n    exec ccode in environment\n  File "/home/jose/DESARROLLO/web2py199/applications/streamlog/controllers/default.py", line 176, in <module>\n  File "/home/jose/DESARROLLO/web2py199/gluon/globals.py", line 149, in <lambda>\n    self._caller = lambda f: f()\n  File "/home/jose/DESARROLLO/web2py199/applications/streamlog/controllers/default.py", line 156, in call\n    return service()\n  File "/home/jose/DESARROLLO/web2py199/gluon/tools.py", line 3839, in __call__\n    return self.serve_json(request.args[1:])\n  File "/home/jose/DESARROLLO/web2py199/gluon/tools.py", line 3656, in serve_json\n    s = universal_caller(self.json_procedures[args[0]],*args[1:],**d)\n  File "/home/jose/DESARROLLO/web2py199/gluon/tools.py", line 3348, in universal_caller\n    return f(**arg_dict)\n  File "/home/jose/DESARROLLO/web2py199/applications/streamlog/controllers/default.py", line 31, in getConnectionData\n    data_connection=db((db.t_log.id==id_log)&(db.t_log.server==db.t_server.id)).select(db.t_log.name,db.t_server.IP,db.t_server.port)\n  File "/home/jose/DESARROLLO/web2py199/gluon/dal.py", line 5697, in select\n    return self.db._adapter.select(self.query,fields,attributes)\n  File "/home/jose/DESARROLLO/web2py199/gluon/dal.py", line 1225, in select\n    sql = self._select(query,fields,attributes)\n  File "/home/jose/DESARROLLO/web2py199/gluon/dal.py", line 1132, in _select\n    sql_w = \' WHERE \' + self.expand(query)\n  File "/home/jose/DESARROLLO/web2py199/gluon/dal.py", line 987, in expand\n    return expression.op(expression.first, expression.second)\n  File "/home/jose/DESARROLLO/web2py199/gluon/dal.py", line 904, in AND\n    return \'(%s AND %s)\' % (self.expand(first),self.expand(second))\n  File "/home/jose/DESARROLLO/web2py199/gluon/dal.py", line 987, in expand\n    return expression.op(expression.first, expression.second)\n  File "/home/jose/DESARROLLO/web2py199/gluon/dal.py", line 936, in EQ\n    return \'(%s = %s)\' % (self.expand(first),self.expand(second,first.type))\n  File "/home/jose/DESARROLLO/web2py199/gluon/dal.py", line 995, in expand\n    return self.represent(expression,field_type)\n  File "/home/jose/DESARROLLO/web2py199/gluon/dal.py", line 1338, in represent\n    return str(int(obj))\nValueError: invalid literal for int() with base 10: \'json\'\n'
p5015
s.