(dp1
S'output'
p2
S''
sS'layer'
p3
S'/home/jose/DESARROLLO/web2py199/applications/streamlog/controllers/default.py'
p4
sS'code'
p5
S'# -*- coding: utf-8 -*-\n# this file is released under public domain and you can use without limitations\n\n#########################################################################\n## This is a samples controller\n## - index is the default action of any application\n## - user is required for authentication and authorization\n## - download is for downloading files uploaded in the db (does streaming)\n## - call exposes all registered services (none by default)\n#########################################################################\n\n\n\ndef index():\n    """\n    example action using the internationalization operator T and flash\n    rendered by views/default/index.html or views/generic.html\n    """\n    return dict(message=T(\'Hello World2\'))\n\n\ndef choose_log():\n    """\n    example action using the internationalization operator T and flash\n    rendered by views/default/index.html or views/generic.html\n    """\n    \n    \n    return dict(message="log")\n\n\ndef type_table():\n    """\n    example action using the internationalization operator T and flash\n    rendered by views/default/index.html or views/generic.html\n    """\n    \n    table=\'<table cellpadding="0" cellspacing="0" border="0" class="display" id="tablelog"> \\\n    <thead> \\\n        <tr> \\\n            <th>IP</th> \\\n            <th>hyphen</th> \\\n            <th>userid</th> \\\n            <th>Time Request</th> \\\n        <th>Request Time</th> \\\n        <th>Status Code</th> \\\n        <th>Size Object</th> \\\n        </tr>\\\n    </thead> \\\n    <tfoot> \\\n        <tr> \\\n            <th>IP</th> \\\n            <th>hyphen</th> \\\n            <th>userid</th>\\\n            <th>Time Request</th> \\\n        <th>Request Time</th> \\\n        <th>Status Code</th> \\\n        <th>Size Object</th> \\\n        </tr>  \\\n    </tfoot>  \\\n        <tbody> \\\n        </tbody> \\\n    </table>\'\n    \n    return table\n\n\ndef user():\n    """\n    exposes:\n    http://..../[app]/default/user/login\n    http://..../[app]/default/user/logout\n    http://..../[app]/default/user/register\n    http://..../[app]/default/user/profile\n    http://..../[app]/default/user/retrieve_password\n    http://..../[app]/default/user/change_password\n    use @auth.requires_login()\n        @auth.requires_membership(\'group name\')\n        @auth.requires_permission(\'read\',\'table name\',record_id)\n    to decorate functions that need access control\n    """\n    return dict(form=auth())\n\ndef error():\n    return dict()\n\n\ndef project_manage():\n    \n    query=(db.t_project.user==me)\n    form = SQLFORM.smartgrid(db.t_project,constraints=dict(t_project=query))\n    #form = SQLFORM.smartgrid(db.t_project)\n    return locals()\n\n\n#@auth.requires_login()\ndef server_manage():\n    db.t_project.id.readable=False\n    db.t_project.name.readable=False\n    db.t_project.description.readable=False\n\n    query=((db.t_project.user==me)&(db.t_server.project==db.t_project.id))\n    #query=(db.t_project.id==1)\n    #query=(db.t_server.project==1)\n    #query=(db.t_project.id==db.t_server.project)\n    form=SQLFORM.grid(query=query)\n    #form=SQLFORM.smartgrid(db.t_server,constraints=dict(t_server=query), selectable=True,searchable=False, csv=False,showbuttontext=True,onupdate=auth.archive)\n\n    #form = SQLFORM.smartgrid(db.t_server)\n    return locals()\n\n#@auth.requires_login()\ndef log_manage():\n    #works\n    #db.t_log.id.readable=False\n    db.t_server.id.readable=False\n    db.t_server.name.readable=False\n    db.t_server.IP.readable=False\n    db.t_server.port.readable=False\n    db.t_server.description.readable=False\n\n\t\n    """\n\tqueries=[]\nif arg1 == "x": queries.append(db.table.field == x)\nif arg2 == "y": queries.append(db.table.otherfield == y)\n# many conditions here....\nquery = reduce(lambda a,b:(a&b),queries)\ndb(query).select()\n\t"""\n\n    #query=(db.t_server.user==me)&(db.t_server.id==db.t_log.server)\n\n    #form = SQLFORM.smartgrid(db.t_log,constraints=dict(t_log=query), selectable=True,searchable=False, csv=False,showbuttontext=True,onupdate=auth.archive)\n    form = SQLFORM.smartgrid(db.t_log)\n    return locals()\n\n\n\ndef download():\n    """\n    allows downloading of uploaded files\n    http://..../[app]/default/download/[filename]\n    """\n    return response.download(request,db)\n\n\ndef call():\n    """\n    exposes services. for example:\n    http://..../[app]/default/call/jsonrpc\n    decorate with @services.jsonrpc the functions to expose\n    supports xml, json, xmlrpc, jsonrpc, amfrpc, rss, csv\n    """\n    return service()\n\n\n@auth.requires_signature()\ndef data():\n    """\n    http://..../[app]/default/data/tables\n    http://..../[app]/default/data/create/[table]\n    http://..../[app]/default/data/read/[table]/[id]\n    http://..../[app]/default/data/update/[table]/[id]\n    http://..../[app]/default/data/delete/[table]/[id]\n    http://..../[app]/default/data/select/[table]\n    http://..../[app]/default/data/search/[table]\n    but URLs bust be signed, i.e. linked with\n      A(\'table\',_href=URL(\'data/tables\',user_signature=True))\n    or with the signed load operator\n      LOAD(\'default\',\'data.load\',args=\'tables\',ajax=True,user_signature=True)\n    """\n    return dict(form=crud())\n\nresponse._vars=response._caller(server_manage)\n'
p6
sS'snapshot'
p7
(dp8
S'exception'
p9
(dp10
S'__hash__'
p11
S"<method-wrapper '__hash__' of exceptions.AttributeError object>"
p12
sS'__setattr__'
p13
S"<method-wrapper '__setattr__' of exceptions.AttributeError object>"
p14
sS'__reduce_ex__'
p15
S'<built-in method __reduce_ex__ of exceptions.AttributeError object>'
p16
sS'__getslice__'
p17
S"<method-wrapper '__getslice__' of exceptions.AttributeError object>"
p18
sS'__getitem__'
p19
S"<method-wrapper '__getitem__' of exceptions.AttributeError object>"
p20
sS'__setstate__'
p21
S'<built-in method __setstate__ of exceptions.AttributeError object>'
p22
sS'args'
p23
S'("\'NoneType\' object has no attribute \'hmac_key\'",)'
p24
sS'__reduce__'
p25
S'<built-in method __reduce__ of exceptions.AttributeError object>'
p26
sS'__str__'
p27
S"<method-wrapper '__str__' of exceptions.AttributeError object>"
p28
sS'__format__'
p29
S'<built-in method __format__ of exceptions.AttributeError object>'
p30
sS'__getattribute__'
p31
S"<method-wrapper '__getattribute__' of exceptions.AttributeError object>"
p32
sS'__class__'
p33
S"<type 'exceptions.AttributeError'>"
p34
sS'__unicode__'
p35
S'<built-in method __unicode__ of exceptions.AttributeError object>'
p36
sS'__delattr__'
p37
S"<method-wrapper '__delattr__' of exceptions.AttributeError object>"
p38
sS'__subclasshook__'
p39
S'<built-in method __subclasshook__ of type object>'
p40
sS'__repr__'
p41
S"<method-wrapper '__repr__' of exceptions.AttributeError object>"
p42
sS'__dict__'
p43
S'{}'
p44
sS'__sizeof__'
p45
S'<built-in method __sizeof__ of exceptions.AttributeError object>'
p46
sS'__doc__'
p47
S"'Attribute not found.'"
p48
sS'__init__'
p49
S"<method-wrapper '__init__' of exceptions.AttributeError object>"
p50
sS'__new__'
p51
S'<built-in method __new__ of type object>'
p52
ssS'evalue'
p53
S"'NoneType' object has no attribute 'hmac_key'"
p54
sS'request'
p55
ccopy_reg
_reconstructor
p56
(cgluon.html
BEAUTIFY
p57
c__builtin__
object
p58
NtRp59
(dp60
S'attributes'
p61
(dp62
sS'components'
p63
(lp64
g56
(cgluon.html
TABLE
p65
g58
NtRp66
(dp67
g61
(dp68
S'level'
p69
I5
ssS'parent'
p70
Nsg63
(lp71
g56
(cgluon.html
TR
p72
g58
NtRp73
(dp74
g61
(dp75
sg70
g66
sg63
(lp76
g56
(cgluon.html
TD
p77
g58
NtRp78
(dp79
g61
(dp80
S'_style'
p81
S'font-weight:bold;'
p82
ssg70
g73
sg63
(lp83
S'ajax'
p84
asbag56
(g77
g58
NtRp85
(dp86
g61
(dp87
S'_valign'
p88
S'top'
p89
ssg70
g73
sg63
(lp90
S':'
asbag56
(g77
g58
NtRp91
(dp92
g61
(dp93
sg70
g73
sg63
(lp94
g56
(g57
g58
NtRp95
(dp96
g61
(dp97
g69
I5
ssg70
g91
sg63
(lp98
S'False'
p99
asbasbasbag56
(g72
g58
NtRp100
(dp101
g61
(dp102
sg70
g66
sg63
(lp103
g56
(g77
g58
NtRp104
(dp105
g61
(dp106
g81
g82
ssg70
g100
sg63
(lp107
S'application'
p108
asbag56
(g77
g58
NtRp109
(dp110
g61
(dp111
g88
g89
ssg70
g100
sg63
(lp112
S':'
asbag56
(g77
g58
NtRp113
(dp114
g61
(dp115
sg70
g100
sg63
(lp116
g56
(g57
g58
NtRp117
(dp118
g61
(dp119
g69
I5
ssg70
g113
sg63
(lp120
S'streamlog'
p121
asbasbasbag56
(g72
g58
NtRp122
(dp123
g61
(dp124
sg70
g66
sg63
(lp125
g56
(g77
g58
NtRp126
(dp127
g61
(dp128
g81
g82
ssg70
g122
sg63
(lp129
g23
asbag56
(g77
g58
NtRp130
(dp131
g61
(dp132
g88
g89
ssg70
g122
sg63
(lp133
S':'
asbag56
(g77
g58
NtRp134
(dp135
g61
(dp136
sg70
g122
sg63
(lp137
g56
(g57
g58
NtRp138
(dp139
g61
(dp140
g69
I5
ssg70
g134
sg63
(lp141
g56
(g65
g58
NtRp142
(dp143
g61
(dp144
g69
I4
ssg70
Nsg63
(lp145
g56
(g72
g58
NtRp146
(dp147
g61
(dp148
sg70
g142
sg63
(lp149
g56
(g77
g58
NtRp150
(dp151
g61
(dp152
sg70
g146
sg63
(lp153
g56
(g57
g58
NtRp154
(dp155
g61
(dp156
g69
I4
ssg70
g150
sg63
(lp157
S'view'
p158
asbasbasbag56
(g72
g58
NtRp159
(dp160
g61
(dp161
sg70
g142
sg63
(lp162
g56
(g77
g58
NtRp163
(dp164
g61
(dp165
sg70
g159
sg63
(lp166
g56
(g57
g58
NtRp167
(dp168
g61
(dp169
g69
I4
ssg70
g163
sg63
(lp170
S't_server'
p171
asbasbasbag56
(g72
g58
NtRp172
(dp173
g61
(dp174
sg70
g142
sg63
(lp175
g56
(g77
g58
NtRp176
(dp177
g61
(dp178
sg70
g172
sg63
(lp179
g56
(g57
g58
NtRp180
(dp181
g61
(dp182
g69
I4
ssg70
g176
sg63
(lp183
S'1'
asbasbasbasbasbasbasbag56
(g72
g58
NtRp184
(dp185
g61
(dp186
sg70
g66
sg63
(lp187
g56
(g77
g58
NtRp188
(dp189
g61
(dp190
g81
g82
ssg70
g184
sg63
(lp191
S'body'
p192
asbag56
(g77
g58
NtRp193
(dp194
g61
(dp195
g88
g89
ssg70
g184
sg63
(lp196
S':'
asbag56
(g77
g58
NtRp197
(dp198
g61
(dp199
sg70
g184
sg63
(lp200
g56
(g57
g58
NtRp201
(dp202
g61
(dp203
g69
I5
ssg70
g197
sg63
(lp204
S'<cStringIO.StringO object at 0x24ec458>'
p205
asbasbasbag56
(g72
g58
NtRp206
(dp207
g61
(dp208
sg70
g66
sg63
(lp209
g56
(g77
g58
NtRp210
(dp211
g61
(dp212
g81
g82
ssg70
g206
sg63
(lp213
S'client'
p214
asbag56
(g77
g58
NtRp215
(dp216
g61
(dp217
g88
g89
ssg70
g206
sg63
(lp218
S':'
asbag56
(g77
g58
NtRp219
(dp220
g61
(dp221
sg70
g206
sg63
(lp222
g56
(g57
g58
NtRp223
(dp224
g61
(dp225
g69
I5
ssg70
g219
sg63
(lp226
S'127.0.0.1'
p227
asbasbasbag56
(g72
g58
NtRp228
(dp229
g61
(dp230
sg70
g66
sg63
(lp231
g56
(g77
g58
NtRp232
(dp233
g61
(dp234
g81
g82
ssg70
g228
sg63
(lp235
S'controller'
p236
asbag56
(g77
g58
NtRp237
(dp238
g61
(dp239
g88
g89
ssg70
g228
sg63
(lp240
S':'
asbag56
(g77
g58
NtRp241
(dp242
g61
(dp243
sg70
g228
sg63
(lp244
g56
(g57
g58
NtRp245
(dp246
g61
(dp247
g69
I5
ssg70
g241
sg63
(lp248
S'default'
p249
asbasbasbag56
(g72
g58
NtRp250
(dp251
g61
(dp252
sg70
g66
sg63
(lp253
g56
(g77
g58
NtRp254
(dp255
g61
(dp256
g81
g82
ssg70
g250
sg63
(lp257
S'cookies'
p258
asbag56
(g77
g58
NtRp259
(dp260
g61
(dp261
g88
g89
ssg70
g250
sg63
(lp262
S':'
asbag56
(g77
g58
NtRp263
(dp264
g61
(dp265
sg70
g250
sg63
(lp266
g56
(g57
g58
NtRp267
(dp268
g61
(dp269
g69
I5
ssg70
g263
sg63
(lp270
g56
(g65
g58
NtRp271
(dp272
g61
(dp273
g69
I4
ssg70
Nsg63
(lp274
g56
(g72
g58
NtRp275
(dp276
g61
(dp277
sg70
g271
sg63
(lp278
g56
(g77
g58
NtRp279
(dp280
g61
(dp281
g81
g82
ssg70
g275
sg63
(lp282
S'session_id_admin'
p283
asbag56
(g77
g58
NtRp284
(dp285
g61
(dp286
g88
g89
ssg70
g275
sg63
(lp287
S':'
asbag56
(g77
g58
NtRp288
(dp289
g61
(dp290
sg70
g275
sg63
(lp291
g56
(g57
g58
NtRp292
(dp293
g61
(dp294
g69
I4
ssg70
g288
sg63
(lp295
g56
(g65
g58
NtRp296
(dp297
g61
(dp298
g69
I3
ssg70
Nsg63
(lp299
g56
(g72
g58
NtRp300
(dp301
g61
(dp302
sg70
g296
sg63
(lp303
g56
(g77
g58
NtRp304
(dp305
g61
(dp306
g81
g82
ssg70
g300
sg63
(lp307
S'comment'
p308
asbag56
(g77
g58
NtRp309
(dp310
g61
(dp311
g88
g89
ssg70
g300
sg63
(lp312
S':'
asbag56
(g77
g58
NtRp313
(dp314
g61
(dp315
sg70
g300
sg63
(lp316
g56
(g57
g58
NtRp317
(dp318
g61
(dp319
g69
I3
ssg70
g313
sg63
(lp320
S''
asbasbasbag56
(g72
g58
NtRp321
(dp322
g61
(dp323
sg70
g296
sg63
(lp324
g56
(g77
g58
NtRp325
(dp326
g61
(dp327
g81
g82
ssg70
g321
sg63
(lp328
S'domain'
p329
asbag56
(g77
g58
NtRp330
(dp331
g61
(dp332
g88
g89
ssg70
g321
sg63
(lp333
S':'
asbag56
(g77
g58
NtRp334
(dp335
g61
(dp336
sg70
g321
sg63
(lp337
g56
(g57
g58
NtRp338
(dp339
g61
(dp340
g69
I3
ssg70
g334
sg63
(lp341
S''
asbasbasbag56
(g72
g58
NtRp342
(dp343
g61
(dp344
sg70
g296
sg63
(lp345
g56
(g77
g58
NtRp346
(dp347
g61
(dp348
g81
g82
ssg70
g342
sg63
(lp349
S'expires'
p350
asbag56
(g77
g58
NtRp351
(dp352
g61
(dp353
g88
g89
ssg70
g342
sg63
(lp354
S':'
asbag56
(g77
g58
NtRp355
(dp356
g61
(dp357
sg70
g342
sg63
(lp358
g56
(g57
g58
NtRp359
(dp360
g61
(dp361
g69
I3
ssg70
g355
sg63
(lp362
S''
asbasbasbag56
(g72
g58
NtRp363
(dp364
g61
(dp365
sg70
g296
sg63
(lp366
g56
(g77
g58
NtRp367
(dp368
g61
(dp369
g81
g82
ssg70
g363
sg63
(lp370
S'httponly'
p371
asbag56
(g77
g58
NtRp372
(dp373
g61
(dp374
g88
g89
ssg70
g363
sg63
(lp375
S':'
asbag56
(g77
g58
NtRp376
(dp377
g61
(dp378
sg70
g363
sg63
(lp379
g56
(g57
g58
NtRp380
(dp381
g61
(dp382
g69
I3
ssg70
g376
sg63
(lp383
S''
asbasbasbag56
(g72
g58
NtRp384
(dp385
g61
(dp386
sg70
g296
sg63
(lp387
g56
(g77
g58
NtRp388
(dp389
g61
(dp390
g81
g82
ssg70
g384
sg63
(lp391
S'max-age'
p392
asbag56
(g77
g58
NtRp393
(dp394
g61
(dp395
g88
g89
ssg70
g384
sg63
(lp396
S':'
asbag56
(g77
g58
NtRp397
(dp398
g61
(dp399
sg70
g384
sg63
(lp400
g56
(g57
g58
NtRp401
(dp402
g61
(dp403
g69
I3
ssg70
g397
sg63
(lp404
S''
asbasbasbag56
(g72
g58
NtRp405
(dp406
g61
(dp407
sg70
g296
sg63
(lp408
g56
(g77
g58
NtRp409
(dp410
g61
(dp411
g81
g82
ssg70
g405
sg63
(lp412
S'path'
p413
asbag56
(g77
g58
NtRp414
(dp415
g61
(dp416
g88
g89
ssg70
g405
sg63
(lp417
S':'
asbag56
(g77
g58
NtRp418
(dp419
g61
(dp420
sg70
g405
sg63
(lp421
g56
(g57
g58
NtRp422
(dp423
g61
(dp424
g69
I3
ssg70
g418
sg63
(lp425
S''
asbasbasbag56
(g72
g58
NtRp426
(dp427
g61
(dp428
sg70
g296
sg63
(lp429
g56
(g77
g58
NtRp430
(dp431
g61
(dp432
g81
g82
ssg70
g426
sg63
(lp433
S'secure'
p434
asbag56
(g77
g58
NtRp435
(dp436
g61
(dp437
g88
g89
ssg70
g426
sg63
(lp438
S':'
asbag56
(g77
g58
NtRp439
(dp440
g61
(dp441
sg70
g426
sg63
(lp442
g56
(g57
g58
NtRp443
(dp444
g61
(dp445
g69
I3
ssg70
g439
sg63
(lp446
S''
asbasbasbag56
(g72
g58
NtRp447
(dp448
g61
(dp449
sg70
g296
sg63
(lp450
g56
(g77
g58
NtRp451
(dp452
g61
(dp453
g81
g82
ssg70
g447
sg63
(lp454
S'version'
p455
asbag56
(g77
g58
NtRp456
(dp457
g61
(dp458
g88
g89
ssg70
g447
sg63
(lp459
S':'
asbag56
(g77
g58
NtRp460
(dp461
g61
(dp462
sg70
g447
sg63
(lp463
g56
(g57
g58
NtRp464
(dp465
g61
(dp466
g69
I3
ssg70
g460
sg63
(lp467
S''
asbasbasbasbasbasbasbag56
(g72
g58
NtRp468
(dp469
g61
(dp470
sg70
g271
sg63
(lp471
g56
(g77
g58
NtRp472
(dp473
g61
(dp474
g81
g82
ssg70
g468
sg63
(lp475
S'session_id_streamlog'
p476
asbag56
(g77
g58
NtRp477
(dp478
g61
(dp479
g88
g89
ssg70
g468
sg63
(lp480
S':'
asbag56
(g77
g58
NtRp481
(dp482
g61
(dp483
sg70
g468
sg63
(lp484
g56
(g57
g58
NtRp485
(dp486
g61
(dp487
g69
I4
ssg70
g481
sg63
(lp488
g56
(g65
g58
NtRp489
(dp490
g61
(dp491
g69
I3
ssg70
Nsg63
(lp492
g56
(g72
g58
NtRp493
(dp494
g61
(dp495
sg70
g489
sg63
(lp496
g56
(g77
g58
NtRp497
(dp498
g61
(dp499
g81
g82
ssg70
g493
sg63
(lp500
g308
asbag56
(g77
g58
NtRp501
(dp502
g61
(dp503
g88
g89
ssg70
g493
sg63
(lp504
S':'
asbag56
(g77
g58
NtRp505
(dp506
g61
(dp507
sg70
g493
sg63
(lp508
g56
(g57
g58
NtRp509
(dp510
g61
(dp511
g69
I3
ssg70
g505
sg63
(lp512
S''
asbasbasbag56
(g72
g58
NtRp513
(dp514
g61
(dp515
sg70
g489
sg63
(lp516
g56
(g77
g58
NtRp517
(dp518
g61
(dp519
g81
g82
ssg70
g513
sg63
(lp520
g329
asbag56
(g77
g58
NtRp521
(dp522
g61
(dp523
g88
g89
ssg70
g513
sg63
(lp524
S':'
asbag56
(g77
g58
NtRp525
(dp526
g61
(dp527
sg70
g513
sg63
(lp528
g56
(g57
g58
NtRp529
(dp530
g61
(dp531
g69
I3
ssg70
g525
sg63
(lp532
S''
asbasbasbag56
(g72
g58
NtRp533
(dp534
g61
(dp535
sg70
g489
sg63
(lp536
g56
(g77
g58
NtRp537
(dp538
g61
(dp539
g81
g82
ssg70
g533
sg63
(lp540
g350
asbag56
(g77
g58
NtRp541
(dp542
g61
(dp543
g88
g89
ssg70
g533
sg63
(lp544
S':'
asbag56
(g77
g58
NtRp545
(dp546
g61
(dp547
sg70
g533
sg63
(lp548
g56
(g57
g58
NtRp549
(dp550
g61
(dp551
g69
I3
ssg70
g545
sg63
(lp552
S''
asbasbasbag56
(g72
g58
NtRp553
(dp554
g61
(dp555
sg70
g489
sg63
(lp556
g56
(g77
g58
NtRp557
(dp558
g61
(dp559
g81
g82
ssg70
g553
sg63
(lp560
g371
asbag56
(g77
g58
NtRp561
(dp562
g61
(dp563
g88
g89
ssg70
g553
sg63
(lp564
S':'
asbag56
(g77
g58
NtRp565
(dp566
g61
(dp567
sg70
g553
sg63
(lp568
g56
(g57
g58
NtRp569
(dp570
g61
(dp571
g69
I3
ssg70
g565
sg63
(lp572
S''
asbasbasbag56
(g72
g58
NtRp573
(dp574
g61
(dp575
sg70
g489
sg63
(lp576
g56
(g77
g58
NtRp577
(dp578
g61
(dp579
g81
g82
ssg70
g573
sg63
(lp580
g392
asbag56
(g77
g58
NtRp581
(dp582
g61
(dp583
g88
g89
ssg70
g573
sg63
(lp584
S':'
asbag56
(g77
g58
NtRp585
(dp586
g61
(dp587
sg70
g573
sg63
(lp588
g56
(g57
g58
NtRp589
(dp590
g61
(dp591
g69
I3
ssg70
g585
sg63
(lp592
S''
asbasbasbag56
(g72
g58
NtRp593
(dp594
g61
(dp595
sg70
g489
sg63
(lp596
g56
(g77
g58
NtRp597
(dp598
g61
(dp599
g81
g82
ssg70
g593
sg63
(lp600
g413
asbag56
(g77
g58
NtRp601
(dp602
g61
(dp603
g88
g89
ssg70
g593
sg63
(lp604
S':'
asbag56
(g77
g58
NtRp605
(dp606
g61
(dp607
sg70
g593
sg63
(lp608
g56
(g57
g58
NtRp609
(dp610
g61
(dp611
g69
I3
ssg70
g605
sg63
(lp612
S''
asbasbasbag56
(g72
g58
NtRp613
(dp614
g61
(dp615
sg70
g489
sg63
(lp616
g56
(g77
g58
NtRp617
(dp618
g61
(dp619
g81
g82
ssg70
g613
sg63
(lp620
g434
asbag56
(g77
g58
NtRp621
(dp622
g61
(dp623
g88
g89
ssg70
g613
sg63
(lp624
S':'
asbag56
(g77
g58
NtRp625
(dp626
g61
(dp627
sg70
g613
sg63
(lp628
g56
(g57
g58
NtRp629
(dp630
g61
(dp631
g69
I3
ssg70
g625
sg63
(lp632
S''
asbasbasbag56
(g72
g58
NtRp633
(dp634
g61
(dp635
sg70
g489
sg63
(lp636
g56
(g77
g58
NtRp637
(dp638
g61
(dp639
g81
g82
ssg70
g633
sg63
(lp640
g455
asbag56
(g77
g58
NtRp641
(dp642
g61
(dp643
g88
g89
ssg70
g633
sg63
(lp644
S':'
asbag56
(g77
g58
NtRp645
(dp646
g61
(dp647
sg70
g633
sg63
(lp648
g56
(g57
g58
NtRp649
(dp650
g61
(dp651
g69
I3
ssg70
g645
sg63
(lp652
S''
asbasbasbasbasbasbasbasbasbasbasbag56
(g72
g58
NtRp653
(dp654
g61
(dp655
sg70
g66
sg63
(lp656
g56
(g77
g58
NtRp657
(dp658
g61
(dp659
g81
g82
ssg70
g653
sg63
(lp660
S'env'
p661
asbag56
(g77
g58
NtRp662
(dp663
g61
(dp664
g88
g89
ssg70
g653
sg63
(lp665
S':'
asbag56
(g77
g58
NtRp666
(dp667
g61
(dp668
sg70
g653
sg63
(lp669
g56
(g57
g58
NtRp670
(dp671
g61
(dp672
g69
I5
ssg70
g666
sg63
(lp673
g56
(g65
g58
NtRp674
(dp675
g61
(dp676
g69
I4
ssg70
Nsg63
(lp677
g56
(g72
g58
NtRp678
(dp679
g61
(dp680
sg70
g674
sg63
(lp681
g56
(g77
g58
NtRp682
(dp683
g61
(dp684
g81
g82
ssg70
g678
sg63
(lp685
S'app_folders'
p686
asbag56
(g77
g58
NtRp687
(dp688
g61
(dp689
g88
g89
ssg70
g678
sg63
(lp690
S':'
asbag56
(g77
g58
NtRp691
(dp692
g61
(dp693
sg70
g678
sg63
(lp694
g56
(g57
g58
NtRp695
(dp696
g61
(dp697
g69
I4
ssg70
g691
sg63
(lp698
S"set(['/home/jose/DESARROLLO/web2py199/applications/streamlog/', '/home/jose/DESARROLLO/web2py199/applications/admin/'])"
p699
asbasbasbag56
(g72
g58
NtRp700
(dp701
g61
(dp702
sg70
g674
sg63
(lp703
g56
(g77
g58
NtRp704
(dp705
g61
(dp706
g81
g82
ssg70
g700
sg63
(lp707
S'applications_parent'
p708
asbag56
(g77
g58
NtRp709
(dp710
g61
(dp711
g88
g89
ssg70
g700
sg63
(lp712
S':'
asbag56
(g77
g58
NtRp713
(dp714
g61
(dp715
sg70
g700
sg63
(lp716
g56
(g57
g58
NtRp717
(dp718
g61
(dp719
g69
I4
ssg70
g713
sg63
(lp720
S'/home/jose/DESARROLLO/web2py199'
p721
asbasbasbag56
(g72
g58
NtRp722
(dp723
g61
(dp724
sg70
g674
sg63
(lp725
g56
(g77
g58
NtRp726
(dp727
g61
(dp728
g81
g82
ssg70
g722
sg63
(lp729
S'cmd_args'
p730
asbag56
(g77
g58
NtRp731
(dp732
g61
(dp733
g88
g89
ssg70
g722
sg63
(lp734
S':'
asbag56
(g77
g58
NtRp735
(dp736
g61
(dp737
sg70
g722
sg63
(lp738
g56
(g57
g58
NtRp739
(dp740
g61
(dp741
g69
I4
ssg70
g735
sg63
(lp742
g56
(g65
g58
NtRp743
(dp744
g61
(dp745
g69
I3
ssg70
Nsg63
(lp746
sbasbasbasbag56
(g72
g58
NtRp747
(dp748
g61
(dp749
sg70
g674
sg63
(lp750
g56
(g77
g58
NtRp751
(dp752
g61
(dp753
g81
g82
ssg70
g747
sg63
(lp754
S'cmd_options'
p755
asbag56
(g77
g58
NtRp756
(dp757
g61
(dp758
g88
g89
ssg70
g747
sg63
(lp759
S':'
asbag56
(g77
g58
NtRp760
(dp761
g61
(dp762
sg70
g747
sg63
(lp763
g56
(g57
g58
NtRp764
(dp765
g61
(dp766
g69
I4
ssg70
g760
sg63
(lp767
S"<Values at 0x1c79f80: {'verbose': False, 'ip': '127.0.0.1', 'shutdown_timeout': 5, 'taskbar': False, 'nocron': False, 'pid_filename': 'httpserver.pid', 'maxthreads': None, 'softcron': False, 'server_name': 'jose', 'bpython': False, 'nogui': False, 'port': 8000, 'extcron': False, 'debuglevel': 30, 'test': None, 'folder': '/home/jose/DESARROLLO/web2py199', 'config': '', 'import_models': False, 'winservice': '', 'shell': None, 'run': '', 'log_filename': 'httpserver.log', 'args': [''], 'ssl_ca_certificate': None, 'scheduler': None, 'profiler_filename': None, 'ssl_private_key': '', 'password': 't', 'request_queue_size': 5, 'ssl_certificate': '', 'cronjob': False, 'plain': False, 'quiet': False, 'interfaces': None, 'minthreads': None, 'timeout': 10, 'numthreads': None, 'nobanner': False}>"
p768
asbasbasbag56
(g72
g58
NtRp769
(dp770
g61
(dp771
sg70
g674
sg63
(lp772
g56
(g77
g58
NtRp773
(dp774
g61
(dp775
g81
g82
ssg70
g769
sg63
(lp776
S'db_sessions'
p777
asbag56
(g77
g58
NtRp778
(dp779
g61
(dp780
g88
g89
ssg70
g769
sg63
(lp781
S':'
asbag56
(g77
g58
NtRp782
(dp783
g61
(dp784
sg70
g769
sg63
(lp785
g56
(g57
g58
NtRp786
(dp787
g61
(dp788
g69
I4
ssg70
g782
sg63
(lp789
S'set([])'
p790
asbasbasbag56
(g72
g58
NtRp791
(dp792
g61
(dp793
sg70
g674
sg63
(lp794
g56
(g77
g58
NtRp795
(dp796
g61
(dp797
g81
g82
ssg70
g791
sg63
(lp798
S'debugging'
p799
asbag56
(g77
g58
NtRp800
(dp801
g61
(dp802
g88
g89
ssg70
g791
sg63
(lp803
S':'
asbag56
(g77
g58
NtRp804
(dp805
g61
(dp806
sg70
g791
sg63
(lp807
g56
(g57
g58
NtRp808
(dp809
g61
(dp810
g69
I4
ssg70
g804
sg63
(lp811
g99
asbasbasbag56
(g72
g58
NtRp812
(dp813
g61
(dp814
sg70
g674
sg63
(lp815
g56
(g77
g58
NtRp816
(dp817
g61
(dp818
g81
g82
ssg70
g812
sg63
(lp819
S'gluon_parent'
p820
asbag56
(g77
g58
NtRp821
(dp822
g61
(dp823
g88
g89
ssg70
g812
sg63
(lp824
S':'
asbag56
(g77
g58
NtRp825
(dp826
g61
(dp827
sg70
g812
sg63
(lp828
g56
(g57
g58
NtRp829
(dp830
g61
(dp831
g69
I4
ssg70
g825
sg63
(lp832
S'/home/jose/DESARROLLO/web2py199'
p833
asbasbasbag56
(g72
g58
NtRp834
(dp835
g61
(dp836
sg70
g674
sg63
(lp837
g56
(g77
g58
NtRp838
(dp839
g61
(dp840
g81
g82
ssg70
g834
sg63
(lp841
S'http_accept'
p842
asbag56
(g77
g58
NtRp843
(dp844
g61
(dp845
g88
g89
ssg70
g834
sg63
(lp846
S':'
asbag56
(g77
g58
NtRp847
(dp848
g61
(dp849
sg70
g834
sg63
(lp850
g56
(g57
g58
NtRp851
(dp852
g61
(dp853
g69
I4
ssg70
g847
sg63
(lp854
S'text/html,application/xhtml+xml,application/xml;q=0.9,*/*;q=0.8'
p855
asbasbasbag56
(g72
g58
NtRp856
(dp857
g61
(dp858
sg70
g674
sg63
(lp859
g56
(g77
g58
NtRp860
(dp861
g61
(dp862
g81
g82
ssg70
g856
sg63
(lp863
S'http_accept_charset'
p864
asbag56
(g77
g58
NtRp865
(dp866
g61
(dp867
g88
g89
ssg70
g856
sg63
(lp868
S':'
asbag56
(g77
g58
NtRp869
(dp870
g61
(dp871
sg70
g856
sg63
(lp872
g56
(g57
g58
NtRp873
(dp874
g61
(dp875
g69
I4
ssg70
g869
sg63
(lp876
S'ISO-8859-1,utf-8;q=0.7,*;q=0.3'
p877
asbasbasbag56
(g72
g58
NtRp878
(dp879
g61
(dp880
sg70
g674
sg63
(lp881
g56
(g77
g58
NtRp882
(dp883
g61
(dp884
g81
g82
ssg70
g878
sg63
(lp885
S'http_accept_encoding'
p886
asbag56
(g77
g58
NtRp887
(dp888
g61
(dp889
g88
g89
ssg70
g878
sg63
(lp890
S':'
asbag56
(g77
g58
NtRp891
(dp892
g61
(dp893
sg70
g878
sg63
(lp894
g56
(g57
g58
NtRp895
(dp896
g61
(dp897
g69
I4
ssg70
g891
sg63
(lp898
S'gzip,deflate,sdch'
p899
asbasbasbag56
(g72
g58
NtRp900
(dp901
g61
(dp902
sg70
g674
sg63
(lp903
g56
(g77
g58
NtRp904
(dp905
g61
(dp906
g81
g82
ssg70
g900
sg63
(lp907
S'http_accept_language'
p908
asbag56
(g77
g58
NtRp909
(dp910
g61
(dp911
g88
g89
ssg70
g900
sg63
(lp912
S':'
asbag56
(g77
g58
NtRp913
(dp914
g61
(dp915
sg70
g900
sg63
(lp916
g56
(g57
g58
NtRp917
(dp918
g61
(dp919
g69
I4
ssg70
g913
sg63
(lp920
S'en-US,en;q=0.8'
p921
asbasbasbag56
(g72
g58
NtRp922
(dp923
g61
(dp924
sg70
g674
sg63
(lp925
g56
(g77
g58
NtRp926
(dp927
g61
(dp928
g81
g82
ssg70
g922
sg63
(lp929
S'http_connection'
p930
asbag56
(g77
g58
NtRp931
(dp932
g61
(dp933
g88
g89
ssg70
g922
sg63
(lp934
S':'
asbag56
(g77
g58
NtRp935
(dp936
g61
(dp937
sg70
g922
sg63
(lp938
g56
(g57
g58
NtRp939
(dp940
g61
(dp941
g69
I4
ssg70
g935
sg63
(lp942
S'keep-alive'
p943
asbasbasbag56
(g72
g58
NtRp944
(dp945
g61
(dp946
sg70
g674
sg63
(lp947
g56
(g77
g58
NtRp948
(dp949
g61
(dp950
g81
g82
ssg70
g944
sg63
(lp951
S'http_cookie'
p952
asbag56
(g77
g58
NtRp953
(dp954
g61
(dp955
g88
g89
ssg70
g944
sg63
(lp956
S':'
asbag56
(g77
g58
NtRp957
(dp958
g61
(dp959
sg70
g944
sg63
(lp960
g56
(g57
g58
NtRp961
(dp962
g61
(dp963
g69
I4
ssg70
g957
sg63
(lp964
S'session_id_admin=127.0.0.1-6629b317-202e-4086-a4d9-b95da77bd23f; session_id_streamlog=127.0.0.1-e1466c71-8e5f-49aa-afa5-387c8777d3e6'
p965
asbasbasbag56
(g72
g58
NtRp966
(dp967
g61
(dp968
sg70
g674
sg63
(lp969
g56
(g77
g58
NtRp970
(dp971
g61
(dp972
g81
g82
ssg70
g966
sg63
(lp973
S'http_host'
p974
asbag56
(g77
g58
NtRp975
(dp976
g61
(dp977
g88
g89
ssg70
g966
sg63
(lp978
S':'
asbag56
(g77
g58
NtRp979
(dp980
g61
(dp981
sg70
g966
sg63
(lp982
g56
(g57
g58
NtRp983
(dp984
g61
(dp985
g69
I4
ssg70
g979
sg63
(lp986
S'localhost:8000'
p987
asbasbasbag56
(g72
g58
NtRp988
(dp989
g61
(dp990
sg70
g674
sg63
(lp991
g56
(g77
g58
NtRp992
(dp993
g61
(dp994
g81
g82
ssg70
g988
sg63
(lp995
S'http_user_agent'
p996
asbag56
(g77
g58
NtRp997
(dp998
g61
(dp999
g88
g89
ssg70
g988
sg63
(lp1000
S':'
asbag56
(g77
g58
NtRp1001
(dp1002
g61
(dp1003
sg70
g988
sg63
(lp1004
g56
(g57
g58
NtRp1005
(dp1006
g61
(dp1007
g69
I4
ssg70
g1001
sg63
(lp1008
S'Mozilla/5.0 (X11; Linux x86_64) AppleWebKit/535.19 (KHTML, like Gecko) Ubuntu/11.10 Chromium/18.0.1025.168 Chrome/18.0.1025.168 Safari/535.19'
p1009
asbasbasbag56
(g72
g58
NtRp1010
(dp1011
g61
(dp1012
sg70
g674
sg63
(lp1013
g56
(g77
g58
NtRp1014
(dp1015
g61
(dp1016
g81
g82
ssg70
g1010
sg63
(lp1017
S'is_jython'
p1018
asbag56
(g77
g58
NtRp1019
(dp1020
g61
(dp1021
g88
g89
ssg70
g1010
sg63
(lp1022
S':'
asbag56
(g77
g58
NtRp1023
(dp1024
g61
(dp1025
sg70
g1010
sg63
(lp1026
g56
(g57
g58
NtRp1027
(dp1028
g61
(dp1029
g69
I4
ssg70
g1023
sg63
(lp1030
g99
asbasbasbag56
(g72
g58
NtRp1031
(dp1032
g61
(dp1033
sg70
g674
sg63
(lp1034
g56
(g77
g58
NtRp1035
(dp1036
g61
(dp1037
g81
g82
ssg70
g1031
sg63
(lp1038
S'path_info'
p1039
asbag56
(g77
g58
NtRp1040
(dp1041
g61
(dp1042
g88
g89
ssg70
g1031
sg63
(lp1043
S':'
asbag56
(g77
g58
NtRp1044
(dp1045
g61
(dp1046
sg70
g1031
sg63
(lp1047
g56
(g57
g58
NtRp1048
(dp1049
g61
(dp1050
g69
I4
ssg70
g1044
sg63
(lp1051
S'/streamlog/default/server_manage/view/t_server/1'
p1052
asbasbasbag56
(g72
g58
NtRp1053
(dp1054
g61
(dp1055
sg70
g674
sg63
(lp1056
g56
(g77
g58
NtRp1057
(dp1058
g61
(dp1059
g81
g82
ssg70
g1053
sg63
(lp1060
S'query_string'
p1061
asbag56
(g77
g58
NtRp1062
(dp1063
g61
(dp1064
g88
g89
ssg70
g1053
sg63
(lp1065
S':'
asbag56
(g77
g58
NtRp1066
(dp1067
g61
(dp1068
sg70
g1053
sg63
(lp1069
g56
(g57
g58
NtRp1070
(dp1071
g61
(dp1072
g69
I4
ssg70
g1066
sg63
(lp1073
S'_signature=26aeee650eac1dd7b92a0c473b662003fe057841'
p1074
asbasbasbag56
(g72
g58
NtRp1075
(dp1076
g61
(dp1077
sg70
g674
sg63
(lp1078
g56
(g77
g58
NtRp1079
(dp1080
g61
(dp1081
g81
g82
ssg70
g1075
sg63
(lp1082
S'remote_addr'
p1083
asbag56
(g77
g58
NtRp1084
(dp1085
g61
(dp1086
g88
g89
ssg70
g1075
sg63
(lp1087
S':'
asbag56
(g77
g58
NtRp1088
(dp1089
g61
(dp1090
sg70
g1075
sg63
(lp1091
g56
(g57
g58
NtRp1092
(dp1093
g61
(dp1094
g69
I4
ssg70
g1088
sg63
(lp1095
g227
asbasbasbag56
(g72
g58
NtRp1096
(dp1097
g61
(dp1098
sg70
g674
sg63
(lp1099
g56
(g77
g58
NtRp1100
(dp1101
g61
(dp1102
g81
g82
ssg70
g1096
sg63
(lp1103
S'remote_port'
p1104
asbag56
(g77
g58
NtRp1105
(dp1106
g61
(dp1107
g88
g89
ssg70
g1096
sg63
(lp1108
S':'
asbag56
(g77
g58
NtRp1109
(dp1110
g61
(dp1111
sg70
g1096
sg63
(lp1112
g56
(g57
g58
NtRp1113
(dp1114
g61
(dp1115
g69
I4
ssg70
g1109
sg63
(lp1116
S'33679'
p1117
asbasbasbag56
(g72
g58
NtRp1118
(dp1119
g61
(dp1120
sg70
g674
sg63
(lp1121
g56
(g77
g58
NtRp1122
(dp1123
g61
(dp1124
g81
g82
ssg70
g1118
sg63
(lp1125
S'request_method'
p1126
asbag56
(g77
g58
NtRp1127
(dp1128
g61
(dp1129
g88
g89
ssg70
g1118
sg63
(lp1130
S':'
asbag56
(g77
g58
NtRp1131
(dp1132
g61
(dp1133
sg70
g1118
sg63
(lp1134
g56
(g57
g58
NtRp1135
(dp1136
g61
(dp1137
g69
I4
ssg70
g1131
sg63
(lp1138
S'GET'
p1139
asbasbasbag56
(g72
g58
NtRp1140
(dp1141
g61
(dp1142
sg70
g674
sg63
(lp1143
g56
(g77
g58
NtRp1144
(dp1145
g61
(dp1146
g81
g82
ssg70
g1140
sg63
(lp1147
S'script_name'
p1148
asbag56
(g77
g58
NtRp1149
(dp1150
g61
(dp1151
g88
g89
ssg70
g1140
sg63
(lp1152
S':'
asbag56
(g77
g58
NtRp1153
(dp1154
g61
(dp1155
sg70
g1140
sg63
(lp1156
g56
(g57
g58
NtRp1157
(dp1158
g61
(dp1159
g69
I4
ssg70
g1153
sg63
(lp1160
S''
asbasbasbag56
(g72
g58
NtRp1161
(dp1162
g61
(dp1163
sg70
g674
sg63
(lp1164
g56
(g77
g58
NtRp1165
(dp1166
g61
(dp1167
g81
g82
ssg70
g1161
sg63
(lp1168
S'server_name'
p1169
asbag56
(g77
g58
NtRp1170
(dp1171
g61
(dp1172
g88
g89
ssg70
g1161
sg63
(lp1173
S':'
asbag56
(g77
g58
NtRp1174
(dp1175
g61
(dp1176
sg70
g1161
sg63
(lp1177
g56
(g57
g58
NtRp1178
(dp1179
g61
(dp1180
g69
I4
ssg70
g1174
sg63
(lp1181
S'jose'
p1182
asbasbasbag56
(g72
g58
NtRp1183
(dp1184
g61
(dp1185
sg70
g674
sg63
(lp1186
g56
(g77
g58
NtRp1187
(dp1188
g61
(dp1189
g81
g82
ssg70
g1183
sg63
(lp1190
S'server_port'
p1191
asbag56
(g77
g58
NtRp1192
(dp1193
g61
(dp1194
g88
g89
ssg70
g1183
sg63
(lp1195
S':'
asbag56
(g77
g58
NtRp1196
(dp1197
g61
(dp1198
sg70
g1183
sg63
(lp1199
g56
(g57
g58
NtRp1200
(dp1201
g61
(dp1202
g69
I4
ssg70
g1196
sg63
(lp1203
S'8000'
p1204
asbasbasbag56
(g72
g58
NtRp1205
(dp1206
g61
(dp1207
sg70
g674
sg63
(lp1208
g56
(g77
g58
NtRp1209
(dp1210
g61
(dp1211
g81
g82
ssg70
g1205
sg63
(lp1212
S'server_protocol'
p1213
asbag56
(g77
g58
NtRp1214
(dp1215
g61
(dp1216
g88
g89
ssg70
g1205
sg63
(lp1217
S':'
asbag56
(g77
g58
NtRp1218
(dp1219
g61
(dp1220
sg70
g1205
sg63
(lp1221
g56
(g57
g58
NtRp1222
(dp1223
g61
(dp1224
g69
I4
ssg70
g1218
sg63
(lp1225
S'HTTP/1.1'
p1226
asbasbasbag56
(g72
g58
NtRp1227
(dp1228
g61
(dp1229
sg70
g674
sg63
(lp1230
g56
(g77
g58
NtRp1231
(dp1232
g61
(dp1233
g81
g82
ssg70
g1227
sg63
(lp1234
S'server_software'
p1235
asbag56
(g77
g58
NtRp1236
(dp1237
g61
(dp1238
g88
g89
ssg70
g1227
sg63
(lp1239
S':'
asbag56
(g77
g58
NtRp1240
(dp1241
g61
(dp1242
sg70
g1227
sg63
(lp1243
g56
(g57
g58
NtRp1244
(dp1245
g61
(dp1246
g69
I4
ssg70
g1240
sg63
(lp1247
S'Rocket 1.2.4'
p1248
asbasbasbag56
(g72
g58
NtRp1249
(dp1250
g61
(dp1251
sg70
g674
sg63
(lp1252
g56
(g77
g58
NtRp1253
(dp1254
g61
(dp1255
g81
g82
ssg70
g1249
sg63
(lp1256
S'web2py_crontype'
p1257
asbag56
(g77
g58
NtRp1258
(dp1259
g61
(dp1260
g88
g89
ssg70
g1249
sg63
(lp1261
S':'
asbag56
(g77
g58
NtRp1262
(dp1263
g61
(dp1264
sg70
g1249
sg63
(lp1265
g56
(g57
g58
NtRp1266
(dp1267
g61
(dp1268
g69
I4
ssg70
g1262
sg63
(lp1269
S'hard'
p1270
asbasbasbag56
(g72
g58
NtRp1271
(dp1272
g61
(dp1273
sg70
g674
sg63
(lp1274
g56
(g77
g58
NtRp1275
(dp1276
g61
(dp1277
g81
g82
ssg70
g1271
sg63
(lp1278
S'web2py_path'
p1279
asbag56
(g77
g58
NtRp1280
(dp1281
g61
(dp1282
g88
g89
ssg70
g1271
sg63
(lp1283
S':'
asbag56
(g77
g58
NtRp1284
(dp1285
g61
(dp1286
sg70
g1271
sg63
(lp1287
g56
(g57
g58
NtRp1288
(dp1289
g61
(dp1290
g69
I4
ssg70
g1284
sg63
(lp1291
g721
asbasbasbag56
(g72
g58
NtRp1292
(dp1293
g61
(dp1294
sg70
g674
sg63
(lp1295
g56
(g77
g58
NtRp1296
(dp1297
g61
(dp1298
g81
g82
ssg70
g1292
sg63
(lp1299
S'web2py_version'
p1300
asbag56
(g77
g58
NtRp1301
(dp1302
g61
(dp1303
g88
g89
ssg70
g1292
sg63
(lp1304
S':'
asbag56
(g77
g58
NtRp1305
(dp1306
g61
(dp1307
sg70
g1292
sg63
(lp1308
g56
(g57
g58
NtRp1309
(dp1310
g61
(dp1311
g69
I4
ssg70
g1305
sg63
(lp1312
g56
(g65
g58
NtRp1313
(dp1314
g61
(dp1315
g69
I3
ssg70
Nsg63
(lp1316
g56
(g72
g58
NtRp1317
(dp1318
g61
(dp1319
sg70
g1313
sg63
(lp1320
g56
(g77
g58
NtRp1321
(dp1322
g61
(dp1323
sg70
g1317
sg63
(lp1324
g56
(g57
g58
NtRp1325
(dp1326
g61
(dp1327
g69
I3
ssg70
g1321
sg63
(lp1328
S'1'
asbasbasbag56
(g72
g58
NtRp1329
(dp1330
g61
(dp1331
sg70
g1313
sg63
(lp1332
g56
(g77
g58
NtRp1333
(dp1334
g61
(dp1335
sg70
g1329
sg63
(lp1336
g56
(g57
g58
NtRp1337
(dp1338
g61
(dp1339
g69
I3
ssg70
g1333
sg63
(lp1340
S'99'
p1341
asbasbasbag56
(g72
g58
NtRp1342
(dp1343
g61
(dp1344
sg70
g1313
sg63
(lp1345
g56
(g77
g58
NtRp1346
(dp1347
g61
(dp1348
sg70
g1342
sg63
(lp1349
g56
(g57
g58
NtRp1350
(dp1351
g61
(dp1352
g69
I3
ssg70
g1346
sg63
(lp1353
S'2'
asbasbasbag56
(g72
g58
NtRp1354
(dp1355
g61
(dp1356
sg70
g1313
sg63
(lp1357
g56
(g77
g58
NtRp1358
(dp1359
g61
(dp1360
sg70
g1354
sg63
(lp1361
g56
(g57
g58
NtRp1362
(dp1363
g61
(dp1364
g69
I3
ssg70
g1358
sg63
(lp1365
S'datetime.datetime(2011, 9, 26, 6, 55, 33)'
p1366
asbasbasbag56
(g72
g58
NtRp1367
(dp1368
g61
(dp1369
sg70
g1313
sg63
(lp1370
g56
(g77
g58
NtRp1371
(dp1372
g61
(dp1373
sg70
g1367
sg63
(lp1374
g56
(g57
g58
NtRp1375
(dp1376
g61
(dp1377
g69
I3
ssg70
g1371
sg63
(lp1378
S'stable'
p1379
asbasbasbasbasbasbasbag56
(g72
g58
NtRp1380
(dp1381
g61
(dp1382
sg70
g674
sg63
(lp1383
g56
(g77
g58
NtRp1384
(dp1385
g61
(dp1386
g81
g82
ssg70
g1380
sg63
(lp1387
S'wsgi_errors'
p1388
asbag56
(g77
g58
NtRp1389
(dp1390
g61
(dp1391
g88
g89
ssg70
g1380
sg63
(lp1392
S':'
asbag56
(g77
g58
NtRp1393
(dp1394
g61
(dp1395
sg70
g1380
sg63
(lp1396
g56
(g57
g58
NtRp1397
(dp1398
g61
(dp1399
g69
I4
ssg70
g1393
sg63
(lp1400
S"<open file '<stderr>', mode 'w' at 0x7f84db3ff270>"
p1401
asbasbasbag56
(g72
g58
NtRp1402
(dp1403
g61
(dp1404
sg70
g674
sg63
(lp1405
g56
(g77
g58
NtRp1406
(dp1407
g61
(dp1408
g81
g82
ssg70
g1402
sg63
(lp1409
S'wsgi_file_wrapper'
p1410
asbag56
(g77
g58
NtRp1411
(dp1412
g61
(dp1413
g88
g89
ssg70
g1402
sg63
(lp1414
S':'
asbag56
(g77
g58
NtRp1415
(dp1416
g61
(dp1417
sg70
g1402
sg63
(lp1418
g56
(g57
g58
NtRp1419
(dp1420
g61
(dp1421
g69
I4
ssg70
g1415
sg63
(lp1422
S'<class wsgiref.util.FileWrapper at 0x1b96d50>'
p1423
asbasbasbag56
(g72
g58
NtRp1424
(dp1425
g61
(dp1426
sg70
g674
sg63
(lp1427
g56
(g77
g58
NtRp1428
(dp1429
g61
(dp1430
g81
g82
ssg70
g1424
sg63
(lp1431
S'wsgi_input'
p1432
asbag56
(g77
g58
NtRp1433
(dp1434
g61
(dp1435
g88
g89
ssg70
g1424
sg63
(lp1436
S':'
asbag56
(g77
g58
NtRp1437
(dp1438
g61
(dp1439
sg70
g1424
sg63
(lp1440
g56
(g57
g58
NtRp1441
(dp1442
g61
(dp1443
g69
I4
ssg70
g1437
sg63
(lp1444
S'<socket._fileobject object at 0x362ff50>'
p1445
asbasbasbag56
(g72
g58
NtRp1446
(dp1447
g61
(dp1448
sg70
g674
sg63
(lp1449
g56
(g77
g58
NtRp1450
(dp1451
g61
(dp1452
g81
g82
ssg70
g1446
sg63
(lp1453
S'wsgi_multiprocess'
p1454
asbag56
(g77
g58
NtRp1455
(dp1456
g61
(dp1457
g88
g89
ssg70
g1446
sg63
(lp1458
S':'
asbag56
(g77
g58
NtRp1459
(dp1460
g61
(dp1461
sg70
g1446
sg63
(lp1462
g56
(g57
g58
NtRp1463
(dp1464
g61
(dp1465
g69
I4
ssg70
g1459
sg63
(lp1466
g99
asbasbasbag56
(g72
g58
NtRp1467
(dp1468
g61
(dp1469
sg70
g674
sg63
(lp1470
g56
(g77
g58
NtRp1471
(dp1472
g61
(dp1473
g81
g82
ssg70
g1467
sg63
(lp1474
S'wsgi_multithread'
p1475
asbag56
(g77
g58
NtRp1476
(dp1477
g61
(dp1478
g88
g89
ssg70
g1467
sg63
(lp1479
S':'
asbag56
(g77
g58
NtRp1480
(dp1481
g61
(dp1482
sg70
g1467
sg63
(lp1483
g56
(g57
g58
NtRp1484
(dp1485
g61
(dp1486
g69
I4
ssg70
g1480
sg63
(lp1487
S'True'
p1488
asbasbasbag56
(g72
g58
NtRp1489
(dp1490
g61
(dp1491
sg70
g674
sg63
(lp1492
g56
(g77
g58
NtRp1493
(dp1494
g61
(dp1495
g81
g82
ssg70
g1489
sg63
(lp1496
S'wsgi_run_once'
p1497
asbag56
(g77
g58
NtRp1498
(dp1499
g61
(dp1500
g88
g89
ssg70
g1489
sg63
(lp1501
S':'
asbag56
(g77
g58
NtRp1502
(dp1503
g61
(dp1504
sg70
g1489
sg63
(lp1505
g56
(g57
g58
NtRp1506
(dp1507
g61
(dp1508
g69
I4
ssg70
g1502
sg63
(lp1509
g99
asbasbasbag56
(g72
g58
NtRp1510
(dp1511
g61
(dp1512
sg70
g674
sg63
(lp1513
g56
(g77
g58
NtRp1514
(dp1515
g61
(dp1516
g81
g82
ssg70
g1510
sg63
(lp1517
S'wsgi_url_scheme'
p1518
asbag56
(g77
g58
NtRp1519
(dp1520
g61
(dp1521
g88
g89
ssg70
g1510
sg63
(lp1522
S':'
asbag56
(g77
g58
NtRp1523
(dp1524
g61
(dp1525
sg70
g1510
sg63
(lp1526
g56
(g57
g58
NtRp1527
(dp1528
g61
(dp1529
g69
I4
ssg70
g1523
sg63
(lp1530
S'http'
p1531
asbasbasbag56
(g72
g58
NtRp1532
(dp1533
g61
(dp1534
sg70
g674
sg63
(lp1535
g56
(g77
g58
NtRp1536
(dp1537
g61
(dp1538
g81
g82
ssg70
g1532
sg63
(lp1539
S'wsgi_version'
p1540
asbag56
(g77
g58
NtRp1541
(dp1542
g61
(dp1543
g88
g89
ssg70
g1532
sg63
(lp1544
S':'
asbag56
(g77
g58
NtRp1545
(dp1546
g61
(dp1547
sg70
g1532
sg63
(lp1548
g56
(g57
g58
NtRp1549
(dp1550
g61
(dp1551
g69
I4
ssg70
g1545
sg63
(lp1552
g56
(g65
g58
NtRp1553
(dp1554
g61
(dp1555
g69
I3
ssg70
Nsg63
(lp1556
g56
(g72
g58
NtRp1557
(dp1558
g61
(dp1559
sg70
g1553
sg63
(lp1560
g56
(g77
g58
NtRp1561
(dp1562
g61
(dp1563
sg70
g1557
sg63
(lp1564
g56
(g57
g58
NtRp1565
(dp1566
g61
(dp1567
g69
I3
ssg70
g1561
sg63
(lp1568
S'1'
asbasbasbag56
(g72
g58
NtRp1569
(dp1570
g61
(dp1571
sg70
g1553
sg63
(lp1572
g56
(g77
g58
NtRp1573
(dp1574
g61
(dp1575
sg70
g1569
sg63
(lp1576
g56
(g57
g58
NtRp1577
(dp1578
g61
(dp1579
g69
I3
ssg70
g1573
sg63
(lp1580
S'0'
asbasbasbasbasbasbasbasbasbasbasbag56
(g72
g58
NtRp1581
(dp1582
g61
(dp1583
sg70
g66
sg63
(lp1584
g56
(g77
g58
NtRp1585
(dp1586
g61
(dp1587
g81
g82
ssg70
g1581
sg63
(lp1588
S'extension'
p1589
asbag56
(g77
g58
NtRp1590
(dp1591
g61
(dp1592
g88
g89
ssg70
g1581
sg63
(lp1593
S':'
asbag56
(g77
g58
NtRp1594
(dp1595
g61
(dp1596
sg70
g1581
sg63
(lp1597
g56
(g57
g58
NtRp1598
(dp1599
g61
(dp1600
g69
I5
ssg70
g1594
sg63
(lp1601
S'html'
p1602
asbasbasbag56
(g72
g58
NtRp1603
(dp1604
g61
(dp1605
sg70
g66
sg63
(lp1606
g56
(g77
g58
NtRp1607
(dp1608
g61
(dp1609
g81
g82
ssg70
g1603
sg63
(lp1610
S'folder'
p1611
asbag56
(g77
g58
NtRp1612
(dp1613
g61
(dp1614
g88
g89
ssg70
g1603
sg63
(lp1615
S':'
asbag56
(g77
g58
NtRp1616
(dp1617
g61
(dp1618
sg70
g1603
sg63
(lp1619
g56
(g57
g58
NtRp1620
(dp1621
g61
(dp1622
g69
I5
ssg70
g1616
sg63
(lp1623
S'/home/jose/DESARROLLO/web2py199/applications/streamlog/'
p1624
asbasbasbag56
(g72
g58
NtRp1625
(dp1626
g61
(dp1627
sg70
g66
sg63
(lp1628
g56
(g77
g58
NtRp1629
(dp1630
g61
(dp1631
g81
g82
ssg70
g1625
sg63
(lp1632
S'function'
p1633
asbag56
(g77
g58
NtRp1634
(dp1635
g61
(dp1636
g88
g89
ssg70
g1625
sg63
(lp1637
S':'
asbag56
(g77
g58
NtRp1638
(dp1639
g61
(dp1640
sg70
g1625
sg63
(lp1641
g56
(g57
g58
NtRp1642
(dp1643
g61
(dp1644
g69
I5
ssg70
g1638
sg63
(lp1645
S'server_manage'
p1646
asbasbasbag56
(g72
g58
NtRp1647
(dp1648
g61
(dp1649
sg70
g66
sg63
(lp1650
g56
(g77
g58
NtRp1651
(dp1652
g61
(dp1653
g81
g82
ssg70
g1647
sg63
(lp1654
S'get_vars'
p1655
asbag56
(g77
g58
NtRp1656
(dp1657
g61
(dp1658
g88
g89
ssg70
g1647
sg63
(lp1659
S':'
asbag56
(g77
g58
NtRp1660
(dp1661
g61
(dp1662
sg70
g1647
sg63
(lp1663
g56
(g57
g58
NtRp1664
(dp1665
g61
(dp1666
g69
I5
ssg70
g1660
sg63
(lp1667
g56
(g65
g58
NtRp1668
(dp1669
g61
(dp1670
g69
I4
ssg70
Nsg63
(lp1671
sbasbasbasbag56
(g72
g58
NtRp1672
(dp1673
g61
(dp1674
sg70
g66
sg63
(lp1675
g56
(g77
g58
NtRp1676
(dp1677
g61
(dp1678
g81
g82
ssg70
g1672
sg63
(lp1679
S'global_settings'
p1680
asbag56
(g77
g58
NtRp1681
(dp1682
g61
(dp1683
g88
g89
ssg70
g1672
sg63
(lp1684
S':'
asbag56
(g77
g58
NtRp1685
(dp1686
g61
(dp1687
sg70
g1672
sg63
(lp1688
g56
(g57
g58
NtRp1689
(dp1690
g61
(dp1691
g69
I5
ssg70
g1685
sg63
(lp1692
g56
(g65
g58
NtRp1693
(dp1694
g61
(dp1695
g69
I4
ssg70
Nsg63
(lp1696
g56
(g72
g58
NtRp1697
(dp1698
g61
(dp1699
sg70
g1693
sg63
(lp1700
g56
(g77
g58
NtRp1701
(dp1702
g61
(dp1703
g81
g82
ssg70
g1697
sg63
(lp1704
g686
asbag56
(g77
g58
NtRp1705
(dp1706
g61
(dp1707
g88
g89
ssg70
g1697
sg63
(lp1708
S':'
asbag56
(g77
g58
NtRp1709
(dp1710
g61
(dp1711
sg70
g1697
sg63
(lp1712
g56
(g57
g58
NtRp1713
(dp1714
g61
(dp1715
g69
I4
ssg70
g1709
sg63
(lp1716
S"set(['/home/jose/DESARROLLO/web2py199/applications/streamlog/', '/home/jose/DESARROLLO/web2py199/applications/admin/'])"
p1717
asbasbasbag56
(g72
g58
NtRp1718
(dp1719
g61
(dp1720
sg70
g1693
sg63
(lp1721
g56
(g77
g58
NtRp1722
(dp1723
g61
(dp1724
g81
g82
ssg70
g1718
sg63
(lp1725
g708
asbag56
(g77
g58
NtRp1726
(dp1727
g61
(dp1728
g88
g89
ssg70
g1718
sg63
(lp1729
S':'
asbag56
(g77
g58
NtRp1730
(dp1731
g61
(dp1732
sg70
g1718
sg63
(lp1733
g56
(g57
g58
NtRp1734
(dp1735
g61
(dp1736
g69
I4
ssg70
g1730
sg63
(lp1737
g721
asbasbasbag56
(g72
g58
NtRp1738
(dp1739
g61
(dp1740
sg70
g1693
sg63
(lp1741
g56
(g77
g58
NtRp1742
(dp1743
g61
(dp1744
g81
g82
ssg70
g1738
sg63
(lp1745
g730
asbag56
(g77
g58
NtRp1746
(dp1747
g61
(dp1748
g88
g89
ssg70
g1738
sg63
(lp1749
S':'
asbag56
(g77
g58
NtRp1750
(dp1751
g61
(dp1752
sg70
g1738
sg63
(lp1753
g56
(g57
g58
NtRp1754
(dp1755
g61
(dp1756
g69
I4
ssg70
g1750
sg63
(lp1757
g56
(g65
g58
NtRp1758
(dp1759
g61
(dp1760
g69
I3
ssg70
Nsg63
(lp1761
sbasbasbasbag56
(g72
g58
NtRp1762
(dp1763
g61
(dp1764
sg70
g1693
sg63
(lp1765
g56
(g77
g58
NtRp1766
(dp1767
g61
(dp1768
g81
g82
ssg70
g1762
sg63
(lp1769
g755
asbag56
(g77
g58
NtRp1770
(dp1771
g61
(dp1772
g88
g89
ssg70
g1762
sg63
(lp1773
S':'
asbag56
(g77
g58
NtRp1774
(dp1775
g61
(dp1776
sg70
g1762
sg63
(lp1777
g56
(g57
g58
NtRp1778
(dp1779
g61
(dp1780
g69
I4
ssg70
g1774
sg63
(lp1781
S"<Values at 0x1c79f80: {'verbose': False, 'ip': '127.0.0.1', 'shutdown_timeout': 5, 'taskbar': False, 'nocron': False, 'pid_filename': 'httpserver.pid', 'maxthreads': None, 'softcron': False, 'server_name': 'jose', 'bpython': False, 'nogui': False, 'port': 8000, 'extcron': False, 'debuglevel': 30, 'test': None, 'folder': '/home/jose/DESARROLLO/web2py199', 'config': '', 'import_models': False, 'winservice': '', 'shell': None, 'run': '', 'log_filename': 'httpserver.log', 'args': [''], 'ssl_ca_certificate': None, 'scheduler': None, 'profiler_filename': None, 'ssl_private_key': '', 'password': 't', 'request_queue_size': 5, 'ssl_certificate': '', 'cronjob': False, 'plain': False, 'quiet': False, 'interfaces': None, 'minthreads': None, 'timeout': 10, 'numthreads': None, 'nobanner': False}>"
p1782
asbasbasbag56
(g72
g58
NtRp1783
(dp1784
g61
(dp1785
sg70
g1693
sg63
(lp1786
g56
(g77
g58
NtRp1787
(dp1788
g61
(dp1789
g81
g82
ssg70
g1783
sg63
(lp1790
g777
asbag56
(g77
g58
NtRp1791
(dp1792
g61
(dp1793
g88
g89
ssg70
g1783
sg63
(lp1794
S':'
asbag56
(g77
g58
NtRp1795
(dp1796
g61
(dp1797
sg70
g1783
sg63
(lp1798
g56
(g57
g58
NtRp1799
(dp1800
g61
(dp1801
g69
I4
ssg70
g1795
sg63
(lp1802
S'set([])'
p1803
asbasbasbag56
(g72
g58
NtRp1804
(dp1805
g61
(dp1806
sg70
g1693
sg63
(lp1807
g56
(g77
g58
NtRp1808
(dp1809
g61
(dp1810
g81
g82
ssg70
g1804
sg63
(lp1811
g799
asbag56
(g77
g58
NtRp1812
(dp1813
g61
(dp1814
g88
g89
ssg70
g1804
sg63
(lp1815
S':'
asbag56
(g77
g58
NtRp1816
(dp1817
g61
(dp1818
sg70
g1804
sg63
(lp1819
g56
(g57
g58
NtRp1820
(dp1821
g61
(dp1822
g69
I4
ssg70
g1816
sg63
(lp1823
g99
asbasbasbag56
(g72
g58
NtRp1824
(dp1825
g61
(dp1826
sg70
g1693
sg63
(lp1827
g56
(g77
g58
NtRp1828
(dp1829
g61
(dp1830
g81
g82
ssg70
g1824
sg63
(lp1831
g820
asbag56
(g77
g58
NtRp1832
(dp1833
g61
(dp1834
g88
g89
ssg70
g1824
sg63
(lp1835
S':'
asbag56
(g77
g58
NtRp1836
(dp1837
g61
(dp1838
sg70
g1824
sg63
(lp1839
g56
(g57
g58
NtRp1840
(dp1841
g61
(dp1842
g69
I4
ssg70
g1836
sg63
(lp1843
g833
asbasbasbag56
(g72
g58
NtRp1844
(dp1845
g61
(dp1846
sg70
g1693
sg63
(lp1847
g56
(g77
g58
NtRp1848
(dp1849
g61
(dp1850
g81
g82
ssg70
g1844
sg63
(lp1851
g1018
asbag56
(g77
g58
NtRp1852
(dp1853
g61
(dp1854
g88
g89
ssg70
g1844
sg63
(lp1855
S':'
asbag56
(g77
g58
NtRp1856
(dp1857
g61
(dp1858
sg70
g1844
sg63
(lp1859
g56
(g57
g58
NtRp1860
(dp1861
g61
(dp1862
g69
I4
ssg70
g1856
sg63
(lp1863
g99
asbasbasbag56
(g72
g58
NtRp1864
(dp1865
g61
(dp1866
sg70
g1693
sg63
(lp1867
g56
(g77
g58
NtRp1868
(dp1869
g61
(dp1870
g81
g82
ssg70
g1864
sg63
(lp1871
g1257
asbag56
(g77
g58
NtRp1872
(dp1873
g61
(dp1874
g88
g89
ssg70
g1864
sg63
(lp1875
S':'
asbag56
(g77
g58
NtRp1876
(dp1877
g61
(dp1878
sg70
g1864
sg63
(lp1879
g56
(g57
g58
NtRp1880
(dp1881
g61
(dp1882
g69
I4
ssg70
g1876
sg63
(lp1883
g1270
asbasbasbag56
(g72
g58
NtRp1884
(dp1885
g61
(dp1886
sg70
g1693
sg63
(lp1887
g56
(g77
g58
NtRp1888
(dp1889
g61
(dp1890
g81
g82
ssg70
g1884
sg63
(lp1891
g1300
asbag56
(g77
g58
NtRp1892
(dp1893
g61
(dp1894
g88
g89
ssg70
g1884
sg63
(lp1895
S':'
asbag56
(g77
g58
NtRp1896
(dp1897
g61
(dp1898
sg70
g1884
sg63
(lp1899
g56
(g57
g58
NtRp1900
(dp1901
g61
(dp1902
g69
I4
ssg70
g1896
sg63
(lp1903
g56
(g65
g58
NtRp1904
(dp1905
g61
(dp1906
g69
I3
ssg70
Nsg63
(lp1907
g56
(g72
g58
NtRp1908
(dp1909
g61
(dp1910
sg70
g1904
sg63
(lp1911
g56
(g77
g58
NtRp1912
(dp1913
g61
(dp1914
sg70
g1908
sg63
(lp1915
g56
(g57
g58
NtRp1916
(dp1917
g61
(dp1918
g69
I3
ssg70
g1912
sg63
(lp1919
S'1'
asbasbasbag56
(g72
g58
NtRp1920
(dp1921
g61
(dp1922
sg70
g1904
sg63
(lp1923
g56
(g77
g58
NtRp1924
(dp1925
g61
(dp1926
sg70
g1920
sg63
(lp1927
g56
(g57
g58
NtRp1928
(dp1929
g61
(dp1930
g69
I3
ssg70
g1924
sg63
(lp1931
S'99'
p1932
asbasbasbag56
(g72
g58
NtRp1933
(dp1934
g61
(dp1935
sg70
g1904
sg63
(lp1936
g56
(g77
g58
NtRp1937
(dp1938
g61
(dp1939
sg70
g1933
sg63
(lp1940
g56
(g57
g58
NtRp1941
(dp1942
g61
(dp1943
g69
I3
ssg70
g1937
sg63
(lp1944
S'2'
asbasbasbag56
(g72
g58
NtRp1945
(dp1946
g61
(dp1947
sg70
g1904
sg63
(lp1948
g56
(g77
g58
NtRp1949
(dp1950
g61
(dp1951
sg70
g1945
sg63
(lp1952
g56
(g57
g58
NtRp1953
(dp1954
g61
(dp1955
g69
I3
ssg70
g1949
sg63
(lp1956
S'datetime.datetime(2011, 9, 26, 6, 55, 33)'
p1957
asbasbasbag56
(g72
g58
NtRp1958
(dp1959
g61
(dp1960
sg70
g1904
sg63
(lp1961
g56
(g77
g58
NtRp1962
(dp1963
g61
(dp1964
sg70
g1958
sg63
(lp1965
g56
(g57
g58
NtRp1966
(dp1967
g61
(dp1968
g69
I3
ssg70
g1962
sg63
(lp1969
g1379
asbasbasbasbasbasbasbasbasbasbasbag56
(g72
g58
NtRp1970
(dp1971
g61
(dp1972
sg70
g66
sg63
(lp1973
g56
(g77
g58
NtRp1974
(dp1975
g61
(dp1976
g81
g82
ssg70
g1970
sg63
(lp1977
S'is_https'
p1978
asbag56
(g77
g58
NtRp1979
(dp1980
g61
(dp1981
g88
g89
ssg70
g1970
sg63
(lp1982
S':'
asbag56
(g77
g58
NtRp1983
(dp1984
g61
(dp1985
sg70
g1970
sg63
(lp1986
g56
(g57
g58
NtRp1987
(dp1988
g61
(dp1989
g69
I5
ssg70
g1983
sg63
(lp1990
g99
asbasbasbag56
(g72
g58
NtRp1991
(dp1992
g61
(dp1993
sg70
g66
sg63
(lp1994
g56
(g77
g58
NtRp1995
(dp1996
g61
(dp1997
g81
g82
ssg70
g1991
sg63
(lp1998
S'is_local'
p1999
asbag56
(g77
g58
NtRp2000
(dp2001
g61
(dp2002
g88
g89
ssg70
g1991
sg63
(lp2003
S':'
asbag56
(g77
g58
NtRp2004
(dp2005
g61
(dp2006
sg70
g1991
sg63
(lp2007
g56
(g57
g58
NtRp2008
(dp2009
g61
(dp2010
g69
I5
ssg70
g2004
sg63
(lp2011
g1488
asbasbasbag56
(g72
g58
NtRp2012
(dp2013
g61
(dp2014
sg70
g66
sg63
(lp2015
g56
(g77
g58
NtRp2016
(dp2017
g61
(dp2018
g81
g82
ssg70
g2012
sg63
(lp2019
S'is_restful'
p2020
asbag56
(g77
g58
NtRp2021
(dp2022
g61
(dp2023
g88
g89
ssg70
g2012
sg63
(lp2024
S':'
asbag56
(g77
g58
NtRp2025
(dp2026
g61
(dp2027
sg70
g2012
sg63
(lp2028
g56
(g57
g58
NtRp2029
(dp2030
g61
(dp2031
g69
I5
ssg70
g2025
sg63
(lp2032
g99
asbasbasbag56
(g72
g58
NtRp2033
(dp2034
g61
(dp2035
sg70
g66
sg63
(lp2036
g56
(g77
g58
NtRp2037
(dp2038
g61
(dp2039
g81
g82
ssg70
g2033
sg63
(lp2040
S'now'
p2041
asbag56
(g77
g58
NtRp2042
(dp2043
g61
(dp2044
g88
g89
ssg70
g2033
sg63
(lp2045
S':'
asbag56
(g77
g58
NtRp2046
(dp2047
g61
(dp2048
sg70
g2033
sg63
(lp2049
g56
(g57
g58
NtRp2050
(dp2051
g61
(dp2052
g69
I5
ssg70
g2046
sg63
(lp2053
S'datetime.datetime(2012, 5, 26, 14, 49, 39, 287666)'
p2054
asbasbasbag56
(g72
g58
NtRp2055
(dp2056
g61
(dp2057
sg70
g66
sg63
(lp2058
g56
(g77
g58
NtRp2059
(dp2060
g61
(dp2061
g81
g82
ssg70
g2055
sg63
(lp2062
S'post_vars'
p2063
asbag56
(g77
g58
NtRp2064
(dp2065
g61
(dp2066
g88
g89
ssg70
g2055
sg63
(lp2067
S':'
asbag56
(g77
g58
NtRp2068
(dp2069
g61
(dp2070
sg70
g2055
sg63
(lp2071
g56
(g57
g58
NtRp2072
(dp2073
g61
(dp2074
g69
I5
ssg70
g2068
sg63
(lp2075
g56
(g65
g58
NtRp2076
(dp2077
g61
(dp2078
g69
I4
ssg70
Nsg63
(lp2079
sbasbasbasbag56
(g72
g58
NtRp2080
(dp2081
g61
(dp2082
sg70
g66
sg63
(lp2083
g56
(g77
g58
NtRp2084
(dp2085
g61
(dp2086
g81
g82
ssg70
g2080
sg63
(lp2087
S'raw_args'
p2088
asbag56
(g77
g58
NtRp2089
(dp2090
g61
(dp2091
g88
g89
ssg70
g2080
sg63
(lp2092
S':'
asbag56
(g77
g58
NtRp2093
(dp2094
g61
(dp2095
sg70
g2080
sg63
(lp2096
g56
(g57
g58
NtRp2097
(dp2098
g61
(dp2099
g69
I5
ssg70
g2093
sg63
(lp2100
S'view/t_server/1'
p2101
asbasbasbag56
(g72
g58
NtRp2102
(dp2103
g61
(dp2104
sg70
g66
sg63
(lp2105
g56
(g77
g58
NtRp2106
(dp2107
g61
(dp2108
g81
g82
ssg70
g2102
sg63
(lp2109
S'url'
p2110
asbag56
(g77
g58
NtRp2111
(dp2112
g61
(dp2113
g88
g89
ssg70
g2102
sg63
(lp2114
S':'
asbag56
(g77
g58
NtRp2115
(dp2116
g61
(dp2117
sg70
g2102
sg63
(lp2118
g56
(g57
g58
NtRp2119
(dp2120
g61
(dp2121
g69
I5
ssg70
g2115
sg63
(lp2122
S'/streamlog/default/server_manage/view/t_server/1'
p2123
asbasbasbag56
(g72
g58
NtRp2124
(dp2125
g61
(dp2126
sg70
g66
sg63
(lp2127
g56
(g77
g58
NtRp2128
(dp2129
g61
(dp2130
g81
g82
ssg70
g2124
sg63
(lp2131
S'utcnow'
p2132
asbag56
(g77
g58
NtRp2133
(dp2134
g61
(dp2135
g88
g89
ssg70
g2124
sg63
(lp2136
S':'
asbag56
(g77
g58
NtRp2137
(dp2138
g61
(dp2139
sg70
g2124
sg63
(lp2140
g56
(g57
g58
NtRp2141
(dp2142
g61
(dp2143
g69
I5
ssg70
g2137
sg63
(lp2144
S'datetime.datetime(2012, 5, 26, 7, 49, 39, 287721)'
p2145
asbasbasbag56
(g72
g58
NtRp2146
(dp2147
g61
(dp2148
sg70
g66
sg63
(lp2149
g56
(g77
g58
NtRp2150
(dp2151
g61
(dp2152
g81
g82
ssg70
g2146
sg63
(lp2153
S'uuid'
p2154
asbag56
(g77
g58
NtRp2155
(dp2156
g61
(dp2157
g88
g89
ssg70
g2146
sg63
(lp2158
S':'
asbag56
(g77
g58
NtRp2159
(dp2160
g61
(dp2161
sg70
g2146
sg63
(lp2162
g56
(g57
g58
NtRp2163
(dp2164
g61
(dp2165
g69
I5
ssg70
g2159
sg63
(lp2166
S'streamlog/127.0.0.1.2012-05-26.14-49-39.c189b1dd-5df0-443d-81eb-46019dde026b'
p2167
asbasbasbag56
(g72
g58
NtRp2168
(dp2169
g61
(dp2170
sg70
g66
sg63
(lp2171
g56
(g77
g58
NtRp2172
(dp2173
g61
(dp2174
g81
g82
ssg70
g2168
sg63
(lp2175
S'vars'
p2176
asbag56
(g77
g58
NtRp2177
(dp2178
g61
(dp2179
g88
g89
ssg70
g2168
sg63
(lp2180
S':'
asbag56
(g77
g58
NtRp2181
(dp2182
g61
(dp2183
sg70
g2168
sg63
(lp2184
g56
(g57
g58
NtRp2185
(dp2186
g61
(dp2187
g69
I5
ssg70
g2181
sg63
(lp2188
g56
(g65
g58
NtRp2189
(dp2190
g61
(dp2191
g69
I4
ssg70
Nsg63
(lp2192
sbasbasbasbag56
(g72
g58
NtRp2193
(dp2194
g61
(dp2195
sg70
g66
sg63
(lp2196
g56
(g77
g58
NtRp2197
(dp2198
g61
(dp2199
g81
g82
ssg70
g2193
sg63
(lp2200
S'wsgi'
p2201
asbag56
(g77
g58
NtRp2202
(dp2203
g61
(dp2204
g88
g89
ssg70
g2193
sg63
(lp2205
S':'
asbag56
(g77
g58
NtRp2206
(dp2207
g61
(dp2208
sg70
g2193
sg63
(lp2209
g56
(g57
g58
NtRp2210
(dp2211
g61
(dp2212
g69
I5
ssg70
g2206
sg63
(lp2213
g56
(g65
g58
NtRp2214
(dp2215
g61
(dp2216
g69
I4
ssg70
Nsg63
(lp2217
g56
(g72
g58
NtRp2218
(dp2219
g61
(dp2220
sg70
g2214
sg63
(lp2221
g56
(g77
g58
NtRp2222
(dp2223
g61
(dp2224
g81
g82
ssg70
g2218
sg63
(lp2225
S'environ'
p2226
asbag56
(g77
g58
NtRp2227
(dp2228
g61
(dp2229
g88
g89
ssg70
g2218
sg63
(lp2230
S':'
asbag56
(g77
g58
NtRp2231
(dp2232
g61
(dp2233
sg70
g2218
sg63
(lp2234
g56
(g57
g58
NtRp2235
(dp2236
g61
(dp2237
g69
I4
ssg70
g2231
sg63
(lp2238
g56
(g65
g58
NtRp2239
(dp2240
g61
(dp2241
g69
I3
ssg70
Nsg63
(lp2242
g56
(g72
g58
NtRp2243
(dp2244
g61
(dp2245
sg70
g2239
sg63
(lp2246
g56
(g77
g58
NtRp2247
(dp2248
g61
(dp2249
g81
g82
ssg70
g2243
sg63
(lp2250
S'HTTP_ACCEPT'
p2251
asbag56
(g77
g58
NtRp2252
(dp2253
g61
(dp2254
g88
g89
ssg70
g2243
sg63
(lp2255
S':'
asbag56
(g77
g58
NtRp2256
(dp2257
g61
(dp2258
sg70
g2243
sg63
(lp2259
g56
(g57
g58
NtRp2260
(dp2261
g61
(dp2262
g69
I3
ssg70
g2256
sg63
(lp2263
g855
asbasbasbag56
(g72
g58
NtRp2264
(dp2265
g61
(dp2266
sg70
g2239
sg63
(lp2267
g56
(g77
g58
NtRp2268
(dp2269
g61
(dp2270
g81
g82
ssg70
g2264
sg63
(lp2271
S'HTTP_ACCEPT_CHARSET'
p2272
asbag56
(g77
g58
NtRp2273
(dp2274
g61
(dp2275
g88
g89
ssg70
g2264
sg63
(lp2276
S':'
asbag56
(g77
g58
NtRp2277
(dp2278
g61
(dp2279
sg70
g2264
sg63
(lp2280
g56
(g57
g58
NtRp2281
(dp2282
g61
(dp2283
g69
I3
ssg70
g2277
sg63
(lp2284
g877
asbasbasbag56
(g72
g58
NtRp2285
(dp2286
g61
(dp2287
sg70
g2239
sg63
(lp2288
g56
(g77
g58
NtRp2289
(dp2290
g61
(dp2291
g81
g82
ssg70
g2285
sg63
(lp2292
S'HTTP_ACCEPT_ENCODING'
p2293
asbag56
(g77
g58
NtRp2294
(dp2295
g61
(dp2296
g88
g89
ssg70
g2285
sg63
(lp2297
S':'
asbag56
(g77
g58
NtRp2298
(dp2299
g61
(dp2300
sg70
g2285
sg63
(lp2301
g56
(g57
g58
NtRp2302
(dp2303
g61
(dp2304
g69
I3
ssg70
g2298
sg63
(lp2305
g899
asbasbasbag56
(g72
g58
NtRp2306
(dp2307
g61
(dp2308
sg70
g2239
sg63
(lp2309
g56
(g77
g58
NtRp2310
(dp2311
g61
(dp2312
g81
g82
ssg70
g2306
sg63
(lp2313
S'HTTP_ACCEPT_LANGUAGE'
p2314
asbag56
(g77
g58
NtRp2315
(dp2316
g61
(dp2317
g88
g89
ssg70
g2306
sg63
(lp2318
S':'
asbag56
(g77
g58
NtRp2319
(dp2320
g61
(dp2321
sg70
g2306
sg63
(lp2322
g56
(g57
g58
NtRp2323
(dp2324
g61
(dp2325
g69
I3
ssg70
g2319
sg63
(lp2326
g921
asbasbasbag56
(g72
g58
NtRp2327
(dp2328
g61
(dp2329
sg70
g2239
sg63
(lp2330
g56
(g77
g58
NtRp2331
(dp2332
g61
(dp2333
g81
g82
ssg70
g2327
sg63
(lp2334
S'HTTP_CONNECTION'
p2335
asbag56
(g77
g58
NtRp2336
(dp2337
g61
(dp2338
g88
g89
ssg70
g2327
sg63
(lp2339
S':'
asbag56
(g77
g58
NtRp2340
(dp2341
g61
(dp2342
sg70
g2327
sg63
(lp2343
g56
(g57
g58
NtRp2344
(dp2345
g61
(dp2346
g69
I3
ssg70
g2340
sg63
(lp2347
g943
asbasbasbag56
(g72
g58
NtRp2348
(dp2349
g61
(dp2350
sg70
g2239
sg63
(lp2351
g56
(g77
g58
NtRp2352
(dp2353
g61
(dp2354
g81
g82
ssg70
g2348
sg63
(lp2355
S'HTTP_COOKIE'
p2356
asbag56
(g77
g58
NtRp2357
(dp2358
g61
(dp2359
g88
g89
ssg70
g2348
sg63
(lp2360
S':'
asbag56
(g77
g58
NtRp2361
(dp2362
g61
(dp2363
sg70
g2348
sg63
(lp2364
g56
(g57
g58
NtRp2365
(dp2366
g61
(dp2367
g69
I3
ssg70
g2361
sg63
(lp2368
g965
asbasbasbag56
(g72
g58
NtRp2369
(dp2370
g61
(dp2371
sg70
g2239
sg63
(lp2372
g56
(g77
g58
NtRp2373
(dp2374
g61
(dp2375
g81
g82
ssg70
g2369
sg63
(lp2376
S'HTTP_HOST'
p2377
asbag56
(g77
g58
NtRp2378
(dp2379
g61
(dp2380
g88
g89
ssg70
g2369
sg63
(lp2381
S':'
asbag56
(g77
g58
NtRp2382
(dp2383
g61
(dp2384
sg70
g2369
sg63
(lp2385
g56
(g57
g58
NtRp2386
(dp2387
g61
(dp2388
g69
I3
ssg70
g2382
sg63
(lp2389
g987
asbasbasbag56
(g72
g58
NtRp2390
(dp2391
g61
(dp2392
sg70
g2239
sg63
(lp2393
g56
(g77
g58
NtRp2394
(dp2395
g61
(dp2396
g81
g82
ssg70
g2390
sg63
(lp2397
S'HTTP_USER_AGENT'
p2398
asbag56
(g77
g58
NtRp2399
(dp2400
g61
(dp2401
g88
g89
ssg70
g2390
sg63
(lp2402
S':'
asbag56
(g77
g58
NtRp2403
(dp2404
g61
(dp2405
sg70
g2390
sg63
(lp2406
g56
(g57
g58
NtRp2407
(dp2408
g61
(dp2409
g69
I3
ssg70
g2403
sg63
(lp2410
g1009
asbasbasbag56
(g72
g58
NtRp2411
(dp2412
g61
(dp2413
sg70
g2239
sg63
(lp2414
g56
(g77
g58
NtRp2415
(dp2416
g61
(dp2417
g81
g82
ssg70
g2411
sg63
(lp2418
S'PATH_INFO'
p2419
asbag56
(g77
g58
NtRp2420
(dp2421
g61
(dp2422
g88
g89
ssg70
g2411
sg63
(lp2423
S':'
asbag56
(g77
g58
NtRp2424
(dp2425
g61
(dp2426
sg70
g2411
sg63
(lp2427
g56
(g57
g58
NtRp2428
(dp2429
g61
(dp2430
g69
I3
ssg70
g2424
sg63
(lp2431
g1052
asbasbasbag56
(g72
g58
NtRp2432
(dp2433
g61
(dp2434
sg70
g2239
sg63
(lp2435
g56
(g77
g58
NtRp2436
(dp2437
g61
(dp2438
g81
g82
ssg70
g2432
sg63
(lp2439
S'QUERY_STRING'
p2440
asbag56
(g77
g58
NtRp2441
(dp2442
g61
(dp2443
g88
g89
ssg70
g2432
sg63
(lp2444
S':'
asbag56
(g77
g58
NtRp2445
(dp2446
g61
(dp2447
sg70
g2432
sg63
(lp2448
g56
(g57
g58
NtRp2449
(dp2450
g61
(dp2451
g69
I3
ssg70
g2445
sg63
(lp2452
g1074
asbasbasbag56
(g72
g58
NtRp2453
(dp2454
g61
(dp2455
sg70
g2239
sg63
(lp2456
g56
(g77
g58
NtRp2457
(dp2458
g61
(dp2459
g81
g82
ssg70
g2453
sg63
(lp2460
S'REMOTE_ADDR'
p2461
asbag56
(g77
g58
NtRp2462
(dp2463
g61
(dp2464
g88
g89
ssg70
g2453
sg63
(lp2465
S':'
asbag56
(g77
g58
NtRp2466
(dp2467
g61
(dp2468
sg70
g2453
sg63
(lp2469
g56
(g57
g58
NtRp2470
(dp2471
g61
(dp2472
g69
I3
ssg70
g2466
sg63
(lp2473
g227
asbasbasbag56
(g72
g58
NtRp2474
(dp2475
g61
(dp2476
sg70
g2239
sg63
(lp2477
g56
(g77
g58
NtRp2478
(dp2479
g61
(dp2480
g81
g82
ssg70
g2474
sg63
(lp2481
S'REMOTE_PORT'
p2482
asbag56
(g77
g58
NtRp2483
(dp2484
g61
(dp2485
g88
g89
ssg70
g2474
sg63
(lp2486
S':'
asbag56
(g77
g58
NtRp2487
(dp2488
g61
(dp2489
sg70
g2474
sg63
(lp2490
g56
(g57
g58
NtRp2491
(dp2492
g61
(dp2493
g69
I3
ssg70
g2487
sg63
(lp2494
g1117
asbasbasbag56
(g72
g58
NtRp2495
(dp2496
g61
(dp2497
sg70
g2239
sg63
(lp2498
g56
(g77
g58
NtRp2499
(dp2500
g61
(dp2501
g81
g82
ssg70
g2495
sg63
(lp2502
S'REQUEST_METHOD'
p2503
asbag56
(g77
g58
NtRp2504
(dp2505
g61
(dp2506
g88
g89
ssg70
g2495
sg63
(lp2507
S':'
asbag56
(g77
g58
NtRp2508
(dp2509
g61
(dp2510
sg70
g2495
sg63
(lp2511
g56
(g57
g58
NtRp2512
(dp2513
g61
(dp2514
g69
I3
ssg70
g2508
sg63
(lp2515
g1139
asbasbasbag56
(g72
g58
NtRp2516
(dp2517
g61
(dp2518
sg70
g2239
sg63
(lp2519
g56
(g77
g58
NtRp2520
(dp2521
g61
(dp2522
g81
g82
ssg70
g2516
sg63
(lp2523
S'SCRIPT_NAME'
p2524
asbag56
(g77
g58
NtRp2525
(dp2526
g61
(dp2527
g88
g89
ssg70
g2516
sg63
(lp2528
S':'
asbag56
(g77
g58
NtRp2529
(dp2530
g61
(dp2531
sg70
g2516
sg63
(lp2532
g56
(g57
g58
NtRp2533
(dp2534
g61
(dp2535
g69
I3
ssg70
g2529
sg63
(lp2536
S''
asbasbasbag56
(g72
g58
NtRp2537
(dp2538
g61
(dp2539
sg70
g2239
sg63
(lp2540
g56
(g77
g58
NtRp2541
(dp2542
g61
(dp2543
g81
g82
ssg70
g2537
sg63
(lp2544
S'SERVER_NAME'
p2545
asbag56
(g77
g58
NtRp2546
(dp2547
g61
(dp2548
g88
g89
ssg70
g2537
sg63
(lp2549
S':'
asbag56
(g77
g58
NtRp2550
(dp2551
g61
(dp2552
sg70
g2537
sg63
(lp2553
g56
(g57
g58
NtRp2554
(dp2555
g61
(dp2556
g69
I3
ssg70
g2550
sg63
(lp2557
g1182
asbasbasbag56
(g72
g58
NtRp2558
(dp2559
g61
(dp2560
sg70
g2239
sg63
(lp2561
g56
(g77
g58
NtRp2562
(dp2563
g61
(dp2564
g81
g82
ssg70
g2558
sg63
(lp2565
S'SERVER_PORT'
p2566
asbag56
(g77
g58
NtRp2567
(dp2568
g61
(dp2569
g88
g89
ssg70
g2558
sg63
(lp2570
S':'
asbag56
(g77
g58
NtRp2571
(dp2572
g61
(dp2573
sg70
g2558
sg63
(lp2574
g56
(g57
g58
NtRp2575
(dp2576
g61
(dp2577
g69
I3
ssg70
g2571
sg63
(lp2578
g1204
asbasbasbag56
(g72
g58
NtRp2579
(dp2580
g61
(dp2581
sg70
g2239
sg63
(lp2582
g56
(g77
g58
NtRp2583
(dp2584
g61
(dp2585
g81
g82
ssg70
g2579
sg63
(lp2586
S'SERVER_PROTOCOL'
p2587
asbag56
(g77
g58
NtRp2588
(dp2589
g61
(dp2590
g88
g89
ssg70
g2579
sg63
(lp2591
S':'
asbag56
(g77
g58
NtRp2592
(dp2593
g61
(dp2594
sg70
g2579
sg63
(lp2595
g56
(g57
g58
NtRp2596
(dp2597
g61
(dp2598
g69
I3
ssg70
g2592
sg63
(lp2599
g1226
asbasbasbag56
(g72
g58
NtRp2600
(dp2601
g61
(dp2602
sg70
g2239
sg63
(lp2603
g56
(g77
g58
NtRp2604
(dp2605
g61
(dp2606
g81
g82
ssg70
g2600
sg63
(lp2607
S'SERVER_SOFTWARE'
p2608
asbag56
(g77
g58
NtRp2609
(dp2610
g61
(dp2611
g88
g89
ssg70
g2600
sg63
(lp2612
S':'
asbag56
(g77
g58
NtRp2613
(dp2614
g61
(dp2615
sg70
g2600
sg63
(lp2616
g56
(g57
g58
NtRp2617
(dp2618
g61
(dp2619
g69
I3
ssg70
g2613
sg63
(lp2620
g1248
asbasbasbag56
(g72
g58
NtRp2621
(dp2622
g61
(dp2623
sg70
g2239
sg63
(lp2624
g56
(g77
g58
NtRp2625
(dp2626
g61
(dp2627
g81
g82
ssg70
g2621
sg63
(lp2628
S'wsgi.errors'
p2629
asbag56
(g77
g58
NtRp2630
(dp2631
g61
(dp2632
g88
g89
ssg70
g2621
sg63
(lp2633
S':'
asbag56
(g77
g58
NtRp2634
(dp2635
g61
(dp2636
sg70
g2621
sg63
(lp2637
g56
(g57
g58
NtRp2638
(dp2639
g61
(dp2640
g69
I3
ssg70
g2634
sg63
(lp2641
S"<open file '<stderr>', mode 'w' at 0x7f84db3ff270>"
p2642
asbasbasbag56
(g72
g58
NtRp2643
(dp2644
g61
(dp2645
sg70
g2239
sg63
(lp2646
g56
(g77
g58
NtRp2647
(dp2648
g61
(dp2649
g81
g82
ssg70
g2643
sg63
(lp2650
S'wsgi.file_wrapper'
p2651
asbag56
(g77
g58
NtRp2652
(dp2653
g61
(dp2654
g88
g89
ssg70
g2643
sg63
(lp2655
S':'
asbag56
(g77
g58
NtRp2656
(dp2657
g61
(dp2658
sg70
g2643
sg63
(lp2659
g56
(g57
g58
NtRp2660
(dp2661
g61
(dp2662
g69
I3
ssg70
g2656
sg63
(lp2663
S'<class wsgiref.util.FileWrapper at 0x1b96d50>'
p2664
asbasbasbag56
(g72
g58
NtRp2665
(dp2666
g61
(dp2667
sg70
g2239
sg63
(lp2668
g56
(g77
g58
NtRp2669
(dp2670
g61
(dp2671
g81
g82
ssg70
g2665
sg63
(lp2672
S'wsgi.input'
p2673
asbag56
(g77
g58
NtRp2674
(dp2675
g61
(dp2676
g88
g89
ssg70
g2665
sg63
(lp2677
S':'
asbag56
(g77
g58
NtRp2678
(dp2679
g61
(dp2680
sg70
g2665
sg63
(lp2681
g56
(g57
g58
NtRp2682
(dp2683
g61
(dp2684
g69
I3
ssg70
g2678
sg63
(lp2685
S'<cStringIO.StringO object at 0x24ec458>'
p2686
asbasbasbag56
(g72
g58
NtRp2687
(dp2688
g61
(dp2689
sg70
g2239
sg63
(lp2690
g56
(g77
g58
NtRp2691
(dp2692
g61
(dp2693
g81
g82
ssg70
g2687
sg63
(lp2694
S'wsgi.multiprocess'
p2695
asbag56
(g77
g58
NtRp2696
(dp2697
g61
(dp2698
g88
g89
ssg70
g2687
sg63
(lp2699
S':'
asbag56
(g77
g58
NtRp2700
(dp2701
g61
(dp2702
sg70
g2687
sg63
(lp2703
g56
(g57
g58
NtRp2704
(dp2705
g61
(dp2706
g69
I3
ssg70
g2700
sg63
(lp2707
g99
asbasbasbag56
(g72
g58
NtRp2708
(dp2709
g61
(dp2710
sg70
g2239
sg63
(lp2711
g56
(g77
g58
NtRp2712
(dp2713
g61
(dp2714
g81
g82
ssg70
g2708
sg63
(lp2715
S'wsgi.multithread'
p2716
asbag56
(g77
g58
NtRp2717
(dp2718
g61
(dp2719
g88
g89
ssg70
g2708
sg63
(lp2720
S':'
asbag56
(g77
g58
NtRp2721
(dp2722
g61
(dp2723
sg70
g2708
sg63
(lp2724
g56
(g57
g58
NtRp2725
(dp2726
g61
(dp2727
g69
I3
ssg70
g2721
sg63
(lp2728
g1488
asbasbasbag56
(g72
g58
NtRp2729
(dp2730
g61
(dp2731
sg70
g2239
sg63
(lp2732
g56
(g77
g58
NtRp2733
(dp2734
g61
(dp2735
g81
g82
ssg70
g2729
sg63
(lp2736
S'wsgi.run_once'
p2737
asbag56
(g77
g58
NtRp2738
(dp2739
g61
(dp2740
g88
g89
ssg70
g2729
sg63
(lp2741
S':'
asbag56
(g77
g58
NtRp2742
(dp2743
g61
(dp2744
sg70
g2729
sg63
(lp2745
g56
(g57
g58
NtRp2746
(dp2747
g61
(dp2748
g69
I3
ssg70
g2742
sg63
(lp2749
g99
asbasbasbag56
(g72
g58
NtRp2750
(dp2751
g61
(dp2752
sg70
g2239
sg63
(lp2753
g56
(g77
g58
NtRp2754
(dp2755
g61
(dp2756
g81
g82
ssg70
g2750
sg63
(lp2757
S'wsgi.url_scheme'
p2758
asbag56
(g77
g58
NtRp2759
(dp2760
g61
(dp2761
g88
g89
ssg70
g2750
sg63
(lp2762
S':'
asbag56
(g77
g58
NtRp2763
(dp2764
g61
(dp2765
sg70
g2750
sg63
(lp2766
g56
(g57
g58
NtRp2767
(dp2768
g61
(dp2769
g69
I3
ssg70
g2763
sg63
(lp2770
g1531
asbasbasbag56
(g72
g58
NtRp2771
(dp2772
g61
(dp2773
sg70
g2239
sg63
(lp2774
g56
(g77
g58
NtRp2775
(dp2776
g61
(dp2777
g81
g82
ssg70
g2771
sg63
(lp2778
S'wsgi.version'
p2779
asbag56
(g77
g58
NtRp2780
(dp2781
g61
(dp2782
g88
g89
ssg70
g2771
sg63
(lp2783
S':'
asbag56
(g77
g58
NtRp2784
(dp2785
g61
(dp2786
sg70
g2771
sg63
(lp2787
g56
(g57
g58
NtRp2788
(dp2789
g61
(dp2790
g69
I3
ssg70
g2784
sg63
(lp2791
S'1'
asbasbasbasbasbasbasbasbasbasbasbasbasbsS'frames'
p2792
(lp2793
(dp2794
S'file'
p2795
S'/home/jose/DESARROLLO/web2py199/gluon/restricted.py'
p2796
sS'dump'
p2797
(dp2798
S'environment'
p2799
S"{'A': <class 'gluon.html.A'>, 'Auth': <class 'gluon.tools.Auth'>, 'B': <class 'gluon.html.B'>, 'BEAUTIFY': <class 'gluon.html.BEAUTIFY'>, 'BODY': <class 'gluon.html.BODY'>, 'BR': <class 'gluon.html.BR'>, 'BUTTON': <class 'gluon.html.BUTTON'>, 'CAT': <class 'gluon.html.CAT'>, 'CENTER': <class 'gluon.html.CENTER'>, 'CLEANUP': <class 'gluon.validators.CLEANUP'>, ...}"
p2800
sS'ccode'
p2801
S'<code object <module> at 0x2a4b4b0, file "/home/...tions/streamlog/controllers/default.py", line 14>'
p2802
ssS'lnum'
p2803
I194
sS'lines'
p2804
(dp2805
I192
S'        else:'
p2806
sI193
S'            ccode = compile2(code,layer)'
p2807
sI194
S'        exec ccode in environment'
p2808
sI195
S'    except HTTP:'
p2809
sI196
S'        raise'
p2810
sI197
S'    except Exception, error:'
p2811
sI198
S'        # XXX Show exception in Wing IDE if running in debugger'
p2812
sI189
S'    try:'
p2813
sI190
S'        if type(code) == types.CodeType:'
p2814
sI191
S'            ccode = code'
p2815
ssS'call'
p2816
S"(code='# -*- coding: utf-8 -*-\\n# this file is released ...\\n\\nresponse._vars=response._caller(server_manage)\\n', environment={'A': <class 'gluon.html.A'>, 'Auth': <class 'gluon.tools.Auth'>, 'B': <class 'gluon.html.B'>, 'BEAUTIFY': <class 'gluon.html.BEAUTIFY'>, 'BODY': <class 'gluon.html.BODY'>, 'BR': <class 'gluon.html.BR'>, 'BUTTON': <class 'gluon.html.BUTTON'>, 'CAT': <class 'gluon.html.CAT'>, 'CENTER': <class 'gluon.html.CENTER'>, 'CLEANUP': <class 'gluon.validators.CLEANUP'>, ...}, layer='/home/jose/DESARROLLO/web2py199/applications/streamlog/controllers/default.py')"
p2817
sS'func'
p2818
S'restricted'
p2819
sa(dp2820
g2795
S'/home/jose/DESARROLLO/web2py199/applications/streamlog/controllers/default.py'
p2821
sg2797
(dp2822
S'auth.requires_signature'
p2823
S'<bound method Auth.requires_signature of <gluon.tools.Auth object>>'
p2824
sS'auth'
p2825
S'<gluon.tools.Auth object>'
p2826
ssg2803
I158
sg2804
(dp2827
I160
S'    """'
p2828
sI161
S'    http://..../[app]/default/data/tables'
p2829
sI162
S'    http://..../[app]/default/data/create/[table]'
p2830
sI153
S'    supports xml, json, xmlrpc, jsonrpc, amfrpc, rss, csv'
p2831
sI154
S'    """'
p2832
sI155
S'    return service()'
p2833
sI156
S''
sI157
S''
sI158
S'@auth.requires_signature()'
p2834
sI159
S'def data():'
p2835
ssg2816
S'()'
p2836
sg2818
S'<module>'
p2837
sa(dp2838
g2795
S'/home/jose/DESARROLLO/web2py199/gluon/tools.py'
p2839
sg2797
(dp2840
S'global current'
p2841
S'<thread._local object>'
p2842
sS'self'
p2843
S'<gluon.tools.Auth object>'
p2844
sS'self.requires'
p2845
S'<bound method Auth.requires of <gluon.tools.Auth object>>'
p2846
sS'current.request'
p2847
S"<Storage {'body': <cStringIO.StringO object at 0...73b662003fe057841'}>, 'post_vars': <Storage {}>}>"
p2848
sS'global URL'
p2849
S'<function URL>'
p2850
sS'user_signature'
p2851
S'undefined'
p2852
sS'builtinTrue'
p2853
g1488
sS'URL.verify'
p2854
S'<function verifyURL>'
p2855
ssg2803
I2494
sg2804
(dp2856
I2496
S"    def add_group(self, role, description=''):"
p2857
sI2497
S'        """'
p2858
sI2498
S'        creates a group associated to a role'
p2859
sI2489
S'        decorator that prevents access to action if not logged in or'
p2860
sI2490
S'        if user logged in is not a member of group_id.'
p2861
sI2491
S'        If role is provided instead of group_id then the'
p2862
sI2492
S'        group_id is calculated.'
p2863
sI2493
S'        """'
p2864
sI2494
S'        return self.requires(URL.verify(current.request,user_signature=True))'
p2865
sI2495
S''
ssg2816
S'(self=<gluon.tools.Auth object>)'
p2866
sg2818
S'requires_signature'
p2867
sa(dp2868
g2795
S'/home/jose/DESARROLLO/web2py199/gluon/html.py'
p2869
sg2797
(dp2870
S'current'
p2871
S'<thread._local object>'
p2872
sS'hmac_key'
p2873
S'None'
p2874
sS'current.session.auth.hmac_key'
p2875
g2852
sS'current.session'
p2876
S'<Storage {\'_web2py_grid_referrer_web2py_grid\': \'...on__hash\': \'\\xa0w\\xfd\\xd1=\\xa8s\\x01*Y9\\xcaPv`"\'}>'
p2877
sS'current.session.auth'
p2878
S'None'
p2879
ssg2803
I352
sg2804
(dp2880
I352
S'        hmac_key = current.session.auth.hmac_key'
p2881
sI353
S'    if not hmac_key:'
p2882
sI354
S'        return False'
p2883
sI355
S''
sI356
S'    # get our sig from request.get_vars for later comparison'
p2884
sI347
S'    # check if user_signature requires'
p2885
sI348
S'    if user_signature:'
p2886
sI349
S'        from globals import current'
p2887
sI350
S'        if not current.session:'
p2888
sI351
S'            return False'
p2889
ssg2816
S"(request=<Storage {'body': <cStringIO.StringO object at 0...73b662003fe057841'}>, 'post_vars': <Storage {}>}>, hmac_key=None, hash_vars=True, salt=None, user_signature=True)"
p2890
sg2818
S'verifyURL'
p2891
sasS'pyver'
p2892
S'Python 2.7.2+: /usr/bin/python'
p2893
sS'session'
p2894
g56
(g57
g58
NtRp2895
(dp2896
g61
(dp2897
sg63
(lp2898
g56
(g65
g58
NtRp2899
(dp2900
g61
(dp2901
g69
I5
ssg70
Nsg63
(lp2902
sbasbsS'etype'
p2903
S"<type 'exceptions.AttributeError'>"
p2904
sS'date'
p2905
S'Sat May 26 14:49:39 2012'
p2906
sS'response'
p2907
g56
(g57
g58
NtRp2908
(dp2909
g61
(dp2910
sg63
(lp2911
g56
(g65
g58
NtRp2912
(dp2913
g61
(dp2914
g69
I5
ssg70
Nsg63
(lp2915
g56
(g72
g58
NtRp2916
(dp2917
g61
(dp2918
sg70
g2912
sg63
(lp2919
g56
(g77
g58
NtRp2920
(dp2921
g61
(dp2922
g81
g82
ssg70
g2916
sg63
(lp2923
g192
asbag56
(g77
g58
NtRp2924
(dp2925
g61
(dp2926
g88
g89
ssg70
g2916
sg63
(lp2927
S':'
asbag56
(g77
g58
NtRp2928
(dp2929
g61
(dp2930
sg70
g2916
sg63
(lp2931
g56
(g57
g58
NtRp2932
(dp2933
g61
(dp2934
g69
I5
ssg70
g2928
sg63
(lp2935
S'<cStringIO.StringO object at 0x221d768>'
p2936
asbasbasbag56
(g72
g58
NtRp2937
(dp2938
g61
(dp2939
sg70
g2912
sg63
(lp2940
g56
(g77
g58
NtRp2941
(dp2942
g61
(dp2943
g81
g82
ssg70
g2937
sg63
(lp2944
g258
asbag56
(g77
g58
NtRp2945
(dp2946
g61
(dp2947
g88
g89
ssg70
g2937
sg63
(lp2948
S':'
asbag56
(g77
g58
NtRp2949
(dp2950
g61
(dp2951
sg70
g2937
sg63
(lp2952
g56
(g57
g58
NtRp2953
(dp2954
g61
(dp2955
g69
I5
ssg70
g2949
sg63
(lp2956
g56
(g65
g58
NtRp2957
(dp2958
g61
(dp2959
g69
I4
ssg70
Nsg63
(lp2960
g56
(g72
g58
NtRp2961
(dp2962
g61
(dp2963
sg70
g2957
sg63
(lp2964
g56
(g77
g58
NtRp2965
(dp2966
g61
(dp2967
g81
g82
ssg70
g2961
sg63
(lp2968
S'session_id_streamlog'
p2969
asbag56
(g77
g58
NtRp2970
(dp2971
g61
(dp2972
g88
g89
ssg70
g2961
sg63
(lp2973
S':'
asbag56
(g77
g58
NtRp2974
(dp2975
g61
(dp2976
sg70
g2961
sg63
(lp2977
g56
(g57
g58
NtRp2978
(dp2979
g61
(dp2980
g69
I4
ssg70
g2974
sg63
(lp2981
g56
(g65
g58
NtRp2982
(dp2983
g61
(dp2984
g69
I3
ssg70
Nsg63
(lp2985
g56
(g72
g58
NtRp2986
(dp2987
g61
(dp2988
sg70
g2982
sg63
(lp2989
g56
(g77
g58
NtRp2990
(dp2991
g61
(dp2992
g81
g82
ssg70
g2986
sg63
(lp2993
g308
asbag56
(g77
g58
NtRp2994
(dp2995
g61
(dp2996
g88
g89
ssg70
g2986
sg63
(lp2997
S':'
asbag56
(g77
g58
NtRp2998
(dp2999
g61
(dp3000
sg70
g2986
sg63
(lp3001
g56
(g57
g58
NtRp3002
(dp3003
g61
(dp3004
g69
I3
ssg70
g2998
sg63
(lp3005
S''
asbasbasbag56
(g72
g58
NtRp3006
(dp3007
g61
(dp3008
sg70
g2982
sg63
(lp3009
g56
(g77
g58
NtRp3010
(dp3011
g61
(dp3012
g81
g82
ssg70
g3006
sg63
(lp3013
g329
asbag56
(g77
g58
NtRp3014
(dp3015
g61
(dp3016
g88
g89
ssg70
g3006
sg63
(lp3017
S':'
asbag56
(g77
g58
NtRp3018
(dp3019
g61
(dp3020
sg70
g3006
sg63
(lp3021
g56
(g57
g58
NtRp3022
(dp3023
g61
(dp3024
g69
I3
ssg70
g3018
sg63
(lp3025
S''
asbasbasbag56
(g72
g58
NtRp3026
(dp3027
g61
(dp3028
sg70
g2982
sg63
(lp3029
g56
(g77
g58
NtRp3030
(dp3031
g61
(dp3032
g81
g82
ssg70
g3026
sg63
(lp3033
g350
asbag56
(g77
g58
NtRp3034
(dp3035
g61
(dp3036
g88
g89
ssg70
g3026
sg63
(lp3037
S':'
asbag56
(g77
g58
NtRp3038
(dp3039
g61
(dp3040
sg70
g3026
sg63
(lp3041
g56
(g57
g58
NtRp3042
(dp3043
g61
(dp3044
g69
I3
ssg70
g3038
sg63
(lp3045
S''
asbasbasbag56
(g72
g58
NtRp3046
(dp3047
g61
(dp3048
sg70
g2982
sg63
(lp3049
g56
(g77
g58
NtRp3050
(dp3051
g61
(dp3052
g81
g82
ssg70
g3046
sg63
(lp3053
g371
asbag56
(g77
g58
NtRp3054
(dp3055
g61
(dp3056
g88
g89
ssg70
g3046
sg63
(lp3057
S':'
asbag56
(g77
g58
NtRp3058
(dp3059
g61
(dp3060
sg70
g3046
sg63
(lp3061
g56
(g57
g58
NtRp3062
(dp3063
g61
(dp3064
g69
I3
ssg70
g3058
sg63
(lp3065
S''
asbasbasbag56
(g72
g58
NtRp3066
(dp3067
g61
(dp3068
sg70
g2982
sg63
(lp3069
g56
(g77
g58
NtRp3070
(dp3071
g61
(dp3072
g81
g82
ssg70
g3066
sg63
(lp3073
g392
asbag56
(g77
g58
NtRp3074
(dp3075
g61
(dp3076
g88
g89
ssg70
g3066
sg63
(lp3077
S':'
asbag56
(g77
g58
NtRp3078
(dp3079
g61
(dp3080
sg70
g3066
sg63
(lp3081
g56
(g57
g58
NtRp3082
(dp3083
g61
(dp3084
g69
I3
ssg70
g3078
sg63
(lp3085
S''
asbasbasbag56
(g72
g58
NtRp3086
(dp3087
g61
(dp3088
sg70
g2982
sg63
(lp3089
g56
(g77
g58
NtRp3090
(dp3091
g61
(dp3092
g81
g82
ssg70
g3086
sg63
(lp3093
g413
asbag56
(g77
g58
NtRp3094
(dp3095
g61
(dp3096
g88
g89
ssg70
g3086
sg63
(lp3097
S':'
asbag56
(g77
g58
NtRp3098
(dp3099
g61
(dp3100
sg70
g3086
sg63
(lp3101
g56
(g57
g58
NtRp3102
(dp3103
g61
(dp3104
g69
I3
ssg70
g3098
sg63
(lp3105
S'/'
asbasbasbag56
(g72
g58
NtRp3106
(dp3107
g61
(dp3108
sg70
g2982
sg63
(lp3109
g56
(g77
g58
NtRp3110
(dp3111
g61
(dp3112
g81
g82
ssg70
g3106
sg63
(lp3113
g434
asbag56
(g77
g58
NtRp3114
(dp3115
g61
(dp3116
g88
g89
ssg70
g3106
sg63
(lp3117
S':'
asbag56
(g77
g58
NtRp3118
(dp3119
g61
(dp3120
sg70
g3106
sg63
(lp3121
g56
(g57
g58
NtRp3122
(dp3123
g61
(dp3124
g69
I3
ssg70
g3118
sg63
(lp3125
S''
asbasbasbag56
(g72
g58
NtRp3126
(dp3127
g61
(dp3128
sg70
g2982
sg63
(lp3129
g56
(g77
g58
NtRp3130
(dp3131
g61
(dp3132
g81
g82
ssg70
g3126
sg63
(lp3133
g455
asbag56
(g77
g58
NtRp3134
(dp3135
g61
(dp3136
g88
g89
ssg70
g3126
sg63
(lp3137
S':'
asbag56
(g77
g58
NtRp3138
(dp3139
g61
(dp3140
sg70
g3126
sg63
(lp3141
g56
(g57
g58
NtRp3142
(dp3143
g61
(dp3144
g69
I3
ssg70
g3138
sg63
(lp3145
S''
asbasbasbasbasbasbasbasbasbasbasbag56
(g72
g58
NtRp3146
(dp3147
g61
(dp3148
sg70
g2912
sg63
(lp3149
g56
(g77
g58
NtRp3150
(dp3151
g61
(dp3152
g81
g82
ssg70
g3146
sg63
(lp3153
S'files'
p3154
asbag56
(g77
g58
NtRp3155
(dp3156
g61
(dp3157
g88
g89
ssg70
g3146
sg63
(lp3158
S':'
asbag56
(g77
g58
NtRp3159
(dp3160
g61
(dp3161
sg70
g3146
sg63
(lp3162
g56
(g57
g58
NtRp3163
(dp3164
g61
(dp3165
g69
I5
ssg70
g3159
sg63
(lp3166
g56
(g65
g58
NtRp3167
(dp3168
g61
(dp3169
g69
I4
ssg70
Nsg63
(lp3170
sbasbasbasbag56
(g72
g58
NtRp3171
(dp3172
g61
(dp3173
sg70
g2912
sg63
(lp3174
g56
(g77
g58
NtRp3175
(dp3176
g61
(dp3177
g81
g82
ssg70
g3171
sg63
(lp3178
S'flash'
p3179
asbag56
(g77
g58
NtRp3180
(dp3181
g61
(dp3182
g88
g89
ssg70
g3171
sg63
(lp3183
S':'
asbag56
(g77
g58
NtRp3184
(dp3185
g61
(dp3186
sg70
g3171
sg63
(lp3187
g56
(g57
g58
NtRp3188
(dp3189
g61
(dp3190
g69
I5
ssg70
g3184
sg63
(lp3191
S''
asbasbasbag56
(g72
g58
NtRp3192
(dp3193
g61
(dp3194
sg70
g2912
sg63
(lp3195
g56
(g77
g58
NtRp3196
(dp3197
g61
(dp3198
g81
g82
ssg70
g3192
sg63
(lp3199
S'generic_patterns'
p3200
asbag56
(g77
g58
NtRp3201
(dp3202
g61
(dp3203
g88
g89
ssg70
g3192
sg63
(lp3204
S':'
asbag56
(g77
g58
NtRp3205
(dp3206
g61
(dp3207
sg70
g3192
sg63
(lp3208
g56
(g57
g58
NtRp3209
(dp3210
g61
(dp3211
g69
I5
ssg70
g3205
sg63
(lp3212
g56
(g65
g58
NtRp3213
(dp3214
g61
(dp3215
g69
I4
ssg70
Nsg63
(lp3216
g56
(g72
g58
NtRp3217
(dp3218
g61
(dp3219
sg70
g3213
sg63
(lp3220
g56
(g77
g58
NtRp3221
(dp3222
g61
(dp3223
sg70
g3217
sg63
(lp3224
g56
(g57
g58
NtRp3225
(dp3226
g61
(dp3227
g69
I4
ssg70
g3221
sg63
(lp3228
S'*'
asbasbasbasbasbasbasbag56
(g72
g58
NtRp3229
(dp3230
g61
(dp3231
sg70
g2912
sg63
(lp3232
g56
(g77
g58
NtRp3233
(dp3234
g61
(dp3235
g81
g82
ssg70
g3229
sg63
(lp3236
S'headers'
p3237
asbag56
(g77
g58
NtRp3238
(dp3239
g61
(dp3240
g88
g89
ssg70
g3229
sg63
(lp3241
S':'
asbag56
(g77
g58
NtRp3242
(dp3243
g61
(dp3244
sg70
g3229
sg63
(lp3245
g56
(g57
g58
NtRp3246
(dp3247
g61
(dp3248
g69
I5
ssg70
g3242
sg63
(lp3249
g56
(g65
g58
NtRp3250
(dp3251
g61
(dp3252
g69
I4
ssg70
Nsg63
(lp3253
g56
(g72
g58
NtRp3254
(dp3255
g61
(dp3256
sg70
g3250
sg63
(lp3257
g56
(g77
g58
NtRp3258
(dp3259
g61
(dp3260
g81
g82
ssg70
g3254
sg63
(lp3261
S'Cache-Control'
p3262
asbag56
(g77
g58
NtRp3263
(dp3264
g61
(dp3265
g88
g89
ssg70
g3254
sg63
(lp3266
S':'
asbag56
(g77
g58
NtRp3267
(dp3268
g61
(dp3269
sg70
g3254
sg63
(lp3270
g56
(g57
g58
NtRp3271
(dp3272
g61
(dp3273
g69
I4
ssg70
g3267
sg63
(lp3274
S'no-store, no-cache, must-revalidate, post-check=0, pre-check=0'
p3275
asbasbasbag56
(g72
g58
NtRp3276
(dp3277
g61
(dp3278
sg70
g3250
sg63
(lp3279
g56
(g77
g58
NtRp3280
(dp3281
g61
(dp3282
g81
g82
ssg70
g3276
sg63
(lp3283
S'Content-Type'
p3284
asbag56
(g77
g58
NtRp3285
(dp3286
g61
(dp3287
g88
g89
ssg70
g3276
sg63
(lp3288
S':'
asbag56
(g77
g58
NtRp3289
(dp3290
g61
(dp3291
sg70
g3276
sg63
(lp3292
g56
(g57
g58
NtRp3293
(dp3294
g61
(dp3295
g69
I4
ssg70
g3289
sg63
(lp3296
S'text/html; charset=utf-8'
p3297
asbasbasbag56
(g72
g58
NtRp3298
(dp3299
g61
(dp3300
sg70
g3250
sg63
(lp3301
g56
(g77
g58
NtRp3302
(dp3303
g61
(dp3304
g81
g82
ssg70
g3298
sg63
(lp3305
S'Expires'
p3306
asbag56
(g77
g58
NtRp3307
(dp3308
g61
(dp3309
g88
g89
ssg70
g3298
sg63
(lp3310
S':'
asbag56
(g77
g58
NtRp3311
(dp3312
g61
(dp3313
sg70
g3298
sg63
(lp3314
g56
(g57
g58
NtRp3315
(dp3316
g61
(dp3317
g69
I4
ssg70
g3311
sg63
(lp3318
S'Sat, 26 May 2012 07:49:39 GMT'
p3319
asbasbasbag56
(g72
g58
NtRp3320
(dp3321
g61
(dp3322
sg70
g3250
sg63
(lp3323
g56
(g77
g58
NtRp3324
(dp3325
g61
(dp3326
g81
g82
ssg70
g3320
sg63
(lp3327
S'Pragma'
p3328
asbag56
(g77
g58
NtRp3329
(dp3330
g61
(dp3331
g88
g89
ssg70
g3320
sg63
(lp3332
S':'
asbag56
(g77
g58
NtRp3333
(dp3334
g61
(dp3335
sg70
g3320
sg63
(lp3336
g56
(g57
g58
NtRp3337
(dp3338
g61
(dp3339
g69
I4
ssg70
g3333
sg63
(lp3340
S'no-cache'
p3341
asbasbasbag56
(g72
g58
NtRp3342
(dp3343
g61
(dp3344
sg70
g3250
sg63
(lp3345
g56
(g77
g58
NtRp3346
(dp3347
g61
(dp3348
g81
g82
ssg70
g3342
sg63
(lp3349
S'X-Powered-By'
p3350
asbag56
(g77
g58
NtRp3351
(dp3352
g61
(dp3353
g88
g89
ssg70
g3342
sg63
(lp3354
S':'
asbag56
(g77
g58
NtRp3355
(dp3356
g61
(dp3357
sg70
g3342
sg63
(lp3358
g56
(g57
g58
NtRp3359
(dp3360
g61
(dp3361
g69
I4
ssg70
g3355
sg63
(lp3362
S'web2py'
p3363
asbasbasbasbasbasbasbag56
(g72
g58
NtRp3364
(dp3365
g61
(dp3366
sg70
g2912
sg63
(lp3367
g56
(g77
g58
NtRp3368
(dp3369
g61
(dp3370
g81
g82
ssg70
g3364
sg63
(lp3371
S'menu'
p3372
asbag56
(g77
g58
NtRp3373
(dp3374
g61
(dp3375
g88
g89
ssg70
g3364
sg63
(lp3376
S':'
asbag56
(g77
g58
NtRp3377
(dp3378
g61
(dp3379
sg70
g3364
sg63
(lp3380
g56
(g57
g58
NtRp3381
(dp3382
g61
(dp3383
g69
I5
ssg70
g3377
sg63
(lp3384
g56
(g65
g58
NtRp3385
(dp3386
g61
(dp3387
g69
I4
ssg70
Nsg63
(lp3388
g56
(g72
g58
NtRp3389
(dp3390
g61
(dp3391
sg70
g3385
sg63
(lp3392
g56
(g77
g58
NtRp3393
(dp3394
g61
(dp3395
sg70
g3389
sg63
(lp3396
g56
(g57
g58
NtRp3397
(dp3398
g61
(dp3399
g69
I4
ssg70
g3393
sg63
(lp3400
g56
(g65
g58
NtRp3401
(dp3402
g61
(dp3403
g69
I3
ssg70
Nsg63
(lp3404
g56
(g72
g58
NtRp3405
(dp3406
g61
(dp3407
sg70
g3401
sg63
(lp3408
g56
(g77
g58
NtRp3409
(dp3410
g61
(dp3411
sg70
g3405
sg63
(lp3412
g56
(g57
g58
NtRp3413
(dp3414
g61
(dp3415
g69
I3
ssg70
g3409
sg63
(lp3416
cgluon.languages
lazyT_unpickle
p3417
(S's\n\x00\x00\x00Clear Page'
tRp3418
asbasbasbag56
(g72
g58
NtRp3419
(dp3420
g61
(dp3421
sg70
g3401
sg63
(lp3422
g56
(g77
g58
NtRp3423
(dp3424
g61
(dp3425
sg70
g3419
sg63
(lp3426
g56
(g57
g58
NtRp3427
(dp3428
g61
(dp3429
g69
I3
ssg70
g3423
sg63
(lp3430
g99
asbasbasbag56
(g72
g58
NtRp3431
(dp3432
g61
(dp3433
sg70
g3401
sg63
(lp3434
g56
(g77
g58
NtRp3435
(dp3436
g61
(dp3437
sg70
g3431
sg63
(lp3438
g56
(g57
g58
NtRp3439
(dp3440
g61
(dp3441
g69
I3
ssg70
g3435
sg63
(lp3442
S'/streamlog/default/index'
p3443
asbasbasbag56
(g72
g58
NtRp3444
(dp3445
g61
(dp3446
sg70
g3401
sg63
(lp3447
g56
(g77
g58
NtRp3448
(dp3449
g61
(dp3450
sg70
g3444
sg63
(lp3451
g56
(g57
g58
NtRp3452
(dp3453
g61
(dp3454
g69
I3
ssg70
g3448
sg63
(lp3455
g56
(g65
g58
NtRp3456
(dp3457
g61
(dp3458
g69
I2
ssg70
Nsg63
(lp3459
sbasbasbasbasbasbasbasbag56
(g72
g58
NtRp3460
(dp3461
g61
(dp3462
sg70
g3385
sg63
(lp3463
g56
(g77
g58
NtRp3464
(dp3465
g61
(dp3466
sg70
g3460
sg63
(lp3467
g56
(g57
g58
NtRp3468
(dp3469
g61
(dp3470
g69
I4
ssg70
g3464
sg63
(lp3471
g56
(g65
g58
NtRp3472
(dp3473
g61
(dp3474
g69
I3
ssg70
Nsg63
(lp3475
g56
(g72
g58
NtRp3476
(dp3477
g61
(dp3478
sg70
g3472
sg63
(lp3479
g56
(g77
g58
NtRp3480
(dp3481
g61
(dp3482
sg70
g3476
sg63
(lp3483
g56
(g57
g58
NtRp3484
(dp3485
g61
(dp3486
g69
I3
ssg70
g3480
sg63
(lp3487
g3417
(S's\x0e\x00\x00\x00Manage Servers'
tRp3488
asbasbasbag56
(g72
g58
NtRp3489
(dp3490
g61
(dp3491
sg70
g3472
sg63
(lp3492
g56
(g77
g58
NtRp3493
(dp3494
g61
(dp3495
sg70
g3489
sg63
(lp3496
g56
(g57
g58
NtRp3497
(dp3498
g61
(dp3499
g69
I3
ssg70
g3493
sg63
(lp3500
g99
asbasbasbag56
(g72
g58
NtRp3501
(dp3502
g61
(dp3503
sg70
g3472
sg63
(lp3504
g56
(g77
g58
NtRp3505
(dp3506
g61
(dp3507
sg70
g3501
sg63
(lp3508
g56
(g57
g58
NtRp3509
(dp3510
g61
(dp3511
g69
I3
ssg70
g3505
sg63
(lp3512
S'/streamlog/default/server_manage'
p3513
asbasbasbag56
(g72
g58
NtRp3514
(dp3515
g61
(dp3516
sg70
g3472
sg63
(lp3517
g56
(g77
g58
NtRp3518
(dp3519
g61
(dp3520
sg70
g3514
sg63
(lp3521
g56
(g57
g58
NtRp3522
(dp3523
g61
(dp3524
g69
I3
ssg70
g3518
sg63
(lp3525
g56
(g65
g58
NtRp3526
(dp3527
g61
(dp3528
g69
I2
ssg70
Nsg63
(lp3529
sbasbasbasbasbasbasbasbag56
(g72
g58
NtRp3530
(dp3531
g61
(dp3532
sg70
g3385
sg63
(lp3533
g56
(g77
g58
NtRp3534
(dp3535
g61
(dp3536
sg70
g3530
sg63
(lp3537
g56
(g57
g58
NtRp3538
(dp3539
g61
(dp3540
g69
I4
ssg70
g3534
sg63
(lp3541
g56
(g65
g58
NtRp3542
(dp3543
g61
(dp3544
g69
I3
ssg70
Nsg63
(lp3545
g56
(g72
g58
NtRp3546
(dp3547
g61
(dp3548
sg70
g3542
sg63
(lp3549
g56
(g77
g58
NtRp3550
(dp3551
g61
(dp3552
sg70
g3546
sg63
(lp3553
g56
(g57
g58
NtRp3554
(dp3555
g61
(dp3556
g69
I3
ssg70
g3550
sg63
(lp3557
g3417
(S's\x0b\x00\x00\x00Manage Logs'
tRp3558
asbasbasbag56
(g72
g58
NtRp3559
(dp3560
g61
(dp3561
sg70
g3542
sg63
(lp3562
g56
(g77
g58
NtRp3563
(dp3564
g61
(dp3565
sg70
g3559
sg63
(lp3566
g56
(g57
g58
NtRp3567
(dp3568
g61
(dp3569
g69
I3
ssg70
g3563
sg63
(lp3570
g99
asbasbasbag56
(g72
g58
NtRp3571
(dp3572
g61
(dp3573
sg70
g3542
sg63
(lp3574
g56
(g77
g58
NtRp3575
(dp3576
g61
(dp3577
sg70
g3571
sg63
(lp3578
g56
(g57
g58
NtRp3579
(dp3580
g61
(dp3581
g69
I3
ssg70
g3575
sg63
(lp3582
S'/streamlog/default/log_manage'
p3583
asbasbasbag56
(g72
g58
NtRp3584
(dp3585
g61
(dp3586
sg70
g3542
sg63
(lp3587
g56
(g77
g58
NtRp3588
(dp3589
g61
(dp3590
sg70
g3584
sg63
(lp3591
g56
(g57
g58
NtRp3592
(dp3593
g61
(dp3594
g69
I3
ssg70
g3588
sg63
(lp3595
g56
(g65
g58
NtRp3596
(dp3597
g61
(dp3598
g69
I2
ssg70
Nsg63
(lp3599
sbasbasbasbasbasbasbasbag56
(g72
g58
NtRp3600
(dp3601
g61
(dp3602
sg70
g3385
sg63
(lp3603
g56
(g77
g58
NtRp3604
(dp3605
g61
(dp3606
sg70
g3600
sg63
(lp3607
g56
(g57
g58
NtRp3608
(dp3609
g61
(dp3610
g69
I4
ssg70
g3604
sg63
(lp3611
g56
(g65
g58
NtRp3612
(dp3613
g61
(dp3614
g69
I3
ssg70
Nsg63
(lp3615
g56
(g72
g58
NtRp3616
(dp3617
g61
(dp3618
sg70
g3612
sg63
(lp3619
g56
(g77
g58
NtRp3620
(dp3621
g61
(dp3622
sg70
g3616
sg63
(lp3623
g56
(g57
g58
NtRp3624
(dp3625
g61
(dp3626
g69
I3
ssg70
g3620
sg63
(lp3627
g3417
(S's\x0f\x00\x00\x00Manage Projects'
tRp3628
asbasbasbag56
(g72
g58
NtRp3629
(dp3630
g61
(dp3631
sg70
g3612
sg63
(lp3632
g56
(g77
g58
NtRp3633
(dp3634
g61
(dp3635
sg70
g3629
sg63
(lp3636
g56
(g57
g58
NtRp3637
(dp3638
g61
(dp3639
g69
I3
ssg70
g3633
sg63
(lp3640
g99
asbasbasbag56
(g72
g58
NtRp3641
(dp3642
g61
(dp3643
sg70
g3612
sg63
(lp3644
g56
(g77
g58
NtRp3645
(dp3646
g61
(dp3647
sg70
g3641
sg63
(lp3648
g56
(g57
g58
NtRp3649
(dp3650
g61
(dp3651
g69
I3
ssg70
g3645
sg63
(lp3652
S'/streamlog/default/project_manage'
p3653
asbasbasbag56
(g72
g58
NtRp3654
(dp3655
g61
(dp3656
sg70
g3612
sg63
(lp3657
g56
(g77
g58
NtRp3658
(dp3659
g61
(dp3660
sg70
g3654
sg63
(lp3661
g56
(g57
g58
NtRp3662
(dp3663
g61
(dp3664
g69
I3
ssg70
g3658
sg63
(lp3665
g56
(g65
g58
NtRp3666
(dp3667
g61
(dp3668
g69
I2
ssg70
Nsg63
(lp3669
sbasbasbasbasbasbasbasbasbasbasbasbag56
(g72
g58
NtRp3670
(dp3671
g61
(dp3672
sg70
g2912
sg63
(lp3673
g56
(g77
g58
NtRp3674
(dp3675
g61
(dp3676
g81
g82
ssg70
g3670
sg63
(lp3677
S'meta'
p3678
asbag56
(g77
g58
NtRp3679
(dp3680
g61
(dp3681
g88
g89
ssg70
g3670
sg63
(lp3682
S':'
asbag56
(g77
g58
NtRp3683
(dp3684
g61
(dp3685
sg70
g3670
sg63
(lp3686
g56
(g57
g58
NtRp3687
(dp3688
g61
(dp3689
g69
I5
ssg70
g3683
sg63
(lp3690
g56
(g65
g58
NtRp3691
(dp3692
g61
(dp3693
g69
I4
ssg70
Nsg63
(lp3694
g56
(g72
g58
NtRp3695
(dp3696
g61
(dp3697
sg70
g3691
sg63
(lp3698
g56
(g77
g58
NtRp3699
(dp3700
g61
(dp3701
g81
g82
ssg70
g3695
sg63
(lp3702
S'author'
p3703
asbag56
(g77
g58
NtRp3704
(dp3705
g61
(dp3706
g88
g89
ssg70
g3695
sg63
(lp3707
S':'
asbag56
(g77
g58
NtRp3708
(dp3709
g61
(dp3710
sg70
g3695
sg63
(lp3711
g56
(g57
g58
NtRp3712
(dp3713
g61
(dp3714
g69
I4
ssg70
g3708
sg63
(lp3715
S'Jose de Soto <josedesoto@gmail.com>'
p3716
asbasbasbag56
(g72
g58
NtRp3717
(dp3718
g61
(dp3719
sg70
g3691
sg63
(lp3720
g56
(g77
g58
NtRp3721
(dp3722
g61
(dp3723
g81
g82
ssg70
g3717
sg63
(lp3724
S'copyright'
p3725
asbag56
(g77
g58
NtRp3726
(dp3727
g61
(dp3728
g88
g89
ssg70
g3717
sg63
(lp3729
S':'
asbag56
(g77
g58
NtRp3730
(dp3731
g61
(dp3732
sg70
g3717
sg63
(lp3733
g56
(g57
g58
NtRp3734
(dp3735
g61
(dp3736
g69
I4
ssg70
g3730
sg63
(lp3737
S'Copyright 2011'
p3738
asbasbasbag56
(g72
g58
NtRp3739
(dp3740
g61
(dp3741
sg70
g3691
sg63
(lp3742
g56
(g77
g58
NtRp3743
(dp3744
g61
(dp3745
g81
g82
ssg70
g3739
sg63
(lp3746
S'description'
p3747
asbag56
(g77
g58
NtRp3748
(dp3749
g61
(dp3750
g88
g89
ssg70
g3739
sg63
(lp3751
S':'
asbag56
(g77
g58
NtRp3752
(dp3753
g61
(dp3754
sg70
g3739
sg63
(lp3755
g56
(g57
g58
NtRp3756
(dp3757
g61
(dp3758
g69
I4
ssg70
g3752
sg63
(lp3759
S'a cool new app'
p3760
asbasbasbag56
(g72
g58
NtRp3761
(dp3762
g61
(dp3763
sg70
g3691
sg63
(lp3764
g56
(g77
g58
NtRp3765
(dp3766
g61
(dp3767
g81
g82
ssg70
g3761
sg63
(lp3768
S'generator'
p3769
asbag56
(g77
g58
NtRp3770
(dp3771
g61
(dp3772
g88
g89
ssg70
g3761
sg63
(lp3773
S':'
asbag56
(g77
g58
NtRp3774
(dp3775
g61
(dp3776
sg70
g3761
sg63
(lp3777
g56
(g57
g58
NtRp3778
(dp3779
g61
(dp3780
g69
I4
ssg70
g3774
sg63
(lp3781
S'Web2py Web Framework'
p3782
asbasbasbag56
(g72
g58
NtRp3783
(dp3784
g61
(dp3785
sg70
g3691
sg63
(lp3786
g56
(g77
g58
NtRp3787
(dp3788
g61
(dp3789
g81
g82
ssg70
g3783
sg63
(lp3790
S'keywords'
p3791
asbag56
(g77
g58
NtRp3792
(dp3793
g61
(dp3794
g88
g89
ssg70
g3783
sg63
(lp3795
S':'
asbag56
(g77
g58
NtRp3796
(dp3797
g61
(dp3798
sg70
g3783
sg63
(lp3799
g56
(g57
g58
NtRp3800
(dp3801
g61
(dp3802
g69
I4
ssg70
g3796
sg63
(lp3803
S'web2py, python, framework'
p3804
asbasbasbasbasbasbasbag56
(g72
g58
NtRp3805
(dp3806
g61
(dp3807
sg70
g2912
sg63
(lp3808
g56
(g77
g58
NtRp3809
(dp3810
g61
(dp3811
g81
g82
ssg70
g3805
sg63
(lp3812
S'postprocessing'
p3813
asbag56
(g77
g58
NtRp3814
(dp3815
g61
(dp3816
g88
g89
ssg70
g3805
sg63
(lp3817
S':'
asbag56
(g77
g58
NtRp3818
(dp3819
g61
(dp3820
sg70
g3805
sg63
(lp3821
g56
(g57
g58
NtRp3822
(dp3823
g61
(dp3824
g69
I5
ssg70
g3818
sg63
(lp3825
g56
(g65
g58
NtRp3826
(dp3827
g61
(dp3828
g69
I4
ssg70
Nsg63
(lp3829
sbasbasbasbag56
(g72
g58
NtRp3830
(dp3831
g61
(dp3832
sg70
g2912
sg63
(lp3833
g56
(g77
g58
NtRp3834
(dp3835
g61
(dp3836
g81
g82
ssg70
g3830
sg63
(lp3837
S'session_file'
p3838
asbag56
(g77
g58
NtRp3839
(dp3840
g61
(dp3841
g88
g89
ssg70
g3830
sg63
(lp3842
S':'
asbag56
(g77
g58
NtRp3843
(dp3844
g61
(dp3845
sg70
g3830
sg63
(lp3846
g56
(g57
g58
NtRp3847
(dp3848
g61
(dp3849
g69
I5
ssg70
g3843
sg63
(lp3850
S"<open file '/home/jose/DESARROLLO/web2py199/applications/streamlog/sessions/127.0.0.1-e1466c71-8e5f-49aa-afa5-387c8777d3e6', mode 'rb+' at 0x24d2390>"
p3851
asbasbasbag56
(g72
g58
NtRp3852
(dp3853
g61
(dp3854
sg70
g2912
sg63
(lp3855
g56
(g77
g58
NtRp3856
(dp3857
g61
(dp3858
g81
g82
ssg70
g3852
sg63
(lp3859
S'session_filename'
p3860
asbag56
(g77
g58
NtRp3861
(dp3862
g61
(dp3863
g88
g89
ssg70
g3852
sg63
(lp3864
S':'
asbag56
(g77
g58
NtRp3865
(dp3866
g61
(dp3867
sg70
g3852
sg63
(lp3868
g56
(g57
g58
NtRp3869
(dp3870
g61
(dp3871
g69
I5
ssg70
g3865
sg63
(lp3872
S'/home/jose/DESARROLLO/web2py199/applications/streamlog/sessions/127.0.0.1-e1466c71-8e5f-49aa-afa5-387c8777d3e6'
p3873
asbasbasbag56
(g72
g58
NtRp3874
(dp3875
g61
(dp3876
sg70
g2912
sg63
(lp3877
g56
(g77
g58
NtRp3878
(dp3879
g61
(dp3880
g81
g82
ssg70
g3874
sg63
(lp3881
S'session_id'
p3882
asbag56
(g77
g58
NtRp3883
(dp3884
g61
(dp3885
g88
g89
ssg70
g3874
sg63
(lp3886
S':'
asbag56
(g77
g58
NtRp3887
(dp3888
g61
(dp3889
sg70
g3874
sg63
(lp3890
g56
(g57
g58
NtRp3891
(dp3892
g61
(dp3893
g69
I5
ssg70
g3887
sg63
(lp3894
S'127.0.0.1-e1466c71-8e5f-49aa-afa5-387c8777d3e6'
p3895
asbasbasbag56
(g72
g58
NtRp3896
(dp3897
g61
(dp3898
sg70
g2912
sg63
(lp3899
g56
(g77
g58
NtRp3900
(dp3901
g61
(dp3902
g81
g82
ssg70
g3896
sg63
(lp3903
S'session_id_name'
p3904
asbag56
(g77
g58
NtRp3905
(dp3906
g61
(dp3907
g88
g89
ssg70
g3896
sg63
(lp3908
S':'
asbag56
(g77
g58
NtRp3909
(dp3910
g61
(dp3911
sg70
g3896
sg63
(lp3912
g56
(g57
g58
NtRp3913
(dp3914
g61
(dp3915
g69
I5
ssg70
g3909
sg63
(lp3916
g2969
asbasbasbag56
(g72
g58
NtRp3917
(dp3918
g61
(dp3919
sg70
g2912
sg63
(lp3920
g56
(g77
g58
NtRp3921
(dp3922
g61
(dp3923
g81
g82
ssg70
g3917
sg63
(lp3924
S'session_locked'
p3925
asbag56
(g77
g58
NtRp3926
(dp3927
g61
(dp3928
g88
g89
ssg70
g3917
sg63
(lp3929
S':'
asbag56
(g77
g58
NtRp3930
(dp3931
g61
(dp3932
sg70
g3917
sg63
(lp3933
g56
(g57
g58
NtRp3934
(dp3935
g61
(dp3936
g69
I5
ssg70
g3930
sg63
(lp3937
g1488
asbasbasbag56
(g72
g58
NtRp3938
(dp3939
g61
(dp3940
sg70
g2912
sg63
(lp3941
g56
(g77
g58
NtRp3942
(dp3943
g61
(dp3944
g81
g82
ssg70
g3938
sg63
(lp3945
S'session_new'
p3946
asbag56
(g77
g58
NtRp3947
(dp3948
g61
(dp3949
g88
g89
ssg70
g3938
sg63
(lp3950
S':'
asbag56
(g77
g58
NtRp3951
(dp3952
g61
(dp3953
sg70
g3938
sg63
(lp3954
g56
(g57
g58
NtRp3955
(dp3956
g61
(dp3957
g69
I5
ssg70
g3951
sg63
(lp3958
g99
asbasbasbag56
(g72
g58
NtRp3959
(dp3960
g61
(dp3961
sg70
g2912
sg63
(lp3962
g56
(g77
g58
NtRp3963
(dp3964
g61
(dp3965
g81
g82
ssg70
g3959
sg63
(lp3966
S'status'
p3967
asbag56
(g77
g58
NtRp3968
(dp3969
g61
(dp3970
g88
g89
ssg70
g3959
sg63
(lp3971
S':'
asbag56
(g77
g58
NtRp3972
(dp3973
g61
(dp3974
sg70
g3959
sg63
(lp3975
g56
(g57
g58
NtRp3976
(dp3977
g61
(dp3978
g69
I5
ssg70
g3972
sg63
(lp3979
S'200'
p3980
asbasbasbag56
(g72
g58
NtRp3981
(dp3982
g61
(dp3983
sg70
g2912
sg63
(lp3984
g56
(g77
g58
NtRp3985
(dp3986
g61
(dp3987
g81
g82
ssg70
g3981
sg63
(lp3988
S'subtitle'
p3989
asbag56
(g77
g58
NtRp3990
(dp3991
g61
(dp3992
g88
g89
ssg70
g3981
sg63
(lp3993
S':'
asbag56
(g77
g58
NtRp3994
(dp3995
g61
(dp3996
sg70
g3981
sg63
(lp3997
g56
(g57
g58
NtRp3998
(dp3999
g61
(dp4000
g69
I5
ssg70
g3994
sg63
(lp4001
g3417
(S's\x12\x00\x00\x00Stream Log Client!'
tRp4002
asbasbasbag56
(g72
g58
NtRp4003
(dp4004
g61
(dp4005
sg70
g2912
sg63
(lp4006
g56
(g77
g58
NtRp4007
(dp4008
g61
(dp4009
g81
g82
ssg70
g4003
sg63
(lp4010
S'title'
p4011
asbag56
(g77
g58
NtRp4012
(dp4013
g61
(dp4014
g88
g89
ssg70
g4003
sg63
(lp4015
S':'
asbag56
(g77
g58
NtRp4016
(dp4017
g61
(dp4018
sg70
g4003
sg63
(lp4019
g56
(g57
g58
NtRp4020
(dp4021
g61
(dp4022
g69
I5
ssg70
g4016
sg63
(lp4023
g121
asbasbasbag56
(g72
g58
NtRp4024
(dp4025
g61
(dp4026
sg70
g2912
sg63
(lp4027
g56
(g77
g58
NtRp4028
(dp4029
g61
(dp4030
g81
g82
ssg70
g4024
sg63
(lp4031
g2154
asbag56
(g77
g58
NtRp4032
(dp4033
g61
(dp4034
g88
g89
ssg70
g4024
sg63
(lp4035
S':'
asbag56
(g77
g58
NtRp4036
(dp4037
g61
(dp4038
sg70
g4024
sg63
(lp4039
g56
(g57
g58
NtRp4040
(dp4041
g61
(dp4042
g69
I5
ssg70
g4036
sg63
(lp4043
g2167
asbasbasbag56
(g72
g58
NtRp4044
(dp4045
g61
(dp4046
sg70
g2912
sg63
(lp4047
g56
(g77
g58
NtRp4048
(dp4049
g61
(dp4050
g81
g82
ssg70
g4044
sg63
(lp4051
S'view'
p4052
asbag56
(g77
g58
NtRp4053
(dp4054
g61
(dp4055
g88
g89
ssg70
g4044
sg63
(lp4056
S':'
asbag56
(g77
g58
NtRp4057
(dp4058
g61
(dp4059
sg70
g4044
sg63
(lp4060
g56
(g57
g58
NtRp4061
(dp4062
g61
(dp4063
g69
I5
ssg70
g4057
sg63
(lp4064
S'default/server_manage.html'
p4065
asbasbasbasbasbsS'locals'
p4066
(dp4067
S'hash_vars'
p4068
g1488
sg55
S"<Storage {'body': <cStringIO.StringO object at 0...73b662003fe057841'}>, 'post_vars': <Storage {}>}>"
p4069
sS'current'
p4070
S'<thread._local object>'
p4071
sS'hmac_key'
p4072
S'None'
p4073
sS'user_signature'
p4074
g1488
sS'salt'
p4075
S'None'
p4076
sssS'traceback'
p4077
S'Traceback (most recent call last):\n  File "/home/jose/DESARROLLO/web2py199/gluon/restricted.py", line 194, in restricted\n    exec ccode in environment\n  File "/home/jose/DESARROLLO/web2py199/applications/streamlog/controllers/default.py", line 158, in <module>\n    @auth.requires_signature()\n  File "/home/jose/DESARROLLO/web2py199/gluon/tools.py", line 2494, in requires_signature\n    return self.requires(URL.verify(current.request,user_signature=True))\n  File "/home/jose/DESARROLLO/web2py199/gluon/html.py", line 352, in verifyURL\n    hmac_key = current.session.auth.hmac_key\nAttributeError: \'NoneType\' object has no attribute \'hmac_key\'\n'
p4078
s.