(dp1
S'output'
p2
S''
sS'layer'
p3
S'/home/jose/DESARROLLO/web2py199/applications/streamlog/controllers/default.py'
p4
sS'code'
p5
S'# -*- coding: utf-8 -*-\n# this file is released under public domain and you can use without limitations\n\n#########################################################################\n## This is a samples controller\n## - index is the default action of any application\n## - user is required for authentication and authorization\n## - download is for downloading files uploaded in the db (does streaming)\n## - call exposes all registered services (none by default)\n#########################################################################\n\n\n\ndef index():\n    """\n    example action using the internationalization operator T and flash\n    rendered by views/default/index.html or views/generic.html\n    """\n    links = [lambda row:  INPUT(_type=\'button\',_value=\'START STREAM\', _onclick=\'createStream(\'+str(row.id)+\')\')]\n    form=SQLFORM.grid(db.t_log, selectable=False, csv=False,create=False, deletable=False, editable=False, links=links, user_signature=False)\n    return dict(message=T(\'Hello World2\'), form=form)\n\n@service.json\ndef getConnectionData():\n    \n    id_log=request.args[0]\n    ip=\'\'\n    port=\'\'\n    name_log=\'\'\n    \n    data_connection=db((db.t_log.id==id_log)&(db.t_log.server==db.t_server.id)).select(db.t_log.name,db.t_server.IP,db.t_server.port)\n  \n    for row in data_connection:\n        ip=row.IP\n        port=row.port\n        name_log=row.name\n        \n    print ip\n    print port\n    print name_log\n    \n    return response.json({"connection": [{\'name_log\': \'xhtml\',\'IP\': \'127.0.0.1\',\'port\': \'8888\'}]})\n\ndef choose_log():\n    """\n    example action using the internationalization operator T and flash\n    rendered by views/default/index.html or views/generic.html\n    """\n    \n    \n    return dict(message="log")\n\n\ndef getTypeTable():\n    """\n    example action using the internationalization operator T and flash\n    rendered by views/default/index.html or views/generic.html\n    """\n    table=\'\'\n    id_log=request.args[0]\n    type_table=db((db.t_log.id==id_log)&(db.t_log.type_log==db.t_type_log.id)).select(db.t_type_log.html_table)\n    for row in type_table:\n        table=row.html_table\n        \n    \'\'\'\n    table=\'<table cellpadding="0" cellspacing="0" border="0" class="display" id="tablelog"> \\\n    <thead> \\\n        <tr> \\\n            <th>IP</th> \\\n            <th>hyphen</th> \\\n            <th>userid</th> \\\n            <th>Time Request</th> \\\n        <th>Request Time</th> \\\n        <th>Status Code</th> \\\n        <th>Size Object</th> \\\n        </tr>\\\n    </thead> \\\n    <tfoot> \\\n        <tr> \\\n            <th>IP</th> \\\n            <th>hyphen</th> \\\n            <th>userid</th>\\\n            <th>Time Request</th> \\\n        <th>Request Time</th> \\\n        <th>Status Code</th> \\\n        <th>Size Object</th> \\\n        </tr>  \\\n    </tfoot>  \\\n        <tbody> \\\n        </tbody> \\\n    </table>\'\n    \'\'\'\n    \n    return table\n\n\ndef user():\n    """\n    exposes:\n    http://..../[app]/default/user/login\n    http://..../[app]/default/user/logout\n    http://..../[app]/default/user/register\n    http://..../[app]/default/user/profile\n    http://..../[app]/default/user/retrieve_password\n    http://..../[app]/default/user/change_password\n    use @auth.requires_login()\n        @auth.requires_membership(\'group name\')\n        @auth.requires_permission(\'read\',\'table name\',record_id)\n    to decorate functions that need access control\n    """\n    return dict(form=auth())\n\ndef error():\n    return dict()\n\n\ndef project_manage():\n    \n    form = SQLFORM.smartgrid(db.t_project)\n    return locals()\n\n\n\ndef server_manage():\n\n    form=SQLFORM.grid(db.t_server)\n    return locals()\n\ndef log_manage():\n \n    #form = SQLFORM.smartgrid(db.t_log,constraints=dict(t_log=query), selectable=True,searchable=False, csv=False,showbuttontext=True,onupdate=auth.archive)\n    #form = SQLFORM.smartgrid(db.t_log)\n    form=SQLFORM.grid(db.t_log)\n    return locals()\n\ndef type_log_manage():\n\n    form=SQLFORM.grid(db.t_type_log)\n    return locals()\n\ndef download():\n    """\n    allows downloading of uploaded files\n    http://..../[app]/default/download/[filename]\n    """\n    return response.download(request,db)\n\n\ndef call():\n    """\n    exposes services. for example:\n    http://..../[app]/default/call/jsonrpc\n    decorate with @services.jsonrpc the functions to expose\n    supports xml, json, xmlrpc, jsonrpc, amfrpc, rss, csv\n    """\n    return service()\n\n\n@auth.requires_signature()\ndef data():\n    """\n    http://..../[app]/default/data/tables\n    http://..../[app]/default/data/create/[table]\n    http://..../[app]/default/data/read/[table]/[id]\n    http://..../[app]/default/data/update/[table]/[id]\n    http://..../[app]/default/data/delete/[table]/[id]\n    http://..../[app]/default/data/select/[table]\n    http://..../[app]/default/data/search/[table]\n    but URLs bust be signed, i.e. linked with\n      A(\'table\',_href=URL(\'data/tables\',user_signature=True))\n    or with the signed load operator\n      LOAD(\'default\',\'data.load\',args=\'tables\',ajax=True,user_signature=True)\n    """\n    return dict(form=crud())\n\nresponse._vars=response._caller(call)\n'
p6
sS'snapshot'
p7
(dp8
S'exception'
p9
(dp10
S'__hash__'
p11
S"<method-wrapper '__hash__' of exceptions.ValueError object>"
p12
sS'__setattr__'
p13
S"<method-wrapper '__setattr__' of exceptions.ValueError object>"
p14
sS'__reduce_ex__'
p15
S'<built-in method __reduce_ex__ of exceptions.ValueError object>'
p16
sS'__getslice__'
p17
S"<method-wrapper '__getslice__' of exceptions.ValueError object>"
p18
sS'__getitem__'
p19
S"<method-wrapper '__getitem__' of exceptions.ValueError object>"
p20
sS'__setstate__'
p21
S'<built-in method __setstate__ of exceptions.ValueError object>'
p22
sS'args'
p23
S'("invalid literal for int() with base 10: \'json\'",)'
p24
sS'__reduce__'
p25
S'<built-in method __reduce__ of exceptions.ValueError object>'
p26
sS'__str__'
p27
S"<method-wrapper '__str__' of exceptions.ValueError object>"
p28
sS'__format__'
p29
S'<built-in method __format__ of exceptions.ValueError object>'
p30
sS'__getattribute__'
p31
S"<method-wrapper '__getattribute__' of exceptions.ValueError object>"
p32
sS'__class__'
p33
S"<type 'exceptions.ValueError'>"
p34
sS'__unicode__'
p35
S'<built-in method __unicode__ of exceptions.ValueError object>'
p36
sS'__delattr__'
p37
S"<method-wrapper '__delattr__' of exceptions.ValueError object>"
p38
sS'__subclasshook__'
p39
S'<built-in method __subclasshook__ of type object>'
p40
sS'__repr__'
p41
S"<method-wrapper '__repr__' of exceptions.ValueError object>"
p42
sS'__dict__'
p43
S'{}'
p44
sS'__sizeof__'
p45
S'<built-in method __sizeof__ of exceptions.ValueError object>'
p46
sS'__doc__'
p47
S"'Inappropriate argument value (of correct type).'"
p48
sS'__init__'
p49
S"<method-wrapper '__init__' of exceptions.ValueError object>"
p50
sS'__new__'
p51
S'<built-in method __new__ of type object>'
p52
ssS'evalue'
p53
S"invalid literal for int() with base 10: 'json'"
p54
sS'request'
p55
ccopy_reg
_reconstructor
p56
(cgluon.html
BEAUTIFY
p57
c__builtin__
object
p58
NtRp59
(dp60
S'attributes'
p61
(dp62
sS'components'
p63
(lp64
g56
(cgluon.html
TABLE
p65
g58
NtRp66
(dp67
g61
(dp68
S'level'
p69
I5
ssS'parent'
p70
Nsg63
(lp71
g56
(cgluon.html
TR
p72
g58
NtRp73
(dp74
g61
(dp75
sg70
g66
sg63
(lp76
g56
(cgluon.html
TD
p77
g58
NtRp78
(dp79
g61
(dp80
S'_style'
p81
S'font-weight:bold;'
p82
ssg70
g73
sg63
(lp83
S'ajax'
p84
asbag56
(g77
g58
NtRp85
(dp86
g61
(dp87
S'_valign'
p88
S'top'
p89
ssg70
g73
sg63
(lp90
S':'
asbag56
(g77
g58
NtRp91
(dp92
g61
(dp93
sg70
g73
sg63
(lp94
g56
(g57
g58
NtRp95
(dp96
g61
(dp97
g69
I5
ssg70
g91
sg63
(lp98
S'False'
p99
asbasbasbag56
(g72
g58
NtRp100
(dp101
g61
(dp102
sg70
g66
sg63
(lp103
g56
(g77
g58
NtRp104
(dp105
g61
(dp106
g81
g82
ssg70
g100
sg63
(lp107
S'application'
p108
asbag56
(g77
g58
NtRp109
(dp110
g61
(dp111
g88
g89
ssg70
g100
sg63
(lp112
S':'
asbag56
(g77
g58
NtRp113
(dp114
g61
(dp115
sg70
g100
sg63
(lp116
g56
(g57
g58
NtRp117
(dp118
g61
(dp119
g69
I5
ssg70
g113
sg63
(lp120
S'streamlog'
p121
asbasbasbag56
(g72
g58
NtRp122
(dp123
g61
(dp124
sg70
g66
sg63
(lp125
g56
(g77
g58
NtRp126
(dp127
g61
(dp128
g81
g82
ssg70
g122
sg63
(lp129
g23
asbag56
(g77
g58
NtRp130
(dp131
g61
(dp132
g88
g89
ssg70
g122
sg63
(lp133
S':'
asbag56
(g77
g58
NtRp134
(dp135
g61
(dp136
sg70
g122
sg63
(lp137
g56
(g57
g58
NtRp138
(dp139
g61
(dp140
g69
I5
ssg70
g134
sg63
(lp141
g56
(g65
g58
NtRp142
(dp143
g61
(dp144
g69
I4
ssg70
Nsg63
(lp145
g56
(g72
g58
NtRp146
(dp147
g61
(dp148
sg70
g142
sg63
(lp149
g56
(g77
g58
NtRp150
(dp151
g61
(dp152
sg70
g146
sg63
(lp153
g56
(g57
g58
NtRp154
(dp155
g61
(dp156
g69
I4
ssg70
g150
sg63
(lp157
S'json'
p158
asbasbasbag56
(g72
g58
NtRp159
(dp160
g61
(dp161
sg70
g142
sg63
(lp162
g56
(g77
g58
NtRp163
(dp164
g61
(dp165
sg70
g159
sg63
(lp166
g56
(g57
g58
NtRp167
(dp168
g61
(dp169
g69
I4
ssg70
g163
sg63
(lp170
S'getConnectionData'
p171
asbasbasbasbasbasbasbag56
(g72
g58
NtRp172
(dp173
g61
(dp174
sg70
g66
sg63
(lp175
g56
(g77
g58
NtRp176
(dp177
g61
(dp178
g81
g82
ssg70
g172
sg63
(lp179
S'body'
p180
asbag56
(g77
g58
NtRp181
(dp182
g61
(dp183
g88
g89
ssg70
g172
sg63
(lp184
S':'
asbag56
(g77
g58
NtRp185
(dp186
g61
(dp187
sg70
g172
sg63
(lp188
g56
(g57
g58
NtRp189
(dp190
g61
(dp191
g69
I5
ssg70
g185
sg63
(lp192
S'<cStringIO.StringO object at 0x281fa08>'
p193
asbasbasbag56
(g72
g58
NtRp194
(dp195
g61
(dp196
sg70
g66
sg63
(lp197
g56
(g77
g58
NtRp198
(dp199
g61
(dp200
g81
g82
ssg70
g194
sg63
(lp201
S'client'
p202
asbag56
(g77
g58
NtRp203
(dp204
g61
(dp205
g88
g89
ssg70
g194
sg63
(lp206
S':'
asbag56
(g77
g58
NtRp207
(dp208
g61
(dp209
sg70
g194
sg63
(lp210
g56
(g57
g58
NtRp211
(dp212
g61
(dp213
g69
I5
ssg70
g207
sg63
(lp214
S'127.0.0.1'
p215
asbasbasbag56
(g72
g58
NtRp216
(dp217
g61
(dp218
sg70
g66
sg63
(lp219
g56
(g77
g58
NtRp220
(dp221
g61
(dp222
g81
g82
ssg70
g216
sg63
(lp223
S'controller'
p224
asbag56
(g77
g58
NtRp225
(dp226
g61
(dp227
g88
g89
ssg70
g216
sg63
(lp228
S':'
asbag56
(g77
g58
NtRp229
(dp230
g61
(dp231
sg70
g216
sg63
(lp232
g56
(g57
g58
NtRp233
(dp234
g61
(dp235
g69
I5
ssg70
g229
sg63
(lp236
S'default'
p237
asbasbasbag56
(g72
g58
NtRp238
(dp239
g61
(dp240
sg70
g66
sg63
(lp241
g56
(g77
g58
NtRp242
(dp243
g61
(dp244
g81
g82
ssg70
g238
sg63
(lp245
S'cookies'
p246
asbag56
(g77
g58
NtRp247
(dp248
g61
(dp249
g88
g89
ssg70
g238
sg63
(lp250
S':'
asbag56
(g77
g58
NtRp251
(dp252
g61
(dp253
sg70
g238
sg63
(lp254
g56
(g57
g58
NtRp255
(dp256
g61
(dp257
g69
I5
ssg70
g251
sg63
(lp258
g56
(g65
g58
NtRp259
(dp260
g61
(dp261
g69
I4
ssg70
Nsg63
(lp262
g56
(g72
g58
NtRp263
(dp264
g61
(dp265
sg70
g259
sg63
(lp266
g56
(g77
g58
NtRp267
(dp268
g61
(dp269
g81
g82
ssg70
g263
sg63
(lp270
S'session_id_admin'
p271
asbag56
(g77
g58
NtRp272
(dp273
g61
(dp274
g88
g89
ssg70
g263
sg63
(lp275
S':'
asbag56
(g77
g58
NtRp276
(dp277
g61
(dp278
sg70
g263
sg63
(lp279
g56
(g57
g58
NtRp280
(dp281
g61
(dp282
g69
I4
ssg70
g276
sg63
(lp283
g56
(g65
g58
NtRp284
(dp285
g61
(dp286
g69
I3
ssg70
Nsg63
(lp287
g56
(g72
g58
NtRp288
(dp289
g61
(dp290
sg70
g284
sg63
(lp291
g56
(g77
g58
NtRp292
(dp293
g61
(dp294
g81
g82
ssg70
g288
sg63
(lp295
S'comment'
p296
asbag56
(g77
g58
NtRp297
(dp298
g61
(dp299
g88
g89
ssg70
g288
sg63
(lp300
S':'
asbag56
(g77
g58
NtRp301
(dp302
g61
(dp303
sg70
g288
sg63
(lp304
g56
(g57
g58
NtRp305
(dp306
g61
(dp307
g69
I3
ssg70
g301
sg63
(lp308
S''
asbasbasbag56
(g72
g58
NtRp309
(dp310
g61
(dp311
sg70
g284
sg63
(lp312
g56
(g77
g58
NtRp313
(dp314
g61
(dp315
g81
g82
ssg70
g309
sg63
(lp316
S'domain'
p317
asbag56
(g77
g58
NtRp318
(dp319
g61
(dp320
g88
g89
ssg70
g309
sg63
(lp321
S':'
asbag56
(g77
g58
NtRp322
(dp323
g61
(dp324
sg70
g309
sg63
(lp325
g56
(g57
g58
NtRp326
(dp327
g61
(dp328
g69
I3
ssg70
g322
sg63
(lp329
S''
asbasbasbag56
(g72
g58
NtRp330
(dp331
g61
(dp332
sg70
g284
sg63
(lp333
g56
(g77
g58
NtRp334
(dp335
g61
(dp336
g81
g82
ssg70
g330
sg63
(lp337
S'expires'
p338
asbag56
(g77
g58
NtRp339
(dp340
g61
(dp341
g88
g89
ssg70
g330
sg63
(lp342
S':'
asbag56
(g77
g58
NtRp343
(dp344
g61
(dp345
sg70
g330
sg63
(lp346
g56
(g57
g58
NtRp347
(dp348
g61
(dp349
g69
I3
ssg70
g343
sg63
(lp350
S''
asbasbasbag56
(g72
g58
NtRp351
(dp352
g61
(dp353
sg70
g284
sg63
(lp354
g56
(g77
g58
NtRp355
(dp356
g61
(dp357
g81
g82
ssg70
g351
sg63
(lp358
S'httponly'
p359
asbag56
(g77
g58
NtRp360
(dp361
g61
(dp362
g88
g89
ssg70
g351
sg63
(lp363
S':'
asbag56
(g77
g58
NtRp364
(dp365
g61
(dp366
sg70
g351
sg63
(lp367
g56
(g57
g58
NtRp368
(dp369
g61
(dp370
g69
I3
ssg70
g364
sg63
(lp371
S''
asbasbasbag56
(g72
g58
NtRp372
(dp373
g61
(dp374
sg70
g284
sg63
(lp375
g56
(g77
g58
NtRp376
(dp377
g61
(dp378
g81
g82
ssg70
g372
sg63
(lp379
S'max-age'
p380
asbag56
(g77
g58
NtRp381
(dp382
g61
(dp383
g88
g89
ssg70
g372
sg63
(lp384
S':'
asbag56
(g77
g58
NtRp385
(dp386
g61
(dp387
sg70
g372
sg63
(lp388
g56
(g57
g58
NtRp389
(dp390
g61
(dp391
g69
I3
ssg70
g385
sg63
(lp392
S''
asbasbasbag56
(g72
g58
NtRp393
(dp394
g61
(dp395
sg70
g284
sg63
(lp396
g56
(g77
g58
NtRp397
(dp398
g61
(dp399
g81
g82
ssg70
g393
sg63
(lp400
S'path'
p401
asbag56
(g77
g58
NtRp402
(dp403
g61
(dp404
g88
g89
ssg70
g393
sg63
(lp405
S':'
asbag56
(g77
g58
NtRp406
(dp407
g61
(dp408
sg70
g393
sg63
(lp409
g56
(g57
g58
NtRp410
(dp411
g61
(dp412
g69
I3
ssg70
g406
sg63
(lp413
S''
asbasbasbag56
(g72
g58
NtRp414
(dp415
g61
(dp416
sg70
g284
sg63
(lp417
g56
(g77
g58
NtRp418
(dp419
g61
(dp420
g81
g82
ssg70
g414
sg63
(lp421
S'secure'
p422
asbag56
(g77
g58
NtRp423
(dp424
g61
(dp425
g88
g89
ssg70
g414
sg63
(lp426
S':'
asbag56
(g77
g58
NtRp427
(dp428
g61
(dp429
sg70
g414
sg63
(lp430
g56
(g57
g58
NtRp431
(dp432
g61
(dp433
g69
I3
ssg70
g427
sg63
(lp434
S''
asbasbasbag56
(g72
g58
NtRp435
(dp436
g61
(dp437
sg70
g284
sg63
(lp438
g56
(g77
g58
NtRp439
(dp440
g61
(dp441
g81
g82
ssg70
g435
sg63
(lp442
S'version'
p443
asbag56
(g77
g58
NtRp444
(dp445
g61
(dp446
g88
g89
ssg70
g435
sg63
(lp447
S':'
asbag56
(g77
g58
NtRp448
(dp449
g61
(dp450
sg70
g435
sg63
(lp451
g56
(g57
g58
NtRp452
(dp453
g61
(dp454
g69
I3
ssg70
g448
sg63
(lp455
S''
asbasbasbasbasbasbasbag56
(g72
g58
NtRp456
(dp457
g61
(dp458
sg70
g259
sg63
(lp459
g56
(g77
g58
NtRp460
(dp461
g61
(dp462
g81
g82
ssg70
g456
sg63
(lp463
S'session_id_streamlog'
p464
asbag56
(g77
g58
NtRp465
(dp466
g61
(dp467
g88
g89
ssg70
g456
sg63
(lp468
S':'
asbag56
(g77
g58
NtRp469
(dp470
g61
(dp471
sg70
g456
sg63
(lp472
g56
(g57
g58
NtRp473
(dp474
g61
(dp475
g69
I4
ssg70
g469
sg63
(lp476
g56
(g65
g58
NtRp477
(dp478
g61
(dp479
g69
I3
ssg70
Nsg63
(lp480
g56
(g72
g58
NtRp481
(dp482
g61
(dp483
sg70
g477
sg63
(lp484
g56
(g77
g58
NtRp485
(dp486
g61
(dp487
g81
g82
ssg70
g481
sg63
(lp488
g296
asbag56
(g77
g58
NtRp489
(dp490
g61
(dp491
g88
g89
ssg70
g481
sg63
(lp492
S':'
asbag56
(g77
g58
NtRp493
(dp494
g61
(dp495
sg70
g481
sg63
(lp496
g56
(g57
g58
NtRp497
(dp498
g61
(dp499
g69
I3
ssg70
g493
sg63
(lp500
S''
asbasbasbag56
(g72
g58
NtRp501
(dp502
g61
(dp503
sg70
g477
sg63
(lp504
g56
(g77
g58
NtRp505
(dp506
g61
(dp507
g81
g82
ssg70
g501
sg63
(lp508
g317
asbag56
(g77
g58
NtRp509
(dp510
g61
(dp511
g88
g89
ssg70
g501
sg63
(lp512
S':'
asbag56
(g77
g58
NtRp513
(dp514
g61
(dp515
sg70
g501
sg63
(lp516
g56
(g57
g58
NtRp517
(dp518
g61
(dp519
g69
I3
ssg70
g513
sg63
(lp520
S''
asbasbasbag56
(g72
g58
NtRp521
(dp522
g61
(dp523
sg70
g477
sg63
(lp524
g56
(g77
g58
NtRp525
(dp526
g61
(dp527
g81
g82
ssg70
g521
sg63
(lp528
g338
asbag56
(g77
g58
NtRp529
(dp530
g61
(dp531
g88
g89
ssg70
g521
sg63
(lp532
S':'
asbag56
(g77
g58
NtRp533
(dp534
g61
(dp535
sg70
g521
sg63
(lp536
g56
(g57
g58
NtRp537
(dp538
g61
(dp539
g69
I3
ssg70
g533
sg63
(lp540
S''
asbasbasbag56
(g72
g58
NtRp541
(dp542
g61
(dp543
sg70
g477
sg63
(lp544
g56
(g77
g58
NtRp545
(dp546
g61
(dp547
g81
g82
ssg70
g541
sg63
(lp548
g359
asbag56
(g77
g58
NtRp549
(dp550
g61
(dp551
g88
g89
ssg70
g541
sg63
(lp552
S':'
asbag56
(g77
g58
NtRp553
(dp554
g61
(dp555
sg70
g541
sg63
(lp556
g56
(g57
g58
NtRp557
(dp558
g61
(dp559
g69
I3
ssg70
g553
sg63
(lp560
S''
asbasbasbag56
(g72
g58
NtRp561
(dp562
g61
(dp563
sg70
g477
sg63
(lp564
g56
(g77
g58
NtRp565
(dp566
g61
(dp567
g81
g82
ssg70
g561
sg63
(lp568
g380
asbag56
(g77
g58
NtRp569
(dp570
g61
(dp571
g88
g89
ssg70
g561
sg63
(lp572
S':'
asbag56
(g77
g58
NtRp573
(dp574
g61
(dp575
sg70
g561
sg63
(lp576
g56
(g57
g58
NtRp577
(dp578
g61
(dp579
g69
I3
ssg70
g573
sg63
(lp580
S''
asbasbasbag56
(g72
g58
NtRp581
(dp582
g61
(dp583
sg70
g477
sg63
(lp584
g56
(g77
g58
NtRp585
(dp586
g61
(dp587
g81
g82
ssg70
g581
sg63
(lp588
g401
asbag56
(g77
g58
NtRp589
(dp590
g61
(dp591
g88
g89
ssg70
g581
sg63
(lp592
S':'
asbag56
(g77
g58
NtRp593
(dp594
g61
(dp595
sg70
g581
sg63
(lp596
g56
(g57
g58
NtRp597
(dp598
g61
(dp599
g69
I3
ssg70
g593
sg63
(lp600
S''
asbasbasbag56
(g72
g58
NtRp601
(dp602
g61
(dp603
sg70
g477
sg63
(lp604
g56
(g77
g58
NtRp605
(dp606
g61
(dp607
g81
g82
ssg70
g601
sg63
(lp608
g422
asbag56
(g77
g58
NtRp609
(dp610
g61
(dp611
g88
g89
ssg70
g601
sg63
(lp612
S':'
asbag56
(g77
g58
NtRp613
(dp614
g61
(dp615
sg70
g601
sg63
(lp616
g56
(g57
g58
NtRp617
(dp618
g61
(dp619
g69
I3
ssg70
g613
sg63
(lp620
S''
asbasbasbag56
(g72
g58
NtRp621
(dp622
g61
(dp623
sg70
g477
sg63
(lp624
g56
(g77
g58
NtRp625
(dp626
g61
(dp627
g81
g82
ssg70
g621
sg63
(lp628
g443
asbag56
(g77
g58
NtRp629
(dp630
g61
(dp631
g88
g89
ssg70
g621
sg63
(lp632
S':'
asbag56
(g77
g58
NtRp633
(dp634
g61
(dp635
sg70
g621
sg63
(lp636
g56
(g57
g58
NtRp637
(dp638
g61
(dp639
g69
I3
ssg70
g633
sg63
(lp640
S''
asbasbasbasbasbasbasbag56
(g72
g58
NtRp641
(dp642
g61
(dp643
sg70
g259
sg63
(lp644
g56
(g77
g58
NtRp645
(dp646
g61
(dp647
g81
g82
ssg70
g641
sg63
(lp648
S'session_id_test3'
p649
asbag56
(g77
g58
NtRp650
(dp651
g61
(dp652
g88
g89
ssg70
g641
sg63
(lp653
S':'
asbag56
(g77
g58
NtRp654
(dp655
g61
(dp656
sg70
g641
sg63
(lp657
g56
(g57
g58
NtRp658
(dp659
g61
(dp660
g69
I4
ssg70
g654
sg63
(lp661
g56
(g65
g58
NtRp662
(dp663
g61
(dp664
g69
I3
ssg70
Nsg63
(lp665
g56
(g72
g58
NtRp666
(dp667
g61
(dp668
sg70
g662
sg63
(lp669
g56
(g77
g58
NtRp670
(dp671
g61
(dp672
g81
g82
ssg70
g666
sg63
(lp673
g296
asbag56
(g77
g58
NtRp674
(dp675
g61
(dp676
g88
g89
ssg70
g666
sg63
(lp677
S':'
asbag56
(g77
g58
NtRp678
(dp679
g61
(dp680
sg70
g666
sg63
(lp681
g56
(g57
g58
NtRp682
(dp683
g61
(dp684
g69
I3
ssg70
g678
sg63
(lp685
S''
asbasbasbag56
(g72
g58
NtRp686
(dp687
g61
(dp688
sg70
g662
sg63
(lp689
g56
(g77
g58
NtRp690
(dp691
g61
(dp692
g81
g82
ssg70
g686
sg63
(lp693
g317
asbag56
(g77
g58
NtRp694
(dp695
g61
(dp696
g88
g89
ssg70
g686
sg63
(lp697
S':'
asbag56
(g77
g58
NtRp698
(dp699
g61
(dp700
sg70
g686
sg63
(lp701
g56
(g57
g58
NtRp702
(dp703
g61
(dp704
g69
I3
ssg70
g698
sg63
(lp705
S''
asbasbasbag56
(g72
g58
NtRp706
(dp707
g61
(dp708
sg70
g662
sg63
(lp709
g56
(g77
g58
NtRp710
(dp711
g61
(dp712
g81
g82
ssg70
g706
sg63
(lp713
g338
asbag56
(g77
g58
NtRp714
(dp715
g61
(dp716
g88
g89
ssg70
g706
sg63
(lp717
S':'
asbag56
(g77
g58
NtRp718
(dp719
g61
(dp720
sg70
g706
sg63
(lp721
g56
(g57
g58
NtRp722
(dp723
g61
(dp724
g69
I3
ssg70
g718
sg63
(lp725
S''
asbasbasbag56
(g72
g58
NtRp726
(dp727
g61
(dp728
sg70
g662
sg63
(lp729
g56
(g77
g58
NtRp730
(dp731
g61
(dp732
g81
g82
ssg70
g726
sg63
(lp733
g359
asbag56
(g77
g58
NtRp734
(dp735
g61
(dp736
g88
g89
ssg70
g726
sg63
(lp737
S':'
asbag56
(g77
g58
NtRp738
(dp739
g61
(dp740
sg70
g726
sg63
(lp741
g56
(g57
g58
NtRp742
(dp743
g61
(dp744
g69
I3
ssg70
g738
sg63
(lp745
S''
asbasbasbag56
(g72
g58
NtRp746
(dp747
g61
(dp748
sg70
g662
sg63
(lp749
g56
(g77
g58
NtRp750
(dp751
g61
(dp752
g81
g82
ssg70
g746
sg63
(lp753
g380
asbag56
(g77
g58
NtRp754
(dp755
g61
(dp756
g88
g89
ssg70
g746
sg63
(lp757
S':'
asbag56
(g77
g58
NtRp758
(dp759
g61
(dp760
sg70
g746
sg63
(lp761
g56
(g57
g58
NtRp762
(dp763
g61
(dp764
g69
I3
ssg70
g758
sg63
(lp765
S''
asbasbasbag56
(g72
g58
NtRp766
(dp767
g61
(dp768
sg70
g662
sg63
(lp769
g56
(g77
g58
NtRp770
(dp771
g61
(dp772
g81
g82
ssg70
g766
sg63
(lp773
g401
asbag56
(g77
g58
NtRp774
(dp775
g61
(dp776
g88
g89
ssg70
g766
sg63
(lp777
S':'
asbag56
(g77
g58
NtRp778
(dp779
g61
(dp780
sg70
g766
sg63
(lp781
g56
(g57
g58
NtRp782
(dp783
g61
(dp784
g69
I3
ssg70
g778
sg63
(lp785
S''
asbasbasbag56
(g72
g58
NtRp786
(dp787
g61
(dp788
sg70
g662
sg63
(lp789
g56
(g77
g58
NtRp790
(dp791
g61
(dp792
g81
g82
ssg70
g786
sg63
(lp793
g422
asbag56
(g77
g58
NtRp794
(dp795
g61
(dp796
g88
g89
ssg70
g786
sg63
(lp797
S':'
asbag56
(g77
g58
NtRp798
(dp799
g61
(dp800
sg70
g786
sg63
(lp801
g56
(g57
g58
NtRp802
(dp803
g61
(dp804
g69
I3
ssg70
g798
sg63
(lp805
S''
asbasbasbag56
(g72
g58
NtRp806
(dp807
g61
(dp808
sg70
g662
sg63
(lp809
g56
(g77
g58
NtRp810
(dp811
g61
(dp812
g81
g82
ssg70
g806
sg63
(lp813
g443
asbag56
(g77
g58
NtRp814
(dp815
g61
(dp816
g88
g89
ssg70
g806
sg63
(lp817
S':'
asbag56
(g77
g58
NtRp818
(dp819
g61
(dp820
sg70
g806
sg63
(lp821
g56
(g57
g58
NtRp822
(dp823
g61
(dp824
g69
I3
ssg70
g818
sg63
(lp825
S''
asbasbasbasbasbasbasbasbasbasbasbag56
(g72
g58
NtRp826
(dp827
g61
(dp828
sg70
g66
sg63
(lp829
g56
(g77
g58
NtRp830
(dp831
g61
(dp832
g81
g82
ssg70
g826
sg63
(lp833
S'env'
p834
asbag56
(g77
g58
NtRp835
(dp836
g61
(dp837
g88
g89
ssg70
g826
sg63
(lp838
S':'
asbag56
(g77
g58
NtRp839
(dp840
g61
(dp841
sg70
g826
sg63
(lp842
g56
(g57
g58
NtRp843
(dp844
g61
(dp845
g69
I5
ssg70
g839
sg63
(lp846
g56
(g65
g58
NtRp847
(dp848
g61
(dp849
g69
I4
ssg70
Nsg63
(lp850
g56
(g72
g58
NtRp851
(dp852
g61
(dp853
sg70
g847
sg63
(lp854
g56
(g77
g58
NtRp855
(dp856
g61
(dp857
g81
g82
ssg70
g851
sg63
(lp858
S'app_folders'
p859
asbag56
(g77
g58
NtRp860
(dp861
g61
(dp862
g88
g89
ssg70
g851
sg63
(lp863
S':'
asbag56
(g77
g58
NtRp864
(dp865
g61
(dp866
sg70
g851
sg63
(lp867
g56
(g57
g58
NtRp868
(dp869
g61
(dp870
g69
I4
ssg70
g864
sg63
(lp871
S"set(['/home/jose/DESARROLLO/web2py199/applications/streamlog/', '/home/jose/DESARROLLO/web2py199/applications/admin/'])"
p872
asbasbasbag56
(g72
g58
NtRp873
(dp874
g61
(dp875
sg70
g847
sg63
(lp876
g56
(g77
g58
NtRp877
(dp878
g61
(dp879
g81
g82
ssg70
g873
sg63
(lp880
S'applications_parent'
p881
asbag56
(g77
g58
NtRp882
(dp883
g61
(dp884
g88
g89
ssg70
g873
sg63
(lp885
S':'
asbag56
(g77
g58
NtRp886
(dp887
g61
(dp888
sg70
g873
sg63
(lp889
g56
(g57
g58
NtRp890
(dp891
g61
(dp892
g69
I4
ssg70
g886
sg63
(lp893
S'/home/jose/DESARROLLO/web2py199'
p894
asbasbasbag56
(g72
g58
NtRp895
(dp896
g61
(dp897
sg70
g847
sg63
(lp898
g56
(g77
g58
NtRp899
(dp900
g61
(dp901
g81
g82
ssg70
g895
sg63
(lp902
S'cmd_args'
p903
asbag56
(g77
g58
NtRp904
(dp905
g61
(dp906
g88
g89
ssg70
g895
sg63
(lp907
S':'
asbag56
(g77
g58
NtRp908
(dp909
g61
(dp910
sg70
g895
sg63
(lp911
g56
(g57
g58
NtRp912
(dp913
g61
(dp914
g69
I4
ssg70
g908
sg63
(lp915
g56
(g65
g58
NtRp916
(dp917
g61
(dp918
g69
I3
ssg70
Nsg63
(lp919
sbasbasbasbag56
(g72
g58
NtRp920
(dp921
g61
(dp922
sg70
g847
sg63
(lp923
g56
(g77
g58
NtRp924
(dp925
g61
(dp926
g81
g82
ssg70
g920
sg63
(lp927
S'cmd_options'
p928
asbag56
(g77
g58
NtRp929
(dp930
g61
(dp931
g88
g89
ssg70
g920
sg63
(lp932
S':'
asbag56
(g77
g58
NtRp933
(dp934
g61
(dp935
sg70
g920
sg63
(lp936
g56
(g57
g58
NtRp937
(dp938
g61
(dp939
g69
I4
ssg70
g933
sg63
(lp940
S"<Values at 0x1c79f80: {'verbose': False, 'ip': '127.0.0.1', 'shutdown_timeout': 5, 'taskbar': False, 'nocron': False, 'pid_filename': 'httpserver.pid', 'maxthreads': None, 'softcron': False, 'server_name': 'jose', 'bpython': False, 'nogui': False, 'port': 8000, 'extcron': False, 'debuglevel': 30, 'test': None, 'folder': '/home/jose/DESARROLLO/web2py199', 'config': '', 'import_models': False, 'winservice': '', 'shell': None, 'run': '', 'log_filename': 'httpserver.log', 'args': [''], 'ssl_ca_certificate': None, 'scheduler': None, 'profiler_filename': None, 'ssl_private_key': '', 'password': 't', 'request_queue_size': 5, 'ssl_certificate': '', 'cronjob': False, 'plain': False, 'quiet': False, 'interfaces': None, 'minthreads': None, 'timeout': 10, 'numthreads': None, 'nobanner': False}>"
p941
asbasbasbag56
(g72
g58
NtRp942
(dp943
g61
(dp944
sg70
g847
sg63
(lp945
g56
(g77
g58
NtRp946
(dp947
g61
(dp948
g81
g82
ssg70
g942
sg63
(lp949
S'db_sessions'
p950
asbag56
(g77
g58
NtRp951
(dp952
g61
(dp953
g88
g89
ssg70
g942
sg63
(lp954
S':'
asbag56
(g77
g58
NtRp955
(dp956
g61
(dp957
sg70
g942
sg63
(lp958
g56
(g57
g58
NtRp959
(dp960
g61
(dp961
g69
I4
ssg70
g955
sg63
(lp962
S'set([])'
p963
asbasbasbag56
(g72
g58
NtRp964
(dp965
g61
(dp966
sg70
g847
sg63
(lp967
g56
(g77
g58
NtRp968
(dp969
g61
(dp970
g81
g82
ssg70
g964
sg63
(lp971
S'debugging'
p972
asbag56
(g77
g58
NtRp973
(dp974
g61
(dp975
g88
g89
ssg70
g964
sg63
(lp976
S':'
asbag56
(g77
g58
NtRp977
(dp978
g61
(dp979
sg70
g964
sg63
(lp980
g56
(g57
g58
NtRp981
(dp982
g61
(dp983
g69
I4
ssg70
g977
sg63
(lp984
g99
asbasbasbag56
(g72
g58
NtRp985
(dp986
g61
(dp987
sg70
g847
sg63
(lp988
g56
(g77
g58
NtRp989
(dp990
g61
(dp991
g81
g82
ssg70
g985
sg63
(lp992
S'gluon_parent'
p993
asbag56
(g77
g58
NtRp994
(dp995
g61
(dp996
g88
g89
ssg70
g985
sg63
(lp997
S':'
asbag56
(g77
g58
NtRp998
(dp999
g61
(dp1000
sg70
g985
sg63
(lp1001
g56
(g57
g58
NtRp1002
(dp1003
g61
(dp1004
g69
I4
ssg70
g998
sg63
(lp1005
S'/home/jose/DESARROLLO/web2py199'
p1006
asbasbasbag56
(g72
g58
NtRp1007
(dp1008
g61
(dp1009
sg70
g847
sg63
(lp1010
g56
(g77
g58
NtRp1011
(dp1012
g61
(dp1013
g81
g82
ssg70
g1007
sg63
(lp1014
S'http_accept'
p1015
asbag56
(g77
g58
NtRp1016
(dp1017
g61
(dp1018
g88
g89
ssg70
g1007
sg63
(lp1019
S':'
asbag56
(g77
g58
NtRp1020
(dp1021
g61
(dp1022
sg70
g1007
sg63
(lp1023
g56
(g57
g58
NtRp1024
(dp1025
g61
(dp1026
g69
I4
ssg70
g1020
sg63
(lp1027
S'text/html,application/xhtml+xml,application/xml;q=0.9,*/*;q=0.8'
p1028
asbasbasbag56
(g72
g58
NtRp1029
(dp1030
g61
(dp1031
sg70
g847
sg63
(lp1032
g56
(g77
g58
NtRp1033
(dp1034
g61
(dp1035
g81
g82
ssg70
g1029
sg63
(lp1036
S'http_accept_encoding'
p1037
asbag56
(g77
g58
NtRp1038
(dp1039
g61
(dp1040
g88
g89
ssg70
g1029
sg63
(lp1041
S':'
asbag56
(g77
g58
NtRp1042
(dp1043
g61
(dp1044
sg70
g1029
sg63
(lp1045
g56
(g57
g58
NtRp1046
(dp1047
g61
(dp1048
g69
I4
ssg70
g1042
sg63
(lp1049
S'gzip, deflate'
p1050
asbasbasbag56
(g72
g58
NtRp1051
(dp1052
g61
(dp1053
sg70
g847
sg63
(lp1054
g56
(g77
g58
NtRp1055
(dp1056
g61
(dp1057
g81
g82
ssg70
g1051
sg63
(lp1058
S'http_accept_language'
p1059
asbag56
(g77
g58
NtRp1060
(dp1061
g61
(dp1062
g88
g89
ssg70
g1051
sg63
(lp1063
S':'
asbag56
(g77
g58
NtRp1064
(dp1065
g61
(dp1066
sg70
g1051
sg63
(lp1067
g56
(g57
g58
NtRp1068
(dp1069
g61
(dp1070
g69
I4
ssg70
g1064
sg63
(lp1071
S'en-us,en;q=0.5'
p1072
asbasbasbag56
(g72
g58
NtRp1073
(dp1074
g61
(dp1075
sg70
g847
sg63
(lp1076
g56
(g77
g58
NtRp1077
(dp1078
g61
(dp1079
g81
g82
ssg70
g1073
sg63
(lp1080
S'http_connection'
p1081
asbag56
(g77
g58
NtRp1082
(dp1083
g61
(dp1084
g88
g89
ssg70
g1073
sg63
(lp1085
S':'
asbag56
(g77
g58
NtRp1086
(dp1087
g61
(dp1088
sg70
g1073
sg63
(lp1089
g56
(g57
g58
NtRp1090
(dp1091
g61
(dp1092
g69
I4
ssg70
g1086
sg63
(lp1093
S'keep-alive'
p1094
asbasbasbag56
(g72
g58
NtRp1095
(dp1096
g61
(dp1097
sg70
g847
sg63
(lp1098
g56
(g77
g58
NtRp1099
(dp1100
g61
(dp1101
g81
g82
ssg70
g1095
sg63
(lp1102
S'http_cookie'
p1103
asbag56
(g77
g58
NtRp1104
(dp1105
g61
(dp1106
g88
g89
ssg70
g1095
sg63
(lp1107
S':'
asbag56
(g77
g58
NtRp1108
(dp1109
g61
(dp1110
sg70
g1095
sg63
(lp1111
g56
(g57
g58
NtRp1112
(dp1113
g61
(dp1114
g69
I4
ssg70
g1108
sg63
(lp1115
S'session_id_streamlog=127.0.0.1-610b0c7d-3f6f-4500-a76a-b095fb30f7fd; session_id_admin=127.0.0.1-8f69464e-4a83-4875-ad25-00cf5c7e8e11; session_id_test3=127.0.0.1-380e7b29-b635-4690-b9ca-812870d6a061'
p1116
asbasbasbag56
(g72
g58
NtRp1117
(dp1118
g61
(dp1119
sg70
g847
sg63
(lp1120
g56
(g77
g58
NtRp1121
(dp1122
g61
(dp1123
g81
g82
ssg70
g1117
sg63
(lp1124
S'http_host'
p1125
asbag56
(g77
g58
NtRp1126
(dp1127
g61
(dp1128
g88
g89
ssg70
g1117
sg63
(lp1129
S':'
asbag56
(g77
g58
NtRp1130
(dp1131
g61
(dp1132
sg70
g1117
sg63
(lp1133
g56
(g57
g58
NtRp1134
(dp1135
g61
(dp1136
g69
I4
ssg70
g1130
sg63
(lp1137
S'localhost:8000'
p1138
asbasbasbag56
(g72
g58
NtRp1139
(dp1140
g61
(dp1141
sg70
g847
sg63
(lp1142
g56
(g77
g58
NtRp1143
(dp1144
g61
(dp1145
g81
g82
ssg70
g1139
sg63
(lp1146
S'http_user_agent'
p1147
asbag56
(g77
g58
NtRp1148
(dp1149
g61
(dp1150
g88
g89
ssg70
g1139
sg63
(lp1151
S':'
asbag56
(g77
g58
NtRp1152
(dp1153
g61
(dp1154
sg70
g1139
sg63
(lp1155
g56
(g57
g58
NtRp1156
(dp1157
g61
(dp1158
g69
I4
ssg70
g1152
sg63
(lp1159
S'Mozilla/5.0 (X11; Ubuntu; Linux x86_64; rv:12.0) Gecko/20100101 Firefox/12.0'
p1160
asbasbasbag56
(g72
g58
NtRp1161
(dp1162
g61
(dp1163
sg70
g847
sg63
(lp1164
g56
(g77
g58
NtRp1165
(dp1166
g61
(dp1167
g81
g82
ssg70
g1161
sg63
(lp1168
S'is_jython'
p1169
asbag56
(g77
g58
NtRp1170
(dp1171
g61
(dp1172
g88
g89
ssg70
g1161
sg63
(lp1173
S':'
asbag56
(g77
g58
NtRp1174
(dp1175
g61
(dp1176
sg70
g1161
sg63
(lp1177
g56
(g57
g58
NtRp1178
(dp1179
g61
(dp1180
g69
I4
ssg70
g1174
sg63
(lp1181
g99
asbasbasbag56
(g72
g58
NtRp1182
(dp1183
g61
(dp1184
sg70
g847
sg63
(lp1185
g56
(g77
g58
NtRp1186
(dp1187
g61
(dp1188
g81
g82
ssg70
g1182
sg63
(lp1189
S'path_info'
p1190
asbag56
(g77
g58
NtRp1191
(dp1192
g61
(dp1193
g88
g89
ssg70
g1182
sg63
(lp1194
S':'
asbag56
(g77
g58
NtRp1195
(dp1196
g61
(dp1197
sg70
g1182
sg63
(lp1198
g56
(g57
g58
NtRp1199
(dp1200
g61
(dp1201
g69
I4
ssg70
g1195
sg63
(lp1202
S'/streamlog/default/call/json/getConnectionData'
p1203
asbasbasbag56
(g72
g58
NtRp1204
(dp1205
g61
(dp1206
sg70
g847
sg63
(lp1207
g56
(g77
g58
NtRp1208
(dp1209
g61
(dp1210
g81
g82
ssg70
g1204
sg63
(lp1211
S'query_string'
p1212
asbag56
(g77
g58
NtRp1213
(dp1214
g61
(dp1215
g88
g89
ssg70
g1204
sg63
(lp1216
S':'
asbag56
(g77
g58
NtRp1217
(dp1218
g61
(dp1219
sg70
g1204
sg63
(lp1220
g56
(g57
g58
NtRp1221
(dp1222
g61
(dp1223
g69
I4
ssg70
g1217
sg63
(lp1224
S''
asbasbasbag56
(g72
g58
NtRp1225
(dp1226
g61
(dp1227
sg70
g847
sg63
(lp1228
g56
(g77
g58
NtRp1229
(dp1230
g61
(dp1231
g81
g82
ssg70
g1225
sg63
(lp1232
S'remote_addr'
p1233
asbag56
(g77
g58
NtRp1234
(dp1235
g61
(dp1236
g88
g89
ssg70
g1225
sg63
(lp1237
S':'
asbag56
(g77
g58
NtRp1238
(dp1239
g61
(dp1240
sg70
g1225
sg63
(lp1241
g56
(g57
g58
NtRp1242
(dp1243
g61
(dp1244
g69
I4
ssg70
g1238
sg63
(lp1245
g215
asbasbasbag56
(g72
g58
NtRp1246
(dp1247
g61
(dp1248
sg70
g847
sg63
(lp1249
g56
(g77
g58
NtRp1250
(dp1251
g61
(dp1252
g81
g82
ssg70
g1246
sg63
(lp1253
S'remote_port'
p1254
asbag56
(g77
g58
NtRp1255
(dp1256
g61
(dp1257
g88
g89
ssg70
g1246
sg63
(lp1258
S':'
asbag56
(g77
g58
NtRp1259
(dp1260
g61
(dp1261
sg70
g1246
sg63
(lp1262
g56
(g57
g58
NtRp1263
(dp1264
g61
(dp1265
g69
I4
ssg70
g1259
sg63
(lp1266
S'36207'
p1267
asbasbasbag56
(g72
g58
NtRp1268
(dp1269
g61
(dp1270
sg70
g847
sg63
(lp1271
g56
(g77
g58
NtRp1272
(dp1273
g61
(dp1274
g81
g82
ssg70
g1268
sg63
(lp1275
S'request_method'
p1276
asbag56
(g77
g58
NtRp1277
(dp1278
g61
(dp1279
g88
g89
ssg70
g1268
sg63
(lp1280
S':'
asbag56
(g77
g58
NtRp1281
(dp1282
g61
(dp1283
sg70
g1268
sg63
(lp1284
g56
(g57
g58
NtRp1285
(dp1286
g61
(dp1287
g69
I4
ssg70
g1281
sg63
(lp1288
S'GET'
p1289
asbasbasbag56
(g72
g58
NtRp1290
(dp1291
g61
(dp1292
sg70
g847
sg63
(lp1293
g56
(g77
g58
NtRp1294
(dp1295
g61
(dp1296
g81
g82
ssg70
g1290
sg63
(lp1297
S'script_name'
p1298
asbag56
(g77
g58
NtRp1299
(dp1300
g61
(dp1301
g88
g89
ssg70
g1290
sg63
(lp1302
S':'
asbag56
(g77
g58
NtRp1303
(dp1304
g61
(dp1305
sg70
g1290
sg63
(lp1306
g56
(g57
g58
NtRp1307
(dp1308
g61
(dp1309
g69
I4
ssg70
g1303
sg63
(lp1310
S''
asbasbasbag56
(g72
g58
NtRp1311
(dp1312
g61
(dp1313
sg70
g847
sg63
(lp1314
g56
(g77
g58
NtRp1315
(dp1316
g61
(dp1317
g81
g82
ssg70
g1311
sg63
(lp1318
S'server_name'
p1319
asbag56
(g77
g58
NtRp1320
(dp1321
g61
(dp1322
g88
g89
ssg70
g1311
sg63
(lp1323
S':'
asbag56
(g77
g58
NtRp1324
(dp1325
g61
(dp1326
sg70
g1311
sg63
(lp1327
g56
(g57
g58
NtRp1328
(dp1329
g61
(dp1330
g69
I4
ssg70
g1324
sg63
(lp1331
S'jose'
p1332
asbasbasbag56
(g72
g58
NtRp1333
(dp1334
g61
(dp1335
sg70
g847
sg63
(lp1336
g56
(g77
g58
NtRp1337
(dp1338
g61
(dp1339
g81
g82
ssg70
g1333
sg63
(lp1340
S'server_port'
p1341
asbag56
(g77
g58
NtRp1342
(dp1343
g61
(dp1344
g88
g89
ssg70
g1333
sg63
(lp1345
S':'
asbag56
(g77
g58
NtRp1346
(dp1347
g61
(dp1348
sg70
g1333
sg63
(lp1349
g56
(g57
g58
NtRp1350
(dp1351
g61
(dp1352
g69
I4
ssg70
g1346
sg63
(lp1353
S'8000'
p1354
asbasbasbag56
(g72
g58
NtRp1355
(dp1356
g61
(dp1357
sg70
g847
sg63
(lp1358
g56
(g77
g58
NtRp1359
(dp1360
g61
(dp1361
g81
g82
ssg70
g1355
sg63
(lp1362
S'server_protocol'
p1363
asbag56
(g77
g58
NtRp1364
(dp1365
g61
(dp1366
g88
g89
ssg70
g1355
sg63
(lp1367
S':'
asbag56
(g77
g58
NtRp1368
(dp1369
g61
(dp1370
sg70
g1355
sg63
(lp1371
g56
(g57
g58
NtRp1372
(dp1373
g61
(dp1374
g69
I4
ssg70
g1368
sg63
(lp1375
S'HTTP/1.1'
p1376
asbasbasbag56
(g72
g58
NtRp1377
(dp1378
g61
(dp1379
sg70
g847
sg63
(lp1380
g56
(g77
g58
NtRp1381
(dp1382
g61
(dp1383
g81
g82
ssg70
g1377
sg63
(lp1384
S'server_software'
p1385
asbag56
(g77
g58
NtRp1386
(dp1387
g61
(dp1388
g88
g89
ssg70
g1377
sg63
(lp1389
S':'
asbag56
(g77
g58
NtRp1390
(dp1391
g61
(dp1392
sg70
g1377
sg63
(lp1393
g56
(g57
g58
NtRp1394
(dp1395
g61
(dp1396
g69
I4
ssg70
g1390
sg63
(lp1397
S'Rocket 1.2.4'
p1398
asbasbasbag56
(g72
g58
NtRp1399
(dp1400
g61
(dp1401
sg70
g847
sg63
(lp1402
g56
(g77
g58
NtRp1403
(dp1404
g61
(dp1405
g81
g82
ssg70
g1399
sg63
(lp1406
S'web2py_crontype'
p1407
asbag56
(g77
g58
NtRp1408
(dp1409
g61
(dp1410
g88
g89
ssg70
g1399
sg63
(lp1411
S':'
asbag56
(g77
g58
NtRp1412
(dp1413
g61
(dp1414
sg70
g1399
sg63
(lp1415
g56
(g57
g58
NtRp1416
(dp1417
g61
(dp1418
g69
I4
ssg70
g1412
sg63
(lp1419
S'hard'
p1420
asbasbasbag56
(g72
g58
NtRp1421
(dp1422
g61
(dp1423
sg70
g847
sg63
(lp1424
g56
(g77
g58
NtRp1425
(dp1426
g61
(dp1427
g81
g82
ssg70
g1421
sg63
(lp1428
S'web2py_path'
p1429
asbag56
(g77
g58
NtRp1430
(dp1431
g61
(dp1432
g88
g89
ssg70
g1421
sg63
(lp1433
S':'
asbag56
(g77
g58
NtRp1434
(dp1435
g61
(dp1436
sg70
g1421
sg63
(lp1437
g56
(g57
g58
NtRp1438
(dp1439
g61
(dp1440
g69
I4
ssg70
g1434
sg63
(lp1441
g894
asbasbasbag56
(g72
g58
NtRp1442
(dp1443
g61
(dp1444
sg70
g847
sg63
(lp1445
g56
(g77
g58
NtRp1446
(dp1447
g61
(dp1448
g81
g82
ssg70
g1442
sg63
(lp1449
S'web2py_version'
p1450
asbag56
(g77
g58
NtRp1451
(dp1452
g61
(dp1453
g88
g89
ssg70
g1442
sg63
(lp1454
S':'
asbag56
(g77
g58
NtRp1455
(dp1456
g61
(dp1457
sg70
g1442
sg63
(lp1458
g56
(g57
g58
NtRp1459
(dp1460
g61
(dp1461
g69
I4
ssg70
g1455
sg63
(lp1462
g56
(g65
g58
NtRp1463
(dp1464
g61
(dp1465
g69
I3
ssg70
Nsg63
(lp1466
g56
(g72
g58
NtRp1467
(dp1468
g61
(dp1469
sg70
g1463
sg63
(lp1470
g56
(g77
g58
NtRp1471
(dp1472
g61
(dp1473
sg70
g1467
sg63
(lp1474
g56
(g57
g58
NtRp1475
(dp1476
g61
(dp1477
g69
I3
ssg70
g1471
sg63
(lp1478
S'1'
asbasbasbag56
(g72
g58
NtRp1479
(dp1480
g61
(dp1481
sg70
g1463
sg63
(lp1482
g56
(g77
g58
NtRp1483
(dp1484
g61
(dp1485
sg70
g1479
sg63
(lp1486
g56
(g57
g58
NtRp1487
(dp1488
g61
(dp1489
g69
I3
ssg70
g1483
sg63
(lp1490
S'99'
p1491
asbasbasbag56
(g72
g58
NtRp1492
(dp1493
g61
(dp1494
sg70
g1463
sg63
(lp1495
g56
(g77
g58
NtRp1496
(dp1497
g61
(dp1498
sg70
g1492
sg63
(lp1499
g56
(g57
g58
NtRp1500
(dp1501
g61
(dp1502
g69
I3
ssg70
g1496
sg63
(lp1503
S'2'
asbasbasbag56
(g72
g58
NtRp1504
(dp1505
g61
(dp1506
sg70
g1463
sg63
(lp1507
g56
(g77
g58
NtRp1508
(dp1509
g61
(dp1510
sg70
g1504
sg63
(lp1511
g56
(g57
g58
NtRp1512
(dp1513
g61
(dp1514
g69
I3
ssg70
g1508
sg63
(lp1515
S'datetime.datetime(2011, 9, 26, 6, 55, 33)'
p1516
asbasbasbag56
(g72
g58
NtRp1517
(dp1518
g61
(dp1519
sg70
g1463
sg63
(lp1520
g56
(g77
g58
NtRp1521
(dp1522
g61
(dp1523
sg70
g1517
sg63
(lp1524
g56
(g57
g58
NtRp1525
(dp1526
g61
(dp1527
g69
I3
ssg70
g1521
sg63
(lp1528
S'stable'
p1529
asbasbasbasbasbasbasbag56
(g72
g58
NtRp1530
(dp1531
g61
(dp1532
sg70
g847
sg63
(lp1533
g56
(g77
g58
NtRp1534
(dp1535
g61
(dp1536
g81
g82
ssg70
g1530
sg63
(lp1537
S'wsgi_errors'
p1538
asbag56
(g77
g58
NtRp1539
(dp1540
g61
(dp1541
g88
g89
ssg70
g1530
sg63
(lp1542
S':'
asbag56
(g77
g58
NtRp1543
(dp1544
g61
(dp1545
sg70
g1530
sg63
(lp1546
g56
(g57
g58
NtRp1547
(dp1548
g61
(dp1549
g69
I4
ssg70
g1543
sg63
(lp1550
S"<open file '<stderr>', mode 'w' at 0x7f84db3ff270>"
p1551
asbasbasbag56
(g72
g58
NtRp1552
(dp1553
g61
(dp1554
sg70
g847
sg63
(lp1555
g56
(g77
g58
NtRp1556
(dp1557
g61
(dp1558
g81
g82
ssg70
g1552
sg63
(lp1559
S'wsgi_file_wrapper'
p1560
asbag56
(g77
g58
NtRp1561
(dp1562
g61
(dp1563
g88
g89
ssg70
g1552
sg63
(lp1564
S':'
asbag56
(g77
g58
NtRp1565
(dp1566
g61
(dp1567
sg70
g1552
sg63
(lp1568
g56
(g57
g58
NtRp1569
(dp1570
g61
(dp1571
g69
I4
ssg70
g1565
sg63
(lp1572
S'<class wsgiref.util.FileWrapper at 0x1b96d50>'
p1573
asbasbasbag56
(g72
g58
NtRp1574
(dp1575
g61
(dp1576
sg70
g847
sg63
(lp1577
g56
(g77
g58
NtRp1578
(dp1579
g61
(dp1580
g81
g82
ssg70
g1574
sg63
(lp1581
S'wsgi_input'
p1582
asbag56
(g77
g58
NtRp1583
(dp1584
g61
(dp1585
g88
g89
ssg70
g1574
sg63
(lp1586
S':'
asbag56
(g77
g58
NtRp1587
(dp1588
g61
(dp1589
sg70
g1574
sg63
(lp1590
g56
(g57
g58
NtRp1591
(dp1592
g61
(dp1593
g69
I4
ssg70
g1587
sg63
(lp1594
S'<socket._fileobject object at 0x44b9ed0>'
p1595
asbasbasbag56
(g72
g58
NtRp1596
(dp1597
g61
(dp1598
sg70
g847
sg63
(lp1599
g56
(g77
g58
NtRp1600
(dp1601
g61
(dp1602
g81
g82
ssg70
g1596
sg63
(lp1603
S'wsgi_multiprocess'
p1604
asbag56
(g77
g58
NtRp1605
(dp1606
g61
(dp1607
g88
g89
ssg70
g1596
sg63
(lp1608
S':'
asbag56
(g77
g58
NtRp1609
(dp1610
g61
(dp1611
sg70
g1596
sg63
(lp1612
g56
(g57
g58
NtRp1613
(dp1614
g61
(dp1615
g69
I4
ssg70
g1609
sg63
(lp1616
g99
asbasbasbag56
(g72
g58
NtRp1617
(dp1618
g61
(dp1619
sg70
g847
sg63
(lp1620
g56
(g77
g58
NtRp1621
(dp1622
g61
(dp1623
g81
g82
ssg70
g1617
sg63
(lp1624
S'wsgi_multithread'
p1625
asbag56
(g77
g58
NtRp1626
(dp1627
g61
(dp1628
g88
g89
ssg70
g1617
sg63
(lp1629
S':'
asbag56
(g77
g58
NtRp1630
(dp1631
g61
(dp1632
sg70
g1617
sg63
(lp1633
g56
(g57
g58
NtRp1634
(dp1635
g61
(dp1636
g69
I4
ssg70
g1630
sg63
(lp1637
S'True'
p1638
asbasbasbag56
(g72
g58
NtRp1639
(dp1640
g61
(dp1641
sg70
g847
sg63
(lp1642
g56
(g77
g58
NtRp1643
(dp1644
g61
(dp1645
g81
g82
ssg70
g1639
sg63
(lp1646
S'wsgi_run_once'
p1647
asbag56
(g77
g58
NtRp1648
(dp1649
g61
(dp1650
g88
g89
ssg70
g1639
sg63
(lp1651
S':'
asbag56
(g77
g58
NtRp1652
(dp1653
g61
(dp1654
sg70
g1639
sg63
(lp1655
g56
(g57
g58
NtRp1656
(dp1657
g61
(dp1658
g69
I4
ssg70
g1652
sg63
(lp1659
g99
asbasbasbag56
(g72
g58
NtRp1660
(dp1661
g61
(dp1662
sg70
g847
sg63
(lp1663
g56
(g77
g58
NtRp1664
(dp1665
g61
(dp1666
g81
g82
ssg70
g1660
sg63
(lp1667
S'wsgi_url_scheme'
p1668
asbag56
(g77
g58
NtRp1669
(dp1670
g61
(dp1671
g88
g89
ssg70
g1660
sg63
(lp1672
S':'
asbag56
(g77
g58
NtRp1673
(dp1674
g61
(dp1675
sg70
g1660
sg63
(lp1676
g56
(g57
g58
NtRp1677
(dp1678
g61
(dp1679
g69
I4
ssg70
g1673
sg63
(lp1680
S'http'
p1681
asbasbasbag56
(g72
g58
NtRp1682
(dp1683
g61
(dp1684
sg70
g847
sg63
(lp1685
g56
(g77
g58
NtRp1686
(dp1687
g61
(dp1688
g81
g82
ssg70
g1682
sg63
(lp1689
S'wsgi_version'
p1690
asbag56
(g77
g58
NtRp1691
(dp1692
g61
(dp1693
g88
g89
ssg70
g1682
sg63
(lp1694
S':'
asbag56
(g77
g58
NtRp1695
(dp1696
g61
(dp1697
sg70
g1682
sg63
(lp1698
g56
(g57
g58
NtRp1699
(dp1700
g61
(dp1701
g69
I4
ssg70
g1695
sg63
(lp1702
g56
(g65
g58
NtRp1703
(dp1704
g61
(dp1705
g69
I3
ssg70
Nsg63
(lp1706
g56
(g72
g58
NtRp1707
(dp1708
g61
(dp1709
sg70
g1703
sg63
(lp1710
g56
(g77
g58
NtRp1711
(dp1712
g61
(dp1713
sg70
g1707
sg63
(lp1714
g56
(g57
g58
NtRp1715
(dp1716
g61
(dp1717
g69
I3
ssg70
g1711
sg63
(lp1718
S'1'
asbasbasbag56
(g72
g58
NtRp1719
(dp1720
g61
(dp1721
sg70
g1703
sg63
(lp1722
g56
(g77
g58
NtRp1723
(dp1724
g61
(dp1725
sg70
g1719
sg63
(lp1726
g56
(g57
g58
NtRp1727
(dp1728
g61
(dp1729
g69
I3
ssg70
g1723
sg63
(lp1730
S'0'
asbasbasbasbasbasbasbasbasbasbasbag56
(g72
g58
NtRp1731
(dp1732
g61
(dp1733
sg70
g66
sg63
(lp1734
g56
(g77
g58
NtRp1735
(dp1736
g61
(dp1737
g81
g82
ssg70
g1731
sg63
(lp1738
S'extension'
p1739
asbag56
(g77
g58
NtRp1740
(dp1741
g61
(dp1742
g88
g89
ssg70
g1731
sg63
(lp1743
S':'
asbag56
(g77
g58
NtRp1744
(dp1745
g61
(dp1746
sg70
g1731
sg63
(lp1747
g56
(g57
g58
NtRp1748
(dp1749
g61
(dp1750
g69
I5
ssg70
g1744
sg63
(lp1751
S'html'
p1752
asbasbasbag56
(g72
g58
NtRp1753
(dp1754
g61
(dp1755
sg70
g66
sg63
(lp1756
g56
(g77
g58
NtRp1757
(dp1758
g61
(dp1759
g81
g82
ssg70
g1753
sg63
(lp1760
S'folder'
p1761
asbag56
(g77
g58
NtRp1762
(dp1763
g61
(dp1764
g88
g89
ssg70
g1753
sg63
(lp1765
S':'
asbag56
(g77
g58
NtRp1766
(dp1767
g61
(dp1768
sg70
g1753
sg63
(lp1769
g56
(g57
g58
NtRp1770
(dp1771
g61
(dp1772
g69
I5
ssg70
g1766
sg63
(lp1773
S'/home/jose/DESARROLLO/web2py199/applications/streamlog/'
p1774
asbasbasbag56
(g72
g58
NtRp1775
(dp1776
g61
(dp1777
sg70
g66
sg63
(lp1778
g56
(g77
g58
NtRp1779
(dp1780
g61
(dp1781
g81
g82
ssg70
g1775
sg63
(lp1782
S'function'
p1783
asbag56
(g77
g58
NtRp1784
(dp1785
g61
(dp1786
g88
g89
ssg70
g1775
sg63
(lp1787
S':'
asbag56
(g77
g58
NtRp1788
(dp1789
g61
(dp1790
sg70
g1775
sg63
(lp1791
g56
(g57
g58
NtRp1792
(dp1793
g61
(dp1794
g69
I5
ssg70
g1788
sg63
(lp1795
S'call'
p1796
asbasbasbag56
(g72
g58
NtRp1797
(dp1798
g61
(dp1799
sg70
g66
sg63
(lp1800
g56
(g77
g58
NtRp1801
(dp1802
g61
(dp1803
g81
g82
ssg70
g1797
sg63
(lp1804
S'get_vars'
p1805
asbag56
(g77
g58
NtRp1806
(dp1807
g61
(dp1808
g88
g89
ssg70
g1797
sg63
(lp1809
S':'
asbag56
(g77
g58
NtRp1810
(dp1811
g61
(dp1812
sg70
g1797
sg63
(lp1813
g56
(g57
g58
NtRp1814
(dp1815
g61
(dp1816
g69
I5
ssg70
g1810
sg63
(lp1817
g56
(g65
g58
NtRp1818
(dp1819
g61
(dp1820
g69
I4
ssg70
Nsg63
(lp1821
sbasbasbasbag56
(g72
g58
NtRp1822
(dp1823
g61
(dp1824
sg70
g66
sg63
(lp1825
g56
(g77
g58
NtRp1826
(dp1827
g61
(dp1828
g81
g82
ssg70
g1822
sg63
(lp1829
S'global_settings'
p1830
asbag56
(g77
g58
NtRp1831
(dp1832
g61
(dp1833
g88
g89
ssg70
g1822
sg63
(lp1834
S':'
asbag56
(g77
g58
NtRp1835
(dp1836
g61
(dp1837
sg70
g1822
sg63
(lp1838
g56
(g57
g58
NtRp1839
(dp1840
g61
(dp1841
g69
I5
ssg70
g1835
sg63
(lp1842
g56
(g65
g58
NtRp1843
(dp1844
g61
(dp1845
g69
I4
ssg70
Nsg63
(lp1846
g56
(g72
g58
NtRp1847
(dp1848
g61
(dp1849
sg70
g1843
sg63
(lp1850
g56
(g77
g58
NtRp1851
(dp1852
g61
(dp1853
g81
g82
ssg70
g1847
sg63
(lp1854
g859
asbag56
(g77
g58
NtRp1855
(dp1856
g61
(dp1857
g88
g89
ssg70
g1847
sg63
(lp1858
S':'
asbag56
(g77
g58
NtRp1859
(dp1860
g61
(dp1861
sg70
g1847
sg63
(lp1862
g56
(g57
g58
NtRp1863
(dp1864
g61
(dp1865
g69
I4
ssg70
g1859
sg63
(lp1866
S"set(['/home/jose/DESARROLLO/web2py199/applications/streamlog/', '/home/jose/DESARROLLO/web2py199/applications/admin/'])"
p1867
asbasbasbag56
(g72
g58
NtRp1868
(dp1869
g61
(dp1870
sg70
g1843
sg63
(lp1871
g56
(g77
g58
NtRp1872
(dp1873
g61
(dp1874
g81
g82
ssg70
g1868
sg63
(lp1875
g881
asbag56
(g77
g58
NtRp1876
(dp1877
g61
(dp1878
g88
g89
ssg70
g1868
sg63
(lp1879
S':'
asbag56
(g77
g58
NtRp1880
(dp1881
g61
(dp1882
sg70
g1868
sg63
(lp1883
g56
(g57
g58
NtRp1884
(dp1885
g61
(dp1886
g69
I4
ssg70
g1880
sg63
(lp1887
g894
asbasbasbag56
(g72
g58
NtRp1888
(dp1889
g61
(dp1890
sg70
g1843
sg63
(lp1891
g56
(g77
g58
NtRp1892
(dp1893
g61
(dp1894
g81
g82
ssg70
g1888
sg63
(lp1895
g903
asbag56
(g77
g58
NtRp1896
(dp1897
g61
(dp1898
g88
g89
ssg70
g1888
sg63
(lp1899
S':'
asbag56
(g77
g58
NtRp1900
(dp1901
g61
(dp1902
sg70
g1888
sg63
(lp1903
g56
(g57
g58
NtRp1904
(dp1905
g61
(dp1906
g69
I4
ssg70
g1900
sg63
(lp1907
g56
(g65
g58
NtRp1908
(dp1909
g61
(dp1910
g69
I3
ssg70
Nsg63
(lp1911
sbasbasbasbag56
(g72
g58
NtRp1912
(dp1913
g61
(dp1914
sg70
g1843
sg63
(lp1915
g56
(g77
g58
NtRp1916
(dp1917
g61
(dp1918
g81
g82
ssg70
g1912
sg63
(lp1919
g928
asbag56
(g77
g58
NtRp1920
(dp1921
g61
(dp1922
g88
g89
ssg70
g1912
sg63
(lp1923
S':'
asbag56
(g77
g58
NtRp1924
(dp1925
g61
(dp1926
sg70
g1912
sg63
(lp1927
g56
(g57
g58
NtRp1928
(dp1929
g61
(dp1930
g69
I4
ssg70
g1924
sg63
(lp1931
S"<Values at 0x1c79f80: {'verbose': False, 'ip': '127.0.0.1', 'shutdown_timeout': 5, 'taskbar': False, 'nocron': False, 'pid_filename': 'httpserver.pid', 'maxthreads': None, 'softcron': False, 'server_name': 'jose', 'bpython': False, 'nogui': False, 'port': 8000, 'extcron': False, 'debuglevel': 30, 'test': None, 'folder': '/home/jose/DESARROLLO/web2py199', 'config': '', 'import_models': False, 'winservice': '', 'shell': None, 'run': '', 'log_filename': 'httpserver.log', 'args': [''], 'ssl_ca_certificate': None, 'scheduler': None, 'profiler_filename': None, 'ssl_private_key': '', 'password': 't', 'request_queue_size': 5, 'ssl_certificate': '', 'cronjob': False, 'plain': False, 'quiet': False, 'interfaces': None, 'minthreads': None, 'timeout': 10, 'numthreads': None, 'nobanner': False}>"
p1932
asbasbasbag56
(g72
g58
NtRp1933
(dp1934
g61
(dp1935
sg70
g1843
sg63
(lp1936
g56
(g77
g58
NtRp1937
(dp1938
g61
(dp1939
g81
g82
ssg70
g1933
sg63
(lp1940
g950
asbag56
(g77
g58
NtRp1941
(dp1942
g61
(dp1943
g88
g89
ssg70
g1933
sg63
(lp1944
S':'
asbag56
(g77
g58
NtRp1945
(dp1946
g61
(dp1947
sg70
g1933
sg63
(lp1948
g56
(g57
g58
NtRp1949
(dp1950
g61
(dp1951
g69
I4
ssg70
g1945
sg63
(lp1952
S'set([])'
p1953
asbasbasbag56
(g72
g58
NtRp1954
(dp1955
g61
(dp1956
sg70
g1843
sg63
(lp1957
g56
(g77
g58
NtRp1958
(dp1959
g61
(dp1960
g81
g82
ssg70
g1954
sg63
(lp1961
g972
asbag56
(g77
g58
NtRp1962
(dp1963
g61
(dp1964
g88
g89
ssg70
g1954
sg63
(lp1965
S':'
asbag56
(g77
g58
NtRp1966
(dp1967
g61
(dp1968
sg70
g1954
sg63
(lp1969
g56
(g57
g58
NtRp1970
(dp1971
g61
(dp1972
g69
I4
ssg70
g1966
sg63
(lp1973
g99
asbasbasbag56
(g72
g58
NtRp1974
(dp1975
g61
(dp1976
sg70
g1843
sg63
(lp1977
g56
(g77
g58
NtRp1978
(dp1979
g61
(dp1980
g81
g82
ssg70
g1974
sg63
(lp1981
g993
asbag56
(g77
g58
NtRp1982
(dp1983
g61
(dp1984
g88
g89
ssg70
g1974
sg63
(lp1985
S':'
asbag56
(g77
g58
NtRp1986
(dp1987
g61
(dp1988
sg70
g1974
sg63
(lp1989
g56
(g57
g58
NtRp1990
(dp1991
g61
(dp1992
g69
I4
ssg70
g1986
sg63
(lp1993
g1006
asbasbasbag56
(g72
g58
NtRp1994
(dp1995
g61
(dp1996
sg70
g1843
sg63
(lp1997
g56
(g77
g58
NtRp1998
(dp1999
g61
(dp2000
g81
g82
ssg70
g1994
sg63
(lp2001
g1169
asbag56
(g77
g58
NtRp2002
(dp2003
g61
(dp2004
g88
g89
ssg70
g1994
sg63
(lp2005
S':'
asbag56
(g77
g58
NtRp2006
(dp2007
g61
(dp2008
sg70
g1994
sg63
(lp2009
g56
(g57
g58
NtRp2010
(dp2011
g61
(dp2012
g69
I4
ssg70
g2006
sg63
(lp2013
g99
asbasbasbag56
(g72
g58
NtRp2014
(dp2015
g61
(dp2016
sg70
g1843
sg63
(lp2017
g56
(g77
g58
NtRp2018
(dp2019
g61
(dp2020
g81
g82
ssg70
g2014
sg63
(lp2021
g1407
asbag56
(g77
g58
NtRp2022
(dp2023
g61
(dp2024
g88
g89
ssg70
g2014
sg63
(lp2025
S':'
asbag56
(g77
g58
NtRp2026
(dp2027
g61
(dp2028
sg70
g2014
sg63
(lp2029
g56
(g57
g58
NtRp2030
(dp2031
g61
(dp2032
g69
I4
ssg70
g2026
sg63
(lp2033
g1420
asbasbasbag56
(g72
g58
NtRp2034
(dp2035
g61
(dp2036
sg70
g1843
sg63
(lp2037
g56
(g77
g58
NtRp2038
(dp2039
g61
(dp2040
g81
g82
ssg70
g2034
sg63
(lp2041
g1450
asbag56
(g77
g58
NtRp2042
(dp2043
g61
(dp2044
g88
g89
ssg70
g2034
sg63
(lp2045
S':'
asbag56
(g77
g58
NtRp2046
(dp2047
g61
(dp2048
sg70
g2034
sg63
(lp2049
g56
(g57
g58
NtRp2050
(dp2051
g61
(dp2052
g69
I4
ssg70
g2046
sg63
(lp2053
g56
(g65
g58
NtRp2054
(dp2055
g61
(dp2056
g69
I3
ssg70
Nsg63
(lp2057
g56
(g72
g58
NtRp2058
(dp2059
g61
(dp2060
sg70
g2054
sg63
(lp2061
g56
(g77
g58
NtRp2062
(dp2063
g61
(dp2064
sg70
g2058
sg63
(lp2065
g56
(g57
g58
NtRp2066
(dp2067
g61
(dp2068
g69
I3
ssg70
g2062
sg63
(lp2069
S'1'
asbasbasbag56
(g72
g58
NtRp2070
(dp2071
g61
(dp2072
sg70
g2054
sg63
(lp2073
g56
(g77
g58
NtRp2074
(dp2075
g61
(dp2076
sg70
g2070
sg63
(lp2077
g56
(g57
g58
NtRp2078
(dp2079
g61
(dp2080
g69
I3
ssg70
g2074
sg63
(lp2081
S'99'
p2082
asbasbasbag56
(g72
g58
NtRp2083
(dp2084
g61
(dp2085
sg70
g2054
sg63
(lp2086
g56
(g77
g58
NtRp2087
(dp2088
g61
(dp2089
sg70
g2083
sg63
(lp2090
g56
(g57
g58
NtRp2091
(dp2092
g61
(dp2093
g69
I3
ssg70
g2087
sg63
(lp2094
S'2'
asbasbasbag56
(g72
g58
NtRp2095
(dp2096
g61
(dp2097
sg70
g2054
sg63
(lp2098
g56
(g77
g58
NtRp2099
(dp2100
g61
(dp2101
sg70
g2095
sg63
(lp2102
g56
(g57
g58
NtRp2103
(dp2104
g61
(dp2105
g69
I3
ssg70
g2099
sg63
(lp2106
S'datetime.datetime(2011, 9, 26, 6, 55, 33)'
p2107
asbasbasbag56
(g72
g58
NtRp2108
(dp2109
g61
(dp2110
sg70
g2054
sg63
(lp2111
g56
(g77
g58
NtRp2112
(dp2113
g61
(dp2114
sg70
g2108
sg63
(lp2115
g56
(g57
g58
NtRp2116
(dp2117
g61
(dp2118
g69
I3
ssg70
g2112
sg63
(lp2119
g1529
asbasbasbasbasbasbasbasbasbasbasbag56
(g72
g58
NtRp2120
(dp2121
g61
(dp2122
sg70
g66
sg63
(lp2123
g56
(g77
g58
NtRp2124
(dp2125
g61
(dp2126
g81
g82
ssg70
g2120
sg63
(lp2127
S'is_https'
p2128
asbag56
(g77
g58
NtRp2129
(dp2130
g61
(dp2131
g88
g89
ssg70
g2120
sg63
(lp2132
S':'
asbag56
(g77
g58
NtRp2133
(dp2134
g61
(dp2135
sg70
g2120
sg63
(lp2136
g56
(g57
g58
NtRp2137
(dp2138
g61
(dp2139
g69
I5
ssg70
g2133
sg63
(lp2140
g99
asbasbasbag56
(g72
g58
NtRp2141
(dp2142
g61
(dp2143
sg70
g66
sg63
(lp2144
g56
(g77
g58
NtRp2145
(dp2146
g61
(dp2147
g81
g82
ssg70
g2141
sg63
(lp2148
S'is_local'
p2149
asbag56
(g77
g58
NtRp2150
(dp2151
g61
(dp2152
g88
g89
ssg70
g2141
sg63
(lp2153
S':'
asbag56
(g77
g58
NtRp2154
(dp2155
g61
(dp2156
sg70
g2141
sg63
(lp2157
g56
(g57
g58
NtRp2158
(dp2159
g61
(dp2160
g69
I5
ssg70
g2154
sg63
(lp2161
g1638
asbasbasbag56
(g72
g58
NtRp2162
(dp2163
g61
(dp2164
sg70
g66
sg63
(lp2165
g56
(g77
g58
NtRp2166
(dp2167
g61
(dp2168
g81
g82
ssg70
g2162
sg63
(lp2169
S'is_restful'
p2170
asbag56
(g77
g58
NtRp2171
(dp2172
g61
(dp2173
g88
g89
ssg70
g2162
sg63
(lp2174
S':'
asbag56
(g77
g58
NtRp2175
(dp2176
g61
(dp2177
sg70
g2162
sg63
(lp2178
g56
(g57
g58
NtRp2179
(dp2180
g61
(dp2181
g69
I5
ssg70
g2175
sg63
(lp2182
g99
asbasbasbag56
(g72
g58
NtRp2183
(dp2184
g61
(dp2185
sg70
g66
sg63
(lp2186
g56
(g77
g58
NtRp2187
(dp2188
g61
(dp2189
g81
g82
ssg70
g2183
sg63
(lp2190
S'now'
p2191
asbag56
(g77
g58
NtRp2192
(dp2193
g61
(dp2194
g88
g89
ssg70
g2183
sg63
(lp2195
S':'
asbag56
(g77
g58
NtRp2196
(dp2197
g61
(dp2198
sg70
g2183
sg63
(lp2199
g56
(g57
g58
NtRp2200
(dp2201
g61
(dp2202
g69
I5
ssg70
g2196
sg63
(lp2203
S'datetime.datetime(2012, 5, 26, 21, 27, 40, 287660)'
p2204
asbasbasbag56
(g72
g58
NtRp2205
(dp2206
g61
(dp2207
sg70
g66
sg63
(lp2208
g56
(g77
g58
NtRp2209
(dp2210
g61
(dp2211
g81
g82
ssg70
g2205
sg63
(lp2212
S'post_vars'
p2213
asbag56
(g77
g58
NtRp2214
(dp2215
g61
(dp2216
g88
g89
ssg70
g2205
sg63
(lp2217
S':'
asbag56
(g77
g58
NtRp2218
(dp2219
g61
(dp2220
sg70
g2205
sg63
(lp2221
g56
(g57
g58
NtRp2222
(dp2223
g61
(dp2224
g69
I5
ssg70
g2218
sg63
(lp2225
g56
(g65
g58
NtRp2226
(dp2227
g61
(dp2228
g69
I4
ssg70
Nsg63
(lp2229
sbasbasbasbag56
(g72
g58
NtRp2230
(dp2231
g61
(dp2232
sg70
g66
sg63
(lp2233
g56
(g77
g58
NtRp2234
(dp2235
g61
(dp2236
g81
g82
ssg70
g2230
sg63
(lp2237
S'raw_args'
p2238
asbag56
(g77
g58
NtRp2239
(dp2240
g61
(dp2241
g88
g89
ssg70
g2230
sg63
(lp2242
S':'
asbag56
(g77
g58
NtRp2243
(dp2244
g61
(dp2245
sg70
g2230
sg63
(lp2246
g56
(g57
g58
NtRp2247
(dp2248
g61
(dp2249
g69
I5
ssg70
g2243
sg63
(lp2250
S'json/getConnectionData'
p2251
asbasbasbag56
(g72
g58
NtRp2252
(dp2253
g61
(dp2254
sg70
g66
sg63
(lp2255
g56
(g77
g58
NtRp2256
(dp2257
g61
(dp2258
g81
g82
ssg70
g2252
sg63
(lp2259
S'url'
p2260
asbag56
(g77
g58
NtRp2261
(dp2262
g61
(dp2263
g88
g89
ssg70
g2252
sg63
(lp2264
S':'
asbag56
(g77
g58
NtRp2265
(dp2266
g61
(dp2267
sg70
g2252
sg63
(lp2268
g56
(g57
g58
NtRp2269
(dp2270
g61
(dp2271
g69
I5
ssg70
g2265
sg63
(lp2272
S'/streamlog/default/call/json/getConnectionData'
p2273
asbasbasbag56
(g72
g58
NtRp2274
(dp2275
g61
(dp2276
sg70
g66
sg63
(lp2277
g56
(g77
g58
NtRp2278
(dp2279
g61
(dp2280
g81
g82
ssg70
g2274
sg63
(lp2281
S'utcnow'
p2282
asbag56
(g77
g58
NtRp2283
(dp2284
g61
(dp2285
g88
g89
ssg70
g2274
sg63
(lp2286
S':'
asbag56
(g77
g58
NtRp2287
(dp2288
g61
(dp2289
sg70
g2274
sg63
(lp2290
g56
(g57
g58
NtRp2291
(dp2292
g61
(dp2293
g69
I5
ssg70
g2287
sg63
(lp2294
S'datetime.datetime(2012, 5, 26, 14, 27, 40, 287684)'
p2295
asbasbasbag56
(g72
g58
NtRp2296
(dp2297
g61
(dp2298
sg70
g66
sg63
(lp2299
g56
(g77
g58
NtRp2300
(dp2301
g61
(dp2302
g81
g82
ssg70
g2296
sg63
(lp2303
S'uuid'
p2304
asbag56
(g77
g58
NtRp2305
(dp2306
g61
(dp2307
g88
g89
ssg70
g2296
sg63
(lp2308
S':'
asbag56
(g77
g58
NtRp2309
(dp2310
g61
(dp2311
sg70
g2296
sg63
(lp2312
g56
(g57
g58
NtRp2313
(dp2314
g61
(dp2315
g69
I5
ssg70
g2309
sg63
(lp2316
S'streamlog/127.0.0.1.2012-05-26.21-27-40.4f29bc55-245b-41d3-9610-84a206896aa1'
p2317
asbasbasbag56
(g72
g58
NtRp2318
(dp2319
g61
(dp2320
sg70
g66
sg63
(lp2321
g56
(g77
g58
NtRp2322
(dp2323
g61
(dp2324
g81
g82
ssg70
g2318
sg63
(lp2325
S'vars'
p2326
asbag56
(g77
g58
NtRp2327
(dp2328
g61
(dp2329
g88
g89
ssg70
g2318
sg63
(lp2330
S':'
asbag56
(g77
g58
NtRp2331
(dp2332
g61
(dp2333
sg70
g2318
sg63
(lp2334
g56
(g57
g58
NtRp2335
(dp2336
g61
(dp2337
g69
I5
ssg70
g2331
sg63
(lp2338
g56
(g65
g58
NtRp2339
(dp2340
g61
(dp2341
g69
I4
ssg70
Nsg63
(lp2342
sbasbasbasbag56
(g72
g58
NtRp2343
(dp2344
g61
(dp2345
sg70
g66
sg63
(lp2346
g56
(g77
g58
NtRp2347
(dp2348
g61
(dp2349
g81
g82
ssg70
g2343
sg63
(lp2350
S'wsgi'
p2351
asbag56
(g77
g58
NtRp2352
(dp2353
g61
(dp2354
g88
g89
ssg70
g2343
sg63
(lp2355
S':'
asbag56
(g77
g58
NtRp2356
(dp2357
g61
(dp2358
sg70
g2343
sg63
(lp2359
g56
(g57
g58
NtRp2360
(dp2361
g61
(dp2362
g69
I5
ssg70
g2356
sg63
(lp2363
g56
(g65
g58
NtRp2364
(dp2365
g61
(dp2366
g69
I4
ssg70
Nsg63
(lp2367
g56
(g72
g58
NtRp2368
(dp2369
g61
(dp2370
sg70
g2364
sg63
(lp2371
g56
(g77
g58
NtRp2372
(dp2373
g61
(dp2374
g81
g82
ssg70
g2368
sg63
(lp2375
S'environ'
p2376
asbag56
(g77
g58
NtRp2377
(dp2378
g61
(dp2379
g88
g89
ssg70
g2368
sg63
(lp2380
S':'
asbag56
(g77
g58
NtRp2381
(dp2382
g61
(dp2383
sg70
g2368
sg63
(lp2384
g56
(g57
g58
NtRp2385
(dp2386
g61
(dp2387
g69
I4
ssg70
g2381
sg63
(lp2388
g56
(g65
g58
NtRp2389
(dp2390
g61
(dp2391
g69
I3
ssg70
Nsg63
(lp2392
g56
(g72
g58
NtRp2393
(dp2394
g61
(dp2395
sg70
g2389
sg63
(lp2396
g56
(g77
g58
NtRp2397
(dp2398
g61
(dp2399
g81
g82
ssg70
g2393
sg63
(lp2400
S'HTTP_ACCEPT'
p2401
asbag56
(g77
g58
NtRp2402
(dp2403
g61
(dp2404
g88
g89
ssg70
g2393
sg63
(lp2405
S':'
asbag56
(g77
g58
NtRp2406
(dp2407
g61
(dp2408
sg70
g2393
sg63
(lp2409
g56
(g57
g58
NtRp2410
(dp2411
g61
(dp2412
g69
I3
ssg70
g2406
sg63
(lp2413
g1028
asbasbasbag56
(g72
g58
NtRp2414
(dp2415
g61
(dp2416
sg70
g2389
sg63
(lp2417
g56
(g77
g58
NtRp2418
(dp2419
g61
(dp2420
g81
g82
ssg70
g2414
sg63
(lp2421
S'HTTP_ACCEPT_ENCODING'
p2422
asbag56
(g77
g58
NtRp2423
(dp2424
g61
(dp2425
g88
g89
ssg70
g2414
sg63
(lp2426
S':'
asbag56
(g77
g58
NtRp2427
(dp2428
g61
(dp2429
sg70
g2414
sg63
(lp2430
g56
(g57
g58
NtRp2431
(dp2432
g61
(dp2433
g69
I3
ssg70
g2427
sg63
(lp2434
g1050
asbasbasbag56
(g72
g58
NtRp2435
(dp2436
g61
(dp2437
sg70
g2389
sg63
(lp2438
g56
(g77
g58
NtRp2439
(dp2440
g61
(dp2441
g81
g82
ssg70
g2435
sg63
(lp2442
S'HTTP_ACCEPT_LANGUAGE'
p2443
asbag56
(g77
g58
NtRp2444
(dp2445
g61
(dp2446
g88
g89
ssg70
g2435
sg63
(lp2447
S':'
asbag56
(g77
g58
NtRp2448
(dp2449
g61
(dp2450
sg70
g2435
sg63
(lp2451
g56
(g57
g58
NtRp2452
(dp2453
g61
(dp2454
g69
I3
ssg70
g2448
sg63
(lp2455
g1072
asbasbasbag56
(g72
g58
NtRp2456
(dp2457
g61
(dp2458
sg70
g2389
sg63
(lp2459
g56
(g77
g58
NtRp2460
(dp2461
g61
(dp2462
g81
g82
ssg70
g2456
sg63
(lp2463
S'HTTP_CONNECTION'
p2464
asbag56
(g77
g58
NtRp2465
(dp2466
g61
(dp2467
g88
g89
ssg70
g2456
sg63
(lp2468
S':'
asbag56
(g77
g58
NtRp2469
(dp2470
g61
(dp2471
sg70
g2456
sg63
(lp2472
g56
(g57
g58
NtRp2473
(dp2474
g61
(dp2475
g69
I3
ssg70
g2469
sg63
(lp2476
g1094
asbasbasbag56
(g72
g58
NtRp2477
(dp2478
g61
(dp2479
sg70
g2389
sg63
(lp2480
g56
(g77
g58
NtRp2481
(dp2482
g61
(dp2483
g81
g82
ssg70
g2477
sg63
(lp2484
S'HTTP_COOKIE'
p2485
asbag56
(g77
g58
NtRp2486
(dp2487
g61
(dp2488
g88
g89
ssg70
g2477
sg63
(lp2489
S':'
asbag56
(g77
g58
NtRp2490
(dp2491
g61
(dp2492
sg70
g2477
sg63
(lp2493
g56
(g57
g58
NtRp2494
(dp2495
g61
(dp2496
g69
I3
ssg70
g2490
sg63
(lp2497
g1116
asbasbasbag56
(g72
g58
NtRp2498
(dp2499
g61
(dp2500
sg70
g2389
sg63
(lp2501
g56
(g77
g58
NtRp2502
(dp2503
g61
(dp2504
g81
g82
ssg70
g2498
sg63
(lp2505
S'HTTP_HOST'
p2506
asbag56
(g77
g58
NtRp2507
(dp2508
g61
(dp2509
g88
g89
ssg70
g2498
sg63
(lp2510
S':'
asbag56
(g77
g58
NtRp2511
(dp2512
g61
(dp2513
sg70
g2498
sg63
(lp2514
g56
(g57
g58
NtRp2515
(dp2516
g61
(dp2517
g69
I3
ssg70
g2511
sg63
(lp2518
g1138
asbasbasbag56
(g72
g58
NtRp2519
(dp2520
g61
(dp2521
sg70
g2389
sg63
(lp2522
g56
(g77
g58
NtRp2523
(dp2524
g61
(dp2525
g81
g82
ssg70
g2519
sg63
(lp2526
S'HTTP_USER_AGENT'
p2527
asbag56
(g77
g58
NtRp2528
(dp2529
g61
(dp2530
g88
g89
ssg70
g2519
sg63
(lp2531
S':'
asbag56
(g77
g58
NtRp2532
(dp2533
g61
(dp2534
sg70
g2519
sg63
(lp2535
g56
(g57
g58
NtRp2536
(dp2537
g61
(dp2538
g69
I3
ssg70
g2532
sg63
(lp2539
g1160
asbasbasbag56
(g72
g58
NtRp2540
(dp2541
g61
(dp2542
sg70
g2389
sg63
(lp2543
g56
(g77
g58
NtRp2544
(dp2545
g61
(dp2546
g81
g82
ssg70
g2540
sg63
(lp2547
S'PATH_INFO'
p2548
asbag56
(g77
g58
NtRp2549
(dp2550
g61
(dp2551
g88
g89
ssg70
g2540
sg63
(lp2552
S':'
asbag56
(g77
g58
NtRp2553
(dp2554
g61
(dp2555
sg70
g2540
sg63
(lp2556
g56
(g57
g58
NtRp2557
(dp2558
g61
(dp2559
g69
I3
ssg70
g2553
sg63
(lp2560
g1203
asbasbasbag56
(g72
g58
NtRp2561
(dp2562
g61
(dp2563
sg70
g2389
sg63
(lp2564
g56
(g77
g58
NtRp2565
(dp2566
g61
(dp2567
g81
g82
ssg70
g2561
sg63
(lp2568
S'QUERY_STRING'
p2569
asbag56
(g77
g58
NtRp2570
(dp2571
g61
(dp2572
g88
g89
ssg70
g2561
sg63
(lp2573
S':'
asbag56
(g77
g58
NtRp2574
(dp2575
g61
(dp2576
sg70
g2561
sg63
(lp2577
g56
(g57
g58
NtRp2578
(dp2579
g61
(dp2580
g69
I3
ssg70
g2574
sg63
(lp2581
S''
asbasbasbag56
(g72
g58
NtRp2582
(dp2583
g61
(dp2584
sg70
g2389
sg63
(lp2585
g56
(g77
g58
NtRp2586
(dp2587
g61
(dp2588
g81
g82
ssg70
g2582
sg63
(lp2589
S'REMOTE_ADDR'
p2590
asbag56
(g77
g58
NtRp2591
(dp2592
g61
(dp2593
g88
g89
ssg70
g2582
sg63
(lp2594
S':'
asbag56
(g77
g58
NtRp2595
(dp2596
g61
(dp2597
sg70
g2582
sg63
(lp2598
g56
(g57
g58
NtRp2599
(dp2600
g61
(dp2601
g69
I3
ssg70
g2595
sg63
(lp2602
g215
asbasbasbag56
(g72
g58
NtRp2603
(dp2604
g61
(dp2605
sg70
g2389
sg63
(lp2606
g56
(g77
g58
NtRp2607
(dp2608
g61
(dp2609
g81
g82
ssg70
g2603
sg63
(lp2610
S'REMOTE_PORT'
p2611
asbag56
(g77
g58
NtRp2612
(dp2613
g61
(dp2614
g88
g89
ssg70
g2603
sg63
(lp2615
S':'
asbag56
(g77
g58
NtRp2616
(dp2617
g61
(dp2618
sg70
g2603
sg63
(lp2619
g56
(g57
g58
NtRp2620
(dp2621
g61
(dp2622
g69
I3
ssg70
g2616
sg63
(lp2623
g1267
asbasbasbag56
(g72
g58
NtRp2624
(dp2625
g61
(dp2626
sg70
g2389
sg63
(lp2627
g56
(g77
g58
NtRp2628
(dp2629
g61
(dp2630
g81
g82
ssg70
g2624
sg63
(lp2631
S'REQUEST_METHOD'
p2632
asbag56
(g77
g58
NtRp2633
(dp2634
g61
(dp2635
g88
g89
ssg70
g2624
sg63
(lp2636
S':'
asbag56
(g77
g58
NtRp2637
(dp2638
g61
(dp2639
sg70
g2624
sg63
(lp2640
g56
(g57
g58
NtRp2641
(dp2642
g61
(dp2643
g69
I3
ssg70
g2637
sg63
(lp2644
g1289
asbasbasbag56
(g72
g58
NtRp2645
(dp2646
g61
(dp2647
sg70
g2389
sg63
(lp2648
g56
(g77
g58
NtRp2649
(dp2650
g61
(dp2651
g81
g82
ssg70
g2645
sg63
(lp2652
S'SCRIPT_NAME'
p2653
asbag56
(g77
g58
NtRp2654
(dp2655
g61
(dp2656
g88
g89
ssg70
g2645
sg63
(lp2657
S':'
asbag56
(g77
g58
NtRp2658
(dp2659
g61
(dp2660
sg70
g2645
sg63
(lp2661
g56
(g57
g58
NtRp2662
(dp2663
g61
(dp2664
g69
I3
ssg70
g2658
sg63
(lp2665
S''
asbasbasbag56
(g72
g58
NtRp2666
(dp2667
g61
(dp2668
sg70
g2389
sg63
(lp2669
g56
(g77
g58
NtRp2670
(dp2671
g61
(dp2672
g81
g82
ssg70
g2666
sg63
(lp2673
S'SERVER_NAME'
p2674
asbag56
(g77
g58
NtRp2675
(dp2676
g61
(dp2677
g88
g89
ssg70
g2666
sg63
(lp2678
S':'
asbag56
(g77
g58
NtRp2679
(dp2680
g61
(dp2681
sg70
g2666
sg63
(lp2682
g56
(g57
g58
NtRp2683
(dp2684
g61
(dp2685
g69
I3
ssg70
g2679
sg63
(lp2686
g1332
asbasbasbag56
(g72
g58
NtRp2687
(dp2688
g61
(dp2689
sg70
g2389
sg63
(lp2690
g56
(g77
g58
NtRp2691
(dp2692
g61
(dp2693
g81
g82
ssg70
g2687
sg63
(lp2694
S'SERVER_PORT'
p2695
asbag56
(g77
g58
NtRp2696
(dp2697
g61
(dp2698
g88
g89
ssg70
g2687
sg63
(lp2699
S':'
asbag56
(g77
g58
NtRp2700
(dp2701
g61
(dp2702
sg70
g2687
sg63
(lp2703
g56
(g57
g58
NtRp2704
(dp2705
g61
(dp2706
g69
I3
ssg70
g2700
sg63
(lp2707
g1354
asbasbasbag56
(g72
g58
NtRp2708
(dp2709
g61
(dp2710
sg70
g2389
sg63
(lp2711
g56
(g77
g58
NtRp2712
(dp2713
g61
(dp2714
g81
g82
ssg70
g2708
sg63
(lp2715
S'SERVER_PROTOCOL'
p2716
asbag56
(g77
g58
NtRp2717
(dp2718
g61
(dp2719
g88
g89
ssg70
g2708
sg63
(lp2720
S':'
asbag56
(g77
g58
NtRp2721
(dp2722
g61
(dp2723
sg70
g2708
sg63
(lp2724
g56
(g57
g58
NtRp2725
(dp2726
g61
(dp2727
g69
I3
ssg70
g2721
sg63
(lp2728
g1376
asbasbasbag56
(g72
g58
NtRp2729
(dp2730
g61
(dp2731
sg70
g2389
sg63
(lp2732
g56
(g77
g58
NtRp2733
(dp2734
g61
(dp2735
g81
g82
ssg70
g2729
sg63
(lp2736
S'SERVER_SOFTWARE'
p2737
asbag56
(g77
g58
NtRp2738
(dp2739
g61
(dp2740
g88
g89
ssg70
g2729
sg63
(lp2741
S':'
asbag56
(g77
g58
NtRp2742
(dp2743
g61
(dp2744
sg70
g2729
sg63
(lp2745
g56
(g57
g58
NtRp2746
(dp2747
g61
(dp2748
g69
I3
ssg70
g2742
sg63
(lp2749
g1398
asbasbasbag56
(g72
g58
NtRp2750
(dp2751
g61
(dp2752
sg70
g2389
sg63
(lp2753
g56
(g77
g58
NtRp2754
(dp2755
g61
(dp2756
g81
g82
ssg70
g2750
sg63
(lp2757
S'wsgi.errors'
p2758
asbag56
(g77
g58
NtRp2759
(dp2760
g61
(dp2761
g88
g89
ssg70
g2750
sg63
(lp2762
S':'
asbag56
(g77
g58
NtRp2763
(dp2764
g61
(dp2765
sg70
g2750
sg63
(lp2766
g56
(g57
g58
NtRp2767
(dp2768
g61
(dp2769
g69
I3
ssg70
g2763
sg63
(lp2770
S"<open file '<stderr>', mode 'w' at 0x7f84db3ff270>"
p2771
asbasbasbag56
(g72
g58
NtRp2772
(dp2773
g61
(dp2774
sg70
g2389
sg63
(lp2775
g56
(g77
g58
NtRp2776
(dp2777
g61
(dp2778
g81
g82
ssg70
g2772
sg63
(lp2779
S'wsgi.file_wrapper'
p2780
asbag56
(g77
g58
NtRp2781
(dp2782
g61
(dp2783
g88
g89
ssg70
g2772
sg63
(lp2784
S':'
asbag56
(g77
g58
NtRp2785
(dp2786
g61
(dp2787
sg70
g2772
sg63
(lp2788
g56
(g57
g58
NtRp2789
(dp2790
g61
(dp2791
g69
I3
ssg70
g2785
sg63
(lp2792
S'<class wsgiref.util.FileWrapper at 0x1b96d50>'
p2793
asbasbasbag56
(g72
g58
NtRp2794
(dp2795
g61
(dp2796
sg70
g2389
sg63
(lp2797
g56
(g77
g58
NtRp2798
(dp2799
g61
(dp2800
g81
g82
ssg70
g2794
sg63
(lp2801
S'wsgi.input'
p2802
asbag56
(g77
g58
NtRp2803
(dp2804
g61
(dp2805
g88
g89
ssg70
g2794
sg63
(lp2806
S':'
asbag56
(g77
g58
NtRp2807
(dp2808
g61
(dp2809
sg70
g2794
sg63
(lp2810
g56
(g57
g58
NtRp2811
(dp2812
g61
(dp2813
g69
I3
ssg70
g2807
sg63
(lp2814
S'<cStringIO.StringO object at 0x281fa08>'
p2815
asbasbasbag56
(g72
g58
NtRp2816
(dp2817
g61
(dp2818
sg70
g2389
sg63
(lp2819
g56
(g77
g58
NtRp2820
(dp2821
g61
(dp2822
g81
g82
ssg70
g2816
sg63
(lp2823
S'wsgi.multiprocess'
p2824
asbag56
(g77
g58
NtRp2825
(dp2826
g61
(dp2827
g88
g89
ssg70
g2816
sg63
(lp2828
S':'
asbag56
(g77
g58
NtRp2829
(dp2830
g61
(dp2831
sg70
g2816
sg63
(lp2832
g56
(g57
g58
NtRp2833
(dp2834
g61
(dp2835
g69
I3
ssg70
g2829
sg63
(lp2836
g99
asbasbasbag56
(g72
g58
NtRp2837
(dp2838
g61
(dp2839
sg70
g2389
sg63
(lp2840
g56
(g77
g58
NtRp2841
(dp2842
g61
(dp2843
g81
g82
ssg70
g2837
sg63
(lp2844
S'wsgi.multithread'
p2845
asbag56
(g77
g58
NtRp2846
(dp2847
g61
(dp2848
g88
g89
ssg70
g2837
sg63
(lp2849
S':'
asbag56
(g77
g58
NtRp2850
(dp2851
g61
(dp2852
sg70
g2837
sg63
(lp2853
g56
(g57
g58
NtRp2854
(dp2855
g61
(dp2856
g69
I3
ssg70
g2850
sg63
(lp2857
g1638
asbasbasbag56
(g72
g58
NtRp2858
(dp2859
g61
(dp2860
sg70
g2389
sg63
(lp2861
g56
(g77
g58
NtRp2862
(dp2863
g61
(dp2864
g81
g82
ssg70
g2858
sg63
(lp2865
S'wsgi.run_once'
p2866
asbag56
(g77
g58
NtRp2867
(dp2868
g61
(dp2869
g88
g89
ssg70
g2858
sg63
(lp2870
S':'
asbag56
(g77
g58
NtRp2871
(dp2872
g61
(dp2873
sg70
g2858
sg63
(lp2874
g56
(g57
g58
NtRp2875
(dp2876
g61
(dp2877
g69
I3
ssg70
g2871
sg63
(lp2878
g99
asbasbasbag56
(g72
g58
NtRp2879
(dp2880
g61
(dp2881
sg70
g2389
sg63
(lp2882
g56
(g77
g58
NtRp2883
(dp2884
g61
(dp2885
g81
g82
ssg70
g2879
sg63
(lp2886
S'wsgi.url_scheme'
p2887
asbag56
(g77
g58
NtRp2888
(dp2889
g61
(dp2890
g88
g89
ssg70
g2879
sg63
(lp2891
S':'
asbag56
(g77
g58
NtRp2892
(dp2893
g61
(dp2894
sg70
g2879
sg63
(lp2895
g56
(g57
g58
NtRp2896
(dp2897
g61
(dp2898
g69
I3
ssg70
g2892
sg63
(lp2899
g1681
asbasbasbag56
(g72
g58
NtRp2900
(dp2901
g61
(dp2902
sg70
g2389
sg63
(lp2903
g56
(g77
g58
NtRp2904
(dp2905
g61
(dp2906
g81
g82
ssg70
g2900
sg63
(lp2907
S'wsgi.version'
p2908
asbag56
(g77
g58
NtRp2909
(dp2910
g61
(dp2911
g88
g89
ssg70
g2900
sg63
(lp2912
S':'
asbag56
(g77
g58
NtRp2913
(dp2914
g61
(dp2915
sg70
g2900
sg63
(lp2916
g56
(g57
g58
NtRp2917
(dp2918
g61
(dp2919
g69
I3
ssg70
g2913
sg63
(lp2920
S'1'
asbasbasbasbasbasbasbasbasbasbasbasbasbsS'frames'
p2921
(lp2922
(dp2923
S'file'
p2924
S'/home/jose/DESARROLLO/web2py199/gluon/restricted.py'
p2925
sS'dump'
p2926
(dp2927
S'environment'
p2928
S"{'A': <class 'gluon.html.A'>, 'Auth': <class 'gluon.tools.Auth'>, 'B': <class 'gluon.html.B'>, 'BEAUTIFY': <class 'gluon.html.BEAUTIFY'>, 'BODY': <class 'gluon.html.BODY'>, 'BR': <class 'gluon.html.BR'>, 'BUTTON': <class 'gluon.html.BUTTON'>, 'CAT': <class 'gluon.html.CAT'>, 'CENTER': <class 'gluon.html.CENTER'>, 'CLEANUP': <class 'gluon.validators.CLEANUP'>, ...}"
p2929
sS'ccode'
p2930
S'<code object <module> at 0x36a8c30, file "/home/...tions/streamlog/controllers/default.py", line 14>'
p2931
ssS'lnum'
p2932
I194
sS'lines'
p2933
(dp2934
I192
S'        else:'
p2935
sI193
S'            ccode = compile2(code,layer)'
p2936
sI194
S'        exec ccode in environment'
p2937
sI195
S'    except HTTP:'
p2938
sI196
S'        raise'
p2939
sI197
S'    except Exception, error:'
p2940
sI198
S'        # XXX Show exception in Wing IDE if running in debugger'
p2941
sI189
S'    try:'
p2942
sI190
S'        if type(code) == types.CodeType:'
p2943
sI191
S'            ccode = code'
p2944
ssS'call'
p2945
S"(code='# -*- coding: utf-8 -*-\\n# this file is released ...m=crud())\\n\\nresponse._vars=response._caller(call)\\n', environment={'A': <class 'gluon.html.A'>, 'Auth': <class 'gluon.tools.Auth'>, 'B': <class 'gluon.html.B'>, 'BEAUTIFY': <class 'gluon.html.BEAUTIFY'>, 'BODY': <class 'gluon.html.BODY'>, 'BR': <class 'gluon.html.BR'>, 'BUTTON': <class 'gluon.html.BUTTON'>, 'CAT': <class 'gluon.html.CAT'>, 'CENTER': <class 'gluon.html.CENTER'>, 'CLEANUP': <class 'gluon.validators.CLEANUP'>, ...}, layer='/home/jose/DESARROLLO/web2py199/applications/streamlog/controllers/default.py')"
p2946
sS'func'
p2947
S'restricted'
p2948
sa(dp2949
g2924
S'/home/jose/DESARROLLO/web2py199/applications/streamlog/controllers/default.py'
p2950
sg2926
(dp2951
sg2932
I176
sg2933
(dp2952
I165
S'    http://..../[app]/default/data/update/[table]/[id]'
p2953
sI166
S'    http://..../[app]/default/data/delete/[table]/[id]'
p2954
sI167
S'    http://..../[app]/default/data/select/[table]'
p2955
sI168
S'    http://..../[app]/default/data/search/[table]'
p2956
sI169
S'    but URLs bust be signed, i.e. linked with'
p2957
sI170
S"      A('table',_href=URL('data/tables',user_signature=True))"
p2958
sI171
S'    or with the signed load operator'
p2959
sI172
S"      LOAD('default','data.load',args='tables',ajax=True,user_signature=True)"
p2960
sI173
S'    """'
p2961
sI174
S'    return dict(form=crud())'
p2962
ssg2945
S'()'
p2963
sg2947
S'<module>'
p2964
sa(dp2965
g2924
S'/home/jose/DESARROLLO/web2py199/gluon/globals.py'
p2966
sg2926
(dp2967
S'self'
p2968
S'undefined'
p2969
sS'f'
S'<function call>'
p2970
ssg2932
I149
sg2933
(dp2971
I144
S'        self.meta = Storage()      # used by web2py_ajax.html'
p2972
sI145
S'        self.menu = []             # used by the default view layout'
p2973
sI146
S'        self.files = []            # used by web2py_ajax.html'
p2974
sI147
S'        self.generic_patterns = [] # patterns to allow generic views'
p2975
sI148
S'        self._vars = None'
p2976
sI149
S'        self._caller = lambda f: f()'
p2977
sI150
S'        self._view_environment = None'
p2978
sI151
S'        self._custom_commit = None'
p2979
sI152
S'        self._custom_rollback = None'
p2980
sI153
S''
ssg2945
S'(f=<function call>)'
p2981
sg2947
S'<lambda>'
p2982
sa(dp2983
g2924
S'/home/jose/DESARROLLO/web2py199/applications/streamlog/controllers/default.py'
p2984
sg2926
(dp2985
S'global service'
p2986
S'<gluon.tools.Service object>'
p2987
ssg2932
I156
sg2933
(dp2988
I160
S'def data():'
p2989
sI151
S'    exposes services. for example:'
p2990
sI152
S'    http://..../[app]/default/call/jsonrpc'
p2991
sI153
S'    decorate with @services.jsonrpc the functions to expose'
p2992
sI154
S'    supports xml, json, xmlrpc, jsonrpc, amfrpc, rss, csv'
p2993
sI155
S'    """'
p2994
sI156
S'    return service()'
p2995
sI157
S''
sI158
S''
sI159
S'@auth.requires_signature()'
p2996
ssg2945
S'()'
p2997
sg2947
g2945
sa(dp2998
g2924
S'/home/jose/DESARROLLO/web2py199/gluon/tools.py'
p2999
sg2926
(dp3000
S'request.args'
p3001
S"['json', 'getConnectionData']"
p3002
sS'self.serve_json'
p3003
S'<bound method Service.serve_json of <gluon.tools.Service object>>'
p3004
sS'self'
p3005
S'<gluon.tools.Service object>'
p3006
sS'request'
p3007
S"<Storage {'body': <cStringIO.StringO object at 0..._vars': <Storage {}>, 'post_vars': <Storage {}>}>"
p3008
ssg2932
I3839
sg2933
(dp3009
I3840
S"        elif arg0 == 'jsonrpc':"
p3010
sI3841
S'            return self.serve_jsonrpc()'
p3011
sI3842
S"        elif arg0 == 'xmlrpc':"
p3012
sI3843
S'            return self.serve_xmlrpc()'
p3013
sI3834
S"        elif arg0 == 'csv':"
p3014
sI3835
S'            return self.serve_csv(request.args[1:])'
p3015
sI3836
S"        elif arg0 == 'xml':"
p3016
sI3837
S'            return self.serve_xml(request.args[1:])'
p3017
sI3838
S"        elif arg0 == 'json':"
p3018
sI3839
S'            return self.serve_json(request.args[1:])'
p3019
ssg2945
S'(self=<gluon.tools.Service object>)'
p3020
sg2947
S'__call__'
p3021
sa(dp3022
g2924
S'/home/jose/DESARROLLO/web2py199/gluon/tools.py'
p3023
sg2926
(dp3024
S'args'
p3025
S"['getConnectionData']"
p3026
sS'd'
g44
sS'self'
p3027
S'<gluon.tools.Service object>'
p3028
sS'global universal_caller'
p3029
S'<function universal_caller>'
p3030
sS'self.json_procedures'
p3031
S"{'getConnectionData': <function getConnectionData>}"
p3032
sS's'
g2969
ssg2932
I3656
sg2933
(dp3033
I3651
S"        response.headers['Content-Type'] = 'application/json; charset=utf-8'"
p3034
sI3652
S'        if not args:'
p3035
sI3653
S'            args = request.args'
p3036
sI3654
S'        d = dict(request.vars)'
p3037
sI3655
S'        if args and args[0] in self.json_procedures:'
p3038
sI3656
S'            s = universal_caller(self.json_procedures[args[0]],*args[1:],**d)'
p3039
sI3657
S"            if hasattr(s, 'as_list'):"
p3040
sI3658
S'                s = s.as_list()'
p3041
sI3659
S'            return response.json(s)'
p3042
sI3660
S'        self.error()'
p3043
ssg2945
S"(self=<gluon.tools.Service object>, args=['getConnectionData'])"
p3044
sg2947
S'serve_json'
p3045
sa(dp3046
g2924
S'/home/jose/DESARROLLO/web2py199/gluon/tools.py'
p3047
sg2926
(dp3048
S'arg_dict'
p3049
g44
sS'f'
S'<function getConnectionData>'
p3050
ssg2932
I3348
sg2933
(dp3051
I3343
S'        # However, we need to update the arg_dict with the values from the named arguments as well.'
p3052
sI3344
S'        for arg_name in named_args:'
p3053
sI3345
S'            if b.has_key(arg_name):'
p3054
sI3346
S'                arg_dict[arg_name] = b[arg_name]'
p3055
sI3347
S''
sI3348
S'        return f(**arg_dict)'
p3056
sI3349
S''
sI3350
S'    # Raise an error, the function cannot be called.'
p3057
sI3351
S'    raise HTTP(404, "Object does not exist")'
p3058
sI3352
S''
ssg2945
S'(f=<function getConnectionData>, *a=(), **b={})'
p3059
sg2947
S'universal_caller'
p3060
sa(dp3061
g2924
S'/home/jose/DESARROLLO/web2py199/applications/streamlog/controllers/default.py'
p3062
sg2926
(dp3063
S'db.t_server.port'
p3064
S'<gluon.dal.Field object>'
p3065
sS'db.t_log.name'
p3066
S'<gluon.dal.Field object>'
p3067
sS'data_connection'
p3068
g2969
sS'db.t_server.id'
p3069
S'<gluon.dal.Field object>'
p3070
sS').select'
p3071
g2969
sS'db.t_log.server'
p3072
S'<gluon.dal.Field object>'
p3073
sS'id_log'
p3074
S"'json'"
p3075
sS'db.t_log'
p3076
S"<Table {'ALL': <gluon.dal.SQLALL object at 0x227...ription': <gluon.dal.Field object at 0x227e7d0>}>"
p3077
sS'global db'
p3078
S"<DAL {'auth_event': <Table {'origin': <gluon.dal..., 'id': <gluon.dal.Field object at 0x227fb90>}>}>"
p3079
sS'db.t_server.IP'
p3080
S'<gluon.dal.Field object>'
p3081
sS'db.t_log.id'
p3082
S'<gluon.dal.Field object>'
p3083
sS'db.t_server'
p3084
S"<Table {'project': <gluon.dal.Field object at 0x...ription': <gluon.dal.Field object at 0x2253f90>}>"
p3085
ssg2932
I31
sg2933
(dp3086
I32
S''
sI33
S'    for row in data_connection:'
p3087
sI34
S'        ip=row.IP'
p3088
sI35
S'        port=row.port'
p3089
sI26
S'    id_log=request.args[0]'
p3090
sI27
S"    ip=''"
p3091
sI28
S"    port=''"
p3092
sI29
S"    name_log=''"
p3093
sI30
S''
sI31
S'    data_connection=db((db.t_log.id==id_log)&(db.t_log.server==db.t_server.id)).select(db.t_log.name,db.t_server.IP,db.t_server.port)'
p3094
ssg2945
S'()'
p3095
sg2947
S'getConnectionData'
p3096
sa(dp3097
g2924
S'/home/jose/DESARROLLO/web2py199/gluon/dal.py'
p3098
sg2926
(dp3099
S'self.query'
p3100
S'<gluon.dal.Query object>'
p3101
sS'fields'
p3102
S'(<gluon.dal.Field object>, <gluon.dal.Field object>, <gluon.dal.Field object>)'
p3103
sS'self'
p3104
S'<gluon.dal.Set object>'
p3105
sS'self.db._adapter.select'
p3106
S'<bound method SQLiteAdapter.select of <gluon.dal.SQLiteAdapter object>>'
p3107
sS'self.db._adapter'
p3108
S'<gluon.dal.SQLiteAdapter object>'
p3109
sS'attributes'
p3110
g44
sS'self.db'
p3111
S"<DAL {'auth_event': <Table {'origin': <gluon.dal..., 'id': <gluon.dal.Field object at 0x227fb90>}>}>"
p3112
ssg2932
I5697
sg2933
(dp3113
I5696
S'    def select(self, *fields, **attributes):'
p3114
sI5697
S'        return self.db._adapter.select(self.query,fields,attributes)'
p3115
sI5698
S''
sI5699
S'    def delete(self):'
p3116
sI5700
S'        tablename=self.db._adapter.get_table(self.query)'
p3117
sI5701
S'        self.delete_uploaded_files()'
p3118
sI5692
S''
sI5693
S'    def count(self,distinct=None):'
p3119
sI5694
S'        return self.db._adapter.count(self.query,distinct)'
p3120
sI5695
S''
ssg2945
S'(self=<gluon.dal.Set object>, *fields=(<gluon.dal.Field object>, <gluon.dal.Field object>, <gluon.dal.Field object>), **attributes={})'
p3121
sg2947
S'select'
p3122
sa(dp3123
g2924
S'/home/jose/DESARROLLO/web2py199/gluon/dal.py'
p3124
sg2926
(dp3125
S'self._select'
p3126
S'<bound method SQLiteAdapter._select of <gluon.dal.SQLiteAdapter object>>'
p3127
sS'fields'
p3128
S'(<gluon.dal.Field object>, <gluon.dal.Field object>, <gluon.dal.Field object>)'
p3129
sS'self'
p3130
S'<gluon.dal.SQLiteAdapter object>'
p3131
sS'sql'
p3132
g2969
sS'query'
p3133
S'<gluon.dal.Query object>'
p3134
sS'attributes'
p3135
g44
ssg2932
I1225
sg2933
(dp3136
I1220
S'        Always returns a Rows object, even if it may be empty'
p3137
sI1221
S'        """'
p3138
sI1222
S'        def response(sql):'
p3139
sI1223
S'            self.execute(sql)'
p3140
sI1224
S'            return self.cursor.fetchall()'
p3141
sI1225
S'        sql = self._select(query,fields,attributes)'
p3142
sI1226
S"        if attributes.get('cache', None):"
p3143
sI1227
S"            (cache_model, time_expire) = attributes['cache']"
p3144
sI1228
S"            del attributes['cache']"
p3145
sI1229
S"            key = self.uri + '/' + sql"
p3146
ssg2945
S'(self=<gluon.dal.SQLiteAdapter object>, query=<gluon.dal.Query object>, fields=(<gluon.dal.Field object>, <gluon.dal.Field object>, <gluon.dal.Field object>), attributes={})'
p3147
sg2947
g3122
sa(dp3148
g2924
S'/home/jose/DESARROLLO/web2py199/gluon/dal.py'
p3149
sg2926
(dp3150
S'query'
p3151
S'<gluon.dal.Query object>'
p3152
sS'self'
p3153
S'<gluon.dal.SQLiteAdapter object>'
p3154
sS'sql_w'
p3155
g2969
sS'self.expand'
p3156
S'<bound method SQLiteAdapter.expand of <gluon.dal.SQLiteAdapter object>>'
p3157
ssg2932
I1132
sg2933
(dp3158
I1127
S'        if len(tablenames) < 1:'
p3159
sI1128
S"            raise SyntaxError, 'Set: no tables selected'"
p3160
sI1129
S"        sql_f = ', '.join(map(self.expand,fields))"
p3161
sI1130
S"        self._colnames = [c.strip() for c in sql_f.split(', ')]"
p3162
sI1131
S'        if query:'
p3163
sI1132
S"            sql_w = ' WHERE ' + self.expand(query)"
p3164
sI1133
S'        else:'
p3165
sI1134
S"            sql_w = ''"
p3166
sI1135
S"        sql_o = ''"
p3167
sI1136
S"        sql_s = ''"
p3168
ssg2945
S'(self=<gluon.dal.SQLiteAdapter object>, query=<gluon.dal.Query object>, fields=[<gluon.dal.Field object>, <gluon.dal.Field object>, <gluon.dal.Field object>], attributes={})'
p3169
sg2947
S'_select'
p3170
sa(dp3171
g2924
S'/home/jose/DESARROLLO/web2py199/gluon/dal.py'
p3172
sg2926
(dp3173
S'expression.op'
p3174
S'<bound method SQLiteAdapter.AND of <gluon.dal.SQLiteAdapter object>>'
p3175
sS'expression'
p3176
S'<gluon.dal.Query object>'
p3177
sS'expression.first'
p3178
S'<gluon.dal.Query object>'
p3179
sS'expression.second'
p3180
S'<gluon.dal.Query object>'
p3181
ssg2932
I987
sg2933
(dp3182
I982
S'    def expand(self,expression,field_type=None):'
p3183
sI983
S'        if isinstance(expression,Field):'
p3184
sI984
S'            return str(expression)'
p3185
sI985
S'        elif isinstance(expression, (Expression, Query)):'
p3186
sI986
S'            if not expression.second is None:'
p3187
sI987
S'                return expression.op(expression.first, expression.second)'
p3188
sI988
S'            elif not expression.first is None:'
p3189
sI989
S'                return expression.op(expression.first)'
p3190
sI990
S'            elif not isinstance(expression.op,str):'
p3191
sI991
S'                return expression.op()'
p3192
ssg2945
S'(self=<gluon.dal.SQLiteAdapter object>, expression=<gluon.dal.Query object>, field_type=None)'
p3193
sg2947
S'expand'
p3194
sa(dp3195
g2924
S'/home/jose/DESARROLLO/web2py199/gluon/dal.py'
p3196
sg2926
(dp3197
S'self'
p3198
S'<gluon.dal.SQLiteAdapter object>'
p3199
sS'first'
p3200
S'<gluon.dal.Query object>'
p3201
sS'second'
p3202
S'<gluon.dal.Query object>'
p3203
sS'self.expand'
p3204
S'<bound method SQLiteAdapter.expand of <gluon.dal.SQLiteAdapter object>>'
p3205
ssg2932
I904
sg2933
(dp3206
I899
S''
sI900
S'    def NOT(self,first):'
p3207
sI901
S"        return '(NOT %s)' % self.expand(first)"
p3208
sI902
S''
sI903
S'    def AND(self,first,second):'
p3209
sI904
S"        return '(%s AND %s)' % (self.expand(first),self.expand(second))"
p3210
sI905
S''
sI906
S'    def OR(self,first,second):'
p3211
sI907
S"        return '(%s OR %s)' % (self.expand(first),self.expand(second))"
p3212
sI908
S''
ssg2945
S'(self=<gluon.dal.SQLiteAdapter object>, first=<gluon.dal.Query object>, second=<gluon.dal.Query object>)'
p3213
sg2947
S'AND'
p3214
sa(dp3215
g2924
S'/home/jose/DESARROLLO/web2py199/gluon/dal.py'
p3216
sg2926
(dp3217
S'expression.op'
p3218
S'<bound method SQLiteAdapter.EQ of <gluon.dal.SQLiteAdapter object>>'
p3219
sS'expression'
p3220
S'<gluon.dal.Query object>'
p3221
sS'expression.first'
p3222
S'<gluon.dal.Field object>'
p3223
sS'expression.second'
p3224
S"'json'"
p3225
ssg2932
I987
sg2933
(dp3226
I982
S'    def expand(self,expression,field_type=None):'
p3227
sI983
S'        if isinstance(expression,Field):'
p3228
sI984
S'            return str(expression)'
p3229
sI985
S'        elif isinstance(expression, (Expression, Query)):'
p3230
sI986
S'            if not expression.second is None:'
p3231
sI987
S'                return expression.op(expression.first, expression.second)'
p3232
sI988
S'            elif not expression.first is None:'
p3233
sI989
S'                return expression.op(expression.first)'
p3234
sI990
S'            elif not isinstance(expression.op,str):'
p3235
sI991
S'                return expression.op()'
p3236
ssg2945
S'(self=<gluon.dal.SQLiteAdapter object>, expression=<gluon.dal.Query object>, field_type=None)'
p3237
sg2947
g3194
sa(dp3238
g2924
S'/home/jose/DESARROLLO/web2py199/gluon/dal.py'
p3239
sg2926
(dp3240
S'first.type'
p3241
S"'id'"
p3242
sS'self'
p3243
S'<gluon.dal.SQLiteAdapter object>'
p3244
sS'first'
p3245
S'<gluon.dal.Field object>'
p3246
sS'second'
p3247
S"'json'"
p3248
sS'self.expand'
p3249
S'<bound method SQLiteAdapter.expand of <gluon.dal.SQLiteAdapter object>>'
p3250
ssg2932
I936
sg2933
(dp3251
I931
S"        return '(%s LIKE %s)' % (self.expand(first),self.expand(key,'string'))"
p3252
sI932
S''
sI933
S'    def EQ(self,first,second=None):'
p3253
sI934
S'        if second is None:'
p3254
sI935
S"            return '(%s IS NULL)' % self.expand(first)"
p3255
sI936
S"        return '(%s = %s)' % (self.expand(first),self.expand(second,first.type))"
p3256
sI937
S''
sI938
S'    def NE(self,first,second=None):'
p3257
sI939
S'        if second is None:'
p3258
sI940
S"            return '(%s IS NOT NULL)' % self.expand(first)"
p3259
ssg2945
S"(self=<gluon.dal.SQLiteAdapter object>, first=<gluon.dal.Field object>, second='json')"
p3260
sg2947
S'EQ'
p3261
sa(dp3262
g2924
S'/home/jose/DESARROLLO/web2py199/gluon/dal.py'
p3263
sg2926
(dp3264
S'field_type'
p3265
S"'id'"
p3266
sS'self'
p3267
S'<gluon.dal.SQLiteAdapter object>'
p3268
sS'expression'
p3269
S"'json'"
p3270
sS'self.represent'
p3271
S'<bound method SQLiteAdapter.represent of <gluon.dal.SQLiteAdapter object>>'
p3272
ssg2932
I995
sg2933
(dp3273
I992
S'            else:'
p3274
sI993
S"                return '(%s)' % expression.op"
p3275
sI994
S'        elif field_type:'
p3276
sI995
S'            return self.represent(expression,field_type)'
p3277
sI996
S'        elif isinstance(expression,(list,tuple)):'
p3278
sI997
S"            return ','.join([self.represent(item,field_type) for item in expression])"
p3279
sI998
S'        else:'
p3280
sI999
S'            return str(expression)'
p3281
sI990
S'            elif not isinstance(expression.op,str):'
p3282
sI991
S'                return expression.op()'
p3283
ssg2945
S"(self=<gluon.dal.SQLiteAdapter object>, expression='json', field_type='id')"
p3284
sg2947
g3194
sa(dp3285
g2924
S'/home/jose/DESARROLLO/web2py199/gluon/dal.py'
p3286
sg2926
(dp3287
S'builtinstr'
p3288
S"<type 'str'>"
p3289
sS'builtinint'
p3290
S"<type 'int'>"
p3291
sS'obj'
p3292
S"'json'"
p3293
ssg2932
I1338
sg2933
(dp3294
I1333
S"            if obj and not str(obj)[:1].upper() in ['F', '0']:"
p3295
sI1334
S'                return "\'T\'"'
p3296
sI1335
S'            else:'
p3297
sI1336
S'                return "\'F\'"'
p3298
sI1337
S"        if fieldtype == 'id' or fieldtype == 'integer':"
p3299
sI1338
S'            return str(int(obj))'
p3300
sI1339
S"        if fieldtype.startswith('decimal'):"
p3301
sI1340
S'            return str(obj)'
p3302
sI1341
S"        elif fieldtype.startswith('reference'): # reference"
p3303
sI1342
S"            if fieldtype.find('.')>0:"
p3304
ssg2945
S"(self=<gluon.dal.SQLiteAdapter object>, obj='json', fieldtype='id')"
p3305
sg2947
S'represent'
p3306
sasS'pyver'
p3307
S'Python 2.7.2+: /usr/bin/python'
p3308
sS'session'
p3309
g56
(g57
g58
NtRp3310
(dp3311
g61
(dp3312
sg63
(lp3313
g56
(g65
g58
NtRp3314
(dp3315
g61
(dp3316
g69
I5
ssg70
Nsg63
(lp3317
g56
(g72
g58
NtRp3318
(dp3319
g61
(dp3320
sg70
g3314
sg63
(lp3321
g56
(g77
g58
NtRp3322
(dp3323
g61
(dp3324
g81
g82
ssg70
g3318
sg63
(lp3325
S'auth'
p3326
asbag56
(g77
g58
NtRp3327
(dp3328
g61
(dp3329
g88
g89
ssg70
g3318
sg63
(lp3330
S':'
asbag56
(g77
g58
NtRp3331
(dp3332
g61
(dp3333
sg70
g3318
sg63
(lp3334
g56
(g57
g58
NtRp3335
(dp3336
g61
(dp3337
g69
I5
ssg70
g3331
sg63
(lp3338
g56
(g65
g58
NtRp3339
(dp3340
g61
(dp3341
g69
I4
ssg70
Nsg63
(lp3342
g56
(g72
g58
NtRp3343
(dp3344
g61
(dp3345
sg70
g3339
sg63
(lp3346
g56
(g77
g58
NtRp3347
(dp3348
g61
(dp3349
g81
g82
ssg70
g3343
sg63
(lp3350
S'expiration'
p3351
asbag56
(g77
g58
NtRp3352
(dp3353
g61
(dp3354
g88
g89
ssg70
g3343
sg63
(lp3355
S':'
asbag56
(g77
g58
NtRp3356
(dp3357
g61
(dp3358
sg70
g3343
sg63
(lp3359
g56
(g57
g58
NtRp3360
(dp3361
g61
(dp3362
g69
I4
ssg70
g3356
sg63
(lp3363
S'2592000'
p3364
asbasbasbag56
(g72
g58
NtRp3365
(dp3366
g61
(dp3367
sg70
g3339
sg63
(lp3368
g56
(g77
g58
NtRp3369
(dp3370
g61
(dp3371
g81
g82
ssg70
g3365
sg63
(lp3372
S'hmac_key'
p3373
asbag56
(g77
g58
NtRp3374
(dp3375
g61
(dp3376
g88
g89
ssg70
g3365
sg63
(lp3377
S':'
asbag56
(g77
g58
NtRp3378
(dp3379
g61
(dp3380
sg70
g3365
sg63
(lp3381
g56
(g57
g58
NtRp3382
(dp3383
g61
(dp3384
g69
I4
ssg70
g3378
sg63
(lp3385
S'b954f0e8-95b3-42d2-829e-2e50e94d8454'
p3386
asbasbasbag56
(g72
g58
NtRp3387
(dp3388
g61
(dp3389
sg70
g3339
sg63
(lp3390
g56
(g77
g58
NtRp3391
(dp3392
g61
(dp3393
g81
g82
ssg70
g3387
sg63
(lp3394
S'last_visit'
p3395
asbag56
(g77
g58
NtRp3396
(dp3397
g61
(dp3398
g88
g89
ssg70
g3387
sg63
(lp3399
S':'
asbag56
(g77
g58
NtRp3400
(dp3401
g61
(dp3402
sg70
g3387
sg63
(lp3403
g56
(g57
g58
NtRp3404
(dp3405
g61
(dp3406
g69
I4
ssg70
g3400
sg63
(lp3407
S'datetime.datetime(2012, 5, 26, 18, 42, 33, 844375)'
p3408
asbasbasbag56
(g72
g58
NtRp3409
(dp3410
g61
(dp3411
sg70
g3339
sg63
(lp3412
g56
(g77
g58
NtRp3413
(dp3414
g61
(dp3415
g81
g82
ssg70
g3409
sg63
(lp3416
S'remember'
p3417
asbag56
(g77
g58
NtRp3418
(dp3419
g61
(dp3420
g88
g89
ssg70
g3409
sg63
(lp3421
S':'
asbag56
(g77
g58
NtRp3422
(dp3423
g61
(dp3424
sg70
g3409
sg63
(lp3425
g56
(g57
g58
NtRp3426
(dp3427
g61
(dp3428
g69
I4
ssg70
g3422
sg63
(lp3429
g99
asbasbasbag56
(g72
g58
NtRp3430
(dp3431
g61
(dp3432
sg70
g3339
sg63
(lp3433
g56
(g77
g58
NtRp3434
(dp3435
g61
(dp3436
g81
g82
ssg70
g3430
sg63
(lp3437
S'user'
p3438
asbag56
(g77
g58
NtRp3439
(dp3440
g61
(dp3441
g88
g89
ssg70
g3430
sg63
(lp3442
S':'
asbag56
(g77
g58
NtRp3443
(dp3444
g61
(dp3445
sg70
g3430
sg63
(lp3446
g56
(g57
g58
NtRp3447
(dp3448
g61
(dp3449
g69
I4
ssg70
g3443
sg63
(lp3450
g56
(g65
g58
NtRp3451
(dp3452
g61
(dp3453
g69
I3
ssg70
Nsg63
(lp3454
g56
(g72
g58
NtRp3455
(dp3456
g61
(dp3457
sg70
g3451
sg63
(lp3458
g56
(g77
g58
NtRp3459
(dp3460
g61
(dp3461
g81
g82
ssg70
g3455
sg63
(lp3462
S'email'
p3463
asbag56
(g77
g58
NtRp3464
(dp3465
g61
(dp3466
g88
g89
ssg70
g3455
sg63
(lp3467
S':'
asbag56
(g77
g58
NtRp3468
(dp3469
g61
(dp3470
sg70
g3455
sg63
(lp3471
g56
(g57
g58
NtRp3472
(dp3473
g61
(dp3474
g69
I3
ssg70
g3468
sg63
(lp3475
S'josedesoto@gmail.com'
p3476
asbasbasbag56
(g72
g58
NtRp3477
(dp3478
g61
(dp3479
sg70
g3451
sg63
(lp3480
g56
(g77
g58
NtRp3481
(dp3482
g61
(dp3483
g81
g82
ssg70
g3477
sg63
(lp3484
S'first_name'
p3485
asbag56
(g77
g58
NtRp3486
(dp3487
g61
(dp3488
g88
g89
ssg70
g3477
sg63
(lp3489
S':'
asbag56
(g77
g58
NtRp3490
(dp3491
g61
(dp3492
sg70
g3477
sg63
(lp3493
g56
(g57
g58
NtRp3494
(dp3495
g61
(dp3496
g69
I3
ssg70
g3490
sg63
(lp3497
S'jose'
p3498
asbasbasbag56
(g72
g58
NtRp3499
(dp3500
g61
(dp3501
sg70
g3451
sg63
(lp3502
g56
(g77
g58
NtRp3503
(dp3504
g61
(dp3505
g81
g82
ssg70
g3499
sg63
(lp3506
S'id'
p3507
asbag56
(g77
g58
NtRp3508
(dp3509
g61
(dp3510
g88
g89
ssg70
g3499
sg63
(lp3511
S':'
asbag56
(g77
g58
NtRp3512
(dp3513
g61
(dp3514
sg70
g3499
sg63
(lp3515
g56
(g57
g58
NtRp3516
(dp3517
g61
(dp3518
g69
I3
ssg70
g3512
sg63
(lp3519
S'1'
asbasbasbag56
(g72
g58
NtRp3520
(dp3521
g61
(dp3522
sg70
g3451
sg63
(lp3523
g56
(g77
g58
NtRp3524
(dp3525
g61
(dp3526
g81
g82
ssg70
g3520
sg63
(lp3527
S'last_name'
p3528
asbag56
(g77
g58
NtRp3529
(dp3530
g61
(dp3531
g88
g89
ssg70
g3520
sg63
(lp3532
S':'
asbag56
(g77
g58
NtRp3533
(dp3534
g61
(dp3535
sg70
g3520
sg63
(lp3536
g56
(g57
g58
NtRp3537
(dp3538
g61
(dp3539
g69
I3
ssg70
g3533
sg63
(lp3540
S'jose'
p3541
asbasbasbag56
(g72
g58
NtRp3542
(dp3543
g61
(dp3544
sg70
g3451
sg63
(lp3545
g56
(g77
g58
NtRp3546
(dp3547
g61
(dp3548
g81
g82
ssg70
g3542
sg63
(lp3549
S'password'
p3550
asbag56
(g77
g58
NtRp3551
(dp3552
g61
(dp3553
g88
g89
ssg70
g3542
sg63
(lp3554
S':'
asbag56
(g77
g58
NtRp3555
(dp3556
g61
(dp3557
sg70
g3542
sg63
(lp3558
g56
(g57
g58
NtRp3559
(dp3560
g61
(dp3561
g69
I3
ssg70
g3555
sg63
(lp3562
S'2b32eaa2baa0c63b755a4cde1e4dda83'
p3563
asbasbasbag56
(g72
g58
NtRp3564
(dp3565
g61
(dp3566
sg70
g3451
sg63
(lp3567
g56
(g77
g58
NtRp3568
(dp3569
g61
(dp3570
g81
g82
ssg70
g3564
sg63
(lp3571
S'registration_key'
p3572
asbag56
(g77
g58
NtRp3573
(dp3574
g61
(dp3575
g88
g89
ssg70
g3564
sg63
(lp3576
S':'
asbag56
(g77
g58
NtRp3577
(dp3578
g61
(dp3579
sg70
g3564
sg63
(lp3580
g56
(g57
g58
NtRp3581
(dp3582
g61
(dp3583
g69
I3
ssg70
g3577
sg63
(lp3584
S''
asbasbasbag56
(g72
g58
NtRp3585
(dp3586
g61
(dp3587
sg70
g3451
sg63
(lp3588
g56
(g77
g58
NtRp3589
(dp3590
g61
(dp3591
g81
g82
ssg70
g3585
sg63
(lp3592
S'reset_password_key'
p3593
asbag56
(g77
g58
NtRp3594
(dp3595
g61
(dp3596
g88
g89
ssg70
g3585
sg63
(lp3597
S':'
asbag56
(g77
g58
NtRp3598
(dp3599
g61
(dp3600
sg70
g3585
sg63
(lp3601
g56
(g57
g58
NtRp3602
(dp3603
g61
(dp3604
g69
I3
ssg70
g3598
sg63
(lp3605
S''
asbasbasbasbasbasbasbasbasbasbasbag56
(g72
g58
NtRp3606
(dp3607
g61
(dp3608
sg70
g3314
sg63
(lp3609
g56
(g77
g58
NtRp3610
(dp3611
g61
(dp3612
g81
g82
ssg70
g3606
sg63
(lp3613
S'last_query'
p3614
asbag56
(g77
g58
NtRp3615
(dp3616
g61
(dp3617
g88
g89
ssg70
g3606
sg63
(lp3618
S':'
asbag56
(g77
g58
NtRp3619
(dp3620
g61
(dp3621
sg70
g3606
sg63
(lp3622
g56
(g57
g58
NtRp3623
(dp3624
g61
(dp3625
g69
I5
ssg70
g3619
sg63
(lp3626
S'((db.t_project.user==me)&(db.t_server.project==db.t_project.id)&(db.t_log.server==db.t_server.id))'
p3627
asbasbasbasbasbsS'etype'
p3628
S"<type 'exceptions.ValueError'>"
p3629
sS'date'
p3630
S'Sat May 26 21:27:40 2012'
p3631
sS'response'
p3632
g56
(g57
g58
NtRp3633
(dp3634
g61
(dp3635
sg63
(lp3636
g56
(g65
g58
NtRp3637
(dp3638
g61
(dp3639
g69
I5
ssg70
Nsg63
(lp3640
g56
(g72
g58
NtRp3641
(dp3642
g61
(dp3643
sg70
g3637
sg63
(lp3644
g56
(g77
g58
NtRp3645
(dp3646
g61
(dp3647
g81
g82
ssg70
g3641
sg63
(lp3648
g180
asbag56
(g77
g58
NtRp3649
(dp3650
g61
(dp3651
g88
g89
ssg70
g3641
sg63
(lp3652
S':'
asbag56
(g77
g58
NtRp3653
(dp3654
g61
(dp3655
sg70
g3641
sg63
(lp3656
g56
(g57
g58
NtRp3657
(dp3658
g61
(dp3659
g69
I5
ssg70
g3653
sg63
(lp3660
S'<cStringIO.StringO object at 0x3ed74c8>'
p3661
asbasbasbag56
(g72
g58
NtRp3662
(dp3663
g61
(dp3664
sg70
g3637
sg63
(lp3665
g56
(g77
g58
NtRp3666
(dp3667
g61
(dp3668
g81
g82
ssg70
g3662
sg63
(lp3669
g246
asbag56
(g77
g58
NtRp3670
(dp3671
g61
(dp3672
g88
g89
ssg70
g3662
sg63
(lp3673
S':'
asbag56
(g77
g58
NtRp3674
(dp3675
g61
(dp3676
sg70
g3662
sg63
(lp3677
g56
(g57
g58
NtRp3678
(dp3679
g61
(dp3680
g69
I5
ssg70
g3674
sg63
(lp3681
g56
(g65
g58
NtRp3682
(dp3683
g61
(dp3684
g69
I4
ssg70
Nsg63
(lp3685
g56
(g72
g58
NtRp3686
(dp3687
g61
(dp3688
sg70
g3682
sg63
(lp3689
g56
(g77
g58
NtRp3690
(dp3691
g61
(dp3692
g81
g82
ssg70
g3686
sg63
(lp3693
S'session_id_streamlog'
p3694
asbag56
(g77
g58
NtRp3695
(dp3696
g61
(dp3697
g88
g89
ssg70
g3686
sg63
(lp3698
S':'
asbag56
(g77
g58
NtRp3699
(dp3700
g61
(dp3701
sg70
g3686
sg63
(lp3702
g56
(g57
g58
NtRp3703
(dp3704
g61
(dp3705
g69
I4
ssg70
g3699
sg63
(lp3706
g56
(g65
g58
NtRp3707
(dp3708
g61
(dp3709
g69
I3
ssg70
Nsg63
(lp3710
g56
(g72
g58
NtRp3711
(dp3712
g61
(dp3713
sg70
g3707
sg63
(lp3714
g56
(g77
g58
NtRp3715
(dp3716
g61
(dp3717
g81
g82
ssg70
g3711
sg63
(lp3718
g296
asbag56
(g77
g58
NtRp3719
(dp3720
g61
(dp3721
g88
g89
ssg70
g3711
sg63
(lp3722
S':'
asbag56
(g77
g58
NtRp3723
(dp3724
g61
(dp3725
sg70
g3711
sg63
(lp3726
g56
(g57
g58
NtRp3727
(dp3728
g61
(dp3729
g69
I3
ssg70
g3723
sg63
(lp3730
S''
asbasbasbag56
(g72
g58
NtRp3731
(dp3732
g61
(dp3733
sg70
g3707
sg63
(lp3734
g56
(g77
g58
NtRp3735
(dp3736
g61
(dp3737
g81
g82
ssg70
g3731
sg63
(lp3738
g317
asbag56
(g77
g58
NtRp3739
(dp3740
g61
(dp3741
g88
g89
ssg70
g3731
sg63
(lp3742
S':'
asbag56
(g77
g58
NtRp3743
(dp3744
g61
(dp3745
sg70
g3731
sg63
(lp3746
g56
(g57
g58
NtRp3747
(dp3748
g61
(dp3749
g69
I3
ssg70
g3743
sg63
(lp3750
S''
asbasbasbag56
(g72
g58
NtRp3751
(dp3752
g61
(dp3753
sg70
g3707
sg63
(lp3754
g56
(g77
g58
NtRp3755
(dp3756
g61
(dp3757
g81
g82
ssg70
g3751
sg63
(lp3758
g338
asbag56
(g77
g58
NtRp3759
(dp3760
g61
(dp3761
g88
g89
ssg70
g3751
sg63
(lp3762
S':'
asbag56
(g77
g58
NtRp3763
(dp3764
g61
(dp3765
sg70
g3751
sg63
(lp3766
g56
(g57
g58
NtRp3767
(dp3768
g61
(dp3769
g69
I3
ssg70
g3763
sg63
(lp3770
S''
asbasbasbag56
(g72
g58
NtRp3771
(dp3772
g61
(dp3773
sg70
g3707
sg63
(lp3774
g56
(g77
g58
NtRp3775
(dp3776
g61
(dp3777
g81
g82
ssg70
g3771
sg63
(lp3778
g359
asbag56
(g77
g58
NtRp3779
(dp3780
g61
(dp3781
g88
g89
ssg70
g3771
sg63
(lp3782
S':'
asbag56
(g77
g58
NtRp3783
(dp3784
g61
(dp3785
sg70
g3771
sg63
(lp3786
g56
(g57
g58
NtRp3787
(dp3788
g61
(dp3789
g69
I3
ssg70
g3783
sg63
(lp3790
S''
asbasbasbag56
(g72
g58
NtRp3791
(dp3792
g61
(dp3793
sg70
g3707
sg63
(lp3794
g56
(g77
g58
NtRp3795
(dp3796
g61
(dp3797
g81
g82
ssg70
g3791
sg63
(lp3798
g380
asbag56
(g77
g58
NtRp3799
(dp3800
g61
(dp3801
g88
g89
ssg70
g3791
sg63
(lp3802
S':'
asbag56
(g77
g58
NtRp3803
(dp3804
g61
(dp3805
sg70
g3791
sg63
(lp3806
g56
(g57
g58
NtRp3807
(dp3808
g61
(dp3809
g69
I3
ssg70
g3803
sg63
(lp3810
S''
asbasbasbag56
(g72
g58
NtRp3811
(dp3812
g61
(dp3813
sg70
g3707
sg63
(lp3814
g56
(g77
g58
NtRp3815
(dp3816
g61
(dp3817
g81
g82
ssg70
g3811
sg63
(lp3818
g401
asbag56
(g77
g58
NtRp3819
(dp3820
g61
(dp3821
g88
g89
ssg70
g3811
sg63
(lp3822
S':'
asbag56
(g77
g58
NtRp3823
(dp3824
g61
(dp3825
sg70
g3811
sg63
(lp3826
g56
(g57
g58
NtRp3827
(dp3828
g61
(dp3829
g69
I3
ssg70
g3823
sg63
(lp3830
S'/'
asbasbasbag56
(g72
g58
NtRp3831
(dp3832
g61
(dp3833
sg70
g3707
sg63
(lp3834
g56
(g77
g58
NtRp3835
(dp3836
g61
(dp3837
g81
g82
ssg70
g3831
sg63
(lp3838
g422
asbag56
(g77
g58
NtRp3839
(dp3840
g61
(dp3841
g88
g89
ssg70
g3831
sg63
(lp3842
S':'
asbag56
(g77
g58
NtRp3843
(dp3844
g61
(dp3845
sg70
g3831
sg63
(lp3846
g56
(g57
g58
NtRp3847
(dp3848
g61
(dp3849
g69
I3
ssg70
g3843
sg63
(lp3850
S''
asbasbasbag56
(g72
g58
NtRp3851
(dp3852
g61
(dp3853
sg70
g3707
sg63
(lp3854
g56
(g77
g58
NtRp3855
(dp3856
g61
(dp3857
g81
g82
ssg70
g3851
sg63
(lp3858
g443
asbag56
(g77
g58
NtRp3859
(dp3860
g61
(dp3861
g88
g89
ssg70
g3851
sg63
(lp3862
S':'
asbag56
(g77
g58
NtRp3863
(dp3864
g61
(dp3865
sg70
g3851
sg63
(lp3866
g56
(g57
g58
NtRp3867
(dp3868
g61
(dp3869
g69
I3
ssg70
g3863
sg63
(lp3870
S''
asbasbasbasbasbasbasbasbasbasbasbag56
(g72
g58
NtRp3871
(dp3872
g61
(dp3873
sg70
g3637
sg63
(lp3874
g56
(g77
g58
NtRp3875
(dp3876
g61
(dp3877
g81
g82
ssg70
g3871
sg63
(lp3878
S'files'
p3879
asbag56
(g77
g58
NtRp3880
(dp3881
g61
(dp3882
g88
g89
ssg70
g3871
sg63
(lp3883
S':'
asbag56
(g77
g58
NtRp3884
(dp3885
g61
(dp3886
sg70
g3871
sg63
(lp3887
g56
(g57
g58
NtRp3888
(dp3889
g61
(dp3890
g69
I5
ssg70
g3884
sg63
(lp3891
g56
(g65
g58
NtRp3892
(dp3893
g61
(dp3894
g69
I4
ssg70
Nsg63
(lp3895
sbasbasbasbag56
(g72
g58
NtRp3896
(dp3897
g61
(dp3898
sg70
g3637
sg63
(lp3899
g56
(g77
g58
NtRp3900
(dp3901
g61
(dp3902
g81
g82
ssg70
g3896
sg63
(lp3903
S'flash'
p3904
asbag56
(g77
g58
NtRp3905
(dp3906
g61
(dp3907
g88
g89
ssg70
g3896
sg63
(lp3908
S':'
asbag56
(g77
g58
NtRp3909
(dp3910
g61
(dp3911
sg70
g3896
sg63
(lp3912
g56
(g57
g58
NtRp3913
(dp3914
g61
(dp3915
g69
I5
ssg70
g3909
sg63
(lp3916
S''
asbasbasbag56
(g72
g58
NtRp3917
(dp3918
g61
(dp3919
sg70
g3637
sg63
(lp3920
g56
(g77
g58
NtRp3921
(dp3922
g61
(dp3923
g81
g82
ssg70
g3917
sg63
(lp3924
S'generic_patterns'
p3925
asbag56
(g77
g58
NtRp3926
(dp3927
g61
(dp3928
g88
g89
ssg70
g3917
sg63
(lp3929
S':'
asbag56
(g77
g58
NtRp3930
(dp3931
g61
(dp3932
sg70
g3917
sg63
(lp3933
g56
(g57
g58
NtRp3934
(dp3935
g61
(dp3936
g69
I5
ssg70
g3930
sg63
(lp3937
g56
(g65
g58
NtRp3938
(dp3939
g61
(dp3940
g69
I4
ssg70
Nsg63
(lp3941
g56
(g72
g58
NtRp3942
(dp3943
g61
(dp3944
sg70
g3938
sg63
(lp3945
g56
(g77
g58
NtRp3946
(dp3947
g61
(dp3948
sg70
g3942
sg63
(lp3949
g56
(g57
g58
NtRp3950
(dp3951
g61
(dp3952
g69
I4
ssg70
g3946
sg63
(lp3953
S'*'
asbasbasbasbasbasbasbag56
(g72
g58
NtRp3954
(dp3955
g61
(dp3956
sg70
g3637
sg63
(lp3957
g56
(g77
g58
NtRp3958
(dp3959
g61
(dp3960
g81
g82
ssg70
g3954
sg63
(lp3961
S'headers'
p3962
asbag56
(g77
g58
NtRp3963
(dp3964
g61
(dp3965
g88
g89
ssg70
g3954
sg63
(lp3966
S':'
asbag56
(g77
g58
NtRp3967
(dp3968
g61
(dp3969
sg70
g3954
sg63
(lp3970
g56
(g57
g58
NtRp3971
(dp3972
g61
(dp3973
g69
I5
ssg70
g3967
sg63
(lp3974
g56
(g65
g58
NtRp3975
(dp3976
g61
(dp3977
g69
I4
ssg70
Nsg63
(lp3978
g56
(g72
g58
NtRp3979
(dp3980
g61
(dp3981
sg70
g3975
sg63
(lp3982
g56
(g77
g58
NtRp3983
(dp3984
g61
(dp3985
g81
g82
ssg70
g3979
sg63
(lp3986
S'Cache-Control'
p3987
asbag56
(g77
g58
NtRp3988
(dp3989
g61
(dp3990
g88
g89
ssg70
g3979
sg63
(lp3991
S':'
asbag56
(g77
g58
NtRp3992
(dp3993
g61
(dp3994
sg70
g3979
sg63
(lp3995
g56
(g57
g58
NtRp3996
(dp3997
g61
(dp3998
g69
I4
ssg70
g3992
sg63
(lp3999
S'no-store, no-cache, must-revalidate, post-check=0, pre-check=0'
p4000
asbasbasbag56
(g72
g58
NtRp4001
(dp4002
g61
(dp4003
sg70
g3975
sg63
(lp4004
g56
(g77
g58
NtRp4005
(dp4006
g61
(dp4007
g81
g82
ssg70
g4001
sg63
(lp4008
S'Content-Type'
p4009
asbag56
(g77
g58
NtRp4010
(dp4011
g61
(dp4012
g88
g89
ssg70
g4001
sg63
(lp4013
S':'
asbag56
(g77
g58
NtRp4014
(dp4015
g61
(dp4016
sg70
g4001
sg63
(lp4017
g56
(g57
g58
NtRp4018
(dp4019
g61
(dp4020
g69
I4
ssg70
g4014
sg63
(lp4021
S'application/json; charset=utf-8'
p4022
asbasbasbag56
(g72
g58
NtRp4023
(dp4024
g61
(dp4025
sg70
g3975
sg63
(lp4026
g56
(g77
g58
NtRp4027
(dp4028
g61
(dp4029
g81
g82
ssg70
g4023
sg63
(lp4030
S'Expires'
p4031
asbag56
(g77
g58
NtRp4032
(dp4033
g61
(dp4034
g88
g89
ssg70
g4023
sg63
(lp4035
S':'
asbag56
(g77
g58
NtRp4036
(dp4037
g61
(dp4038
sg70
g4023
sg63
(lp4039
g56
(g57
g58
NtRp4040
(dp4041
g61
(dp4042
g69
I4
ssg70
g4036
sg63
(lp4043
S'Sat, 26 May 2012 14:27:40 GMT'
p4044
asbasbasbag56
(g72
g58
NtRp4045
(dp4046
g61
(dp4047
sg70
g3975
sg63
(lp4048
g56
(g77
g58
NtRp4049
(dp4050
g61
(dp4051
g81
g82
ssg70
g4045
sg63
(lp4052
S'Pragma'
p4053
asbag56
(g77
g58
NtRp4054
(dp4055
g61
(dp4056
g88
g89
ssg70
g4045
sg63
(lp4057
S':'
asbag56
(g77
g58
NtRp4058
(dp4059
g61
(dp4060
sg70
g4045
sg63
(lp4061
g56
(g57
g58
NtRp4062
(dp4063
g61
(dp4064
g69
I4
ssg70
g4058
sg63
(lp4065
S'no-cache'
p4066
asbasbasbag56
(g72
g58
NtRp4067
(dp4068
g61
(dp4069
sg70
g3975
sg63
(lp4070
g56
(g77
g58
NtRp4071
(dp4072
g61
(dp4073
g81
g82
ssg70
g4067
sg63
(lp4074
S'X-Powered-By'
p4075
asbag56
(g77
g58
NtRp4076
(dp4077
g61
(dp4078
g88
g89
ssg70
g4067
sg63
(lp4079
S':'
asbag56
(g77
g58
NtRp4080
(dp4081
g61
(dp4082
sg70
g4067
sg63
(lp4083
g56
(g57
g58
NtRp4084
(dp4085
g61
(dp4086
g69
I4
ssg70
g4080
sg63
(lp4087
S'web2py'
p4088
asbasbasbasbasbasbasbag56
(g72
g58
NtRp4089
(dp4090
g61
(dp4091
sg70
g3637
sg63
(lp4092
g56
(g77
g58
NtRp4093
(dp4094
g61
(dp4095
g81
g82
ssg70
g4089
sg63
(lp4096
S'menu'
p4097
asbag56
(g77
g58
NtRp4098
(dp4099
g61
(dp4100
g88
g89
ssg70
g4089
sg63
(lp4101
S':'
asbag56
(g77
g58
NtRp4102
(dp4103
g61
(dp4104
sg70
g4089
sg63
(lp4105
g56
(g57
g58
NtRp4106
(dp4107
g61
(dp4108
g69
I5
ssg70
g4102
sg63
(lp4109
g56
(g65
g58
NtRp4110
(dp4111
g61
(dp4112
g69
I4
ssg70
Nsg63
(lp4113
g56
(g72
g58
NtRp4114
(dp4115
g61
(dp4116
sg70
g4110
sg63
(lp4117
g56
(g77
g58
NtRp4118
(dp4119
g61
(dp4120
sg70
g4114
sg63
(lp4121
g56
(g57
g58
NtRp4122
(dp4123
g61
(dp4124
g69
I4
ssg70
g4118
sg63
(lp4125
g56
(g65
g58
NtRp4126
(dp4127
g61
(dp4128
g69
I3
ssg70
Nsg63
(lp4129
g56
(g72
g58
NtRp4130
(dp4131
g61
(dp4132
sg70
g4126
sg63
(lp4133
g56
(g77
g58
NtRp4134
(dp4135
g61
(dp4136
sg70
g4130
sg63
(lp4137
g56
(g57
g58
NtRp4138
(dp4139
g61
(dp4140
g69
I3
ssg70
g4134
sg63
(lp4141
cgluon.languages
lazyT_unpickle
p4142
(S's\n\x00\x00\x00Clear Page'
tRp4143
asbasbasbag56
(g72
g58
NtRp4144
(dp4145
g61
(dp4146
sg70
g4126
sg63
(lp4147
g56
(g77
g58
NtRp4148
(dp4149
g61
(dp4150
sg70
g4144
sg63
(lp4151
g56
(g57
g58
NtRp4152
(dp4153
g61
(dp4154
g69
I3
ssg70
g4148
sg63
(lp4155
g99
asbasbasbag56
(g72
g58
NtRp4156
(dp4157
g61
(dp4158
sg70
g4126
sg63
(lp4159
g56
(g77
g58
NtRp4160
(dp4161
g61
(dp4162
sg70
g4156
sg63
(lp4163
g56
(g57
g58
NtRp4164
(dp4165
g61
(dp4166
g69
I3
ssg70
g4160
sg63
(lp4167
S'/streamlog/default/index'
p4168
asbasbasbag56
(g72
g58
NtRp4169
(dp4170
g61
(dp4171
sg70
g4126
sg63
(lp4172
g56
(g77
g58
NtRp4173
(dp4174
g61
(dp4175
sg70
g4169
sg63
(lp4176
g56
(g57
g58
NtRp4177
(dp4178
g61
(dp4179
g69
I3
ssg70
g4173
sg63
(lp4180
g56
(g65
g58
NtRp4181
(dp4182
g61
(dp4183
g69
I2
ssg70
Nsg63
(lp4184
sbasbasbasbasbasbasbasbag56
(g72
g58
NtRp4185
(dp4186
g61
(dp4187
sg70
g4110
sg63
(lp4188
g56
(g77
g58
NtRp4189
(dp4190
g61
(dp4191
sg70
g4185
sg63
(lp4192
g56
(g57
g58
NtRp4193
(dp4194
g61
(dp4195
g69
I4
ssg70
g4189
sg63
(lp4196
g56
(g65
g58
NtRp4197
(dp4198
g61
(dp4199
g69
I3
ssg70
Nsg63
(lp4200
g56
(g72
g58
NtRp4201
(dp4202
g61
(dp4203
sg70
g4197
sg63
(lp4204
g56
(g77
g58
NtRp4205
(dp4206
g61
(dp4207
sg70
g4201
sg63
(lp4208
g56
(g57
g58
NtRp4209
(dp4210
g61
(dp4211
g69
I3
ssg70
g4205
sg63
(lp4212
g4142
(S't\x06\x00\x00\x00Manage'
tRp4213
asbasbasbag56
(g72
g58
NtRp4214
(dp4215
g61
(dp4216
sg70
g4197
sg63
(lp4217
g56
(g77
g58
NtRp4218
(dp4219
g61
(dp4220
sg70
g4214
sg63
(lp4221
g56
(g57
g58
NtRp4222
(dp4223
g61
(dp4224
g69
I3
ssg70
g4218
sg63
(lp4225
g99
asbasbasbag56
(g72
g58
NtRp4226
(dp4227
g61
(dp4228
sg70
g4197
sg63
(lp4229
g56
(g77
g58
NtRp4230
(dp4231
g61
(dp4232
sg70
g4226
sg63
(lp4233
g56
(g57
g58
NtRp4234
(dp4235
g61
(dp4236
g69
I3
ssg70
g4230
sg63
(lp4237
S'None'
p4238
asbasbasbag56
(g72
g58
NtRp4239
(dp4240
g61
(dp4241
sg70
g4197
sg63
(lp4242
g56
(g77
g58
NtRp4243
(dp4244
g61
(dp4245
sg70
g4239
sg63
(lp4246
g56
(g57
g58
NtRp4247
(dp4248
g61
(dp4249
g69
I3
ssg70
g4243
sg63
(lp4250
g56
(g65
g58
NtRp4251
(dp4252
g61
(dp4253
g69
I2
ssg70
Nsg63
(lp4254
g56
(g72
g58
NtRp4255
(dp4256
g61
(dp4257
sg70
g4251
sg63
(lp4258
g56
(g77
g58
NtRp4259
(dp4260
g61
(dp4261
sg70
g4255
sg63
(lp4262
g56
(g57
g58
NtRp4263
(dp4264
g61
(dp4265
g69
I2
ssg70
g4259
sg63
(lp4266
g56
(g65
g58
NtRp4267
(dp4268
g61
(dp4269
g69
I1
ssg70
Nsg63
(lp4270
g56
(g72
g58
NtRp4271
(dp4272
g61
(dp4273
sg70
g4267
sg63
(lp4274
g56
(g77
g58
NtRp4275
(dp4276
g61
(dp4277
sg70
g4271
sg63
(lp4278
g56
(g57
g58
NtRp4279
(dp4280
g61
(dp4281
g69
I1
ssg70
g4275
sg63
(lp4282
g4142
(S't\x04\x00\x00\x00Logs'
tRp4283
asbasbasbag56
(g72
g58
NtRp4284
(dp4285
g61
(dp4286
sg70
g4267
sg63
(lp4287
g56
(g77
g58
NtRp4288
(dp4289
g61
(dp4290
sg70
g4284
sg63
(lp4291
g56
(g57
g58
NtRp4292
(dp4293
g61
(dp4294
g69
I1
ssg70
g4288
sg63
(lp4295
I00
asbasbasbag56
(g72
g58
NtRp4296
(dp4297
g61
(dp4298
sg70
g4267
sg63
(lp4299
g56
(g77
g58
NtRp4300
(dp4301
g61
(dp4302
sg70
g4296
sg63
(lp4303
g56
(g57
g58
NtRp4304
(dp4305
g61
(dp4306
g69
I1
ssg70
g4300
sg63
(lp4307
S'/streamlog/default/log_manage'
p4308
asbasbasbag56
(g72
g58
NtRp4309
(dp4310
g61
(dp4311
sg70
g4267
sg63
(lp4312
g56
(g77
g58
NtRp4313
(dp4314
g61
(dp4315
sg70
g4309
sg63
(lp4316
g56
(g57
g58
NtRp4317
(dp4318
g61
(dp4319
g69
I1
ssg70
g4313
sg63
(lp4320
(lp4321
asbasbasbasbasbasbasbag56
(g72
g58
NtRp4322
(dp4323
g61
(dp4324
sg70
g4251
sg63
(lp4325
g56
(g77
g58
NtRp4326
(dp4327
g61
(dp4328
sg70
g4322
sg63
(lp4329
g56
(g57
g58
NtRp4330
(dp4331
g61
(dp4332
g69
I2
ssg70
g4326
sg63
(lp4333
g56
(g65
g58
NtRp4334
(dp4335
g61
(dp4336
g69
I1
ssg70
Nsg63
(lp4337
g56
(g72
g58
NtRp4338
(dp4339
g61
(dp4340
sg70
g4334
sg63
(lp4341
g56
(g77
g58
NtRp4342
(dp4343
g61
(dp4344
sg70
g4338
sg63
(lp4345
g56
(g57
g58
NtRp4346
(dp4347
g61
(dp4348
g69
I1
ssg70
g4342
sg63
(lp4349
g4142
(S't\x07\x00\x00\x00Servers'
tRp4350
asbasbasbag56
(g72
g58
NtRp4351
(dp4352
g61
(dp4353
sg70
g4334
sg63
(lp4354
g56
(g77
g58
NtRp4355
(dp4356
g61
(dp4357
sg70
g4351
sg63
(lp4358
g56
(g57
g58
NtRp4359
(dp4360
g61
(dp4361
g69
I1
ssg70
g4355
sg63
(lp4362
I00
asbasbasbag56
(g72
g58
NtRp4363
(dp4364
g61
(dp4365
sg70
g4334
sg63
(lp4366
g56
(g77
g58
NtRp4367
(dp4368
g61
(dp4369
sg70
g4363
sg63
(lp4370
g56
(g57
g58
NtRp4371
(dp4372
g61
(dp4373
g69
I1
ssg70
g4367
sg63
(lp4374
S'/streamlog/default/server_manage'
p4375
asbasbasbag56
(g72
g58
NtRp4376
(dp4377
g61
(dp4378
sg70
g4334
sg63
(lp4379
g56
(g77
g58
NtRp4380
(dp4381
g61
(dp4382
sg70
g4376
sg63
(lp4383
g56
(g57
g58
NtRp4384
(dp4385
g61
(dp4386
g69
I1
ssg70
g4380
sg63
(lp4387
(lp4388
asbasbasbasbasbasbasbag56
(g72
g58
NtRp4389
(dp4390
g61
(dp4391
sg70
g4251
sg63
(lp4392
g56
(g77
g58
NtRp4393
(dp4394
g61
(dp4395
sg70
g4389
sg63
(lp4396
g56
(g57
g58
NtRp4397
(dp4398
g61
(dp4399
g69
I2
ssg70
g4393
sg63
(lp4400
g56
(g65
g58
NtRp4401
(dp4402
g61
(dp4403
g69
I1
ssg70
Nsg63
(lp4404
g56
(g72
g58
NtRp4405
(dp4406
g61
(dp4407
sg70
g4401
sg63
(lp4408
g56
(g77
g58
NtRp4409
(dp4410
g61
(dp4411
sg70
g4405
sg63
(lp4412
g56
(g57
g58
NtRp4413
(dp4414
g61
(dp4415
g69
I1
ssg70
g4409
sg63
(lp4416
g4142
(S't\x08\x00\x00\x00Projects'
tRp4417
asbasbasbag56
(g72
g58
NtRp4418
(dp4419
g61
(dp4420
sg70
g4401
sg63
(lp4421
g56
(g77
g58
NtRp4422
(dp4423
g61
(dp4424
sg70
g4418
sg63
(lp4425
g56
(g57
g58
NtRp4426
(dp4427
g61
(dp4428
g69
I1
ssg70
g4422
sg63
(lp4429
I00
asbasbasbag56
(g72
g58
NtRp4430
(dp4431
g61
(dp4432
sg70
g4401
sg63
(lp4433
g56
(g77
g58
NtRp4434
(dp4435
g61
(dp4436
sg70
g4430
sg63
(lp4437
g56
(g57
g58
NtRp4438
(dp4439
g61
(dp4440
g69
I1
ssg70
g4434
sg63
(lp4441
S'/streamlog/default/project_manage'
p4442
asbasbasbag56
(g72
g58
NtRp4443
(dp4444
g61
(dp4445
sg70
g4401
sg63
(lp4446
g56
(g77
g58
NtRp4447
(dp4448
g61
(dp4449
sg70
g4443
sg63
(lp4450
g56
(g57
g58
NtRp4451
(dp4452
g61
(dp4453
g69
I1
ssg70
g4447
sg63
(lp4454
(lp4455
asbasbasbasbasbasbasbag56
(g72
g58
NtRp4456
(dp4457
g61
(dp4458
sg70
g4251
sg63
(lp4459
g56
(g77
g58
NtRp4460
(dp4461
g61
(dp4462
sg70
g4456
sg63
(lp4463
g56
(g57
g58
NtRp4464
(dp4465
g61
(dp4466
g69
I2
ssg70
g4460
sg63
(lp4467
g56
(g65
g58
NtRp4468
(dp4469
g61
(dp4470
g69
I1
ssg70
Nsg63
(lp4471
g56
(g72
g58
NtRp4472
(dp4473
g61
(dp4474
sg70
g4468
sg63
(lp4475
g56
(g77
g58
NtRp4476
(dp4477
g61
(dp4478
sg70
g4472
sg63
(lp4479
g56
(g57
g58
NtRp4480
(dp4481
g61
(dp4482
g69
I1
ssg70
g4476
sg63
(lp4483
g4142
(S's\t\x00\x00\x00Type Logs'
tRp4484
asbasbasbag56
(g72
g58
NtRp4485
(dp4486
g61
(dp4487
sg70
g4468
sg63
(lp4488
g56
(g77
g58
NtRp4489
(dp4490
g61
(dp4491
sg70
g4485
sg63
(lp4492
g56
(g57
g58
NtRp4493
(dp4494
g61
(dp4495
g69
I1
ssg70
g4489
sg63
(lp4496
I00
asbasbasbag56
(g72
g58
NtRp4497
(dp4498
g61
(dp4499
sg70
g4468
sg63
(lp4500
g56
(g77
g58
NtRp4501
(dp4502
g61
(dp4503
sg70
g4497
sg63
(lp4504
g56
(g57
g58
NtRp4505
(dp4506
g61
(dp4507
g69
I1
ssg70
g4501
sg63
(lp4508
S'/streamlog/default/type_log_manage'
p4509
asbasbasbag56
(g72
g58
NtRp4510
(dp4511
g61
(dp4512
sg70
g4468
sg63
(lp4513
g56
(g77
g58
NtRp4514
(dp4515
g61
(dp4516
sg70
g4510
sg63
(lp4517
g56
(g57
g58
NtRp4518
(dp4519
g61
(dp4520
g69
I1
ssg70
g4514
sg63
(lp4521
(lp4522
asbasbasbasbasbasbasbasbasbasbasbasbasbasbasbasbasbasbasbag56
(g72
g58
NtRp4523
(dp4524
g61
(dp4525
sg70
g3637
sg63
(lp4526
g56
(g77
g58
NtRp4527
(dp4528
g61
(dp4529
g81
g82
ssg70
g4523
sg63
(lp4530
S'meta'
p4531
asbag56
(g77
g58
NtRp4532
(dp4533
g61
(dp4534
g88
g89
ssg70
g4523
sg63
(lp4535
S':'
asbag56
(g77
g58
NtRp4536
(dp4537
g61
(dp4538
sg70
g4523
sg63
(lp4539
g56
(g57
g58
NtRp4540
(dp4541
g61
(dp4542
g69
I5
ssg70
g4536
sg63
(lp4543
g56
(g65
g58
NtRp4544
(dp4545
g61
(dp4546
g69
I4
ssg70
Nsg63
(lp4547
g56
(g72
g58
NtRp4548
(dp4549
g61
(dp4550
sg70
g4544
sg63
(lp4551
g56
(g77
g58
NtRp4552
(dp4553
g61
(dp4554
g81
g82
ssg70
g4548
sg63
(lp4555
S'author'
p4556
asbag56
(g77
g58
NtRp4557
(dp4558
g61
(dp4559
g88
g89
ssg70
g4548
sg63
(lp4560
S':'
asbag56
(g77
g58
NtRp4561
(dp4562
g61
(dp4563
sg70
g4548
sg63
(lp4564
g56
(g57
g58
NtRp4565
(dp4566
g61
(dp4567
g69
I4
ssg70
g4561
sg63
(lp4568
S'Jose de Soto <josedesoto@gmail.com>'
p4569
asbasbasbag56
(g72
g58
NtRp4570
(dp4571
g61
(dp4572
sg70
g4544
sg63
(lp4573
g56
(g77
g58
NtRp4574
(dp4575
g61
(dp4576
g81
g82
ssg70
g4570
sg63
(lp4577
S'copyright'
p4578
asbag56
(g77
g58
NtRp4579
(dp4580
g61
(dp4581
g88
g89
ssg70
g4570
sg63
(lp4582
S':'
asbag56
(g77
g58
NtRp4583
(dp4584
g61
(dp4585
sg70
g4570
sg63
(lp4586
g56
(g57
g58
NtRp4587
(dp4588
g61
(dp4589
g69
I4
ssg70
g4583
sg63
(lp4590
S'Copyright 2011'
p4591
asbasbasbag56
(g72
g58
NtRp4592
(dp4593
g61
(dp4594
sg70
g4544
sg63
(lp4595
g56
(g77
g58
NtRp4596
(dp4597
g61
(dp4598
g81
g82
ssg70
g4592
sg63
(lp4599
S'description'
p4600
asbag56
(g77
g58
NtRp4601
(dp4602
g61
(dp4603
g88
g89
ssg70
g4592
sg63
(lp4604
S':'
asbag56
(g77
g58
NtRp4605
(dp4606
g61
(dp4607
sg70
g4592
sg63
(lp4608
g56
(g57
g58
NtRp4609
(dp4610
g61
(dp4611
g69
I4
ssg70
g4605
sg63
(lp4612
S'a cool new app'
p4613
asbasbasbag56
(g72
g58
NtRp4614
(dp4615
g61
(dp4616
sg70
g4544
sg63
(lp4617
g56
(g77
g58
NtRp4618
(dp4619
g61
(dp4620
g81
g82
ssg70
g4614
sg63
(lp4621
S'generator'
p4622
asbag56
(g77
g58
NtRp4623
(dp4624
g61
(dp4625
g88
g89
ssg70
g4614
sg63
(lp4626
S':'
asbag56
(g77
g58
NtRp4627
(dp4628
g61
(dp4629
sg70
g4614
sg63
(lp4630
g56
(g57
g58
NtRp4631
(dp4632
g61
(dp4633
g69
I4
ssg70
g4627
sg63
(lp4634
S'Web2py Web Framework'
p4635
asbasbasbag56
(g72
g58
NtRp4636
(dp4637
g61
(dp4638
sg70
g4544
sg63
(lp4639
g56
(g77
g58
NtRp4640
(dp4641
g61
(dp4642
g81
g82
ssg70
g4636
sg63
(lp4643
S'keywords'
p4644
asbag56
(g77
g58
NtRp4645
(dp4646
g61
(dp4647
g88
g89
ssg70
g4636
sg63
(lp4648
S':'
asbag56
(g77
g58
NtRp4649
(dp4650
g61
(dp4651
sg70
g4636
sg63
(lp4652
g56
(g57
g58
NtRp4653
(dp4654
g61
(dp4655
g69
I4
ssg70
g4649
sg63
(lp4656
S'web2py, python, framework'
p4657
asbasbasbasbasbasbasbag56
(g72
g58
NtRp4658
(dp4659
g61
(dp4660
sg70
g3637
sg63
(lp4661
g56
(g77
g58
NtRp4662
(dp4663
g61
(dp4664
g81
g82
ssg70
g4658
sg63
(lp4665
S'postprocessing'
p4666
asbag56
(g77
g58
NtRp4667
(dp4668
g61
(dp4669
g88
g89
ssg70
g4658
sg63
(lp4670
S':'
asbag56
(g77
g58
NtRp4671
(dp4672
g61
(dp4673
sg70
g4658
sg63
(lp4674
g56
(g57
g58
NtRp4675
(dp4676
g61
(dp4677
g69
I5
ssg70
g4671
sg63
(lp4678
g56
(g65
g58
NtRp4679
(dp4680
g61
(dp4681
g69
I4
ssg70
Nsg63
(lp4682
sbasbasbasbag56
(g72
g58
NtRp4683
(dp4684
g61
(dp4685
sg70
g3637
sg63
(lp4686
g56
(g77
g58
NtRp4687
(dp4688
g61
(dp4689
g81
g82
ssg70
g4683
sg63
(lp4690
S'session_file'
p4691
asbag56
(g77
g58
NtRp4692
(dp4693
g61
(dp4694
g88
g89
ssg70
g4683
sg63
(lp4695
S':'
asbag56
(g77
g58
NtRp4696
(dp4697
g61
(dp4698
sg70
g4683
sg63
(lp4699
g56
(g57
g58
NtRp4700
(dp4701
g61
(dp4702
g69
I5
ssg70
g4696
sg63
(lp4703
S"<open file '/home/jose/DESARROLLO/web2py199/applications/streamlog/sessions/127.0.0.1-610b0c7d-3f6f-4500-a76a-b095fb30f7fd', mode 'rb+' at 0x220b5d0>"
p4704
asbasbasbag56
(g72
g58
NtRp4705
(dp4706
g61
(dp4707
sg70
g3637
sg63
(lp4708
g56
(g77
g58
NtRp4709
(dp4710
g61
(dp4711
g81
g82
ssg70
g4705
sg63
(lp4712
S'session_filename'
p4713
asbag56
(g77
g58
NtRp4714
(dp4715
g61
(dp4716
g88
g89
ssg70
g4705
sg63
(lp4717
S':'
asbag56
(g77
g58
NtRp4718
(dp4719
g61
(dp4720
sg70
g4705
sg63
(lp4721
g56
(g57
g58
NtRp4722
(dp4723
g61
(dp4724
g69
I5
ssg70
g4718
sg63
(lp4725
S'/home/jose/DESARROLLO/web2py199/applications/streamlog/sessions/127.0.0.1-610b0c7d-3f6f-4500-a76a-b095fb30f7fd'
p4726
asbasbasbag56
(g72
g58
NtRp4727
(dp4728
g61
(dp4729
sg70
g3637
sg63
(lp4730
g56
(g77
g58
NtRp4731
(dp4732
g61
(dp4733
g81
g82
ssg70
g4727
sg63
(lp4734
S'session_id'
p4735
asbag56
(g77
g58
NtRp4736
(dp4737
g61
(dp4738
g88
g89
ssg70
g4727
sg63
(lp4739
S':'
asbag56
(g77
g58
NtRp4740
(dp4741
g61
(dp4742
sg70
g4727
sg63
(lp4743
g56
(g57
g58
NtRp4744
(dp4745
g61
(dp4746
g69
I5
ssg70
g4740
sg63
(lp4747
S'127.0.0.1-610b0c7d-3f6f-4500-a76a-b095fb30f7fd'
p4748
asbasbasbag56
(g72
g58
NtRp4749
(dp4750
g61
(dp4751
sg70
g3637
sg63
(lp4752
g56
(g77
g58
NtRp4753
(dp4754
g61
(dp4755
g81
g82
ssg70
g4749
sg63
(lp4756
S'session_id_name'
p4757
asbag56
(g77
g58
NtRp4758
(dp4759
g61
(dp4760
g88
g89
ssg70
g4749
sg63
(lp4761
S':'
asbag56
(g77
g58
NtRp4762
(dp4763
g61
(dp4764
sg70
g4749
sg63
(lp4765
g56
(g57
g58
NtRp4766
(dp4767
g61
(dp4768
g69
I5
ssg70
g4762
sg63
(lp4769
g3694
asbasbasbag56
(g72
g58
NtRp4770
(dp4771
g61
(dp4772
sg70
g3637
sg63
(lp4773
g56
(g77
g58
NtRp4774
(dp4775
g61
(dp4776
g81
g82
ssg70
g4770
sg63
(lp4777
S'session_locked'
p4778
asbag56
(g77
g58
NtRp4779
(dp4780
g61
(dp4781
g88
g89
ssg70
g4770
sg63
(lp4782
S':'
asbag56
(g77
g58
NtRp4783
(dp4784
g61
(dp4785
sg70
g4770
sg63
(lp4786
g56
(g57
g58
NtRp4787
(dp4788
g61
(dp4789
g69
I5
ssg70
g4783
sg63
(lp4790
g1638
asbasbasbag56
(g72
g58
NtRp4791
(dp4792
g61
(dp4793
sg70
g3637
sg63
(lp4794
g56
(g77
g58
NtRp4795
(dp4796
g61
(dp4797
g81
g82
ssg70
g4791
sg63
(lp4798
S'session_new'
p4799
asbag56
(g77
g58
NtRp4800
(dp4801
g61
(dp4802
g88
g89
ssg70
g4791
sg63
(lp4803
S':'
asbag56
(g77
g58
NtRp4804
(dp4805
g61
(dp4806
sg70
g4791
sg63
(lp4807
g56
(g57
g58
NtRp4808
(dp4809
g61
(dp4810
g69
I5
ssg70
g4804
sg63
(lp4811
g99
asbasbasbag56
(g72
g58
NtRp4812
(dp4813
g61
(dp4814
sg70
g3637
sg63
(lp4815
g56
(g77
g58
NtRp4816
(dp4817
g61
(dp4818
g81
g82
ssg70
g4812
sg63
(lp4819
S'status'
p4820
asbag56
(g77
g58
NtRp4821
(dp4822
g61
(dp4823
g88
g89
ssg70
g4812
sg63
(lp4824
S':'
asbag56
(g77
g58
NtRp4825
(dp4826
g61
(dp4827
sg70
g4812
sg63
(lp4828
g56
(g57
g58
NtRp4829
(dp4830
g61
(dp4831
g69
I5
ssg70
g4825
sg63
(lp4832
S'200'
p4833
asbasbasbag56
(g72
g58
NtRp4834
(dp4835
g61
(dp4836
sg70
g3637
sg63
(lp4837
g56
(g77
g58
NtRp4838
(dp4839
g61
(dp4840
g81
g82
ssg70
g4834
sg63
(lp4841
S'subtitle'
p4842
asbag56
(g77
g58
NtRp4843
(dp4844
g61
(dp4845
g88
g89
ssg70
g4834
sg63
(lp4846
S':'
asbag56
(g77
g58
NtRp4847
(dp4848
g61
(dp4849
sg70
g4834
sg63
(lp4850
g56
(g57
g58
NtRp4851
(dp4852
g61
(dp4853
g69
I5
ssg70
g4847
sg63
(lp4854
g4142
(S's\x12\x00\x00\x00Stream Log Client!'
tRp4855
asbasbasbag56
(g72
g58
NtRp4856
(dp4857
g61
(dp4858
sg70
g3637
sg63
(lp4859
g56
(g77
g58
NtRp4860
(dp4861
g61
(dp4862
g81
g82
ssg70
g4856
sg63
(lp4863
S'title'
p4864
asbag56
(g77
g58
NtRp4865
(dp4866
g61
(dp4867
g88
g89
ssg70
g4856
sg63
(lp4868
S':'
asbag56
(g77
g58
NtRp4869
(dp4870
g61
(dp4871
sg70
g4856
sg63
(lp4872
g56
(g57
g58
NtRp4873
(dp4874
g61
(dp4875
g69
I5
ssg70
g4869
sg63
(lp4876
g121
asbasbasbag56
(g72
g58
NtRp4877
(dp4878
g61
(dp4879
sg70
g3637
sg63
(lp4880
g56
(g77
g58
NtRp4881
(dp4882
g61
(dp4883
g81
g82
ssg70
g4877
sg63
(lp4884
g2304
asbag56
(g77
g58
NtRp4885
(dp4886
g61
(dp4887
g88
g89
ssg70
g4877
sg63
(lp4888
S':'
asbag56
(g77
g58
NtRp4889
(dp4890
g61
(dp4891
sg70
g4877
sg63
(lp4892
g56
(g57
g58
NtRp4893
(dp4894
g61
(dp4895
g69
I5
ssg70
g4889
sg63
(lp4896
g2317
asbasbasbag56
(g72
g58
NtRp4897
(dp4898
g61
(dp4899
sg70
g3637
sg63
(lp4900
g56
(g77
g58
NtRp4901
(dp4902
g61
(dp4903
g81
g82
ssg70
g4897
sg63
(lp4904
S'view'
p4905
asbag56
(g77
g58
NtRp4906
(dp4907
g61
(dp4908
g88
g89
ssg70
g4897
sg63
(lp4909
S':'
asbag56
(g77
g58
NtRp4910
(dp4911
g61
(dp4912
sg70
g4897
sg63
(lp4913
g56
(g57
g58
NtRp4914
(dp4915
g61
(dp4916
g69
I5
ssg70
g4910
sg63
(lp4917
S'default/call.html'
p4918
asbasbasbasbasbsS'locals'
p4919
(dp4920
S'self'
p4921
S'<gluon.dal.SQLiteAdapter object>'
p4922
sS'r'
S'None'
p4923
sS'obj'
p4924
S"'json'"
p4925
sS'fieldtype'
p4926
S"'id'"
p4927
sssS'traceback'
p4928
S'Traceback (most recent call last):\n  File "/home/jose/DESARROLLO/web2py199/gluon/restricted.py", line 194, in restricted\n    exec ccode in environment\n  File "/home/jose/DESARROLLO/web2py199/applications/streamlog/controllers/default.py", line 176, in <module>\n  File "/home/jose/DESARROLLO/web2py199/gluon/globals.py", line 149, in <lambda>\n    self._caller = lambda f: f()\n  File "/home/jose/DESARROLLO/web2py199/applications/streamlog/controllers/default.py", line 156, in call\n    return service()\n  File "/home/jose/DESARROLLO/web2py199/gluon/tools.py", line 3839, in __call__\n    return self.serve_json(request.args[1:])\n  File "/home/jose/DESARROLLO/web2py199/gluon/tools.py", line 3656, in serve_json\n    s = universal_caller(self.json_procedures[args[0]],*args[1:],**d)\n  File "/home/jose/DESARROLLO/web2py199/gluon/tools.py", line 3348, in universal_caller\n    return f(**arg_dict)\n  File "/home/jose/DESARROLLO/web2py199/applications/streamlog/controllers/default.py", line 31, in getConnectionData\n    data_connection=db((db.t_log.id==id_log)&(db.t_log.server==db.t_server.id)).select(db.t_log.name,db.t_server.IP,db.t_server.port)\n  File "/home/jose/DESARROLLO/web2py199/gluon/dal.py", line 5697, in select\n    return self.db._adapter.select(self.query,fields,attributes)\n  File "/home/jose/DESARROLLO/web2py199/gluon/dal.py", line 1225, in select\n    sql = self._select(query,fields,attributes)\n  File "/home/jose/DESARROLLO/web2py199/gluon/dal.py", line 1132, in _select\n    sql_w = \' WHERE \' + self.expand(query)\n  File "/home/jose/DESARROLLO/web2py199/gluon/dal.py", line 987, in expand\n    return expression.op(expression.first, expression.second)\n  File "/home/jose/DESARROLLO/web2py199/gluon/dal.py", line 904, in AND\n    return \'(%s AND %s)\' % (self.expand(first),self.expand(second))\n  File "/home/jose/DESARROLLO/web2py199/gluon/dal.py", line 987, in expand\n    return expression.op(expression.first, expression.second)\n  File "/home/jose/DESARROLLO/web2py199/gluon/dal.py", line 936, in EQ\n    return \'(%s = %s)\' % (self.expand(first),self.expand(second,first.type))\n  File "/home/jose/DESARROLLO/web2py199/gluon/dal.py", line 995, in expand\n    return self.represent(expression,field_type)\n  File "/home/jose/DESARROLLO/web2py199/gluon/dal.py", line 1338, in represent\n    return str(int(obj))\nValueError: invalid literal for int() with base 10: \'json\'\n'
p4929
s.