(dp1
S'output'
p2
S''
sS'layer'
p3
S'/home/jose/DESARROLLO/web2py199/applications/streamlog/controllers/default.py'
p4
sS'code'
p5
S'# -*- coding: utf-8 -*-\n# this file is released under public domain and you can use without limitations\n\n#########################################################################\n## This is a samples controller\n## - index is the default action of any application\n## - user is required for authentication and authorization\n## - download is for downloading files uploaded in the db (does streaming)\n## - call exposes all registered services (none by default)\n#########################################################################\n\n\n\ndef index():\n    """\n    example action using the internationalization operator T and flash\n    rendered by views/default/index.html or views/generic.html\n    """\n    db.t_log.id.readable=False\n    db.t_log.server.readable=False\n    \n    db.t_log.type_log.readable=False\n    links = [lambda row:  INPUT(_type=\'button\',_value=\'Load Table\', _onclick=\'loadTable(\'+str(row.id)+\')\')]\n    links += [lambda row:  INPUT(_type=\'button\',_value=\'START STREAM\', _onclick=\'createStream(\'+str(row.id)+\')\')]\n    form=SQLFORM.grid(db.t_log, selectable=False, csv=False,create=False, deletable=False, editable=False, links=links, user_signature=False)\n    return dict(message=T(\'Hello World2\'), form=form)\n\n\ndef getConnectionData():\n    \n    id_log=request.args[0]\n    ip=\'\'\n    port=\'\'\n    name_log=\'\'\n    \n    data_connection=db((db.t_log.id==id_log)&(db.t_log.server==db.t_server.id)).select(db.t_log.name,db.t_server.IP,db.t_server.port)\n  \n    for row in data_connection:\n        ip=row.t_server.IP\n        port=row.t_server.port\n        name_log=row.t_log.name\n        \n    \n    regex=db((db.t_log.id==id_log)&(db.t_log.type_log==db.t_type_log.id)).select()\n    \n    regex_code=\'\'\n    for row in regex:\n        regex_code=row.t_type_log.regex_code\n    \n    #return response.json([{\'name_log\': name_log,\'IP\': ip,\'port\': port,\'regex\': regex_code}])\n     return dict(name_log=name_log, ip=ip, port=port,regex=regex_code)\n\ndef choose_log():\n    """\n    example action using the internationalization operator T and flash\n    rendered by views/default/index.html or views/generic.html\n    """\n    \n    \n    return dict(message="log")\n\n\ndef getTypeTable():\n    """\n    example action using the internationalization operator T and flash\n    rendered by views/default/index.html or views/generic.html\n    """\n    table=\'\'\n    id_log=request.args[0]\n    type_table=db((db.t_log.id==id_log)&(db.t_log.type_log==db.t_type_log.id)).select(db.t_type_log.html_table)\n    for row in type_table:\n        table=row.html_table\n        \n    \n    return table\n\n\ndef user():\n    """\n    exposes:\n    http://..../[app]/default/user/login\n    http://..../[app]/default/user/logout\n    http://..../[app]/default/user/register\n    http://..../[app]/default/user/profile\n    http://..../[app]/default/user/retrieve_password\n    http://..../[app]/default/user/change_password\n    use @auth.requires_login()\n        @auth.requires_membership(\'group name\')\n        @auth.requires_permission(\'read\',\'table name\',record_id)\n    to decorate functions that need access control\n    """\n    return dict(form=auth())\n\ndef error():\n    return dict()\n\n\ndef project_manage():\n    \n    form = SQLFORM.smartgrid(db.t_project)\n    return locals()\n\n\ndef server_manage():\n\n    form=SQLFORM.grid(db.t_server)\n    return locals()\n\ndef log_manage():\n \n    #form = SQLFORM.smartgrid(db.t_log,constraints=dict(t_log=query), selectable=True,searchable=False, csv=False,showbuttontext=True,onupdate=auth.archive)\n    #form = SQLFORM.smartgrid(db.t_log)\n    form=SQLFORM.grid(db.t_log)\n    return locals()\n\ndef type_log_manage():\n\n    form=SQLFORM.grid(db.t_type_log)\n    return locals()\n\ndef download():\n    """\n    allows downloading of uploaded files\n    http://..../[app]/default/download/[filename]\n    """\n    return response.download(request,db)\n\n\ndef call():\n    """\n    exposes services. for example:\n    http://..../[app]/default/call/jsonrpc\n    decorate with @services.jsonrpc the functions to expose\n    supports xml, json, xmlrpc, jsonrpc, amfrpc, rss, csv\n    """\n    return service()\n\n\n@auth.requires_signature()\ndef data():\n    """\n    http://..../[app]/default/data/tables\n    http://..../[app]/default/data/create/[table]\n    http://..../[app]/default/data/read/[table]/[id]\n    http://..../[app]/default/data/update/[table]/[id]\n    http://..../[app]/default/data/delete/[table]/[id]\n    http://..../[app]/default/data/select/[table]\n    http://..../[app]/default/data/search/[table]\n    but URLs bust be signed, i.e. linked with\n      A(\'table\',_href=URL(\'data/tables\',user_signature=True))\n    or with the signed load operator\n      LOAD(\'default\',\'data.load\',args=\'tables\',ajax=True,user_signature=True)\n    """\n    return dict(form=crud())\n\nresponse._vars=response._caller(getConnectionData)\n'
p6
sS'snapshot'
p7
(dp8
S'exception'
p9
(dp10
S'__getslice__'
p11
S"<method-wrapper '__getslice__' of exceptions.IndentationError object>"
p12
sS'text'
p13
S"'     return dict(name_log=name_log, ip=ip, port=port,regex=regex_code)\\n'"
p14
sS'__str__'
p15
S"<method-wrapper '__str__' of exceptions.IndentationError object>"
p16
sS'__reduce__'
p17
S'<built-in method __reduce__ of exceptions.IndentationError object>'
p18
sS'__dict__'
p19
S'{}'
p20
sS'__sizeof__'
p21
S'<built-in method __sizeof__ of exceptions.IndentationError object>'
p22
sS'__init__'
p23
S"<method-wrapper '__init__' of exceptions.IndentationError object>"
p24
sS'__setattr__'
p25
S"<method-wrapper '__setattr__' of exceptions.IndentationError object>"
p26
sS'__reduce_ex__'
p27
S'<built-in method __reduce_ex__ of exceptions.IndentationError object>'
p28
sS'__new__'
p29
S'<built-in method __new__ of type object>'
p30
sS'__format__'
p31
S'<built-in method __format__ of exceptions.IndentationError object>'
p32
sS'__class__'
p33
S"<type 'exceptions.IndentationError'>"
p34
sS'filename'
p35
S"'/home/jose/DESARROLLO/web2py199/applications/streamlog/controllers/default.py'"
p36
sS'lineno'
p37
S'51'
p38
sS'msg'
p39
S"'unindent does not match any outer indentation level'"
p40
sS'__doc__'
p41
S"'Improper indentation.'"
p42
sS'__getitem__'
p43
S"<method-wrapper '__getitem__' of exceptions.IndentationError object>"
p44
sS'__setstate__'
p45
S'<built-in method __setstate__ of exceptions.IndentationError object>'
p46
sS'__getattribute__'
p47
S"<method-wrapper '__getattribute__' of exceptions.IndentationError object>"
p48
sS'print_file_and_line'
p49
S'None'
p50
sS'args'
p51
S"('unindent does not match any outer indentation level', ('/home/jose/DESARROLLO/web2py199/applications/streamlog/controllers/default.py', 51, 71, '     return dict(name_log=name_log, ip=ip, port=port,regex=regex_code)\\n'))"
p52
sS'__subclasshook__'
p53
S'<built-in method __subclasshook__ of type object>'
p54
sS'offset'
p55
S'71'
p56
sS'__unicode__'
p57
S'<built-in method __unicode__ of exceptions.IndentationError object>'
p58
sS'__delattr__'
p59
S"<method-wrapper '__delattr__' of exceptions.IndentationError object>"
p60
sS'__repr__'
p61
S"<method-wrapper '__repr__' of exceptions.IndentationError object>"
p62
sS'__hash__'
p63
S"<method-wrapper '__hash__' of exceptions.IndentationError object>"
p64
ssS'evalue'
p65
S'unindent does not match any outer indentation level (default.py, line 51)'
p66
sS'request'
p67
ccopy_reg
_reconstructor
p68
(cgluon.html
BEAUTIFY
p69
c__builtin__
object
p70
NtRp71
(dp72
S'attributes'
p73
(dp74
sS'components'
p75
(lp76
g68
(cgluon.html
TABLE
p77
g70
NtRp78
(dp79
g73
(dp80
S'level'
p81
I5
ssS'parent'
p82
Nsg75
(lp83
g68
(cgluon.html
TR
p84
g70
NtRp85
(dp86
g73
(dp87
sg82
g78
sg75
(lp88
g68
(cgluon.html
TD
p89
g70
NtRp90
(dp91
g73
(dp92
S'_style'
p93
S'font-weight:bold;'
p94
ssg82
g85
sg75
(lp95
S'ajax'
p96
asbag68
(g89
g70
NtRp97
(dp98
g73
(dp99
S'_valign'
p100
S'top'
p101
ssg82
g85
sg75
(lp102
S':'
asbag68
(g89
g70
NtRp103
(dp104
g73
(dp105
sg82
g85
sg75
(lp106
g68
(g69
g70
NtRp107
(dp108
g73
(dp109
g81
I5
ssg82
g103
sg75
(lp110
S'False'
p111
asbasbasbag68
(g84
g70
NtRp112
(dp113
g73
(dp114
sg82
g78
sg75
(lp115
g68
(g89
g70
NtRp116
(dp117
g73
(dp118
g93
g94
ssg82
g112
sg75
(lp119
S'application'
p120
asbag68
(g89
g70
NtRp121
(dp122
g73
(dp123
g100
g101
ssg82
g112
sg75
(lp124
S':'
asbag68
(g89
g70
NtRp125
(dp126
g73
(dp127
sg82
g112
sg75
(lp128
g68
(g69
g70
NtRp129
(dp130
g73
(dp131
g81
I5
ssg82
g125
sg75
(lp132
S'streamlog'
p133
asbasbasbag68
(g84
g70
NtRp134
(dp135
g73
(dp136
sg82
g78
sg75
(lp137
g68
(g89
g70
NtRp138
(dp139
g73
(dp140
g93
g94
ssg82
g134
sg75
(lp141
g51
asbag68
(g89
g70
NtRp142
(dp143
g73
(dp144
g100
g101
ssg82
g134
sg75
(lp145
S':'
asbag68
(g89
g70
NtRp146
(dp147
g73
(dp148
sg82
g134
sg75
(lp149
g68
(g69
g70
NtRp150
(dp151
g73
(dp152
g81
I5
ssg82
g146
sg75
(lp153
g68
(g77
g70
NtRp154
(dp155
g73
(dp156
g81
I4
ssg82
Nsg75
(lp157
g68
(g84
g70
NtRp158
(dp159
g73
(dp160
sg82
g154
sg75
(lp161
g68
(g89
g70
NtRp162
(dp163
g73
(dp164
sg82
g158
sg75
(lp165
g68
(g69
g70
NtRp166
(dp167
g73
(dp168
g81
I4
ssg82
g162
sg75
(lp169
S'2'
asbasbasbasbasbasbasbag68
(g84
g70
NtRp170
(dp171
g73
(dp172
sg82
g78
sg75
(lp173
g68
(g89
g70
NtRp174
(dp175
g73
(dp176
g93
g94
ssg82
g170
sg75
(lp177
S'body'
p178
asbag68
(g89
g70
NtRp179
(dp180
g73
(dp181
g100
g101
ssg82
g170
sg75
(lp182
S':'
asbag68
(g89
g70
NtRp183
(dp184
g73
(dp185
sg82
g170
sg75
(lp186
g68
(g69
g70
NtRp187
(dp188
g73
(dp189
g81
I5
ssg82
g183
sg75
(lp190
S'<cStringIO.StringO object at 0x2cab5a8>'
p191
asbasbasbag68
(g84
g70
NtRp192
(dp193
g73
(dp194
sg82
g78
sg75
(lp195
g68
(g89
g70
NtRp196
(dp197
g73
(dp198
g93
g94
ssg82
g192
sg75
(lp199
S'client'
p200
asbag68
(g89
g70
NtRp201
(dp202
g73
(dp203
g100
g101
ssg82
g192
sg75
(lp204
S':'
asbag68
(g89
g70
NtRp205
(dp206
g73
(dp207
sg82
g192
sg75
(lp208
g68
(g69
g70
NtRp209
(dp210
g73
(dp211
g81
I5
ssg82
g205
sg75
(lp212
S'127.0.0.1'
p213
asbasbasbag68
(g84
g70
NtRp214
(dp215
g73
(dp216
sg82
g78
sg75
(lp217
g68
(g89
g70
NtRp218
(dp219
g73
(dp220
g93
g94
ssg82
g214
sg75
(lp221
S'controller'
p222
asbag68
(g89
g70
NtRp223
(dp224
g73
(dp225
g100
g101
ssg82
g214
sg75
(lp226
S':'
asbag68
(g89
g70
NtRp227
(dp228
g73
(dp229
sg82
g214
sg75
(lp230
g68
(g69
g70
NtRp231
(dp232
g73
(dp233
g81
I5
ssg82
g227
sg75
(lp234
S'default'
p235
asbasbasbag68
(g84
g70
NtRp236
(dp237
g73
(dp238
sg82
g78
sg75
(lp239
g68
(g89
g70
NtRp240
(dp241
g73
(dp242
g93
g94
ssg82
g236
sg75
(lp243
S'cookies'
p244
asbag68
(g89
g70
NtRp245
(dp246
g73
(dp247
g100
g101
ssg82
g236
sg75
(lp248
S':'
asbag68
(g89
g70
NtRp249
(dp250
g73
(dp251
sg82
g236
sg75
(lp252
g68
(g69
g70
NtRp253
(dp254
g73
(dp255
g81
I5
ssg82
g249
sg75
(lp256
g68
(g77
g70
NtRp257
(dp258
g73
(dp259
g81
I4
ssg82
Nsg75
(lp260
g68
(g84
g70
NtRp261
(dp262
g73
(dp263
sg82
g257
sg75
(lp264
g68
(g89
g70
NtRp265
(dp266
g73
(dp267
g93
g94
ssg82
g261
sg75
(lp268
S'session_id_admin'
p269
asbag68
(g89
g70
NtRp270
(dp271
g73
(dp272
g100
g101
ssg82
g261
sg75
(lp273
S':'
asbag68
(g89
g70
NtRp274
(dp275
g73
(dp276
sg82
g261
sg75
(lp277
g68
(g69
g70
NtRp278
(dp279
g73
(dp280
g81
I4
ssg82
g274
sg75
(lp281
g68
(g77
g70
NtRp282
(dp283
g73
(dp284
g81
I3
ssg82
Nsg75
(lp285
g68
(g84
g70
NtRp286
(dp287
g73
(dp288
sg82
g282
sg75
(lp289
g68
(g89
g70
NtRp290
(dp291
g73
(dp292
g93
g94
ssg82
g286
sg75
(lp293
S'comment'
p294
asbag68
(g89
g70
NtRp295
(dp296
g73
(dp297
g100
g101
ssg82
g286
sg75
(lp298
S':'
asbag68
(g89
g70
NtRp299
(dp300
g73
(dp301
sg82
g286
sg75
(lp302
g68
(g69
g70
NtRp303
(dp304
g73
(dp305
g81
I3
ssg82
g299
sg75
(lp306
S''
asbasbasbag68
(g84
g70
NtRp307
(dp308
g73
(dp309
sg82
g282
sg75
(lp310
g68
(g89
g70
NtRp311
(dp312
g73
(dp313
g93
g94
ssg82
g307
sg75
(lp314
S'domain'
p315
asbag68
(g89
g70
NtRp316
(dp317
g73
(dp318
g100
g101
ssg82
g307
sg75
(lp319
S':'
asbag68
(g89
g70
NtRp320
(dp321
g73
(dp322
sg82
g307
sg75
(lp323
g68
(g69
g70
NtRp324
(dp325
g73
(dp326
g81
I3
ssg82
g320
sg75
(lp327
S''
asbasbasbag68
(g84
g70
NtRp328
(dp329
g73
(dp330
sg82
g282
sg75
(lp331
g68
(g89
g70
NtRp332
(dp333
g73
(dp334
g93
g94
ssg82
g328
sg75
(lp335
S'expires'
p336
asbag68
(g89
g70
NtRp337
(dp338
g73
(dp339
g100
g101
ssg82
g328
sg75
(lp340
S':'
asbag68
(g89
g70
NtRp341
(dp342
g73
(dp343
sg82
g328
sg75
(lp344
g68
(g69
g70
NtRp345
(dp346
g73
(dp347
g81
I3
ssg82
g341
sg75
(lp348
S''
asbasbasbag68
(g84
g70
NtRp349
(dp350
g73
(dp351
sg82
g282
sg75
(lp352
g68
(g89
g70
NtRp353
(dp354
g73
(dp355
g93
g94
ssg82
g349
sg75
(lp356
S'httponly'
p357
asbag68
(g89
g70
NtRp358
(dp359
g73
(dp360
g100
g101
ssg82
g349
sg75
(lp361
S':'
asbag68
(g89
g70
NtRp362
(dp363
g73
(dp364
sg82
g349
sg75
(lp365
g68
(g69
g70
NtRp366
(dp367
g73
(dp368
g81
I3
ssg82
g362
sg75
(lp369
S''
asbasbasbag68
(g84
g70
NtRp370
(dp371
g73
(dp372
sg82
g282
sg75
(lp373
g68
(g89
g70
NtRp374
(dp375
g73
(dp376
g93
g94
ssg82
g370
sg75
(lp377
S'max-age'
p378
asbag68
(g89
g70
NtRp379
(dp380
g73
(dp381
g100
g101
ssg82
g370
sg75
(lp382
S':'
asbag68
(g89
g70
NtRp383
(dp384
g73
(dp385
sg82
g370
sg75
(lp386
g68
(g69
g70
NtRp387
(dp388
g73
(dp389
g81
I3
ssg82
g383
sg75
(lp390
S''
asbasbasbag68
(g84
g70
NtRp391
(dp392
g73
(dp393
sg82
g282
sg75
(lp394
g68
(g89
g70
NtRp395
(dp396
g73
(dp397
g93
g94
ssg82
g391
sg75
(lp398
S'path'
p399
asbag68
(g89
g70
NtRp400
(dp401
g73
(dp402
g100
g101
ssg82
g391
sg75
(lp403
S':'
asbag68
(g89
g70
NtRp404
(dp405
g73
(dp406
sg82
g391
sg75
(lp407
g68
(g69
g70
NtRp408
(dp409
g73
(dp410
g81
I3
ssg82
g404
sg75
(lp411
S''
asbasbasbag68
(g84
g70
NtRp412
(dp413
g73
(dp414
sg82
g282
sg75
(lp415
g68
(g89
g70
NtRp416
(dp417
g73
(dp418
g93
g94
ssg82
g412
sg75
(lp419
S'secure'
p420
asbag68
(g89
g70
NtRp421
(dp422
g73
(dp423
g100
g101
ssg82
g412
sg75
(lp424
S':'
asbag68
(g89
g70
NtRp425
(dp426
g73
(dp427
sg82
g412
sg75
(lp428
g68
(g69
g70
NtRp429
(dp430
g73
(dp431
g81
I3
ssg82
g425
sg75
(lp432
S''
asbasbasbag68
(g84
g70
NtRp433
(dp434
g73
(dp435
sg82
g282
sg75
(lp436
g68
(g89
g70
NtRp437
(dp438
g73
(dp439
g93
g94
ssg82
g433
sg75
(lp440
S'version'
p441
asbag68
(g89
g70
NtRp442
(dp443
g73
(dp444
g100
g101
ssg82
g433
sg75
(lp445
S':'
asbag68
(g89
g70
NtRp446
(dp447
g73
(dp448
sg82
g433
sg75
(lp449
g68
(g69
g70
NtRp450
(dp451
g73
(dp452
g81
I3
ssg82
g446
sg75
(lp453
S''
asbasbasbasbasbasbasbag68
(g84
g70
NtRp454
(dp455
g73
(dp456
sg82
g257
sg75
(lp457
g68
(g89
g70
NtRp458
(dp459
g73
(dp460
g93
g94
ssg82
g454
sg75
(lp461
S'session_id_streamlog'
p462
asbag68
(g89
g70
NtRp463
(dp464
g73
(dp465
g100
g101
ssg82
g454
sg75
(lp466
S':'
asbag68
(g89
g70
NtRp467
(dp468
g73
(dp469
sg82
g454
sg75
(lp470
g68
(g69
g70
NtRp471
(dp472
g73
(dp473
g81
I4
ssg82
g467
sg75
(lp474
g68
(g77
g70
NtRp475
(dp476
g73
(dp477
g81
I3
ssg82
Nsg75
(lp478
g68
(g84
g70
NtRp479
(dp480
g73
(dp481
sg82
g475
sg75
(lp482
g68
(g89
g70
NtRp483
(dp484
g73
(dp485
g93
g94
ssg82
g479
sg75
(lp486
g294
asbag68
(g89
g70
NtRp487
(dp488
g73
(dp489
g100
g101
ssg82
g479
sg75
(lp490
S':'
asbag68
(g89
g70
NtRp491
(dp492
g73
(dp493
sg82
g479
sg75
(lp494
g68
(g69
g70
NtRp495
(dp496
g73
(dp497
g81
I3
ssg82
g491
sg75
(lp498
S''
asbasbasbag68
(g84
g70
NtRp499
(dp500
g73
(dp501
sg82
g475
sg75
(lp502
g68
(g89
g70
NtRp503
(dp504
g73
(dp505
g93
g94
ssg82
g499
sg75
(lp506
g315
asbag68
(g89
g70
NtRp507
(dp508
g73
(dp509
g100
g101
ssg82
g499
sg75
(lp510
S':'
asbag68
(g89
g70
NtRp511
(dp512
g73
(dp513
sg82
g499
sg75
(lp514
g68
(g69
g70
NtRp515
(dp516
g73
(dp517
g81
I3
ssg82
g511
sg75
(lp518
S''
asbasbasbag68
(g84
g70
NtRp519
(dp520
g73
(dp521
sg82
g475
sg75
(lp522
g68
(g89
g70
NtRp523
(dp524
g73
(dp525
g93
g94
ssg82
g519
sg75
(lp526
g336
asbag68
(g89
g70
NtRp527
(dp528
g73
(dp529
g100
g101
ssg82
g519
sg75
(lp530
S':'
asbag68
(g89
g70
NtRp531
(dp532
g73
(dp533
sg82
g519
sg75
(lp534
g68
(g69
g70
NtRp535
(dp536
g73
(dp537
g81
I3
ssg82
g531
sg75
(lp538
S''
asbasbasbag68
(g84
g70
NtRp539
(dp540
g73
(dp541
sg82
g475
sg75
(lp542
g68
(g89
g70
NtRp543
(dp544
g73
(dp545
g93
g94
ssg82
g539
sg75
(lp546
g357
asbag68
(g89
g70
NtRp547
(dp548
g73
(dp549
g100
g101
ssg82
g539
sg75
(lp550
S':'
asbag68
(g89
g70
NtRp551
(dp552
g73
(dp553
sg82
g539
sg75
(lp554
g68
(g69
g70
NtRp555
(dp556
g73
(dp557
g81
I3
ssg82
g551
sg75
(lp558
S''
asbasbasbag68
(g84
g70
NtRp559
(dp560
g73
(dp561
sg82
g475
sg75
(lp562
g68
(g89
g70
NtRp563
(dp564
g73
(dp565
g93
g94
ssg82
g559
sg75
(lp566
g378
asbag68
(g89
g70
NtRp567
(dp568
g73
(dp569
g100
g101
ssg82
g559
sg75
(lp570
S':'
asbag68
(g89
g70
NtRp571
(dp572
g73
(dp573
sg82
g559
sg75
(lp574
g68
(g69
g70
NtRp575
(dp576
g73
(dp577
g81
I3
ssg82
g571
sg75
(lp578
S''
asbasbasbag68
(g84
g70
NtRp579
(dp580
g73
(dp581
sg82
g475
sg75
(lp582
g68
(g89
g70
NtRp583
(dp584
g73
(dp585
g93
g94
ssg82
g579
sg75
(lp586
g399
asbag68
(g89
g70
NtRp587
(dp588
g73
(dp589
g100
g101
ssg82
g579
sg75
(lp590
S':'
asbag68
(g89
g70
NtRp591
(dp592
g73
(dp593
sg82
g579
sg75
(lp594
g68
(g69
g70
NtRp595
(dp596
g73
(dp597
g81
I3
ssg82
g591
sg75
(lp598
S''
asbasbasbag68
(g84
g70
NtRp599
(dp600
g73
(dp601
sg82
g475
sg75
(lp602
g68
(g89
g70
NtRp603
(dp604
g73
(dp605
g93
g94
ssg82
g599
sg75
(lp606
g420
asbag68
(g89
g70
NtRp607
(dp608
g73
(dp609
g100
g101
ssg82
g599
sg75
(lp610
S':'
asbag68
(g89
g70
NtRp611
(dp612
g73
(dp613
sg82
g599
sg75
(lp614
g68
(g69
g70
NtRp615
(dp616
g73
(dp617
g81
I3
ssg82
g611
sg75
(lp618
S''
asbasbasbag68
(g84
g70
NtRp619
(dp620
g73
(dp621
sg82
g475
sg75
(lp622
g68
(g89
g70
NtRp623
(dp624
g73
(dp625
g93
g94
ssg82
g619
sg75
(lp626
g441
asbag68
(g89
g70
NtRp627
(dp628
g73
(dp629
g100
g101
ssg82
g619
sg75
(lp630
S':'
asbag68
(g89
g70
NtRp631
(dp632
g73
(dp633
sg82
g619
sg75
(lp634
g68
(g69
g70
NtRp635
(dp636
g73
(dp637
g81
I3
ssg82
g631
sg75
(lp638
S''
asbasbasbasbasbasbasbag68
(g84
g70
NtRp639
(dp640
g73
(dp641
sg82
g257
sg75
(lp642
g68
(g89
g70
NtRp643
(dp644
g73
(dp645
g93
g94
ssg82
g639
sg75
(lp646
S'session_id_test3'
p647
asbag68
(g89
g70
NtRp648
(dp649
g73
(dp650
g100
g101
ssg82
g639
sg75
(lp651
S':'
asbag68
(g89
g70
NtRp652
(dp653
g73
(dp654
sg82
g639
sg75
(lp655
g68
(g69
g70
NtRp656
(dp657
g73
(dp658
g81
I4
ssg82
g652
sg75
(lp659
g68
(g77
g70
NtRp660
(dp661
g73
(dp662
g81
I3
ssg82
Nsg75
(lp663
g68
(g84
g70
NtRp664
(dp665
g73
(dp666
sg82
g660
sg75
(lp667
g68
(g89
g70
NtRp668
(dp669
g73
(dp670
g93
g94
ssg82
g664
sg75
(lp671
g294
asbag68
(g89
g70
NtRp672
(dp673
g73
(dp674
g100
g101
ssg82
g664
sg75
(lp675
S':'
asbag68
(g89
g70
NtRp676
(dp677
g73
(dp678
sg82
g664
sg75
(lp679
g68
(g69
g70
NtRp680
(dp681
g73
(dp682
g81
I3
ssg82
g676
sg75
(lp683
S''
asbasbasbag68
(g84
g70
NtRp684
(dp685
g73
(dp686
sg82
g660
sg75
(lp687
g68
(g89
g70
NtRp688
(dp689
g73
(dp690
g93
g94
ssg82
g684
sg75
(lp691
g315
asbag68
(g89
g70
NtRp692
(dp693
g73
(dp694
g100
g101
ssg82
g684
sg75
(lp695
S':'
asbag68
(g89
g70
NtRp696
(dp697
g73
(dp698
sg82
g684
sg75
(lp699
g68
(g69
g70
NtRp700
(dp701
g73
(dp702
g81
I3
ssg82
g696
sg75
(lp703
S''
asbasbasbag68
(g84
g70
NtRp704
(dp705
g73
(dp706
sg82
g660
sg75
(lp707
g68
(g89
g70
NtRp708
(dp709
g73
(dp710
g93
g94
ssg82
g704
sg75
(lp711
g336
asbag68
(g89
g70
NtRp712
(dp713
g73
(dp714
g100
g101
ssg82
g704
sg75
(lp715
S':'
asbag68
(g89
g70
NtRp716
(dp717
g73
(dp718
sg82
g704
sg75
(lp719
g68
(g69
g70
NtRp720
(dp721
g73
(dp722
g81
I3
ssg82
g716
sg75
(lp723
S''
asbasbasbag68
(g84
g70
NtRp724
(dp725
g73
(dp726
sg82
g660
sg75
(lp727
g68
(g89
g70
NtRp728
(dp729
g73
(dp730
g93
g94
ssg82
g724
sg75
(lp731
g357
asbag68
(g89
g70
NtRp732
(dp733
g73
(dp734
g100
g101
ssg82
g724
sg75
(lp735
S':'
asbag68
(g89
g70
NtRp736
(dp737
g73
(dp738
sg82
g724
sg75
(lp739
g68
(g69
g70
NtRp740
(dp741
g73
(dp742
g81
I3
ssg82
g736
sg75
(lp743
S''
asbasbasbag68
(g84
g70
NtRp744
(dp745
g73
(dp746
sg82
g660
sg75
(lp747
g68
(g89
g70
NtRp748
(dp749
g73
(dp750
g93
g94
ssg82
g744
sg75
(lp751
g378
asbag68
(g89
g70
NtRp752
(dp753
g73
(dp754
g100
g101
ssg82
g744
sg75
(lp755
S':'
asbag68
(g89
g70
NtRp756
(dp757
g73
(dp758
sg82
g744
sg75
(lp759
g68
(g69
g70
NtRp760
(dp761
g73
(dp762
g81
I3
ssg82
g756
sg75
(lp763
S''
asbasbasbag68
(g84
g70
NtRp764
(dp765
g73
(dp766
sg82
g660
sg75
(lp767
g68
(g89
g70
NtRp768
(dp769
g73
(dp770
g93
g94
ssg82
g764
sg75
(lp771
g399
asbag68
(g89
g70
NtRp772
(dp773
g73
(dp774
g100
g101
ssg82
g764
sg75
(lp775
S':'
asbag68
(g89
g70
NtRp776
(dp777
g73
(dp778
sg82
g764
sg75
(lp779
g68
(g69
g70
NtRp780
(dp781
g73
(dp782
g81
I3
ssg82
g776
sg75
(lp783
S''
asbasbasbag68
(g84
g70
NtRp784
(dp785
g73
(dp786
sg82
g660
sg75
(lp787
g68
(g89
g70
NtRp788
(dp789
g73
(dp790
g93
g94
ssg82
g784
sg75
(lp791
g420
asbag68
(g89
g70
NtRp792
(dp793
g73
(dp794
g100
g101
ssg82
g784
sg75
(lp795
S':'
asbag68
(g89
g70
NtRp796
(dp797
g73
(dp798
sg82
g784
sg75
(lp799
g68
(g69
g70
NtRp800
(dp801
g73
(dp802
g81
I3
ssg82
g796
sg75
(lp803
S''
asbasbasbag68
(g84
g70
NtRp804
(dp805
g73
(dp806
sg82
g660
sg75
(lp807
g68
(g89
g70
NtRp808
(dp809
g73
(dp810
g93
g94
ssg82
g804
sg75
(lp811
g441
asbag68
(g89
g70
NtRp812
(dp813
g73
(dp814
g100
g101
ssg82
g804
sg75
(lp815
S':'
asbag68
(g89
g70
NtRp816
(dp817
g73
(dp818
sg82
g804
sg75
(lp819
g68
(g69
g70
NtRp820
(dp821
g73
(dp822
g81
I3
ssg82
g816
sg75
(lp823
S''
asbasbasbasbasbasbasbasbasbasbasbag68
(g84
g70
NtRp824
(dp825
g73
(dp826
sg82
g78
sg75
(lp827
g68
(g89
g70
NtRp828
(dp829
g73
(dp830
g93
g94
ssg82
g824
sg75
(lp831
S'env'
p832
asbag68
(g89
g70
NtRp833
(dp834
g73
(dp835
g100
g101
ssg82
g824
sg75
(lp836
S':'
asbag68
(g89
g70
NtRp837
(dp838
g73
(dp839
sg82
g824
sg75
(lp840
g68
(g69
g70
NtRp841
(dp842
g73
(dp843
g81
I5
ssg82
g837
sg75
(lp844
g68
(g77
g70
NtRp845
(dp846
g73
(dp847
g81
I4
ssg82
Nsg75
(lp848
g68
(g84
g70
NtRp849
(dp850
g73
(dp851
sg82
g845
sg75
(lp852
g68
(g89
g70
NtRp853
(dp854
g73
(dp855
g93
g94
ssg82
g849
sg75
(lp856
S'app_folders'
p857
asbag68
(g89
g70
NtRp858
(dp859
g73
(dp860
g100
g101
ssg82
g849
sg75
(lp861
S':'
asbag68
(g89
g70
NtRp862
(dp863
g73
(dp864
sg82
g849
sg75
(lp865
g68
(g69
g70
NtRp866
(dp867
g73
(dp868
g81
I4
ssg82
g862
sg75
(lp869
S"set(['/home/jose/DESARROLLO/web2py199/applications/streamlog/'])"
p870
asbasbasbag68
(g84
g70
NtRp871
(dp872
g73
(dp873
sg82
g845
sg75
(lp874
g68
(g89
g70
NtRp875
(dp876
g73
(dp877
g93
g94
ssg82
g871
sg75
(lp878
S'applications_parent'
p879
asbag68
(g89
g70
NtRp880
(dp881
g73
(dp882
g100
g101
ssg82
g871
sg75
(lp883
S':'
asbag68
(g89
g70
NtRp884
(dp885
g73
(dp886
sg82
g871
sg75
(lp887
g68
(g69
g70
NtRp888
(dp889
g73
(dp890
g81
I4
ssg82
g884
sg75
(lp891
S'/home/jose/DESARROLLO/web2py199'
p892
asbasbasbag68
(g84
g70
NtRp893
(dp894
g73
(dp895
sg82
g845
sg75
(lp896
g68
(g89
g70
NtRp897
(dp898
g73
(dp899
g93
g94
ssg82
g893
sg75
(lp900
S'cmd_args'
p901
asbag68
(g89
g70
NtRp902
(dp903
g73
(dp904
g100
g101
ssg82
g893
sg75
(lp905
S':'
asbag68
(g89
g70
NtRp906
(dp907
g73
(dp908
sg82
g893
sg75
(lp909
g68
(g69
g70
NtRp910
(dp911
g73
(dp912
g81
I4
ssg82
g906
sg75
(lp913
g68
(g77
g70
NtRp914
(dp915
g73
(dp916
g81
I3
ssg82
Nsg75
(lp917
sbasbasbasbag68
(g84
g70
NtRp918
(dp919
g73
(dp920
sg82
g845
sg75
(lp921
g68
(g89
g70
NtRp922
(dp923
g73
(dp924
g93
g94
ssg82
g918
sg75
(lp925
S'cmd_options'
p926
asbag68
(g89
g70
NtRp927
(dp928
g73
(dp929
g100
g101
ssg82
g918
sg75
(lp930
S':'
asbag68
(g89
g70
NtRp931
(dp932
g73
(dp933
sg82
g918
sg75
(lp934
g68
(g69
g70
NtRp935
(dp936
g73
(dp937
g81
I4
ssg82
g931
sg75
(lp938
S"<Values at 0x24356c8: {'verbose': False, 'ip': '127.0.0.1', 'shutdown_timeout': 5, 'taskbar': False, 'nocron': False, 'pid_filename': 'httpserver.pid', 'maxthreads': None, 'softcron': False, 'server_name': 'jose', 'bpython': False, 'nogui': False, 'port': 8000, 'extcron': False, 'debuglevel': 30, 'test': None, 'folder': '/home/jose/DESARROLLO/web2py199', 'config': '', 'import_models': False, 'winservice': '', 'shell': None, 'run': '', 'log_filename': 'httpserver.log', 'args': [''], 'ssl_ca_certificate': None, 'scheduler': None, 'profiler_filename': None, 'ssl_private_key': '', 'password': 't', 'request_queue_size': 5, 'ssl_certificate': '', 'cronjob': False, 'plain': False, 'quiet': False, 'interfaces': None, 'minthreads': None, 'timeout': 10, 'numthreads': None, 'nobanner': False}>"
p939
asbasbasbag68
(g84
g70
NtRp940
(dp941
g73
(dp942
sg82
g845
sg75
(lp943
g68
(g89
g70
NtRp944
(dp945
g73
(dp946
g93
g94
ssg82
g940
sg75
(lp947
S'db_sessions'
p948
asbag68
(g89
g70
NtRp949
(dp950
g73
(dp951
g100
g101
ssg82
g940
sg75
(lp952
S':'
asbag68
(g89
g70
NtRp953
(dp954
g73
(dp955
sg82
g940
sg75
(lp956
g68
(g69
g70
NtRp957
(dp958
g73
(dp959
g81
I4
ssg82
g953
sg75
(lp960
S'set([])'
p961
asbasbasbag68
(g84
g70
NtRp962
(dp963
g73
(dp964
sg82
g845
sg75
(lp965
g68
(g89
g70
NtRp966
(dp967
g73
(dp968
g93
g94
ssg82
g962
sg75
(lp969
S'debugging'
p970
asbag68
(g89
g70
NtRp971
(dp972
g73
(dp973
g100
g101
ssg82
g962
sg75
(lp974
S':'
asbag68
(g89
g70
NtRp975
(dp976
g73
(dp977
sg82
g962
sg75
(lp978
g68
(g69
g70
NtRp979
(dp980
g73
(dp981
g81
I4
ssg82
g975
sg75
(lp982
g111
asbasbasbag68
(g84
g70
NtRp983
(dp984
g73
(dp985
sg82
g845
sg75
(lp986
g68
(g89
g70
NtRp987
(dp988
g73
(dp989
g93
g94
ssg82
g983
sg75
(lp990
S'gluon_parent'
p991
asbag68
(g89
g70
NtRp992
(dp993
g73
(dp994
g100
g101
ssg82
g983
sg75
(lp995
S':'
asbag68
(g89
g70
NtRp996
(dp997
g73
(dp998
sg82
g983
sg75
(lp999
g68
(g69
g70
NtRp1000
(dp1001
g73
(dp1002
g81
I4
ssg82
g996
sg75
(lp1003
S'/home/jose/DESARROLLO/web2py199'
p1004
asbasbasbag68
(g84
g70
NtRp1005
(dp1006
g73
(dp1007
sg82
g845
sg75
(lp1008
g68
(g89
g70
NtRp1009
(dp1010
g73
(dp1011
g93
g94
ssg82
g1005
sg75
(lp1012
S'http_accept'
p1013
asbag68
(g89
g70
NtRp1014
(dp1015
g73
(dp1016
g100
g101
ssg82
g1005
sg75
(lp1017
S':'
asbag68
(g89
g70
NtRp1018
(dp1019
g73
(dp1020
sg82
g1005
sg75
(lp1021
g68
(g69
g70
NtRp1022
(dp1023
g73
(dp1024
g81
I4
ssg82
g1018
sg75
(lp1025
S'text/html,application/xhtml+xml,application/xml;q=0.9,*/*;q=0.8'
p1026
asbasbasbag68
(g84
g70
NtRp1027
(dp1028
g73
(dp1029
sg82
g845
sg75
(lp1030
g68
(g89
g70
NtRp1031
(dp1032
g73
(dp1033
g93
g94
ssg82
g1027
sg75
(lp1034
S'http_accept_encoding'
p1035
asbag68
(g89
g70
NtRp1036
(dp1037
g73
(dp1038
g100
g101
ssg82
g1027
sg75
(lp1039
S':'
asbag68
(g89
g70
NtRp1040
(dp1041
g73
(dp1042
sg82
g1027
sg75
(lp1043
g68
(g69
g70
NtRp1044
(dp1045
g73
(dp1046
g81
I4
ssg82
g1040
sg75
(lp1047
S'gzip, deflate'
p1048
asbasbasbag68
(g84
g70
NtRp1049
(dp1050
g73
(dp1051
sg82
g845
sg75
(lp1052
g68
(g89
g70
NtRp1053
(dp1054
g73
(dp1055
g93
g94
ssg82
g1049
sg75
(lp1056
S'http_accept_language'
p1057
asbag68
(g89
g70
NtRp1058
(dp1059
g73
(dp1060
g100
g101
ssg82
g1049
sg75
(lp1061
S':'
asbag68
(g89
g70
NtRp1062
(dp1063
g73
(dp1064
sg82
g1049
sg75
(lp1065
g68
(g69
g70
NtRp1066
(dp1067
g73
(dp1068
g81
I4
ssg82
g1062
sg75
(lp1069
S'en-us,en;q=0.5'
p1070
asbasbasbag68
(g84
g70
NtRp1071
(dp1072
g73
(dp1073
sg82
g845
sg75
(lp1074
g68
(g89
g70
NtRp1075
(dp1076
g73
(dp1077
g93
g94
ssg82
g1071
sg75
(lp1078
S'http_connection'
p1079
asbag68
(g89
g70
NtRp1080
(dp1081
g73
(dp1082
g100
g101
ssg82
g1071
sg75
(lp1083
S':'
asbag68
(g89
g70
NtRp1084
(dp1085
g73
(dp1086
sg82
g1071
sg75
(lp1087
g68
(g69
g70
NtRp1088
(dp1089
g73
(dp1090
g81
I4
ssg82
g1084
sg75
(lp1091
S'keep-alive'
p1092
asbasbasbag68
(g84
g70
NtRp1093
(dp1094
g73
(dp1095
sg82
g845
sg75
(lp1096
g68
(g89
g70
NtRp1097
(dp1098
g73
(dp1099
g93
g94
ssg82
g1093
sg75
(lp1100
S'http_cookie'
p1101
asbag68
(g89
g70
NtRp1102
(dp1103
g73
(dp1104
g100
g101
ssg82
g1093
sg75
(lp1105
S':'
asbag68
(g89
g70
NtRp1106
(dp1107
g73
(dp1108
sg82
g1093
sg75
(lp1109
g68
(g69
g70
NtRp1110
(dp1111
g73
(dp1112
g81
I4
ssg82
g1106
sg75
(lp1113
S'session_id_test3=127.0.0.1-380e7b29-b635-4690-b9ca-812870d6a061; session_id_admin=127.0.0.1-9b4c5961-ad99-4e9d-9992-13f3450e53e5; session_id_streamlog=127.0.0.1-610b0c7d-3f6f-4500-a76a-b095fb30f7fd'
p1114
asbasbasbag68
(g84
g70
NtRp1115
(dp1116
g73
(dp1117
sg82
g845
sg75
(lp1118
g68
(g89
g70
NtRp1119
(dp1120
g73
(dp1121
g93
g94
ssg82
g1115
sg75
(lp1122
S'http_host'
p1123
asbag68
(g89
g70
NtRp1124
(dp1125
g73
(dp1126
g100
g101
ssg82
g1115
sg75
(lp1127
S':'
asbag68
(g89
g70
NtRp1128
(dp1129
g73
(dp1130
sg82
g1115
sg75
(lp1131
g68
(g69
g70
NtRp1132
(dp1133
g73
(dp1134
g81
I4
ssg82
g1128
sg75
(lp1135
S'localhost:8000'
p1136
asbasbasbag68
(g84
g70
NtRp1137
(dp1138
g73
(dp1139
sg82
g845
sg75
(lp1140
g68
(g89
g70
NtRp1141
(dp1142
g73
(dp1143
g93
g94
ssg82
g1137
sg75
(lp1144
S'http_user_agent'
p1145
asbag68
(g89
g70
NtRp1146
(dp1147
g73
(dp1148
g100
g101
ssg82
g1137
sg75
(lp1149
S':'
asbag68
(g89
g70
NtRp1150
(dp1151
g73
(dp1152
sg82
g1137
sg75
(lp1153
g68
(g69
g70
NtRp1154
(dp1155
g73
(dp1156
g81
I4
ssg82
g1150
sg75
(lp1157
S'Mozilla/5.0 (X11; Ubuntu; Linux x86_64; rv:12.0) Gecko/20100101 Firefox/12.0'
p1158
asbasbasbag68
(g84
g70
NtRp1159
(dp1160
g73
(dp1161
sg82
g845
sg75
(lp1162
g68
(g89
g70
NtRp1163
(dp1164
g73
(dp1165
g93
g94
ssg82
g1159
sg75
(lp1166
S'is_jython'
p1167
asbag68
(g89
g70
NtRp1168
(dp1169
g73
(dp1170
g100
g101
ssg82
g1159
sg75
(lp1171
S':'
asbag68
(g89
g70
NtRp1172
(dp1173
g73
(dp1174
sg82
g1159
sg75
(lp1175
g68
(g69
g70
NtRp1176
(dp1177
g73
(dp1178
g81
I4
ssg82
g1172
sg75
(lp1179
g111
asbasbasbag68
(g84
g70
NtRp1180
(dp1181
g73
(dp1182
sg82
g845
sg75
(lp1183
g68
(g89
g70
NtRp1184
(dp1185
g73
(dp1186
g93
g94
ssg82
g1180
sg75
(lp1187
S'path_info'
p1188
asbag68
(g89
g70
NtRp1189
(dp1190
g73
(dp1191
g100
g101
ssg82
g1180
sg75
(lp1192
S':'
asbag68
(g89
g70
NtRp1193
(dp1194
g73
(dp1195
sg82
g1180
sg75
(lp1196
g68
(g69
g70
NtRp1197
(dp1198
g73
(dp1199
g81
I4
ssg82
g1193
sg75
(lp1200
S'/streamlog/default/getConnectionData.json/2'
p1201
asbasbasbag68
(g84
g70
NtRp1202
(dp1203
g73
(dp1204
sg82
g845
sg75
(lp1205
g68
(g89
g70
NtRp1206
(dp1207
g73
(dp1208
g93
g94
ssg82
g1202
sg75
(lp1209
S'query_string'
p1210
asbag68
(g89
g70
NtRp1211
(dp1212
g73
(dp1213
g100
g101
ssg82
g1202
sg75
(lp1214
S':'
asbag68
(g89
g70
NtRp1215
(dp1216
g73
(dp1217
sg82
g1202
sg75
(lp1218
g68
(g69
g70
NtRp1219
(dp1220
g73
(dp1221
g81
I4
ssg82
g1215
sg75
(lp1222
S''
asbasbasbag68
(g84
g70
NtRp1223
(dp1224
g73
(dp1225
sg82
g845
sg75
(lp1226
g68
(g89
g70
NtRp1227
(dp1228
g73
(dp1229
g93
g94
ssg82
g1223
sg75
(lp1230
S'remote_addr'
p1231
asbag68
(g89
g70
NtRp1232
(dp1233
g73
(dp1234
g100
g101
ssg82
g1223
sg75
(lp1235
S':'
asbag68
(g89
g70
NtRp1236
(dp1237
g73
(dp1238
sg82
g1223
sg75
(lp1239
g68
(g69
g70
NtRp1240
(dp1241
g73
(dp1242
g81
I4
ssg82
g1236
sg75
(lp1243
g213
asbasbasbag68
(g84
g70
NtRp1244
(dp1245
g73
(dp1246
sg82
g845
sg75
(lp1247
g68
(g89
g70
NtRp1248
(dp1249
g73
(dp1250
g93
g94
ssg82
g1244
sg75
(lp1251
S'remote_port'
p1252
asbag68
(g89
g70
NtRp1253
(dp1254
g73
(dp1255
g100
g101
ssg82
g1244
sg75
(lp1256
S':'
asbag68
(g89
g70
NtRp1257
(dp1258
g73
(dp1259
sg82
g1244
sg75
(lp1260
g68
(g69
g70
NtRp1261
(dp1262
g73
(dp1263
g81
I4
ssg82
g1257
sg75
(lp1264
S'34339'
p1265
asbasbasbag68
(g84
g70
NtRp1266
(dp1267
g73
(dp1268
sg82
g845
sg75
(lp1269
g68
(g89
g70
NtRp1270
(dp1271
g73
(dp1272
g93
g94
ssg82
g1266
sg75
(lp1273
S'request_method'
p1274
asbag68
(g89
g70
NtRp1275
(dp1276
g73
(dp1277
g100
g101
ssg82
g1266
sg75
(lp1278
S':'
asbag68
(g89
g70
NtRp1279
(dp1280
g73
(dp1281
sg82
g1266
sg75
(lp1282
g68
(g69
g70
NtRp1283
(dp1284
g73
(dp1285
g81
I4
ssg82
g1279
sg75
(lp1286
S'GET'
p1287
asbasbasbag68
(g84
g70
NtRp1288
(dp1289
g73
(dp1290
sg82
g845
sg75
(lp1291
g68
(g89
g70
NtRp1292
(dp1293
g73
(dp1294
g93
g94
ssg82
g1288
sg75
(lp1295
S'request_uri'
p1296
asbag68
(g89
g70
NtRp1297
(dp1298
g73
(dp1299
g100
g101
ssg82
g1288
sg75
(lp1300
S':'
asbag68
(g89
g70
NtRp1301
(dp1302
g73
(dp1303
sg82
g1288
sg75
(lp1304
g68
(g69
g70
NtRp1305
(dp1306
g73
(dp1307
g81
I4
ssg82
g1301
sg75
(lp1308
g1201
asbasbasbag68
(g84
g70
NtRp1309
(dp1310
g73
(dp1311
sg82
g845
sg75
(lp1312
g68
(g89
g70
NtRp1313
(dp1314
g73
(dp1315
g93
g94
ssg82
g1309
sg75
(lp1316
S'script_name'
p1317
asbag68
(g89
g70
NtRp1318
(dp1319
g73
(dp1320
g100
g101
ssg82
g1309
sg75
(lp1321
S':'
asbag68
(g89
g70
NtRp1322
(dp1323
g73
(dp1324
sg82
g1309
sg75
(lp1325
g68
(g69
g70
NtRp1326
(dp1327
g73
(dp1328
g81
I4
ssg82
g1322
sg75
(lp1329
S''
asbasbasbag68
(g84
g70
NtRp1330
(dp1331
g73
(dp1332
sg82
g845
sg75
(lp1333
g68
(g89
g70
NtRp1334
(dp1335
g73
(dp1336
g93
g94
ssg82
g1330
sg75
(lp1337
S'server_name'
p1338
asbag68
(g89
g70
NtRp1339
(dp1340
g73
(dp1341
g100
g101
ssg82
g1330
sg75
(lp1342
S':'
asbag68
(g89
g70
NtRp1343
(dp1344
g73
(dp1345
sg82
g1330
sg75
(lp1346
g68
(g69
g70
NtRp1347
(dp1348
g73
(dp1349
g81
I4
ssg82
g1343
sg75
(lp1350
S'jose'
p1351
asbasbasbag68
(g84
g70
NtRp1352
(dp1353
g73
(dp1354
sg82
g845
sg75
(lp1355
g68
(g89
g70
NtRp1356
(dp1357
g73
(dp1358
g93
g94
ssg82
g1352
sg75
(lp1359
S'server_port'
p1360
asbag68
(g89
g70
NtRp1361
(dp1362
g73
(dp1363
g100
g101
ssg82
g1352
sg75
(lp1364
S':'
asbag68
(g89
g70
NtRp1365
(dp1366
g73
(dp1367
sg82
g1352
sg75
(lp1368
g68
(g69
g70
NtRp1369
(dp1370
g73
(dp1371
g81
I4
ssg82
g1365
sg75
(lp1372
S'8000'
p1373
asbasbasbag68
(g84
g70
NtRp1374
(dp1375
g73
(dp1376
sg82
g845
sg75
(lp1377
g68
(g89
g70
NtRp1378
(dp1379
g73
(dp1380
g93
g94
ssg82
g1374
sg75
(lp1381
S'server_protocol'
p1382
asbag68
(g89
g70
NtRp1383
(dp1384
g73
(dp1385
g100
g101
ssg82
g1374
sg75
(lp1386
S':'
asbag68
(g89
g70
NtRp1387
(dp1388
g73
(dp1389
sg82
g1374
sg75
(lp1390
g68
(g69
g70
NtRp1391
(dp1392
g73
(dp1393
g81
I4
ssg82
g1387
sg75
(lp1394
S'HTTP/1.1'
p1395
asbasbasbag68
(g84
g70
NtRp1396
(dp1397
g73
(dp1398
sg82
g845
sg75
(lp1399
g68
(g89
g70
NtRp1400
(dp1401
g73
(dp1402
g93
g94
ssg82
g1396
sg75
(lp1403
S'server_software'
p1404
asbag68
(g89
g70
NtRp1405
(dp1406
g73
(dp1407
g100
g101
ssg82
g1396
sg75
(lp1408
S':'
asbag68
(g89
g70
NtRp1409
(dp1410
g73
(dp1411
sg82
g1396
sg75
(lp1412
g68
(g69
g70
NtRp1413
(dp1414
g73
(dp1415
g81
I4
ssg82
g1409
sg75
(lp1416
S'Rocket 1.2.4'
p1417
asbasbasbag68
(g84
g70
NtRp1418
(dp1419
g73
(dp1420
sg82
g845
sg75
(lp1421
g68
(g89
g70
NtRp1422
(dp1423
g73
(dp1424
g93
g94
ssg82
g1418
sg75
(lp1425
S'web2py_crontype'
p1426
asbag68
(g89
g70
NtRp1427
(dp1428
g73
(dp1429
g100
g101
ssg82
g1418
sg75
(lp1430
S':'
asbag68
(g89
g70
NtRp1431
(dp1432
g73
(dp1433
sg82
g1418
sg75
(lp1434
g68
(g69
g70
NtRp1435
(dp1436
g73
(dp1437
g81
I4
ssg82
g1431
sg75
(lp1438
S'hard'
p1439
asbasbasbag68
(g84
g70
NtRp1440
(dp1441
g73
(dp1442
sg82
g845
sg75
(lp1443
g68
(g89
g70
NtRp1444
(dp1445
g73
(dp1446
g93
g94
ssg82
g1440
sg75
(lp1447
S'web2py_original_uri'
p1448
asbag68
(g89
g70
NtRp1449
(dp1450
g73
(dp1451
g100
g101
ssg82
g1440
sg75
(lp1452
S':'
asbag68
(g89
g70
NtRp1453
(dp1454
g73
(dp1455
sg82
g1440
sg75
(lp1456
g68
(g69
g70
NtRp1457
(dp1458
g73
(dp1459
g81
I4
ssg82
g1453
sg75
(lp1460
g1201
asbasbasbag68
(g84
g70
NtRp1461
(dp1462
g73
(dp1463
sg82
g845
sg75
(lp1464
g68
(g89
g70
NtRp1465
(dp1466
g73
(dp1467
g93
g94
ssg82
g1461
sg75
(lp1468
S'web2py_path'
p1469
asbag68
(g89
g70
NtRp1470
(dp1471
g73
(dp1472
g100
g101
ssg82
g1461
sg75
(lp1473
S':'
asbag68
(g89
g70
NtRp1474
(dp1475
g73
(dp1476
sg82
g1461
sg75
(lp1477
g68
(g69
g70
NtRp1478
(dp1479
g73
(dp1480
g81
I4
ssg82
g1474
sg75
(lp1481
g892
asbasbasbag68
(g84
g70
NtRp1482
(dp1483
g73
(dp1484
sg82
g845
sg75
(lp1485
g68
(g89
g70
NtRp1486
(dp1487
g73
(dp1488
g93
g94
ssg82
g1482
sg75
(lp1489
S'web2py_version'
p1490
asbag68
(g89
g70
NtRp1491
(dp1492
g73
(dp1493
g100
g101
ssg82
g1482
sg75
(lp1494
S':'
asbag68
(g89
g70
NtRp1495
(dp1496
g73
(dp1497
sg82
g1482
sg75
(lp1498
g68
(g69
g70
NtRp1499
(dp1500
g73
(dp1501
g81
I4
ssg82
g1495
sg75
(lp1502
g68
(g77
g70
NtRp1503
(dp1504
g73
(dp1505
g81
I3
ssg82
Nsg75
(lp1506
g68
(g84
g70
NtRp1507
(dp1508
g73
(dp1509
sg82
g1503
sg75
(lp1510
g68
(g89
g70
NtRp1511
(dp1512
g73
(dp1513
sg82
g1507
sg75
(lp1514
g68
(g69
g70
NtRp1515
(dp1516
g73
(dp1517
g81
I3
ssg82
g1511
sg75
(lp1518
S'1'
asbasbasbag68
(g84
g70
NtRp1519
(dp1520
g73
(dp1521
sg82
g1503
sg75
(lp1522
g68
(g89
g70
NtRp1523
(dp1524
g73
(dp1525
sg82
g1519
sg75
(lp1526
g68
(g69
g70
NtRp1527
(dp1528
g73
(dp1529
g81
I3
ssg82
g1523
sg75
(lp1530
S'99'
p1531
asbasbasbag68
(g84
g70
NtRp1532
(dp1533
g73
(dp1534
sg82
g1503
sg75
(lp1535
g68
(g89
g70
NtRp1536
(dp1537
g73
(dp1538
sg82
g1532
sg75
(lp1539
g68
(g69
g70
NtRp1540
(dp1541
g73
(dp1542
g81
I3
ssg82
g1536
sg75
(lp1543
S'2'
asbasbasbag68
(g84
g70
NtRp1544
(dp1545
g73
(dp1546
sg82
g1503
sg75
(lp1547
g68
(g89
g70
NtRp1548
(dp1549
g73
(dp1550
sg82
g1544
sg75
(lp1551
g68
(g69
g70
NtRp1552
(dp1553
g73
(dp1554
g81
I3
ssg82
g1548
sg75
(lp1555
S'datetime.datetime(2011, 9, 26, 6, 55, 33)'
p1556
asbasbasbag68
(g84
g70
NtRp1557
(dp1558
g73
(dp1559
sg82
g1503
sg75
(lp1560
g68
(g89
g70
NtRp1561
(dp1562
g73
(dp1563
sg82
g1557
sg75
(lp1564
g68
(g69
g70
NtRp1565
(dp1566
g73
(dp1567
g81
I3
ssg82
g1561
sg75
(lp1568
S'stable'
p1569
asbasbasbasbasbasbasbag68
(g84
g70
NtRp1570
(dp1571
g73
(dp1572
sg82
g845
sg75
(lp1573
g68
(g89
g70
NtRp1574
(dp1575
g73
(dp1576
g93
g94
ssg82
g1570
sg75
(lp1577
S'wsgi_errors'
p1578
asbag68
(g89
g70
NtRp1579
(dp1580
g73
(dp1581
g100
g101
ssg82
g1570
sg75
(lp1582
S':'
asbag68
(g89
g70
NtRp1583
(dp1584
g73
(dp1585
sg82
g1570
sg75
(lp1586
g68
(g69
g70
NtRp1587
(dp1588
g73
(dp1589
g81
I4
ssg82
g1583
sg75
(lp1590
S"<open file '<stderr>', mode 'w' at 0x7f70cdab4270>"
p1591
asbasbasbag68
(g84
g70
NtRp1592
(dp1593
g73
(dp1594
sg82
g845
sg75
(lp1595
g68
(g89
g70
NtRp1596
(dp1597
g73
(dp1598
g93
g94
ssg82
g1592
sg75
(lp1599
S'wsgi_file_wrapper'
p1600
asbag68
(g89
g70
NtRp1601
(dp1602
g73
(dp1603
g100
g101
ssg82
g1592
sg75
(lp1604
S':'
asbag68
(g89
g70
NtRp1605
(dp1606
g73
(dp1607
sg82
g1592
sg75
(lp1608
g68
(g69
g70
NtRp1609
(dp1610
g73
(dp1611
g81
I4
ssg82
g1605
sg75
(lp1612
S'<class wsgiref.util.FileWrapper at 0x234fd50>'
p1613
asbasbasbag68
(g84
g70
NtRp1614
(dp1615
g73
(dp1616
sg82
g845
sg75
(lp1617
g68
(g89
g70
NtRp1618
(dp1619
g73
(dp1620
g93
g94
ssg82
g1614
sg75
(lp1621
S'wsgi_input'
p1622
asbag68
(g89
g70
NtRp1623
(dp1624
g73
(dp1625
g100
g101
ssg82
g1614
sg75
(lp1626
S':'
asbag68
(g89
g70
NtRp1627
(dp1628
g73
(dp1629
sg82
g1614
sg75
(lp1630
g68
(g69
g70
NtRp1631
(dp1632
g73
(dp1633
g81
I4
ssg82
g1627
sg75
(lp1634
S'<socket._fileobject object at 0x246e1d0>'
p1635
asbasbasbag68
(g84
g70
NtRp1636
(dp1637
g73
(dp1638
sg82
g845
sg75
(lp1639
g68
(g89
g70
NtRp1640
(dp1641
g73
(dp1642
g93
g94
ssg82
g1636
sg75
(lp1643
S'wsgi_multiprocess'
p1644
asbag68
(g89
g70
NtRp1645
(dp1646
g73
(dp1647
g100
g101
ssg82
g1636
sg75
(lp1648
S':'
asbag68
(g89
g70
NtRp1649
(dp1650
g73
(dp1651
sg82
g1636
sg75
(lp1652
g68
(g69
g70
NtRp1653
(dp1654
g73
(dp1655
g81
I4
ssg82
g1649
sg75
(lp1656
g111
asbasbasbag68
(g84
g70
NtRp1657
(dp1658
g73
(dp1659
sg82
g845
sg75
(lp1660
g68
(g89
g70
NtRp1661
(dp1662
g73
(dp1663
g93
g94
ssg82
g1657
sg75
(lp1664
S'wsgi_multithread'
p1665
asbag68
(g89
g70
NtRp1666
(dp1667
g73
(dp1668
g100
g101
ssg82
g1657
sg75
(lp1669
S':'
asbag68
(g89
g70
NtRp1670
(dp1671
g73
(dp1672
sg82
g1657
sg75
(lp1673
g68
(g69
g70
NtRp1674
(dp1675
g73
(dp1676
g81
I4
ssg82
g1670
sg75
(lp1677
S'True'
p1678
asbasbasbag68
(g84
g70
NtRp1679
(dp1680
g73
(dp1681
sg82
g845
sg75
(lp1682
g68
(g89
g70
NtRp1683
(dp1684
g73
(dp1685
g93
g94
ssg82
g1679
sg75
(lp1686
S'wsgi_run_once'
p1687
asbag68
(g89
g70
NtRp1688
(dp1689
g73
(dp1690
g100
g101
ssg82
g1679
sg75
(lp1691
S':'
asbag68
(g89
g70
NtRp1692
(dp1693
g73
(dp1694
sg82
g1679
sg75
(lp1695
g68
(g69
g70
NtRp1696
(dp1697
g73
(dp1698
g81
I4
ssg82
g1692
sg75
(lp1699
g111
asbasbasbag68
(g84
g70
NtRp1700
(dp1701
g73
(dp1702
sg82
g845
sg75
(lp1703
g68
(g89
g70
NtRp1704
(dp1705
g73
(dp1706
g93
g94
ssg82
g1700
sg75
(lp1707
S'wsgi_url_scheme'
p1708
asbag68
(g89
g70
NtRp1709
(dp1710
g73
(dp1711
g100
g101
ssg82
g1700
sg75
(lp1712
S':'
asbag68
(g89
g70
NtRp1713
(dp1714
g73
(dp1715
sg82
g1700
sg75
(lp1716
g68
(g69
g70
NtRp1717
(dp1718
g73
(dp1719
g81
I4
ssg82
g1713
sg75
(lp1720
S'http'
p1721
asbasbasbag68
(g84
g70
NtRp1722
(dp1723
g73
(dp1724
sg82
g845
sg75
(lp1725
g68
(g89
g70
NtRp1726
(dp1727
g73
(dp1728
g93
g94
ssg82
g1722
sg75
(lp1729
S'wsgi_version'
p1730
asbag68
(g89
g70
NtRp1731
(dp1732
g73
(dp1733
g100
g101
ssg82
g1722
sg75
(lp1734
S':'
asbag68
(g89
g70
NtRp1735
(dp1736
g73
(dp1737
sg82
g1722
sg75
(lp1738
g68
(g69
g70
NtRp1739
(dp1740
g73
(dp1741
g81
I4
ssg82
g1735
sg75
(lp1742
g68
(g77
g70
NtRp1743
(dp1744
g73
(dp1745
g81
I3
ssg82
Nsg75
(lp1746
g68
(g84
g70
NtRp1747
(dp1748
g73
(dp1749
sg82
g1743
sg75
(lp1750
g68
(g89
g70
NtRp1751
(dp1752
g73
(dp1753
sg82
g1747
sg75
(lp1754
g68
(g69
g70
NtRp1755
(dp1756
g73
(dp1757
g81
I3
ssg82
g1751
sg75
(lp1758
S'1'
asbasbasbag68
(g84
g70
NtRp1759
(dp1760
g73
(dp1761
sg82
g1743
sg75
(lp1762
g68
(g89
g70
NtRp1763
(dp1764
g73
(dp1765
sg82
g1759
sg75
(lp1766
g68
(g69
g70
NtRp1767
(dp1768
g73
(dp1769
g81
I3
ssg82
g1763
sg75
(lp1770
S'0'
asbasbasbasbasbasbasbasbasbasbasbag68
(g84
g70
NtRp1771
(dp1772
g73
(dp1773
sg82
g78
sg75
(lp1774
g68
(g89
g70
NtRp1775
(dp1776
g73
(dp1777
g93
g94
ssg82
g1771
sg75
(lp1778
S'extension'
p1779
asbag68
(g89
g70
NtRp1780
(dp1781
g73
(dp1782
g100
g101
ssg82
g1771
sg75
(lp1783
S':'
asbag68
(g89
g70
NtRp1784
(dp1785
g73
(dp1786
sg82
g1771
sg75
(lp1787
g68
(g69
g70
NtRp1788
(dp1789
g73
(dp1790
g81
I5
ssg82
g1784
sg75
(lp1791
S'json'
p1792
asbasbasbag68
(g84
g70
NtRp1793
(dp1794
g73
(dp1795
sg82
g78
sg75
(lp1796
g68
(g89
g70
NtRp1797
(dp1798
g73
(dp1799
g93
g94
ssg82
g1793
sg75
(lp1800
S'folder'
p1801
asbag68
(g89
g70
NtRp1802
(dp1803
g73
(dp1804
g100
g101
ssg82
g1793
sg75
(lp1805
S':'
asbag68
(g89
g70
NtRp1806
(dp1807
g73
(dp1808
sg82
g1793
sg75
(lp1809
g68
(g69
g70
NtRp1810
(dp1811
g73
(dp1812
g81
I5
ssg82
g1806
sg75
(lp1813
S'/home/jose/DESARROLLO/web2py199/applications/streamlog/'
p1814
asbasbasbag68
(g84
g70
NtRp1815
(dp1816
g73
(dp1817
sg82
g78
sg75
(lp1818
g68
(g89
g70
NtRp1819
(dp1820
g73
(dp1821
g93
g94
ssg82
g1815
sg75
(lp1822
S'function'
p1823
asbag68
(g89
g70
NtRp1824
(dp1825
g73
(dp1826
g100
g101
ssg82
g1815
sg75
(lp1827
S':'
asbag68
(g89
g70
NtRp1828
(dp1829
g73
(dp1830
sg82
g1815
sg75
(lp1831
g68
(g69
g70
NtRp1832
(dp1833
g73
(dp1834
g81
I5
ssg82
g1828
sg75
(lp1835
S'getConnectionData'
p1836
asbasbasbag68
(g84
g70
NtRp1837
(dp1838
g73
(dp1839
sg82
g78
sg75
(lp1840
g68
(g89
g70
NtRp1841
(dp1842
g73
(dp1843
g93
g94
ssg82
g1837
sg75
(lp1844
S'get_vars'
p1845
asbag68
(g89
g70
NtRp1846
(dp1847
g73
(dp1848
g100
g101
ssg82
g1837
sg75
(lp1849
S':'
asbag68
(g89
g70
NtRp1850
(dp1851
g73
(dp1852
sg82
g1837
sg75
(lp1853
g68
(g69
g70
NtRp1854
(dp1855
g73
(dp1856
g81
I5
ssg82
g1850
sg75
(lp1857
g68
(g77
g70
NtRp1858
(dp1859
g73
(dp1860
g81
I4
ssg82
Nsg75
(lp1861
sbasbasbasbag68
(g84
g70
NtRp1862
(dp1863
g73
(dp1864
sg82
g78
sg75
(lp1865
g68
(g89
g70
NtRp1866
(dp1867
g73
(dp1868
g93
g94
ssg82
g1862
sg75
(lp1869
S'global_settings'
p1870
asbag68
(g89
g70
NtRp1871
(dp1872
g73
(dp1873
g100
g101
ssg82
g1862
sg75
(lp1874
S':'
asbag68
(g89
g70
NtRp1875
(dp1876
g73
(dp1877
sg82
g1862
sg75
(lp1878
g68
(g69
g70
NtRp1879
(dp1880
g73
(dp1881
g81
I5
ssg82
g1875
sg75
(lp1882
g68
(g77
g70
NtRp1883
(dp1884
g73
(dp1885
g81
I4
ssg82
Nsg75
(lp1886
g68
(g84
g70
NtRp1887
(dp1888
g73
(dp1889
sg82
g1883
sg75
(lp1890
g68
(g89
g70
NtRp1891
(dp1892
g73
(dp1893
g93
g94
ssg82
g1887
sg75
(lp1894
g857
asbag68
(g89
g70
NtRp1895
(dp1896
g73
(dp1897
g100
g101
ssg82
g1887
sg75
(lp1898
S':'
asbag68
(g89
g70
NtRp1899
(dp1900
g73
(dp1901
sg82
g1887
sg75
(lp1902
g68
(g69
g70
NtRp1903
(dp1904
g73
(dp1905
g81
I4
ssg82
g1899
sg75
(lp1906
S"set(['/home/jose/DESARROLLO/web2py199/applications/streamlog/'])"
p1907
asbasbasbag68
(g84
g70
NtRp1908
(dp1909
g73
(dp1910
sg82
g1883
sg75
(lp1911
g68
(g89
g70
NtRp1912
(dp1913
g73
(dp1914
g93
g94
ssg82
g1908
sg75
(lp1915
g879
asbag68
(g89
g70
NtRp1916
(dp1917
g73
(dp1918
g100
g101
ssg82
g1908
sg75
(lp1919
S':'
asbag68
(g89
g70
NtRp1920
(dp1921
g73
(dp1922
sg82
g1908
sg75
(lp1923
g68
(g69
g70
NtRp1924
(dp1925
g73
(dp1926
g81
I4
ssg82
g1920
sg75
(lp1927
g892
asbasbasbag68
(g84
g70
NtRp1928
(dp1929
g73
(dp1930
sg82
g1883
sg75
(lp1931
g68
(g89
g70
NtRp1932
(dp1933
g73
(dp1934
g93
g94
ssg82
g1928
sg75
(lp1935
g901
asbag68
(g89
g70
NtRp1936
(dp1937
g73
(dp1938
g100
g101
ssg82
g1928
sg75
(lp1939
S':'
asbag68
(g89
g70
NtRp1940
(dp1941
g73
(dp1942
sg82
g1928
sg75
(lp1943
g68
(g69
g70
NtRp1944
(dp1945
g73
(dp1946
g81
I4
ssg82
g1940
sg75
(lp1947
g68
(g77
g70
NtRp1948
(dp1949
g73
(dp1950
g81
I3
ssg82
Nsg75
(lp1951
sbasbasbasbag68
(g84
g70
NtRp1952
(dp1953
g73
(dp1954
sg82
g1883
sg75
(lp1955
g68
(g89
g70
NtRp1956
(dp1957
g73
(dp1958
g93
g94
ssg82
g1952
sg75
(lp1959
g926
asbag68
(g89
g70
NtRp1960
(dp1961
g73
(dp1962
g100
g101
ssg82
g1952
sg75
(lp1963
S':'
asbag68
(g89
g70
NtRp1964
(dp1965
g73
(dp1966
sg82
g1952
sg75
(lp1967
g68
(g69
g70
NtRp1968
(dp1969
g73
(dp1970
g81
I4
ssg82
g1964
sg75
(lp1971
S"<Values at 0x24356c8: {'verbose': False, 'ip': '127.0.0.1', 'shutdown_timeout': 5, 'taskbar': False, 'nocron': False, 'pid_filename': 'httpserver.pid', 'maxthreads': None, 'softcron': False, 'server_name': 'jose', 'bpython': False, 'nogui': False, 'port': 8000, 'extcron': False, 'debuglevel': 30, 'test': None, 'folder': '/home/jose/DESARROLLO/web2py199', 'config': '', 'import_models': False, 'winservice': '', 'shell': None, 'run': '', 'log_filename': 'httpserver.log', 'args': [''], 'ssl_ca_certificate': None, 'scheduler': None, 'profiler_filename': None, 'ssl_private_key': '', 'password': 't', 'request_queue_size': 5, 'ssl_certificate': '', 'cronjob': False, 'plain': False, 'quiet': False, 'interfaces': None, 'minthreads': None, 'timeout': 10, 'numthreads': None, 'nobanner': False}>"
p1972
asbasbasbag68
(g84
g70
NtRp1973
(dp1974
g73
(dp1975
sg82
g1883
sg75
(lp1976
g68
(g89
g70
NtRp1977
(dp1978
g73
(dp1979
g93
g94
ssg82
g1973
sg75
(lp1980
g948
asbag68
(g89
g70
NtRp1981
(dp1982
g73
(dp1983
g100
g101
ssg82
g1973
sg75
(lp1984
S':'
asbag68
(g89
g70
NtRp1985
(dp1986
g73
(dp1987
sg82
g1973
sg75
(lp1988
g68
(g69
g70
NtRp1989
(dp1990
g73
(dp1991
g81
I4
ssg82
g1985
sg75
(lp1992
S'set([])'
p1993
asbasbasbag68
(g84
g70
NtRp1994
(dp1995
g73
(dp1996
sg82
g1883
sg75
(lp1997
g68
(g89
g70
NtRp1998
(dp1999
g73
(dp2000
g93
g94
ssg82
g1994
sg75
(lp2001
g970
asbag68
(g89
g70
NtRp2002
(dp2003
g73
(dp2004
g100
g101
ssg82
g1994
sg75
(lp2005
S':'
asbag68
(g89
g70
NtRp2006
(dp2007
g73
(dp2008
sg82
g1994
sg75
(lp2009
g68
(g69
g70
NtRp2010
(dp2011
g73
(dp2012
g81
I4
ssg82
g2006
sg75
(lp2013
g111
asbasbasbag68
(g84
g70
NtRp2014
(dp2015
g73
(dp2016
sg82
g1883
sg75
(lp2017
g68
(g89
g70
NtRp2018
(dp2019
g73
(dp2020
g93
g94
ssg82
g2014
sg75
(lp2021
g991
asbag68
(g89
g70
NtRp2022
(dp2023
g73
(dp2024
g100
g101
ssg82
g2014
sg75
(lp2025
S':'
asbag68
(g89
g70
NtRp2026
(dp2027
g73
(dp2028
sg82
g2014
sg75
(lp2029
g68
(g69
g70
NtRp2030
(dp2031
g73
(dp2032
g81
I4
ssg82
g2026
sg75
(lp2033
g1004
asbasbasbag68
(g84
g70
NtRp2034
(dp2035
g73
(dp2036
sg82
g1883
sg75
(lp2037
g68
(g89
g70
NtRp2038
(dp2039
g73
(dp2040
g93
g94
ssg82
g2034
sg75
(lp2041
g1167
asbag68
(g89
g70
NtRp2042
(dp2043
g73
(dp2044
g100
g101
ssg82
g2034
sg75
(lp2045
S':'
asbag68
(g89
g70
NtRp2046
(dp2047
g73
(dp2048
sg82
g2034
sg75
(lp2049
g68
(g69
g70
NtRp2050
(dp2051
g73
(dp2052
g81
I4
ssg82
g2046
sg75
(lp2053
g111
asbasbasbag68
(g84
g70
NtRp2054
(dp2055
g73
(dp2056
sg82
g1883
sg75
(lp2057
g68
(g89
g70
NtRp2058
(dp2059
g73
(dp2060
g93
g94
ssg82
g2054
sg75
(lp2061
g1426
asbag68
(g89
g70
NtRp2062
(dp2063
g73
(dp2064
g100
g101
ssg82
g2054
sg75
(lp2065
S':'
asbag68
(g89
g70
NtRp2066
(dp2067
g73
(dp2068
sg82
g2054
sg75
(lp2069
g68
(g69
g70
NtRp2070
(dp2071
g73
(dp2072
g81
I4
ssg82
g2066
sg75
(lp2073
g1439
asbasbasbag68
(g84
g70
NtRp2074
(dp2075
g73
(dp2076
sg82
g1883
sg75
(lp2077
g68
(g89
g70
NtRp2078
(dp2079
g73
(dp2080
g93
g94
ssg82
g2074
sg75
(lp2081
g1490
asbag68
(g89
g70
NtRp2082
(dp2083
g73
(dp2084
g100
g101
ssg82
g2074
sg75
(lp2085
S':'
asbag68
(g89
g70
NtRp2086
(dp2087
g73
(dp2088
sg82
g2074
sg75
(lp2089
g68
(g69
g70
NtRp2090
(dp2091
g73
(dp2092
g81
I4
ssg82
g2086
sg75
(lp2093
g68
(g77
g70
NtRp2094
(dp2095
g73
(dp2096
g81
I3
ssg82
Nsg75
(lp2097
g68
(g84
g70
NtRp2098
(dp2099
g73
(dp2100
sg82
g2094
sg75
(lp2101
g68
(g89
g70
NtRp2102
(dp2103
g73
(dp2104
sg82
g2098
sg75
(lp2105
g68
(g69
g70
NtRp2106
(dp2107
g73
(dp2108
g81
I3
ssg82
g2102
sg75
(lp2109
S'1'
asbasbasbag68
(g84
g70
NtRp2110
(dp2111
g73
(dp2112
sg82
g2094
sg75
(lp2113
g68
(g89
g70
NtRp2114
(dp2115
g73
(dp2116
sg82
g2110
sg75
(lp2117
g68
(g69
g70
NtRp2118
(dp2119
g73
(dp2120
g81
I3
ssg82
g2114
sg75
(lp2121
S'99'
p2122
asbasbasbag68
(g84
g70
NtRp2123
(dp2124
g73
(dp2125
sg82
g2094
sg75
(lp2126
g68
(g89
g70
NtRp2127
(dp2128
g73
(dp2129
sg82
g2123
sg75
(lp2130
g68
(g69
g70
NtRp2131
(dp2132
g73
(dp2133
g81
I3
ssg82
g2127
sg75
(lp2134
S'2'
asbasbasbag68
(g84
g70
NtRp2135
(dp2136
g73
(dp2137
sg82
g2094
sg75
(lp2138
g68
(g89
g70
NtRp2139
(dp2140
g73
(dp2141
sg82
g2135
sg75
(lp2142
g68
(g69
g70
NtRp2143
(dp2144
g73
(dp2145
g81
I3
ssg82
g2139
sg75
(lp2146
S'datetime.datetime(2011, 9, 26, 6, 55, 33)'
p2147
asbasbasbag68
(g84
g70
NtRp2148
(dp2149
g73
(dp2150
sg82
g2094
sg75
(lp2151
g68
(g89
g70
NtRp2152
(dp2153
g73
(dp2154
sg82
g2148
sg75
(lp2155
g68
(g69
g70
NtRp2156
(dp2157
g73
(dp2158
g81
I3
ssg82
g2152
sg75
(lp2159
g1569
asbasbasbasbasbasbasbasbasbasbasbag68
(g84
g70
NtRp2160
(dp2161
g73
(dp2162
sg82
g78
sg75
(lp2163
g68
(g89
g70
NtRp2164
(dp2165
g73
(dp2166
g93
g94
ssg82
g2160
sg75
(lp2167
S'is_https'
p2168
asbag68
(g89
g70
NtRp2169
(dp2170
g73
(dp2171
g100
g101
ssg82
g2160
sg75
(lp2172
S':'
asbag68
(g89
g70
NtRp2173
(dp2174
g73
(dp2175
sg82
g2160
sg75
(lp2176
g68
(g69
g70
NtRp2177
(dp2178
g73
(dp2179
g81
I5
ssg82
g2173
sg75
(lp2180
g111
asbasbasbag68
(g84
g70
NtRp2181
(dp2182
g73
(dp2183
sg82
g78
sg75
(lp2184
g68
(g89
g70
NtRp2185
(dp2186
g73
(dp2187
g93
g94
ssg82
g2181
sg75
(lp2188
S'is_local'
p2189
asbag68
(g89
g70
NtRp2190
(dp2191
g73
(dp2192
g100
g101
ssg82
g2181
sg75
(lp2193
S':'
asbag68
(g89
g70
NtRp2194
(dp2195
g73
(dp2196
sg82
g2181
sg75
(lp2197
g68
(g69
g70
NtRp2198
(dp2199
g73
(dp2200
g81
I5
ssg82
g2194
sg75
(lp2201
g1678
asbasbasbag68
(g84
g70
NtRp2202
(dp2203
g73
(dp2204
sg82
g78
sg75
(lp2205
g68
(g89
g70
NtRp2206
(dp2207
g73
(dp2208
g93
g94
ssg82
g2202
sg75
(lp2209
S'is_restful'
p2210
asbag68
(g89
g70
NtRp2211
(dp2212
g73
(dp2213
g100
g101
ssg82
g2202
sg75
(lp2214
S':'
asbag68
(g89
g70
NtRp2215
(dp2216
g73
(dp2217
sg82
g2202
sg75
(lp2218
g68
(g69
g70
NtRp2219
(dp2220
g73
(dp2221
g81
I5
ssg82
g2215
sg75
(lp2222
g111
asbasbasbag68
(g84
g70
NtRp2223
(dp2224
g73
(dp2225
sg82
g78
sg75
(lp2226
g68
(g89
g70
NtRp2227
(dp2228
g73
(dp2229
g93
g94
ssg82
g2223
sg75
(lp2230
S'now'
p2231
asbag68
(g89
g70
NtRp2232
(dp2233
g73
(dp2234
g100
g101
ssg82
g2223
sg75
(lp2235
S':'
asbag68
(g89
g70
NtRp2236
(dp2237
g73
(dp2238
sg82
g2223
sg75
(lp2239
g68
(g69
g70
NtRp2240
(dp2241
g73
(dp2242
g81
I5
ssg82
g2236
sg75
(lp2243
S'datetime.datetime(2012, 5, 27, 15, 4, 33, 839989)'
p2244
asbasbasbag68
(g84
g70
NtRp2245
(dp2246
g73
(dp2247
sg82
g78
sg75
(lp2248
g68
(g89
g70
NtRp2249
(dp2250
g73
(dp2251
g93
g94
ssg82
g2245
sg75
(lp2252
S'post_vars'
p2253
asbag68
(g89
g70
NtRp2254
(dp2255
g73
(dp2256
g100
g101
ssg82
g2245
sg75
(lp2257
S':'
asbag68
(g89
g70
NtRp2258
(dp2259
g73
(dp2260
sg82
g2245
sg75
(lp2261
g68
(g69
g70
NtRp2262
(dp2263
g73
(dp2264
g81
I5
ssg82
g2258
sg75
(lp2265
g68
(g77
g70
NtRp2266
(dp2267
g73
(dp2268
g81
I4
ssg82
Nsg75
(lp2269
sbasbasbasbag68
(g84
g70
NtRp2270
(dp2271
g73
(dp2272
sg82
g78
sg75
(lp2273
g68
(g89
g70
NtRp2274
(dp2275
g73
(dp2276
g93
g94
ssg82
g2270
sg75
(lp2277
S'raw_args'
p2278
asbag68
(g89
g70
NtRp2279
(dp2280
g73
(dp2281
g100
g101
ssg82
g2270
sg75
(lp2282
S':'
asbag68
(g89
g70
NtRp2283
(dp2284
g73
(dp2285
sg82
g2270
sg75
(lp2286
g68
(g69
g70
NtRp2287
(dp2288
g73
(dp2289
g81
I5
ssg82
g2283
sg75
(lp2290
S'2'
asbasbasbag68
(g84
g70
NtRp2291
(dp2292
g73
(dp2293
sg82
g78
sg75
(lp2294
g68
(g89
g70
NtRp2295
(dp2296
g73
(dp2297
g93
g94
ssg82
g2291
sg75
(lp2298
S'raw_extension'
p2299
asbag68
(g89
g70
NtRp2300
(dp2301
g73
(dp2302
g100
g101
ssg82
g2291
sg75
(lp2303
S':'
asbag68
(g89
g70
NtRp2304
(dp2305
g73
(dp2306
sg82
g2291
sg75
(lp2307
g68
(g69
g70
NtRp2308
(dp2309
g73
(dp2310
g81
I5
ssg82
g2304
sg75
(lp2311
g1792
asbasbasbag68
(g84
g70
NtRp2312
(dp2313
g73
(dp2314
sg82
g78
sg75
(lp2315
g68
(g89
g70
NtRp2316
(dp2317
g73
(dp2318
g93
g94
ssg82
g2312
sg75
(lp2319
S'url'
p2320
asbag68
(g89
g70
NtRp2321
(dp2322
g73
(dp2323
g100
g101
ssg82
g2312
sg75
(lp2324
S':'
asbag68
(g89
g70
NtRp2325
(dp2326
g73
(dp2327
sg82
g2312
sg75
(lp2328
g68
(g69
g70
NtRp2329
(dp2330
g73
(dp2331
g81
I5
ssg82
g2325
sg75
(lp2332
S'/streamlog/default/getConnectionData.json/2'
p2333
asbasbasbag68
(g84
g70
NtRp2334
(dp2335
g73
(dp2336
sg82
g78
sg75
(lp2337
g68
(g89
g70
NtRp2338
(dp2339
g73
(dp2340
g93
g94
ssg82
g2334
sg75
(lp2341
S'utcnow'
p2342
asbag68
(g89
g70
NtRp2343
(dp2344
g73
(dp2345
g100
g101
ssg82
g2334
sg75
(lp2346
S':'
asbag68
(g89
g70
NtRp2347
(dp2348
g73
(dp2349
sg82
g2334
sg75
(lp2350
g68
(g69
g70
NtRp2351
(dp2352
g73
(dp2353
g81
I5
ssg82
g2347
sg75
(lp2354
S'datetime.datetime(2012, 5, 27, 8, 4, 33, 840013)'
p2355
asbasbasbag68
(g84
g70
NtRp2356
(dp2357
g73
(dp2358
sg82
g78
sg75
(lp2359
g68
(g89
g70
NtRp2360
(dp2361
g73
(dp2362
g93
g94
ssg82
g2356
sg75
(lp2363
S'uuid'
p2364
asbag68
(g89
g70
NtRp2365
(dp2366
g73
(dp2367
g100
g101
ssg82
g2356
sg75
(lp2368
S':'
asbag68
(g89
g70
NtRp2369
(dp2370
g73
(dp2371
sg82
g2356
sg75
(lp2372
g68
(g69
g70
NtRp2373
(dp2374
g73
(dp2375
g81
I5
ssg82
g2369
sg75
(lp2376
S'streamlog/127.0.0.1.2012-05-27.15-04-33.5c2b03b2-5879-4629-b30f-f6df7838bf7a'
p2377
asbasbasbag68
(g84
g70
NtRp2378
(dp2379
g73
(dp2380
sg82
g78
sg75
(lp2381
g68
(g89
g70
NtRp2382
(dp2383
g73
(dp2384
g93
g94
ssg82
g2378
sg75
(lp2385
S'vars'
p2386
asbag68
(g89
g70
NtRp2387
(dp2388
g73
(dp2389
g100
g101
ssg82
g2378
sg75
(lp2390
S':'
asbag68
(g89
g70
NtRp2391
(dp2392
g73
(dp2393
sg82
g2378
sg75
(lp2394
g68
(g69
g70
NtRp2395
(dp2396
g73
(dp2397
g81
I5
ssg82
g2391
sg75
(lp2398
g68
(g77
g70
NtRp2399
(dp2400
g73
(dp2401
g81
I4
ssg82
Nsg75
(lp2402
sbasbasbasbag68
(g84
g70
NtRp2403
(dp2404
g73
(dp2405
sg82
g78
sg75
(lp2406
g68
(g89
g70
NtRp2407
(dp2408
g73
(dp2409
g93
g94
ssg82
g2403
sg75
(lp2410
S'wsgi'
p2411
asbag68
(g89
g70
NtRp2412
(dp2413
g73
(dp2414
g100
g101
ssg82
g2403
sg75
(lp2415
S':'
asbag68
(g89
g70
NtRp2416
(dp2417
g73
(dp2418
sg82
g2403
sg75
(lp2419
g68
(g69
g70
NtRp2420
(dp2421
g73
(dp2422
g81
I5
ssg82
g2416
sg75
(lp2423
g68
(g77
g70
NtRp2424
(dp2425
g73
(dp2426
g81
I4
ssg82
Nsg75
(lp2427
g68
(g84
g70
NtRp2428
(dp2429
g73
(dp2430
sg82
g2424
sg75
(lp2431
g68
(g89
g70
NtRp2432
(dp2433
g73
(dp2434
g93
g94
ssg82
g2428
sg75
(lp2435
S'environ'
p2436
asbag68
(g89
g70
NtRp2437
(dp2438
g73
(dp2439
g100
g101
ssg82
g2428
sg75
(lp2440
S':'
asbag68
(g89
g70
NtRp2441
(dp2442
g73
(dp2443
sg82
g2428
sg75
(lp2444
g68
(g69
g70
NtRp2445
(dp2446
g73
(dp2447
g81
I4
ssg82
g2441
sg75
(lp2448
g68
(g77
g70
NtRp2449
(dp2450
g73
(dp2451
g81
I3
ssg82
Nsg75
(lp2452
g68
(g84
g70
NtRp2453
(dp2454
g73
(dp2455
sg82
g2449
sg75
(lp2456
g68
(g89
g70
NtRp2457
(dp2458
g73
(dp2459
g93
g94
ssg82
g2453
sg75
(lp2460
S'HTTP_ACCEPT'
p2461
asbag68
(g89
g70
NtRp2462
(dp2463
g73
(dp2464
g100
g101
ssg82
g2453
sg75
(lp2465
S':'
asbag68
(g89
g70
NtRp2466
(dp2467
g73
(dp2468
sg82
g2453
sg75
(lp2469
g68
(g69
g70
NtRp2470
(dp2471
g73
(dp2472
g81
I3
ssg82
g2466
sg75
(lp2473
g1026
asbasbasbag68
(g84
g70
NtRp2474
(dp2475
g73
(dp2476
sg82
g2449
sg75
(lp2477
g68
(g89
g70
NtRp2478
(dp2479
g73
(dp2480
g93
g94
ssg82
g2474
sg75
(lp2481
S'HTTP_ACCEPT_ENCODING'
p2482
asbag68
(g89
g70
NtRp2483
(dp2484
g73
(dp2485
g100
g101
ssg82
g2474
sg75
(lp2486
S':'
asbag68
(g89
g70
NtRp2487
(dp2488
g73
(dp2489
sg82
g2474
sg75
(lp2490
g68
(g69
g70
NtRp2491
(dp2492
g73
(dp2493
g81
I3
ssg82
g2487
sg75
(lp2494
g1048
asbasbasbag68
(g84
g70
NtRp2495
(dp2496
g73
(dp2497
sg82
g2449
sg75
(lp2498
g68
(g89
g70
NtRp2499
(dp2500
g73
(dp2501
g93
g94
ssg82
g2495
sg75
(lp2502
S'HTTP_ACCEPT_LANGUAGE'
p2503
asbag68
(g89
g70
NtRp2504
(dp2505
g73
(dp2506
g100
g101
ssg82
g2495
sg75
(lp2507
S':'
asbag68
(g89
g70
NtRp2508
(dp2509
g73
(dp2510
sg82
g2495
sg75
(lp2511
g68
(g69
g70
NtRp2512
(dp2513
g73
(dp2514
g81
I3
ssg82
g2508
sg75
(lp2515
g1070
asbasbasbag68
(g84
g70
NtRp2516
(dp2517
g73
(dp2518
sg82
g2449
sg75
(lp2519
g68
(g89
g70
NtRp2520
(dp2521
g73
(dp2522
g93
g94
ssg82
g2516
sg75
(lp2523
S'HTTP_CONNECTION'
p2524
asbag68
(g89
g70
NtRp2525
(dp2526
g73
(dp2527
g100
g101
ssg82
g2516
sg75
(lp2528
S':'
asbag68
(g89
g70
NtRp2529
(dp2530
g73
(dp2531
sg82
g2516
sg75
(lp2532
g68
(g69
g70
NtRp2533
(dp2534
g73
(dp2535
g81
I3
ssg82
g2529
sg75
(lp2536
g1092
asbasbasbag68
(g84
g70
NtRp2537
(dp2538
g73
(dp2539
sg82
g2449
sg75
(lp2540
g68
(g89
g70
NtRp2541
(dp2542
g73
(dp2543
g93
g94
ssg82
g2537
sg75
(lp2544
S'HTTP_COOKIE'
p2545
asbag68
(g89
g70
NtRp2546
(dp2547
g73
(dp2548
g100
g101
ssg82
g2537
sg75
(lp2549
S':'
asbag68
(g89
g70
NtRp2550
(dp2551
g73
(dp2552
sg82
g2537
sg75
(lp2553
g68
(g69
g70
NtRp2554
(dp2555
g73
(dp2556
g81
I3
ssg82
g2550
sg75
(lp2557
g1114
asbasbasbag68
(g84
g70
NtRp2558
(dp2559
g73
(dp2560
sg82
g2449
sg75
(lp2561
g68
(g89
g70
NtRp2562
(dp2563
g73
(dp2564
g93
g94
ssg82
g2558
sg75
(lp2565
S'HTTP_HOST'
p2566
asbag68
(g89
g70
NtRp2567
(dp2568
g73
(dp2569
g100
g101
ssg82
g2558
sg75
(lp2570
S':'
asbag68
(g89
g70
NtRp2571
(dp2572
g73
(dp2573
sg82
g2558
sg75
(lp2574
g68
(g69
g70
NtRp2575
(dp2576
g73
(dp2577
g81
I3
ssg82
g2571
sg75
(lp2578
g1136
asbasbasbag68
(g84
g70
NtRp2579
(dp2580
g73
(dp2581
sg82
g2449
sg75
(lp2582
g68
(g89
g70
NtRp2583
(dp2584
g73
(dp2585
g93
g94
ssg82
g2579
sg75
(lp2586
S'HTTP_USER_AGENT'
p2587
asbag68
(g89
g70
NtRp2588
(dp2589
g73
(dp2590
g100
g101
ssg82
g2579
sg75
(lp2591
S':'
asbag68
(g89
g70
NtRp2592
(dp2593
g73
(dp2594
sg82
g2579
sg75
(lp2595
g68
(g69
g70
NtRp2596
(dp2597
g73
(dp2598
g81
I3
ssg82
g2592
sg75
(lp2599
g1158
asbasbasbag68
(g84
g70
NtRp2600
(dp2601
g73
(dp2602
sg82
g2449
sg75
(lp2603
g68
(g89
g70
NtRp2604
(dp2605
g73
(dp2606
g93
g94
ssg82
g2600
sg75
(lp2607
S'PATH_INFO'
p2608
asbag68
(g89
g70
NtRp2609
(dp2610
g73
(dp2611
g100
g101
ssg82
g2600
sg75
(lp2612
S':'
asbag68
(g89
g70
NtRp2613
(dp2614
g73
(dp2615
sg82
g2600
sg75
(lp2616
g68
(g69
g70
NtRp2617
(dp2618
g73
(dp2619
g81
I3
ssg82
g2613
sg75
(lp2620
g1201
asbasbasbag68
(g84
g70
NtRp2621
(dp2622
g73
(dp2623
sg82
g2449
sg75
(lp2624
g68
(g89
g70
NtRp2625
(dp2626
g73
(dp2627
g93
g94
ssg82
g2621
sg75
(lp2628
S'QUERY_STRING'
p2629
asbag68
(g89
g70
NtRp2630
(dp2631
g73
(dp2632
g100
g101
ssg82
g2621
sg75
(lp2633
S':'
asbag68
(g89
g70
NtRp2634
(dp2635
g73
(dp2636
sg82
g2621
sg75
(lp2637
g68
(g69
g70
NtRp2638
(dp2639
g73
(dp2640
g81
I3
ssg82
g2634
sg75
(lp2641
S''
asbasbasbag68
(g84
g70
NtRp2642
(dp2643
g73
(dp2644
sg82
g2449
sg75
(lp2645
g68
(g89
g70
NtRp2646
(dp2647
g73
(dp2648
g93
g94
ssg82
g2642
sg75
(lp2649
S'REMOTE_ADDR'
p2650
asbag68
(g89
g70
NtRp2651
(dp2652
g73
(dp2653
g100
g101
ssg82
g2642
sg75
(lp2654
S':'
asbag68
(g89
g70
NtRp2655
(dp2656
g73
(dp2657
sg82
g2642
sg75
(lp2658
g68
(g69
g70
NtRp2659
(dp2660
g73
(dp2661
g81
I3
ssg82
g2655
sg75
(lp2662
g213
asbasbasbag68
(g84
g70
NtRp2663
(dp2664
g73
(dp2665
sg82
g2449
sg75
(lp2666
g68
(g89
g70
NtRp2667
(dp2668
g73
(dp2669
g93
g94
ssg82
g2663
sg75
(lp2670
S'REMOTE_PORT'
p2671
asbag68
(g89
g70
NtRp2672
(dp2673
g73
(dp2674
g100
g101
ssg82
g2663
sg75
(lp2675
S':'
asbag68
(g89
g70
NtRp2676
(dp2677
g73
(dp2678
sg82
g2663
sg75
(lp2679
g68
(g69
g70
NtRp2680
(dp2681
g73
(dp2682
g81
I3
ssg82
g2676
sg75
(lp2683
g1265
asbasbasbag68
(g84
g70
NtRp2684
(dp2685
g73
(dp2686
sg82
g2449
sg75
(lp2687
g68
(g89
g70
NtRp2688
(dp2689
g73
(dp2690
g93
g94
ssg82
g2684
sg75
(lp2691
S'REQUEST_METHOD'
p2692
asbag68
(g89
g70
NtRp2693
(dp2694
g73
(dp2695
g100
g101
ssg82
g2684
sg75
(lp2696
S':'
asbag68
(g89
g70
NtRp2697
(dp2698
g73
(dp2699
sg82
g2684
sg75
(lp2700
g68
(g69
g70
NtRp2701
(dp2702
g73
(dp2703
g81
I3
ssg82
g2697
sg75
(lp2704
g1287
asbasbasbag68
(g84
g70
NtRp2705
(dp2706
g73
(dp2707
sg82
g2449
sg75
(lp2708
g68
(g89
g70
NtRp2709
(dp2710
g73
(dp2711
g93
g94
ssg82
g2705
sg75
(lp2712
S'REQUEST_URI'
p2713
asbag68
(g89
g70
NtRp2714
(dp2715
g73
(dp2716
g100
g101
ssg82
g2705
sg75
(lp2717
S':'
asbag68
(g89
g70
NtRp2718
(dp2719
g73
(dp2720
sg82
g2705
sg75
(lp2721
g68
(g69
g70
NtRp2722
(dp2723
g73
(dp2724
g81
I3
ssg82
g2718
sg75
(lp2725
g1201
asbasbasbag68
(g84
g70
NtRp2726
(dp2727
g73
(dp2728
sg82
g2449
sg75
(lp2729
g68
(g89
g70
NtRp2730
(dp2731
g73
(dp2732
g93
g94
ssg82
g2726
sg75
(lp2733
S'SCRIPT_NAME'
p2734
asbag68
(g89
g70
NtRp2735
(dp2736
g73
(dp2737
g100
g101
ssg82
g2726
sg75
(lp2738
S':'
asbag68
(g89
g70
NtRp2739
(dp2740
g73
(dp2741
sg82
g2726
sg75
(lp2742
g68
(g69
g70
NtRp2743
(dp2744
g73
(dp2745
g81
I3
ssg82
g2739
sg75
(lp2746
S''
asbasbasbag68
(g84
g70
NtRp2747
(dp2748
g73
(dp2749
sg82
g2449
sg75
(lp2750
g68
(g89
g70
NtRp2751
(dp2752
g73
(dp2753
g93
g94
ssg82
g2747
sg75
(lp2754
S'SERVER_NAME'
p2755
asbag68
(g89
g70
NtRp2756
(dp2757
g73
(dp2758
g100
g101
ssg82
g2747
sg75
(lp2759
S':'
asbag68
(g89
g70
NtRp2760
(dp2761
g73
(dp2762
sg82
g2747
sg75
(lp2763
g68
(g69
g70
NtRp2764
(dp2765
g73
(dp2766
g81
I3
ssg82
g2760
sg75
(lp2767
g1351
asbasbasbag68
(g84
g70
NtRp2768
(dp2769
g73
(dp2770
sg82
g2449
sg75
(lp2771
g68
(g89
g70
NtRp2772
(dp2773
g73
(dp2774
g93
g94
ssg82
g2768
sg75
(lp2775
S'SERVER_PORT'
p2776
asbag68
(g89
g70
NtRp2777
(dp2778
g73
(dp2779
g100
g101
ssg82
g2768
sg75
(lp2780
S':'
asbag68
(g89
g70
NtRp2781
(dp2782
g73
(dp2783
sg82
g2768
sg75
(lp2784
g68
(g69
g70
NtRp2785
(dp2786
g73
(dp2787
g81
I3
ssg82
g2781
sg75
(lp2788
g1373
asbasbasbag68
(g84
g70
NtRp2789
(dp2790
g73
(dp2791
sg82
g2449
sg75
(lp2792
g68
(g89
g70
NtRp2793
(dp2794
g73
(dp2795
g93
g94
ssg82
g2789
sg75
(lp2796
S'SERVER_PROTOCOL'
p2797
asbag68
(g89
g70
NtRp2798
(dp2799
g73
(dp2800
g100
g101
ssg82
g2789
sg75
(lp2801
S':'
asbag68
(g89
g70
NtRp2802
(dp2803
g73
(dp2804
sg82
g2789
sg75
(lp2805
g68
(g69
g70
NtRp2806
(dp2807
g73
(dp2808
g81
I3
ssg82
g2802
sg75
(lp2809
g1395
asbasbasbag68
(g84
g70
NtRp2810
(dp2811
g73
(dp2812
sg82
g2449
sg75
(lp2813
g68
(g89
g70
NtRp2814
(dp2815
g73
(dp2816
g93
g94
ssg82
g2810
sg75
(lp2817
S'SERVER_SOFTWARE'
p2818
asbag68
(g89
g70
NtRp2819
(dp2820
g73
(dp2821
g100
g101
ssg82
g2810
sg75
(lp2822
S':'
asbag68
(g89
g70
NtRp2823
(dp2824
g73
(dp2825
sg82
g2810
sg75
(lp2826
g68
(g69
g70
NtRp2827
(dp2828
g73
(dp2829
g81
I3
ssg82
g2823
sg75
(lp2830
g1417
asbasbasbag68
(g84
g70
NtRp2831
(dp2832
g73
(dp2833
sg82
g2449
sg75
(lp2834
g68
(g89
g70
NtRp2835
(dp2836
g73
(dp2837
g93
g94
ssg82
g2831
sg75
(lp2838
S'WEB2PY_ORIGINAL_URI'
p2839
asbag68
(g89
g70
NtRp2840
(dp2841
g73
(dp2842
g100
g101
ssg82
g2831
sg75
(lp2843
S':'
asbag68
(g89
g70
NtRp2844
(dp2845
g73
(dp2846
sg82
g2831
sg75
(lp2847
g68
(g69
g70
NtRp2848
(dp2849
g73
(dp2850
g81
I3
ssg82
g2844
sg75
(lp2851
g1201
asbasbasbag68
(g84
g70
NtRp2852
(dp2853
g73
(dp2854
sg82
g2449
sg75
(lp2855
g68
(g89
g70
NtRp2856
(dp2857
g73
(dp2858
g93
g94
ssg82
g2852
sg75
(lp2859
S'wsgi.errors'
p2860
asbag68
(g89
g70
NtRp2861
(dp2862
g73
(dp2863
g100
g101
ssg82
g2852
sg75
(lp2864
S':'
asbag68
(g89
g70
NtRp2865
(dp2866
g73
(dp2867
sg82
g2852
sg75
(lp2868
g68
(g69
g70
NtRp2869
(dp2870
g73
(dp2871
g81
I3
ssg82
g2865
sg75
(lp2872
S"<open file '<stderr>', mode 'w' at 0x7f70cdab4270>"
p2873
asbasbasbag68
(g84
g70
NtRp2874
(dp2875
g73
(dp2876
sg82
g2449
sg75
(lp2877
g68
(g89
g70
NtRp2878
(dp2879
g73
(dp2880
g93
g94
ssg82
g2874
sg75
(lp2881
S'wsgi.file_wrapper'
p2882
asbag68
(g89
g70
NtRp2883
(dp2884
g73
(dp2885
g100
g101
ssg82
g2874
sg75
(lp2886
S':'
asbag68
(g89
g70
NtRp2887
(dp2888
g73
(dp2889
sg82
g2874
sg75
(lp2890
g68
(g69
g70
NtRp2891
(dp2892
g73
(dp2893
g81
I3
ssg82
g2887
sg75
(lp2894
S'<class wsgiref.util.FileWrapper at 0x234fd50>'
p2895
asbasbasbag68
(g84
g70
NtRp2896
(dp2897
g73
(dp2898
sg82
g2449
sg75
(lp2899
g68
(g89
g70
NtRp2900
(dp2901
g73
(dp2902
g93
g94
ssg82
g2896
sg75
(lp2903
S'wsgi.input'
p2904
asbag68
(g89
g70
NtRp2905
(dp2906
g73
(dp2907
g100
g101
ssg82
g2896
sg75
(lp2908
S':'
asbag68
(g89
g70
NtRp2909
(dp2910
g73
(dp2911
sg82
g2896
sg75
(lp2912
g68
(g69
g70
NtRp2913
(dp2914
g73
(dp2915
g81
I3
ssg82
g2909
sg75
(lp2916
S'<cStringIO.StringO object at 0x2cab5a8>'
p2917
asbasbasbag68
(g84
g70
NtRp2918
(dp2919
g73
(dp2920
sg82
g2449
sg75
(lp2921
g68
(g89
g70
NtRp2922
(dp2923
g73
(dp2924
g93
g94
ssg82
g2918
sg75
(lp2925
S'wsgi.multiprocess'
p2926
asbag68
(g89
g70
NtRp2927
(dp2928
g73
(dp2929
g100
g101
ssg82
g2918
sg75
(lp2930
S':'
asbag68
(g89
g70
NtRp2931
(dp2932
g73
(dp2933
sg82
g2918
sg75
(lp2934
g68
(g69
g70
NtRp2935
(dp2936
g73
(dp2937
g81
I3
ssg82
g2931
sg75
(lp2938
g111
asbasbasbag68
(g84
g70
NtRp2939
(dp2940
g73
(dp2941
sg82
g2449
sg75
(lp2942
g68
(g89
g70
NtRp2943
(dp2944
g73
(dp2945
g93
g94
ssg82
g2939
sg75
(lp2946
S'wsgi.multithread'
p2947
asbag68
(g89
g70
NtRp2948
(dp2949
g73
(dp2950
g100
g101
ssg82
g2939
sg75
(lp2951
S':'
asbag68
(g89
g70
NtRp2952
(dp2953
g73
(dp2954
sg82
g2939
sg75
(lp2955
g68
(g69
g70
NtRp2956
(dp2957
g73
(dp2958
g81
I3
ssg82
g2952
sg75
(lp2959
g1678
asbasbasbag68
(g84
g70
NtRp2960
(dp2961
g73
(dp2962
sg82
g2449
sg75
(lp2963
g68
(g89
g70
NtRp2964
(dp2965
g73
(dp2966
g93
g94
ssg82
g2960
sg75
(lp2967
S'wsgi.run_once'
p2968
asbag68
(g89
g70
NtRp2969
(dp2970
g73
(dp2971
g100
g101
ssg82
g2960
sg75
(lp2972
S':'
asbag68
(g89
g70
NtRp2973
(dp2974
g73
(dp2975
sg82
g2960
sg75
(lp2976
g68
(g69
g70
NtRp2977
(dp2978
g73
(dp2979
g81
I3
ssg82
g2973
sg75
(lp2980
g111
asbasbasbag68
(g84
g70
NtRp2981
(dp2982
g73
(dp2983
sg82
g2449
sg75
(lp2984
g68
(g89
g70
NtRp2985
(dp2986
g73
(dp2987
g93
g94
ssg82
g2981
sg75
(lp2988
S'wsgi.url_scheme'
p2989
asbag68
(g89
g70
NtRp2990
(dp2991
g73
(dp2992
g100
g101
ssg82
g2981
sg75
(lp2993
S':'
asbag68
(g89
g70
NtRp2994
(dp2995
g73
(dp2996
sg82
g2981
sg75
(lp2997
g68
(g69
g70
NtRp2998
(dp2999
g73
(dp3000
g81
I3
ssg82
g2994
sg75
(lp3001
g1721
asbasbasbag68
(g84
g70
NtRp3002
(dp3003
g73
(dp3004
sg82
g2449
sg75
(lp3005
g68
(g89
g70
NtRp3006
(dp3007
g73
(dp3008
g93
g94
ssg82
g3002
sg75
(lp3009
S'wsgi.version'
p3010
asbag68
(g89
g70
NtRp3011
(dp3012
g73
(dp3013
g100
g101
ssg82
g3002
sg75
(lp3014
S':'
asbag68
(g89
g70
NtRp3015
(dp3016
g73
(dp3017
sg82
g3002
sg75
(lp3018
g68
(g69
g70
NtRp3019
(dp3020
g73
(dp3021
g81
I3
ssg82
g3015
sg75
(lp3022
S'1'
asbasbasbasbasbasbasbasbasbasbasbasbasbsS'frames'
p3023
(lp3024
(dp3025
S'file'
p3026
S'/home/jose/DESARROLLO/web2py199/gluon/restricted.py'
p3027
sS'dump'
p3028
(dp3029
S'code'
p3030
S"'# -*- coding: utf-8 -*-\\n# this file is released ...sponse._vars=response._caller(getConnectionData)\\n'"
p3031
sS'layer'
p3032
S"'/home/jose/DESARROLLO/web2py199/applications/streamlog/controllers/default.py'"
p3033
sS'global compile2'
p3034
S'<function compile2>'
p3035
sS'ccode'
p3036
S'undefined'
p3037
ssS'lnum'
p3038
I193
sS'lines'
p3039
(dp3040
I192
S'        else:'
p3041
sI193
S'            ccode = compile2(code,layer)'
p3042
sI194
S'        exec ccode in environment'
p3043
sI195
S'    except HTTP:'
p3044
sI196
S'        raise'
p3045
sI197
S'    except Exception, error:'
p3046
sI188
S"    environment['__file__'] = layer"
p3047
sI189
S'    try:'
p3048
sI190
S'        if type(code) == types.CodeType:'
p3049
sI191
S'            ccode = code'
p3050
ssS'call'
p3051
S"(code='# -*- coding: utf-8 -*-\\n# this file is released ...sponse._vars=response._caller(getConnectionData)\\n', environment={'A': <class 'gluon.html.A'>, 'Auth': <class 'gluon.tools.Auth'>, 'B': <class 'gluon.html.B'>, 'BEAUTIFY': <class 'gluon.html.BEAUTIFY'>, 'BODY': <class 'gluon.html.BODY'>, 'BR': <class 'gluon.html.BR'>, 'BUTTON': <class 'gluon.html.BUTTON'>, 'CAT': <class 'gluon.html.CAT'>, 'CENTER': <class 'gluon.html.CENTER'>, 'CLEANUP': <class 'gluon.validators.CLEANUP'>, ...}, layer='/home/jose/DESARROLLO/web2py199/applications/streamlog/controllers/default.py')"
p3052
sS'func'
p3053
S'restricted'
p3054
sa(dp3055
g3026
S'/home/jose/DESARROLLO/web2py199/gluon/restricted.py'
p3056
sg3028
(dp3057
S'builtincompile'
p3058
S'<built-in function compile>'
p3059
sS'code'
p3060
S"'# -*- coding: utf-8 -*-\\n# this file is released ...sponse._vars=response._caller(getConnectionData)\\n'"
p3061
sS'code.rstrip'
p3062
S'<built-in method rstrip of str object>'
p3063
sS').replace'
p3064
g3037
sS'layer'
p3065
S"'/home/jose/DESARROLLO/web2py199/applications/streamlog/controllers/default.py'"
p3066
ssg3038
I179
sg3039
(dp3067
I174
S''
sI175
S'def compile2(code,layer):'
p3068
sI176
S'    """'
p3069
sI177
S"    The +'\\n' is necessary else compile fails when code ends in a comment."
p3070
sI178
S'    """'
p3071
sI179
S"    return compile(code.rstrip().replace('\\r\\n','\\n')+'\\n', layer, 'exec')"
p3072
sI180
S''
sI181
S"def restricted(code, environment=None, layer='Unknown'):"
p3073
sI182
S'    """'
p3074
sI183
S'    runs code in environment and returns the output. if an exception occurs'
p3075
ssg3051
S"(code='# -*- coding: utf-8 -*-\\n# this file is released ...sponse._vars=response._caller(getConnectionData)\\n', layer='/home/jose/DESARROLLO/web2py199/applications/streamlog/controllers/default.py')"
p3076
sg3053
S'compile2'
p3077
sasS'pyver'
p3078
S'Python 2.7.2+: /usr/bin/python'
p3079
sS'session'
p3080
g68
(g69
g70
NtRp3081
(dp3082
g73
(dp3083
sg75
(lp3084
g68
(g77
g70
NtRp3085
(dp3086
g73
(dp3087
g81
I5
ssg82
Nsg75
(lp3088
g68
(g84
g70
NtRp3089
(dp3090
g73
(dp3091
sg82
g3085
sg75
(lp3092
g68
(g89
g70
NtRp3093
(dp3094
g73
(dp3095
g93
g94
ssg82
g3089
sg75
(lp3096
S'auth'
p3097
asbag68
(g89
g70
NtRp3098
(dp3099
g73
(dp3100
g100
g101
ssg82
g3089
sg75
(lp3101
S':'
asbag68
(g89
g70
NtRp3102
(dp3103
g73
(dp3104
sg82
g3089
sg75
(lp3105
g68
(g69
g70
NtRp3106
(dp3107
g73
(dp3108
g81
I5
ssg82
g3102
sg75
(lp3109
g68
(g77
g70
NtRp3110
(dp3111
g73
(dp3112
g81
I4
ssg82
Nsg75
(lp3113
g68
(g84
g70
NtRp3114
(dp3115
g73
(dp3116
sg82
g3110
sg75
(lp3117
g68
(g89
g70
NtRp3118
(dp3119
g73
(dp3120
g93
g94
ssg82
g3114
sg75
(lp3121
S'expiration'
p3122
asbag68
(g89
g70
NtRp3123
(dp3124
g73
(dp3125
g100
g101
ssg82
g3114
sg75
(lp3126
S':'
asbag68
(g89
g70
NtRp3127
(dp3128
g73
(dp3129
sg82
g3114
sg75
(lp3130
g68
(g69
g70
NtRp3131
(dp3132
g73
(dp3133
g81
I4
ssg82
g3127
sg75
(lp3134
S'2592000'
p3135
asbasbasbag68
(g84
g70
NtRp3136
(dp3137
g73
(dp3138
sg82
g3110
sg75
(lp3139
g68
(g89
g70
NtRp3140
(dp3141
g73
(dp3142
g93
g94
ssg82
g3136
sg75
(lp3143
S'hmac_key'
p3144
asbag68
(g89
g70
NtRp3145
(dp3146
g73
(dp3147
g100
g101
ssg82
g3136
sg75
(lp3148
S':'
asbag68
(g89
g70
NtRp3149
(dp3150
g73
(dp3151
sg82
g3136
sg75
(lp3152
g68
(g69
g70
NtRp3153
(dp3154
g73
(dp3155
g81
I4
ssg82
g3149
sg75
(lp3156
S'8454e122-c616-40c1-9040-a7973410e7b5'
p3157
asbasbasbag68
(g84
g70
NtRp3158
(dp3159
g73
(dp3160
sg82
g3110
sg75
(lp3161
g68
(g89
g70
NtRp3162
(dp3163
g73
(dp3164
g93
g94
ssg82
g3158
sg75
(lp3165
S'last_visit'
p3166
asbag68
(g89
g70
NtRp3167
(dp3168
g73
(dp3169
g100
g101
ssg82
g3158
sg75
(lp3170
S':'
asbag68
(g89
g70
NtRp3171
(dp3172
g73
(dp3173
sg82
g3158
sg75
(lp3174
g68
(g69
g70
NtRp3175
(dp3176
g73
(dp3177
g81
I4
ssg82
g3171
sg75
(lp3178
S'datetime.datetime(2012, 5, 27, 8, 55, 33, 377220)'
p3179
asbasbasbag68
(g84
g70
NtRp3180
(dp3181
g73
(dp3182
sg82
g3110
sg75
(lp3183
g68
(g89
g70
NtRp3184
(dp3185
g73
(dp3186
g93
g94
ssg82
g3180
sg75
(lp3187
S'remember'
p3188
asbag68
(g89
g70
NtRp3189
(dp3190
g73
(dp3191
g100
g101
ssg82
g3180
sg75
(lp3192
S':'
asbag68
(g89
g70
NtRp3193
(dp3194
g73
(dp3195
sg82
g3180
sg75
(lp3196
g68
(g69
g70
NtRp3197
(dp3198
g73
(dp3199
g81
I4
ssg82
g3193
sg75
(lp3200
g111
asbasbasbag68
(g84
g70
NtRp3201
(dp3202
g73
(dp3203
sg82
g3110
sg75
(lp3204
g68
(g89
g70
NtRp3205
(dp3206
g73
(dp3207
g93
g94
ssg82
g3201
sg75
(lp3208
S'user'
p3209
asbag68
(g89
g70
NtRp3210
(dp3211
g73
(dp3212
g100
g101
ssg82
g3201
sg75
(lp3213
S':'
asbag68
(g89
g70
NtRp3214
(dp3215
g73
(dp3216
sg82
g3201
sg75
(lp3217
g68
(g69
g70
NtRp3218
(dp3219
g73
(dp3220
g81
I4
ssg82
g3214
sg75
(lp3221
g68
(g77
g70
NtRp3222
(dp3223
g73
(dp3224
g81
I3
ssg82
Nsg75
(lp3225
g68
(g84
g70
NtRp3226
(dp3227
g73
(dp3228
sg82
g3222
sg75
(lp3229
g68
(g89
g70
NtRp3230
(dp3231
g73
(dp3232
g93
g94
ssg82
g3226
sg75
(lp3233
S'email'
p3234
asbag68
(g89
g70
NtRp3235
(dp3236
g73
(dp3237
g100
g101
ssg82
g3226
sg75
(lp3238
S':'
asbag68
(g89
g70
NtRp3239
(dp3240
g73
(dp3241
sg82
g3226
sg75
(lp3242
g68
(g69
g70
NtRp3243
(dp3244
g73
(dp3245
g81
I3
ssg82
g3239
sg75
(lp3246
S'josedesoto@gmail.com'
p3247
asbasbasbag68
(g84
g70
NtRp3248
(dp3249
g73
(dp3250
sg82
g3222
sg75
(lp3251
g68
(g89
g70
NtRp3252
(dp3253
g73
(dp3254
g93
g94
ssg82
g3248
sg75
(lp3255
S'first_name'
p3256
asbag68
(g89
g70
NtRp3257
(dp3258
g73
(dp3259
g100
g101
ssg82
g3248
sg75
(lp3260
S':'
asbag68
(g89
g70
NtRp3261
(dp3262
g73
(dp3263
sg82
g3248
sg75
(lp3264
g68
(g69
g70
NtRp3265
(dp3266
g73
(dp3267
g81
I3
ssg82
g3261
sg75
(lp3268
S'jose'
p3269
asbasbasbag68
(g84
g70
NtRp3270
(dp3271
g73
(dp3272
sg82
g3222
sg75
(lp3273
g68
(g89
g70
NtRp3274
(dp3275
g73
(dp3276
g93
g94
ssg82
g3270
sg75
(lp3277
S'id'
p3278
asbag68
(g89
g70
NtRp3279
(dp3280
g73
(dp3281
g100
g101
ssg82
g3270
sg75
(lp3282
S':'
asbag68
(g89
g70
NtRp3283
(dp3284
g73
(dp3285
sg82
g3270
sg75
(lp3286
g68
(g69
g70
NtRp3287
(dp3288
g73
(dp3289
g81
I3
ssg82
g3283
sg75
(lp3290
S'1'
asbasbasbag68
(g84
g70
NtRp3291
(dp3292
g73
(dp3293
sg82
g3222
sg75
(lp3294
g68
(g89
g70
NtRp3295
(dp3296
g73
(dp3297
g93
g94
ssg82
g3291
sg75
(lp3298
S'last_name'
p3299
asbag68
(g89
g70
NtRp3300
(dp3301
g73
(dp3302
g100
g101
ssg82
g3291
sg75
(lp3303
S':'
asbag68
(g89
g70
NtRp3304
(dp3305
g73
(dp3306
sg82
g3291
sg75
(lp3307
g68
(g69
g70
NtRp3308
(dp3309
g73
(dp3310
g81
I3
ssg82
g3304
sg75
(lp3311
S'jose'
p3312
asbasbasbag68
(g84
g70
NtRp3313
(dp3314
g73
(dp3315
sg82
g3222
sg75
(lp3316
g68
(g89
g70
NtRp3317
(dp3318
g73
(dp3319
g93
g94
ssg82
g3313
sg75
(lp3320
S'password'
p3321
asbag68
(g89
g70
NtRp3322
(dp3323
g73
(dp3324
g100
g101
ssg82
g3313
sg75
(lp3325
S':'
asbag68
(g89
g70
NtRp3326
(dp3327
g73
(dp3328
sg82
g3313
sg75
(lp3329
g68
(g69
g70
NtRp3330
(dp3331
g73
(dp3332
g81
I3
ssg82
g3326
sg75
(lp3333
S'2b32eaa2baa0c63b755a4cde1e4dda83'
p3334
asbasbasbag68
(g84
g70
NtRp3335
(dp3336
g73
(dp3337
sg82
g3222
sg75
(lp3338
g68
(g89
g70
NtRp3339
(dp3340
g73
(dp3341
g93
g94
ssg82
g3335
sg75
(lp3342
S'registration_key'
p3343
asbag68
(g89
g70
NtRp3344
(dp3345
g73
(dp3346
g100
g101
ssg82
g3335
sg75
(lp3347
S':'
asbag68
(g89
g70
NtRp3348
(dp3349
g73
(dp3350
sg82
g3335
sg75
(lp3351
g68
(g69
g70
NtRp3352
(dp3353
g73
(dp3354
g81
I3
ssg82
g3348
sg75
(lp3355
S''
asbasbasbag68
(g84
g70
NtRp3356
(dp3357
g73
(dp3358
sg82
g3222
sg75
(lp3359
g68
(g89
g70
NtRp3360
(dp3361
g73
(dp3362
g93
g94
ssg82
g3356
sg75
(lp3363
S'reset_password_key'
p3364
asbag68
(g89
g70
NtRp3365
(dp3366
g73
(dp3367
g100
g101
ssg82
g3356
sg75
(lp3368
S':'
asbag68
(g89
g70
NtRp3369
(dp3370
g73
(dp3371
sg82
g3356
sg75
(lp3372
g68
(g69
g70
NtRp3373
(dp3374
g73
(dp3375
g81
I3
ssg82
g3369
sg75
(lp3376
S''
asbasbasbasbasbasbasbasbasbasbasbag68
(g84
g70
NtRp3377
(dp3378
g73
(dp3379
sg82
g3085
sg75
(lp3380
g68
(g89
g70
NtRp3381
(dp3382
g73
(dp3383
g93
g94
ssg82
g3377
sg75
(lp3384
S'last_query'
p3385
asbag68
(g89
g70
NtRp3386
(dp3387
g73
(dp3388
g100
g101
ssg82
g3377
sg75
(lp3389
S':'
asbag68
(g89
g70
NtRp3390
(dp3391
g73
(dp3392
sg82
g3377
sg75
(lp3393
g68
(g69
g70
NtRp3394
(dp3395
g73
(dp3396
g81
I5
ssg82
g3390
sg75
(lp3397
S'db((db.t_log.id==1)&(db.t_log.type_log==db.t_type_log.id)).select(db.t_type_log.html_table)'
p3398
asbasbasbasbasbsS'etype'
p3399
S"<type 'exceptions.IndentationError'>"
p3400
sS'date'
p3401
S'Sun May 27 15:04:33 2012'
p3402
sS'response'
p3403
g68
(g69
g70
NtRp3404
(dp3405
g73
(dp3406
sg75
(lp3407
g68
(g77
g70
NtRp3408
(dp3409
g73
(dp3410
g81
I5
ssg82
Nsg75
(lp3411
g68
(g84
g70
NtRp3412
(dp3413
g73
(dp3414
sg82
g3408
sg75
(lp3415
g68
(g89
g70
NtRp3416
(dp3417
g73
(dp3418
g93
g94
ssg82
g3412
sg75
(lp3419
g178
asbag68
(g89
g70
NtRp3420
(dp3421
g73
(dp3422
g100
g101
ssg82
g3412
sg75
(lp3423
S':'
asbag68
(g89
g70
NtRp3424
(dp3425
g73
(dp3426
sg82
g3412
sg75
(lp3427
g68
(g69
g70
NtRp3428
(dp3429
g73
(dp3430
g81
I5
ssg82
g3424
sg75
(lp3431
S'<cStringIO.StringO object at 0x2c9cf80>'
p3432
asbasbasbag68
(g84
g70
NtRp3433
(dp3434
g73
(dp3435
sg82
g3408
sg75
(lp3436
g68
(g89
g70
NtRp3437
(dp3438
g73
(dp3439
g93
g94
ssg82
g3433
sg75
(lp3440
g244
asbag68
(g89
g70
NtRp3441
(dp3442
g73
(dp3443
g100
g101
ssg82
g3433
sg75
(lp3444
S':'
asbag68
(g89
g70
NtRp3445
(dp3446
g73
(dp3447
sg82
g3433
sg75
(lp3448
g68
(g69
g70
NtRp3449
(dp3450
g73
(dp3451
g81
I5
ssg82
g3445
sg75
(lp3452
g68
(g77
g70
NtRp3453
(dp3454
g73
(dp3455
g81
I4
ssg82
Nsg75
(lp3456
g68
(g84
g70
NtRp3457
(dp3458
g73
(dp3459
sg82
g3453
sg75
(lp3460
g68
(g89
g70
NtRp3461
(dp3462
g73
(dp3463
g93
g94
ssg82
g3457
sg75
(lp3464
S'session_id_streamlog'
p3465
asbag68
(g89
g70
NtRp3466
(dp3467
g73
(dp3468
g100
g101
ssg82
g3457
sg75
(lp3469
S':'
asbag68
(g89
g70
NtRp3470
(dp3471
g73
(dp3472
sg82
g3457
sg75
(lp3473
g68
(g69
g70
NtRp3474
(dp3475
g73
(dp3476
g81
I4
ssg82
g3470
sg75
(lp3477
g68
(g77
g70
NtRp3478
(dp3479
g73
(dp3480
g81
I3
ssg82
Nsg75
(lp3481
g68
(g84
g70
NtRp3482
(dp3483
g73
(dp3484
sg82
g3478
sg75
(lp3485
g68
(g89
g70
NtRp3486
(dp3487
g73
(dp3488
g93
g94
ssg82
g3482
sg75
(lp3489
g294
asbag68
(g89
g70
NtRp3490
(dp3491
g73
(dp3492
g100
g101
ssg82
g3482
sg75
(lp3493
S':'
asbag68
(g89
g70
NtRp3494
(dp3495
g73
(dp3496
sg82
g3482
sg75
(lp3497
g68
(g69
g70
NtRp3498
(dp3499
g73
(dp3500
g81
I3
ssg82
g3494
sg75
(lp3501
S''
asbasbasbag68
(g84
g70
NtRp3502
(dp3503
g73
(dp3504
sg82
g3478
sg75
(lp3505
g68
(g89
g70
NtRp3506
(dp3507
g73
(dp3508
g93
g94
ssg82
g3502
sg75
(lp3509
g315
asbag68
(g89
g70
NtRp3510
(dp3511
g73
(dp3512
g100
g101
ssg82
g3502
sg75
(lp3513
S':'
asbag68
(g89
g70
NtRp3514
(dp3515
g73
(dp3516
sg82
g3502
sg75
(lp3517
g68
(g69
g70
NtRp3518
(dp3519
g73
(dp3520
g81
I3
ssg82
g3514
sg75
(lp3521
S''
asbasbasbag68
(g84
g70
NtRp3522
(dp3523
g73
(dp3524
sg82
g3478
sg75
(lp3525
g68
(g89
g70
NtRp3526
(dp3527
g73
(dp3528
g93
g94
ssg82
g3522
sg75
(lp3529
g336
asbag68
(g89
g70
NtRp3530
(dp3531
g73
(dp3532
g100
g101
ssg82
g3522
sg75
(lp3533
S':'
asbag68
(g89
g70
NtRp3534
(dp3535
g73
(dp3536
sg82
g3522
sg75
(lp3537
g68
(g69
g70
NtRp3538
(dp3539
g73
(dp3540
g81
I3
ssg82
g3534
sg75
(lp3541
S''
asbasbasbag68
(g84
g70
NtRp3542
(dp3543
g73
(dp3544
sg82
g3478
sg75
(lp3545
g68
(g89
g70
NtRp3546
(dp3547
g73
(dp3548
g93
g94
ssg82
g3542
sg75
(lp3549
g357
asbag68
(g89
g70
NtRp3550
(dp3551
g73
(dp3552
g100
g101
ssg82
g3542
sg75
(lp3553
S':'
asbag68
(g89
g70
NtRp3554
(dp3555
g73
(dp3556
sg82
g3542
sg75
(lp3557
g68
(g69
g70
NtRp3558
(dp3559
g73
(dp3560
g81
I3
ssg82
g3554
sg75
(lp3561
S''
asbasbasbag68
(g84
g70
NtRp3562
(dp3563
g73
(dp3564
sg82
g3478
sg75
(lp3565
g68
(g89
g70
NtRp3566
(dp3567
g73
(dp3568
g93
g94
ssg82
g3562
sg75
(lp3569
g378
asbag68
(g89
g70
NtRp3570
(dp3571
g73
(dp3572
g100
g101
ssg82
g3562
sg75
(lp3573
S':'
asbag68
(g89
g70
NtRp3574
(dp3575
g73
(dp3576
sg82
g3562
sg75
(lp3577
g68
(g69
g70
NtRp3578
(dp3579
g73
(dp3580
g81
I3
ssg82
g3574
sg75
(lp3581
S''
asbasbasbag68
(g84
g70
NtRp3582
(dp3583
g73
(dp3584
sg82
g3478
sg75
(lp3585
g68
(g89
g70
NtRp3586
(dp3587
g73
(dp3588
g93
g94
ssg82
g3582
sg75
(lp3589
g399
asbag68
(g89
g70
NtRp3590
(dp3591
g73
(dp3592
g100
g101
ssg82
g3582
sg75
(lp3593
S':'
asbag68
(g89
g70
NtRp3594
(dp3595
g73
(dp3596
sg82
g3582
sg75
(lp3597
g68
(g69
g70
NtRp3598
(dp3599
g73
(dp3600
g81
I3
ssg82
g3594
sg75
(lp3601
S'/'
asbasbasbag68
(g84
g70
NtRp3602
(dp3603
g73
(dp3604
sg82
g3478
sg75
(lp3605
g68
(g89
g70
NtRp3606
(dp3607
g73
(dp3608
g93
g94
ssg82
g3602
sg75
(lp3609
g420
asbag68
(g89
g70
NtRp3610
(dp3611
g73
(dp3612
g100
g101
ssg82
g3602
sg75
(lp3613
S':'
asbag68
(g89
g70
NtRp3614
(dp3615
g73
(dp3616
sg82
g3602
sg75
(lp3617
g68
(g69
g70
NtRp3618
(dp3619
g73
(dp3620
g81
I3
ssg82
g3614
sg75
(lp3621
S''
asbasbasbag68
(g84
g70
NtRp3622
(dp3623
g73
(dp3624
sg82
g3478
sg75
(lp3625
g68
(g89
g70
NtRp3626
(dp3627
g73
(dp3628
g93
g94
ssg82
g3622
sg75
(lp3629
g441
asbag68
(g89
g70
NtRp3630
(dp3631
g73
(dp3632
g100
g101
ssg82
g3622
sg75
(lp3633
S':'
asbag68
(g89
g70
NtRp3634
(dp3635
g73
(dp3636
sg82
g3622
sg75
(lp3637
g68
(g69
g70
NtRp3638
(dp3639
g73
(dp3640
g81
I3
ssg82
g3634
sg75
(lp3641
S''
asbasbasbasbasbasbasbasbasbasbasbag68
(g84
g70
NtRp3642
(dp3643
g73
(dp3644
sg82
g3408
sg75
(lp3645
g68
(g89
g70
NtRp3646
(dp3647
g73
(dp3648
g93
g94
ssg82
g3642
sg75
(lp3649
S'files'
p3650
asbag68
(g89
g70
NtRp3651
(dp3652
g73
(dp3653
g100
g101
ssg82
g3642
sg75
(lp3654
S':'
asbag68
(g89
g70
NtRp3655
(dp3656
g73
(dp3657
sg82
g3642
sg75
(lp3658
g68
(g69
g70
NtRp3659
(dp3660
g73
(dp3661
g81
I5
ssg82
g3655
sg75
(lp3662
g68
(g77
g70
NtRp3663
(dp3664
g73
(dp3665
g81
I4
ssg82
Nsg75
(lp3666
sbasbasbasbag68
(g84
g70
NtRp3667
(dp3668
g73
(dp3669
sg82
g3408
sg75
(lp3670
g68
(g89
g70
NtRp3671
(dp3672
g73
(dp3673
g93
g94
ssg82
g3667
sg75
(lp3674
S'flash'
p3675
asbag68
(g89
g70
NtRp3676
(dp3677
g73
(dp3678
g100
g101
ssg82
g3667
sg75
(lp3679
S':'
asbag68
(g89
g70
NtRp3680
(dp3681
g73
(dp3682
sg82
g3667
sg75
(lp3683
g68
(g69
g70
NtRp3684
(dp3685
g73
(dp3686
g81
I5
ssg82
g3680
sg75
(lp3687
S''
asbasbasbag68
(g84
g70
NtRp3688
(dp3689
g73
(dp3690
sg82
g3408
sg75
(lp3691
g68
(g89
g70
NtRp3692
(dp3693
g73
(dp3694
g93
g94
ssg82
g3688
sg75
(lp3695
S'generic_patterns'
p3696
asbag68
(g89
g70
NtRp3697
(dp3698
g73
(dp3699
g100
g101
ssg82
g3688
sg75
(lp3700
S':'
asbag68
(g89
g70
NtRp3701
(dp3702
g73
(dp3703
sg82
g3688
sg75
(lp3704
g68
(g69
g70
NtRp3705
(dp3706
g73
(dp3707
g81
I5
ssg82
g3701
sg75
(lp3708
g68
(g77
g70
NtRp3709
(dp3710
g73
(dp3711
g81
I4
ssg82
Nsg75
(lp3712
g68
(g84
g70
NtRp3713
(dp3714
g73
(dp3715
sg82
g3709
sg75
(lp3716
g68
(g89
g70
NtRp3717
(dp3718
g73
(dp3719
sg82
g3713
sg75
(lp3720
g68
(g69
g70
NtRp3721
(dp3722
g73
(dp3723
g81
I4
ssg82
g3717
sg75
(lp3724
S'*'
asbasbasbasbasbasbasbag68
(g84
g70
NtRp3725
(dp3726
g73
(dp3727
sg82
g3408
sg75
(lp3728
g68
(g89
g70
NtRp3729
(dp3730
g73
(dp3731
g93
g94
ssg82
g3725
sg75
(lp3732
S'headers'
p3733
asbag68
(g89
g70
NtRp3734
(dp3735
g73
(dp3736
g100
g101
ssg82
g3725
sg75
(lp3737
S':'
asbag68
(g89
g70
NtRp3738
(dp3739
g73
(dp3740
sg82
g3725
sg75
(lp3741
g68
(g69
g70
NtRp3742
(dp3743
g73
(dp3744
g81
I5
ssg82
g3738
sg75
(lp3745
g68
(g77
g70
NtRp3746
(dp3747
g73
(dp3748
g81
I4
ssg82
Nsg75
(lp3749
g68
(g84
g70
NtRp3750
(dp3751
g73
(dp3752
sg82
g3746
sg75
(lp3753
g68
(g89
g70
NtRp3754
(dp3755
g73
(dp3756
g93
g94
ssg82
g3750
sg75
(lp3757
S'Cache-Control'
p3758
asbag68
(g89
g70
NtRp3759
(dp3760
g73
(dp3761
g100
g101
ssg82
g3750
sg75
(lp3762
S':'
asbag68
(g89
g70
NtRp3763
(dp3764
g73
(dp3765
sg82
g3750
sg75
(lp3766
g68
(g69
g70
NtRp3767
(dp3768
g73
(dp3769
g81
I4
ssg82
g3763
sg75
(lp3770
S'no-store, no-cache, must-revalidate, post-check=0, pre-check=0'
p3771
asbasbasbag68
(g84
g70
NtRp3772
(dp3773
g73
(dp3774
sg82
g3746
sg75
(lp3775
g68
(g89
g70
NtRp3776
(dp3777
g73
(dp3778
g93
g94
ssg82
g3772
sg75
(lp3779
S'Content-Type'
p3780
asbag68
(g89
g70
NtRp3781
(dp3782
g73
(dp3783
g100
g101
ssg82
g3772
sg75
(lp3784
S':'
asbag68
(g89
g70
NtRp3785
(dp3786
g73
(dp3787
sg82
g3772
sg75
(lp3788
g68
(g69
g70
NtRp3789
(dp3790
g73
(dp3791
g81
I4
ssg82
g3785
sg75
(lp3792
S'application/json'
p3793
asbasbasbag68
(g84
g70
NtRp3794
(dp3795
g73
(dp3796
sg82
g3746
sg75
(lp3797
g68
(g89
g70
NtRp3798
(dp3799
g73
(dp3800
g93
g94
ssg82
g3794
sg75
(lp3801
S'Expires'
p3802
asbag68
(g89
g70
NtRp3803
(dp3804
g73
(dp3805
g100
g101
ssg82
g3794
sg75
(lp3806
S':'
asbag68
(g89
g70
NtRp3807
(dp3808
g73
(dp3809
sg82
g3794
sg75
(lp3810
g68
(g69
g70
NtRp3811
(dp3812
g73
(dp3813
g81
I4
ssg82
g3807
sg75
(lp3814
S'Sun, 27 May 2012 08:04:33 GMT'
p3815
asbasbasbag68
(g84
g70
NtRp3816
(dp3817
g73
(dp3818
sg82
g3746
sg75
(lp3819
g68
(g89
g70
NtRp3820
(dp3821
g73
(dp3822
g93
g94
ssg82
g3816
sg75
(lp3823
S'Pragma'
p3824
asbag68
(g89
g70
NtRp3825
(dp3826
g73
(dp3827
g100
g101
ssg82
g3816
sg75
(lp3828
S':'
asbag68
(g89
g70
NtRp3829
(dp3830
g73
(dp3831
sg82
g3816
sg75
(lp3832
g68
(g69
g70
NtRp3833
(dp3834
g73
(dp3835
g81
I4
ssg82
g3829
sg75
(lp3836
S'no-cache'
p3837
asbasbasbag68
(g84
g70
NtRp3838
(dp3839
g73
(dp3840
sg82
g3746
sg75
(lp3841
g68
(g89
g70
NtRp3842
(dp3843
g73
(dp3844
g93
g94
ssg82
g3838
sg75
(lp3845
S'X-Powered-By'
p3846
asbag68
(g89
g70
NtRp3847
(dp3848
g73
(dp3849
g100
g101
ssg82
g3838
sg75
(lp3850
S':'
asbag68
(g89
g70
NtRp3851
(dp3852
g73
(dp3853
sg82
g3838
sg75
(lp3854
g68
(g69
g70
NtRp3855
(dp3856
g73
(dp3857
g81
I4
ssg82
g3851
sg75
(lp3858
S'web2py'
p3859
asbasbasbasbasbasbasbag68
(g84
g70
NtRp3860
(dp3861
g73
(dp3862
sg82
g3408
sg75
(lp3863
g68
(g89
g70
NtRp3864
(dp3865
g73
(dp3866
g93
g94
ssg82
g3860
sg75
(lp3867
S'menu'
p3868
asbag68
(g89
g70
NtRp3869
(dp3870
g73
(dp3871
g100
g101
ssg82
g3860
sg75
(lp3872
S':'
asbag68
(g89
g70
NtRp3873
(dp3874
g73
(dp3875
sg82
g3860
sg75
(lp3876
g68
(g69
g70
NtRp3877
(dp3878
g73
(dp3879
g81
I5
ssg82
g3873
sg75
(lp3880
g68
(g77
g70
NtRp3881
(dp3882
g73
(dp3883
g81
I4
ssg82
Nsg75
(lp3884
g68
(g84
g70
NtRp3885
(dp3886
g73
(dp3887
sg82
g3881
sg75
(lp3888
g68
(g89
g70
NtRp3889
(dp3890
g73
(dp3891
sg82
g3885
sg75
(lp3892
g68
(g69
g70
NtRp3893
(dp3894
g73
(dp3895
g81
I4
ssg82
g3889
sg75
(lp3896
g68
(g77
g70
NtRp3897
(dp3898
g73
(dp3899
g81
I3
ssg82
Nsg75
(lp3900
g68
(g84
g70
NtRp3901
(dp3902
g73
(dp3903
sg82
g3897
sg75
(lp3904
g68
(g89
g70
NtRp3905
(dp3906
g73
(dp3907
sg82
g3901
sg75
(lp3908
g68
(g69
g70
NtRp3909
(dp3910
g73
(dp3911
g81
I3
ssg82
g3905
sg75
(lp3912
cgluon.languages
lazyT_unpickle
p3913
(S't\x05\x00\x00\x00Index'
tRp3914
asbasbasbag68
(g84
g70
NtRp3915
(dp3916
g73
(dp3917
sg82
g3897
sg75
(lp3918
g68
(g89
g70
NtRp3919
(dp3920
g73
(dp3921
sg82
g3915
sg75
(lp3922
g68
(g69
g70
NtRp3923
(dp3924
g73
(dp3925
g81
I3
ssg82
g3919
sg75
(lp3926
g111
asbasbasbag68
(g84
g70
NtRp3927
(dp3928
g73
(dp3929
sg82
g3897
sg75
(lp3930
g68
(g89
g70
NtRp3931
(dp3932
g73
(dp3933
sg82
g3927
sg75
(lp3934
g68
(g69
g70
NtRp3935
(dp3936
g73
(dp3937
g81
I3
ssg82
g3931
sg75
(lp3938
S'/streamlog/default/index.json'
p3939
asbasbasbag68
(g84
g70
NtRp3940
(dp3941
g73
(dp3942
sg82
g3897
sg75
(lp3943
g68
(g89
g70
NtRp3944
(dp3945
g73
(dp3946
sg82
g3940
sg75
(lp3947
g68
(g69
g70
NtRp3948
(dp3949
g73
(dp3950
g81
I3
ssg82
g3944
sg75
(lp3951
g68
(g77
g70
NtRp3952
(dp3953
g73
(dp3954
g81
I2
ssg82
Nsg75
(lp3955
sbasbasbasbasbasbasbasbag68
(g84
g70
NtRp3956
(dp3957
g73
(dp3958
sg82
g3881
sg75
(lp3959
g68
(g89
g70
NtRp3960
(dp3961
g73
(dp3962
sg82
g3956
sg75
(lp3963
g68
(g69
g70
NtRp3964
(dp3965
g73
(dp3966
g81
I4
ssg82
g3960
sg75
(lp3967
g68
(g77
g70
NtRp3968
(dp3969
g73
(dp3970
g81
I3
ssg82
Nsg75
(lp3971
g68
(g84
g70
NtRp3972
(dp3973
g73
(dp3974
sg82
g3968
sg75
(lp3975
g68
(g89
g70
NtRp3976
(dp3977
g73
(dp3978
sg82
g3972
sg75
(lp3979
g68
(g69
g70
NtRp3980
(dp3981
g73
(dp3982
g81
I3
ssg82
g3976
sg75
(lp3983
g3913
(S't\x06\x00\x00\x00Manage'
tRp3984
asbasbasbag68
(g84
g70
NtRp3985
(dp3986
g73
(dp3987
sg82
g3968
sg75
(lp3988
g68
(g89
g70
NtRp3989
(dp3990
g73
(dp3991
sg82
g3985
sg75
(lp3992
g68
(g69
g70
NtRp3993
(dp3994
g73
(dp3995
g81
I3
ssg82
g3989
sg75
(lp3996
g111
asbasbasbag68
(g84
g70
NtRp3997
(dp3998
g73
(dp3999
sg82
g3968
sg75
(lp4000
g68
(g89
g70
NtRp4001
(dp4002
g73
(dp4003
sg82
g3997
sg75
(lp4004
g68
(g69
g70
NtRp4005
(dp4006
g73
(dp4007
g81
I3
ssg82
g4001
sg75
(lp4008
S'None'
p4009
asbasbasbag68
(g84
g70
NtRp4010
(dp4011
g73
(dp4012
sg82
g3968
sg75
(lp4013
g68
(g89
g70
NtRp4014
(dp4015
g73
(dp4016
sg82
g4010
sg75
(lp4017
g68
(g69
g70
NtRp4018
(dp4019
g73
(dp4020
g81
I3
ssg82
g4014
sg75
(lp4021
g68
(g77
g70
NtRp4022
(dp4023
g73
(dp4024
g81
I2
ssg82
Nsg75
(lp4025
g68
(g84
g70
NtRp4026
(dp4027
g73
(dp4028
sg82
g4022
sg75
(lp4029
g68
(g89
g70
NtRp4030
(dp4031
g73
(dp4032
sg82
g4026
sg75
(lp4033
g68
(g69
g70
NtRp4034
(dp4035
g73
(dp4036
g81
I2
ssg82
g4030
sg75
(lp4037
g68
(g77
g70
NtRp4038
(dp4039
g73
(dp4040
g81
I1
ssg82
Nsg75
(lp4041
g68
(g84
g70
NtRp4042
(dp4043
g73
(dp4044
sg82
g4038
sg75
(lp4045
g68
(g89
g70
NtRp4046
(dp4047
g73
(dp4048
sg82
g4042
sg75
(lp4049
g68
(g69
g70
NtRp4050
(dp4051
g73
(dp4052
g81
I1
ssg82
g4046
sg75
(lp4053
g3913
(S't\x04\x00\x00\x00Logs'
tRp4054
asbasbasbag68
(g84
g70
NtRp4055
(dp4056
g73
(dp4057
sg82
g4038
sg75
(lp4058
g68
(g89
g70
NtRp4059
(dp4060
g73
(dp4061
sg82
g4055
sg75
(lp4062
g68
(g69
g70
NtRp4063
(dp4064
g73
(dp4065
g81
I1
ssg82
g4059
sg75
(lp4066
I00
asbasbasbag68
(g84
g70
NtRp4067
(dp4068
g73
(dp4069
sg82
g4038
sg75
(lp4070
g68
(g89
g70
NtRp4071
(dp4072
g73
(dp4073
sg82
g4067
sg75
(lp4074
g68
(g69
g70
NtRp4075
(dp4076
g73
(dp4077
g81
I1
ssg82
g4071
sg75
(lp4078
S'/streamlog/default/log_manage.json'
p4079
asbasbasbag68
(g84
g70
NtRp4080
(dp4081
g73
(dp4082
sg82
g4038
sg75
(lp4083
g68
(g89
g70
NtRp4084
(dp4085
g73
(dp4086
sg82
g4080
sg75
(lp4087
g68
(g69
g70
NtRp4088
(dp4089
g73
(dp4090
g81
I1
ssg82
g4084
sg75
(lp4091
(lp4092
asbasbasbasbasbasbasbag68
(g84
g70
NtRp4093
(dp4094
g73
(dp4095
sg82
g4022
sg75
(lp4096
g68
(g89
g70
NtRp4097
(dp4098
g73
(dp4099
sg82
g4093
sg75
(lp4100
g68
(g69
g70
NtRp4101
(dp4102
g73
(dp4103
g81
I2
ssg82
g4097
sg75
(lp4104
g68
(g77
g70
NtRp4105
(dp4106
g73
(dp4107
g81
I1
ssg82
Nsg75
(lp4108
g68
(g84
g70
NtRp4109
(dp4110
g73
(dp4111
sg82
g4105
sg75
(lp4112
g68
(g89
g70
NtRp4113
(dp4114
g73
(dp4115
sg82
g4109
sg75
(lp4116
g68
(g69
g70
NtRp4117
(dp4118
g73
(dp4119
g81
I1
ssg82
g4113
sg75
(lp4120
g3913
(S't\x07\x00\x00\x00Servers'
tRp4121
asbasbasbag68
(g84
g70
NtRp4122
(dp4123
g73
(dp4124
sg82
g4105
sg75
(lp4125
g68
(g89
g70
NtRp4126
(dp4127
g73
(dp4128
sg82
g4122
sg75
(lp4129
g68
(g69
g70
NtRp4130
(dp4131
g73
(dp4132
g81
I1
ssg82
g4126
sg75
(lp4133
I00
asbasbasbag68
(g84
g70
NtRp4134
(dp4135
g73
(dp4136
sg82
g4105
sg75
(lp4137
g68
(g89
g70
NtRp4138
(dp4139
g73
(dp4140
sg82
g4134
sg75
(lp4141
g68
(g69
g70
NtRp4142
(dp4143
g73
(dp4144
g81
I1
ssg82
g4138
sg75
(lp4145
S'/streamlog/default/server_manage.json'
p4146
asbasbasbag68
(g84
g70
NtRp4147
(dp4148
g73
(dp4149
sg82
g4105
sg75
(lp4150
g68
(g89
g70
NtRp4151
(dp4152
g73
(dp4153
sg82
g4147
sg75
(lp4154
g68
(g69
g70
NtRp4155
(dp4156
g73
(dp4157
g81
I1
ssg82
g4151
sg75
(lp4158
(lp4159
asbasbasbasbasbasbasbag68
(g84
g70
NtRp4160
(dp4161
g73
(dp4162
sg82
g4022
sg75
(lp4163
g68
(g89
g70
NtRp4164
(dp4165
g73
(dp4166
sg82
g4160
sg75
(lp4167
g68
(g69
g70
NtRp4168
(dp4169
g73
(dp4170
g81
I2
ssg82
g4164
sg75
(lp4171
g68
(g77
g70
NtRp4172
(dp4173
g73
(dp4174
g81
I1
ssg82
Nsg75
(lp4175
g68
(g84
g70
NtRp4176
(dp4177
g73
(dp4178
sg82
g4172
sg75
(lp4179
g68
(g89
g70
NtRp4180
(dp4181
g73
(dp4182
sg82
g4176
sg75
(lp4183
g68
(g69
g70
NtRp4184
(dp4185
g73
(dp4186
g81
I1
ssg82
g4180
sg75
(lp4187
g3913
(S't\x08\x00\x00\x00Projects'
tRp4188
asbasbasbag68
(g84
g70
NtRp4189
(dp4190
g73
(dp4191
sg82
g4172
sg75
(lp4192
g68
(g89
g70
NtRp4193
(dp4194
g73
(dp4195
sg82
g4189
sg75
(lp4196
g68
(g69
g70
NtRp4197
(dp4198
g73
(dp4199
g81
I1
ssg82
g4193
sg75
(lp4200
I00
asbasbasbag68
(g84
g70
NtRp4201
(dp4202
g73
(dp4203
sg82
g4172
sg75
(lp4204
g68
(g89
g70
NtRp4205
(dp4206
g73
(dp4207
sg82
g4201
sg75
(lp4208
g68
(g69
g70
NtRp4209
(dp4210
g73
(dp4211
g81
I1
ssg82
g4205
sg75
(lp4212
S'/streamlog/default/project_manage.json'
p4213
asbasbasbag68
(g84
g70
NtRp4214
(dp4215
g73
(dp4216
sg82
g4172
sg75
(lp4217
g68
(g89
g70
NtRp4218
(dp4219
g73
(dp4220
sg82
g4214
sg75
(lp4221
g68
(g69
g70
NtRp4222
(dp4223
g73
(dp4224
g81
I1
ssg82
g4218
sg75
(lp4225
(lp4226
asbasbasbasbasbasbasbag68
(g84
g70
NtRp4227
(dp4228
g73
(dp4229
sg82
g4022
sg75
(lp4230
g68
(g89
g70
NtRp4231
(dp4232
g73
(dp4233
sg82
g4227
sg75
(lp4234
g68
(g69
g70
NtRp4235
(dp4236
g73
(dp4237
g81
I2
ssg82
g4231
sg75
(lp4238
g68
(g77
g70
NtRp4239
(dp4240
g73
(dp4241
g81
I1
ssg82
Nsg75
(lp4242
g68
(g84
g70
NtRp4243
(dp4244
g73
(dp4245
sg82
g4239
sg75
(lp4246
g68
(g89
g70
NtRp4247
(dp4248
g73
(dp4249
sg82
g4243
sg75
(lp4250
g68
(g69
g70
NtRp4251
(dp4252
g73
(dp4253
g81
I1
ssg82
g4247
sg75
(lp4254
g3913
(S's\t\x00\x00\x00Type Logs'
tRp4255
asbasbasbag68
(g84
g70
NtRp4256
(dp4257
g73
(dp4258
sg82
g4239
sg75
(lp4259
g68
(g89
g70
NtRp4260
(dp4261
g73
(dp4262
sg82
g4256
sg75
(lp4263
g68
(g69
g70
NtRp4264
(dp4265
g73
(dp4266
g81
I1
ssg82
g4260
sg75
(lp4267
I00
asbasbasbag68
(g84
g70
NtRp4268
(dp4269
g73
(dp4270
sg82
g4239
sg75
(lp4271
g68
(g89
g70
NtRp4272
(dp4273
g73
(dp4274
sg82
g4268
sg75
(lp4275
g68
(g69
g70
NtRp4276
(dp4277
g73
(dp4278
g81
I1
ssg82
g4272
sg75
(lp4279
S'/streamlog/default/type_log_manage.json'
p4280
asbasbasbag68
(g84
g70
NtRp4281
(dp4282
g73
(dp4283
sg82
g4239
sg75
(lp4284
g68
(g89
g70
NtRp4285
(dp4286
g73
(dp4287
sg82
g4281
sg75
(lp4288
g68
(g69
g70
NtRp4289
(dp4290
g73
(dp4291
g81
I1
ssg82
g4285
sg75
(lp4292
(lp4293
asbasbasbasbasbasbasbasbasbasbasbasbasbasbasbasbasbasbasbag68
(g84
g70
NtRp4294
(dp4295
g73
(dp4296
sg82
g3408
sg75
(lp4297
g68
(g89
g70
NtRp4298
(dp4299
g73
(dp4300
g93
g94
ssg82
g4294
sg75
(lp4301
S'meta'
p4302
asbag68
(g89
g70
NtRp4303
(dp4304
g73
(dp4305
g100
g101
ssg82
g4294
sg75
(lp4306
S':'
asbag68
(g89
g70
NtRp4307
(dp4308
g73
(dp4309
sg82
g4294
sg75
(lp4310
g68
(g69
g70
NtRp4311
(dp4312
g73
(dp4313
g81
I5
ssg82
g4307
sg75
(lp4314
g68
(g77
g70
NtRp4315
(dp4316
g73
(dp4317
g81
I4
ssg82
Nsg75
(lp4318
g68
(g84
g70
NtRp4319
(dp4320
g73
(dp4321
sg82
g4315
sg75
(lp4322
g68
(g89
g70
NtRp4323
(dp4324
g73
(dp4325
g93
g94
ssg82
g4319
sg75
(lp4326
S'author'
p4327
asbag68
(g89
g70
NtRp4328
(dp4329
g73
(dp4330
g100
g101
ssg82
g4319
sg75
(lp4331
S':'
asbag68
(g89
g70
NtRp4332
(dp4333
g73
(dp4334
sg82
g4319
sg75
(lp4335
g68
(g69
g70
NtRp4336
(dp4337
g73
(dp4338
g81
I4
ssg82
g4332
sg75
(lp4339
S'Jose de Soto <josedesoto@gmail.com>'
p4340
asbasbasbag68
(g84
g70
NtRp4341
(dp4342
g73
(dp4343
sg82
g4315
sg75
(lp4344
g68
(g89
g70
NtRp4345
(dp4346
g73
(dp4347
g93
g94
ssg82
g4341
sg75
(lp4348
S'copyright'
p4349
asbag68
(g89
g70
NtRp4350
(dp4351
g73
(dp4352
g100
g101
ssg82
g4341
sg75
(lp4353
S':'
asbag68
(g89
g70
NtRp4354
(dp4355
g73
(dp4356
sg82
g4341
sg75
(lp4357
g68
(g69
g70
NtRp4358
(dp4359
g73
(dp4360
g81
I4
ssg82
g4354
sg75
(lp4361
S'Copyright 2011'
p4362
asbasbasbag68
(g84
g70
NtRp4363
(dp4364
g73
(dp4365
sg82
g4315
sg75
(lp4366
g68
(g89
g70
NtRp4367
(dp4368
g73
(dp4369
g93
g94
ssg82
g4363
sg75
(lp4370
S'description'
p4371
asbag68
(g89
g70
NtRp4372
(dp4373
g73
(dp4374
g100
g101
ssg82
g4363
sg75
(lp4375
S':'
asbag68
(g89
g70
NtRp4376
(dp4377
g73
(dp4378
sg82
g4363
sg75
(lp4379
g68
(g69
g70
NtRp4380
(dp4381
g73
(dp4382
g81
I4
ssg82
g4376
sg75
(lp4383
S'a cool new app'
p4384
asbasbasbag68
(g84
g70
NtRp4385
(dp4386
g73
(dp4387
sg82
g4315
sg75
(lp4388
g68
(g89
g70
NtRp4389
(dp4390
g73
(dp4391
g93
g94
ssg82
g4385
sg75
(lp4392
S'generator'
p4393
asbag68
(g89
g70
NtRp4394
(dp4395
g73
(dp4396
g100
g101
ssg82
g4385
sg75
(lp4397
S':'
asbag68
(g89
g70
NtRp4398
(dp4399
g73
(dp4400
sg82
g4385
sg75
(lp4401
g68
(g69
g70
NtRp4402
(dp4403
g73
(dp4404
g81
I4
ssg82
g4398
sg75
(lp4405
S'Web2py Web Framework'
p4406
asbasbasbag68
(g84
g70
NtRp4407
(dp4408
g73
(dp4409
sg82
g4315
sg75
(lp4410
g68
(g89
g70
NtRp4411
(dp4412
g73
(dp4413
g93
g94
ssg82
g4407
sg75
(lp4414
S'keywords'
p4415
asbag68
(g89
g70
NtRp4416
(dp4417
g73
(dp4418
g100
g101
ssg82
g4407
sg75
(lp4419
S':'
asbag68
(g89
g70
NtRp4420
(dp4421
g73
(dp4422
sg82
g4407
sg75
(lp4423
g68
(g69
g70
NtRp4424
(dp4425
g73
(dp4426
g81
I4
ssg82
g4420
sg75
(lp4427
S'web2py, python, framework'
p4428
asbasbasbasbasbasbasbag68
(g84
g70
NtRp4429
(dp4430
g73
(dp4431
sg82
g3408
sg75
(lp4432
g68
(g89
g70
NtRp4433
(dp4434
g73
(dp4435
g93
g94
ssg82
g4429
sg75
(lp4436
S'postprocessing'
p4437
asbag68
(g89
g70
NtRp4438
(dp4439
g73
(dp4440
g100
g101
ssg82
g4429
sg75
(lp4441
S':'
asbag68
(g89
g70
NtRp4442
(dp4443
g73
(dp4444
sg82
g4429
sg75
(lp4445
g68
(g69
g70
NtRp4446
(dp4447
g73
(dp4448
g81
I5
ssg82
g4442
sg75
(lp4449
g68
(g77
g70
NtRp4450
(dp4451
g73
(dp4452
g81
I4
ssg82
Nsg75
(lp4453
sbasbasbasbag68
(g84
g70
NtRp4454
(dp4455
g73
(dp4456
sg82
g3408
sg75
(lp4457
g68
(g89
g70
NtRp4458
(dp4459
g73
(dp4460
g93
g94
ssg82
g4454
sg75
(lp4461
S'session_file'
p4462
asbag68
(g89
g70
NtRp4463
(dp4464
g73
(dp4465
g100
g101
ssg82
g4454
sg75
(lp4466
S':'
asbag68
(g89
g70
NtRp4467
(dp4468
g73
(dp4469
sg82
g4454
sg75
(lp4470
g68
(g69
g70
NtRp4471
(dp4472
g73
(dp4473
g81
I5
ssg82
g4467
sg75
(lp4474
S"<open file '/home/jose/DESARROLLO/web2py199/applications/streamlog/sessions/127.0.0.1-610b0c7d-3f6f-4500-a76a-b095fb30f7fd', mode 'rb+' at 0x27c7c90>"
p4475
asbasbasbag68
(g84
g70
NtRp4476
(dp4477
g73
(dp4478
sg82
g3408
sg75
(lp4479
g68
(g89
g70
NtRp4480
(dp4481
g73
(dp4482
g93
g94
ssg82
g4476
sg75
(lp4483
S'session_filename'
p4484
asbag68
(g89
g70
NtRp4485
(dp4486
g73
(dp4487
g100
g101
ssg82
g4476
sg75
(lp4488
S':'
asbag68
(g89
g70
NtRp4489
(dp4490
g73
(dp4491
sg82
g4476
sg75
(lp4492
g68
(g69
g70
NtRp4493
(dp4494
g73
(dp4495
g81
I5
ssg82
g4489
sg75
(lp4496
S'/home/jose/DESARROLLO/web2py199/applications/streamlog/sessions/127.0.0.1-610b0c7d-3f6f-4500-a76a-b095fb30f7fd'
p4497
asbasbasbag68
(g84
g70
NtRp4498
(dp4499
g73
(dp4500
sg82
g3408
sg75
(lp4501
g68
(g89
g70
NtRp4502
(dp4503
g73
(dp4504
g93
g94
ssg82
g4498
sg75
(lp4505
S'session_id'
p4506
asbag68
(g89
g70
NtRp4507
(dp4508
g73
(dp4509
g100
g101
ssg82
g4498
sg75
(lp4510
S':'
asbag68
(g89
g70
NtRp4511
(dp4512
g73
(dp4513
sg82
g4498
sg75
(lp4514
g68
(g69
g70
NtRp4515
(dp4516
g73
(dp4517
g81
I5
ssg82
g4511
sg75
(lp4518
S'127.0.0.1-610b0c7d-3f6f-4500-a76a-b095fb30f7fd'
p4519
asbasbasbag68
(g84
g70
NtRp4520
(dp4521
g73
(dp4522
sg82
g3408
sg75
(lp4523
g68
(g89
g70
NtRp4524
(dp4525
g73
(dp4526
g93
g94
ssg82
g4520
sg75
(lp4527
S'session_id_name'
p4528
asbag68
(g89
g70
NtRp4529
(dp4530
g73
(dp4531
g100
g101
ssg82
g4520
sg75
(lp4532
S':'
asbag68
(g89
g70
NtRp4533
(dp4534
g73
(dp4535
sg82
g4520
sg75
(lp4536
g68
(g69
g70
NtRp4537
(dp4538
g73
(dp4539
g81
I5
ssg82
g4533
sg75
(lp4540
g3465
asbasbasbag68
(g84
g70
NtRp4541
(dp4542
g73
(dp4543
sg82
g3408
sg75
(lp4544
g68
(g89
g70
NtRp4545
(dp4546
g73
(dp4547
g93
g94
ssg82
g4541
sg75
(lp4548
S'session_locked'
p4549
asbag68
(g89
g70
NtRp4550
(dp4551
g73
(dp4552
g100
g101
ssg82
g4541
sg75
(lp4553
S':'
asbag68
(g89
g70
NtRp4554
(dp4555
g73
(dp4556
sg82
g4541
sg75
(lp4557
g68
(g69
g70
NtRp4558
(dp4559
g73
(dp4560
g81
I5
ssg82
g4554
sg75
(lp4561
g1678
asbasbasbag68
(g84
g70
NtRp4562
(dp4563
g73
(dp4564
sg82
g3408
sg75
(lp4565
g68
(g89
g70
NtRp4566
(dp4567
g73
(dp4568
g93
g94
ssg82
g4562
sg75
(lp4569
S'session_new'
p4570
asbag68
(g89
g70
NtRp4571
(dp4572
g73
(dp4573
g100
g101
ssg82
g4562
sg75
(lp4574
S':'
asbag68
(g89
g70
NtRp4575
(dp4576
g73
(dp4577
sg82
g4562
sg75
(lp4578
g68
(g69
g70
NtRp4579
(dp4580
g73
(dp4581
g81
I5
ssg82
g4575
sg75
(lp4582
g111
asbasbasbag68
(g84
g70
NtRp4583
(dp4584
g73
(dp4585
sg82
g3408
sg75
(lp4586
g68
(g89
g70
NtRp4587
(dp4588
g73
(dp4589
g93
g94
ssg82
g4583
sg75
(lp4590
S'status'
p4591
asbag68
(g89
g70
NtRp4592
(dp4593
g73
(dp4594
g100
g101
ssg82
g4583
sg75
(lp4595
S':'
asbag68
(g89
g70
NtRp4596
(dp4597
g73
(dp4598
sg82
g4583
sg75
(lp4599
g68
(g69
g70
NtRp4600
(dp4601
g73
(dp4602
g81
I5
ssg82
g4596
sg75
(lp4603
S'200'
p4604
asbasbasbag68
(g84
g70
NtRp4605
(dp4606
g73
(dp4607
sg82
g3408
sg75
(lp4608
g68
(g89
g70
NtRp4609
(dp4610
g73
(dp4611
g93
g94
ssg82
g4605
sg75
(lp4612
S'subtitle'
p4613
asbag68
(g89
g70
NtRp4614
(dp4615
g73
(dp4616
g100
g101
ssg82
g4605
sg75
(lp4617
S':'
asbag68
(g89
g70
NtRp4618
(dp4619
g73
(dp4620
sg82
g4605
sg75
(lp4621
g68
(g69
g70
NtRp4622
(dp4623
g73
(dp4624
g81
I5
ssg82
g4618
sg75
(lp4625
g3913
(S's\x12\x00\x00\x00Stream Log Client!'
tRp4626
asbasbasbag68
(g84
g70
NtRp4627
(dp4628
g73
(dp4629
sg82
g3408
sg75
(lp4630
g68
(g89
g70
NtRp4631
(dp4632
g73
(dp4633
g93
g94
ssg82
g4627
sg75
(lp4634
S'title'
p4635
asbag68
(g89
g70
NtRp4636
(dp4637
g73
(dp4638
g100
g101
ssg82
g4627
sg75
(lp4639
S':'
asbag68
(g89
g70
NtRp4640
(dp4641
g73
(dp4642
sg82
g4627
sg75
(lp4643
g68
(g69
g70
NtRp4644
(dp4645
g73
(dp4646
g81
I5
ssg82
g4640
sg75
(lp4647
g133
asbasbasbag68
(g84
g70
NtRp4648
(dp4649
g73
(dp4650
sg82
g3408
sg75
(lp4651
g68
(g89
g70
NtRp4652
(dp4653
g73
(dp4654
g93
g94
ssg82
g4648
sg75
(lp4655
g2364
asbag68
(g89
g70
NtRp4656
(dp4657
g73
(dp4658
g100
g101
ssg82
g4648
sg75
(lp4659
S':'
asbag68
(g89
g70
NtRp4660
(dp4661
g73
(dp4662
sg82
g4648
sg75
(lp4663
g68
(g69
g70
NtRp4664
(dp4665
g73
(dp4666
g81
I5
ssg82
g4660
sg75
(lp4667
g2377
asbasbasbag68
(g84
g70
NtRp4668
(dp4669
g73
(dp4670
sg82
g3408
sg75
(lp4671
g68
(g89
g70
NtRp4672
(dp4673
g73
(dp4674
g93
g94
ssg82
g4668
sg75
(lp4675
S'view'
p4676
asbag68
(g89
g70
NtRp4677
(dp4678
g73
(dp4679
g100
g101
ssg82
g4668
sg75
(lp4680
S':'
asbag68
(g89
g70
NtRp4681
(dp4682
g73
(dp4683
sg82
g4668
sg75
(lp4684
g68
(g69
g70
NtRp4685
(dp4686
g73
(dp4687
g81
I5
ssg82
g4681
sg75
(lp4688
S'default/getConnectionData.json'
p4689
asbasbasbasbasbsS'locals'
p4690
(dp4691
g3
S"'/home/jose/DESARROLLO/web2py199/applications/streamlog/controllers/default.py'"
p4692
sg5
S"'# -*- coding: utf-8 -*-\\n# this file is released ...sponse._vars=response._caller(getConnectionData)\\n'"
p4693
sssS'traceback'
p4694
S'Traceback (most recent call last):\n  File "/home/jose/DESARROLLO/web2py199/gluon/restricted.py", line 193, in restricted\n    ccode = compile2(code,layer)\n  File "/home/jose/DESARROLLO/web2py199/gluon/restricted.py", line 179, in compile2\n    return compile(code.rstrip().replace(\'\\r\\n\',\'\\n\')+\'\\n\', layer, \'exec\')\n  File "/home/jose/DESARROLLO/web2py199/applications/streamlog/controllers/default.py", line 51\n    return dict(name_log=name_log, ip=ip, port=port,regex=regex_code)\n                                                                    ^\nIndentationError: unindent does not match any outer indentation level\n'
p4695
s.