(dp1
S'output'
p2
S''
sS'layer'
p3
S'/home/jose/DESARROLLO/web2py199/applications/streamlog/controllers/default.py'
p4
sS'code'
p5
S'# -*- coding: utf-8 -*-\n# this file is released under public domain and you can use without limitations\n\n#########################################################################\n## This is a samples controller\n## - index is the default action of any application\n## - user is required for authentication and authorization\n## - download is for downloading files uploaded in the db (does streaming)\n## - call exposes all registered services (none by default)\n#########################################################################\n\n\n\ndef index():\n    """\n    example action using the internationalization operator T and flash\n    rendered by views/default/index.html or views/generic.html\n    """\n    return dict(message=T(\'Hello World2\'))\n\n\ndef choose_log():\n    """\n    example action using the internationalization operator T and flash\n    rendered by views/default/index.html or views/generic.html\n    """\n    \n    \n    return dict(message="log")\n\n\ndef type_table():\n    """\n    example action using the internationalization operator T and flash\n    rendered by views/default/index.html or views/generic.html\n    """\n    \n    table=\'<table cellpadding="0" cellspacing="0" border="0" class="display" id="tablelog"> \\\n    <thead> \\\n        <tr> \\\n            <th>IP</th> \\\n            <th>hyphen</th> \\\n            <th>userid</th> \\\n            <th>Time Request</th> \\\n        <th>Request Time</th> \\\n        <th>Status Code</th> \\\n        <th>Size Object</th> \\\n        </tr>\\\n    </thead> \\\n    <tfoot> \\\n        <tr> \\\n            <th>IP</th> \\\n            <th>hyphen</th> \\\n            <th>userid</th>\\\n            <th>Time Request</th> \\\n        <th>Request Time</th> \\\n        <th>Status Code</th> \\\n        <th>Size Object</th> \\\n        </tr>  \\\n    </tfoot>  \\\n        <tbody> \\\n        </tbody> \\\n    </table>\'\n    \n    return table\n\n\ndef user():\n    """\n    exposes:\n    http://..../[app]/default/user/login\n    http://..../[app]/default/user/logout\n    http://..../[app]/default/user/register\n    http://..../[app]/default/user/profile\n    http://..../[app]/default/user/retrieve_password\n    http://..../[app]/default/user/change_password\n    use @auth.requires_login()\n        @auth.requires_membership(\'group name\')\n        @auth.requires_permission(\'read\',\'table name\',record_id)\n    to decorate functions that need access control\n    """\n    return dict(form=auth())\n\ndef error():\n    return dict()\n\n\ndef project_manage():\n    \n    query=(db.t_project.user==me)\n    form = SQLFORM.grid(query=query)\n    return locals()\n\n\n#@auth.requires_login()\ndef server_manage():\n    db.t_project.id.readable=False\n    db.t_project.description.readable=False\n    db.t_server.id.readable=False\n    fields = (db.t_server.name)\n    headers = {\'t_server.name\':   \'ID\' }\n\n    query=((db.t_project.user==me)&(db.t_server.project==db.t_project.id))\n    form=SQLFORM.grid(query=query, fields=fields, headers=hearders)\n    return locals()\n\n#@auth.requires_login()\ndef log_manage():\n    #works\n    #db.t_log.id.readable=False\n    db.t_server.id.readable=False\n    db.t_server.name.readable=False\n    db.t_server.IP.readable=False\n    db.t_server.port.readable=False\n    db.t_server.description.readable=False\n\n\t\n    """\n\tqueries=[]\nif arg1 == "x": queries.append(db.table.field == x)\nif arg2 == "y": queries.append(db.table.otherfield == y)\n# many conditions here....\nquery = reduce(lambda a,b:(a&b),queries)\ndb(query).select()\n\t"""\n\n    #query=(db.t_server.user==me)&(db.t_server.id==db.t_log.server)\n\n    #form = SQLFORM.smartgrid(db.t_log,constraints=dict(t_log=query), selectable=True,searchable=False, csv=False,showbuttontext=True,onupdate=auth.archive)\n    form = SQLFORM.smartgrid(db.t_log)\n    return locals()\n\n\n\ndef download():\n    """\n    allows downloading of uploaded files\n    http://..../[app]/default/download/[filename]\n    """\n    return response.download(request,db)\n\n\ndef call():\n    """\n    exposes services. for example:\n    http://..../[app]/default/call/jsonrpc\n    decorate with @services.jsonrpc the functions to expose\n    supports xml, json, xmlrpc, jsonrpc, amfrpc, rss, csv\n    """\n    return service()\n\n\n@auth.requires_signature()\ndef data():\n    """\n    http://..../[app]/default/data/tables\n    http://..../[app]/default/data/create/[table]\n    http://..../[app]/default/data/read/[table]/[id]\n    http://..../[app]/default/data/update/[table]/[id]\n    http://..../[app]/default/data/delete/[table]/[id]\n    http://..../[app]/default/data/select/[table]\n    http://..../[app]/default/data/search/[table]\n    but URLs bust be signed, i.e. linked with\n      A(\'table\',_href=URL(\'data/tables\',user_signature=True))\n    or with the signed load operator\n      LOAD(\'default\',\'data.load\',args=\'tables\',ajax=True,user_signature=True)\n    """\n    return dict(form=crud())\n\nresponse._vars=response._caller(server_manage)\n'
p6
sS'snapshot'
p7
(dp8
S'exception'
p9
(dp10
S'__hash__'
p11
S"<method-wrapper '__hash__' of exceptions.NameError object>"
p12
sS'__setattr__'
p13
S"<method-wrapper '__setattr__' of exceptions.NameError object>"
p14
sS'__reduce_ex__'
p15
S'<built-in method __reduce_ex__ of exceptions.NameError object>'
p16
sS'__getslice__'
p17
S"<method-wrapper '__getslice__' of exceptions.NameError object>"
p18
sS'__getitem__'
p19
S"<method-wrapper '__getitem__' of exceptions.NameError object>"
p20
sS'__setstate__'
p21
S'<built-in method __setstate__ of exceptions.NameError object>'
p22
sS'args'
p23
S'("global name \'hearders\' is not defined",)'
p24
sS'__reduce__'
p25
S'<built-in method __reduce__ of exceptions.NameError object>'
p26
sS'__str__'
p27
S"<method-wrapper '__str__' of exceptions.NameError object>"
p28
sS'__format__'
p29
S'<built-in method __format__ of exceptions.NameError object>'
p30
sS'__getattribute__'
p31
S"<method-wrapper '__getattribute__' of exceptions.NameError object>"
p32
sS'__class__'
p33
S"<type 'exceptions.NameError'>"
p34
sS'__unicode__'
p35
S'<built-in method __unicode__ of exceptions.NameError object>'
p36
sS'__delattr__'
p37
S"<method-wrapper '__delattr__' of exceptions.NameError object>"
p38
sS'__subclasshook__'
p39
S'<built-in method __subclasshook__ of type object>'
p40
sS'__repr__'
p41
S"<method-wrapper '__repr__' of exceptions.NameError object>"
p42
sS'__dict__'
p43
S'{}'
p44
sS'__sizeof__'
p45
S'<built-in method __sizeof__ of exceptions.NameError object>'
p46
sS'__doc__'
p47
S"'Name not found globally.'"
p48
sS'__init__'
p49
S"<method-wrapper '__init__' of exceptions.NameError object>"
p50
sS'__new__'
p51
S'<built-in method __new__ of type object>'
p52
ssS'evalue'
p53
S"global name 'hearders' is not defined"
p54
sS'request'
p55
ccopy_reg
_reconstructor
p56
(cgluon.html
BEAUTIFY
p57
c__builtin__
object
p58
NtRp59
(dp60
S'attributes'
p61
(dp62
sS'components'
p63
(lp64
g56
(cgluon.html
TABLE
p65
g58
NtRp66
(dp67
g61
(dp68
S'level'
p69
I5
ssS'parent'
p70
Nsg63
(lp71
g56
(cgluon.html
TR
p72
g58
NtRp73
(dp74
g61
(dp75
sg70
g66
sg63
(lp76
g56
(cgluon.html
TD
p77
g58
NtRp78
(dp79
g61
(dp80
S'_style'
p81
S'font-weight:bold;'
p82
ssg70
g73
sg63
(lp83
S'ajax'
p84
asbag56
(g77
g58
NtRp85
(dp86
g61
(dp87
S'_valign'
p88
S'top'
p89
ssg70
g73
sg63
(lp90
S':'
asbag56
(g77
g58
NtRp91
(dp92
g61
(dp93
sg70
g73
sg63
(lp94
g56
(g57
g58
NtRp95
(dp96
g61
(dp97
g69
I5
ssg70
g91
sg63
(lp98
S'False'
p99
asbasbasbag56
(g72
g58
NtRp100
(dp101
g61
(dp102
sg70
g66
sg63
(lp103
g56
(g77
g58
NtRp104
(dp105
g61
(dp106
g81
g82
ssg70
g100
sg63
(lp107
S'application'
p108
asbag56
(g77
g58
NtRp109
(dp110
g61
(dp111
g88
g89
ssg70
g100
sg63
(lp112
S':'
asbag56
(g77
g58
NtRp113
(dp114
g61
(dp115
sg70
g100
sg63
(lp116
g56
(g57
g58
NtRp117
(dp118
g61
(dp119
g69
I5
ssg70
g113
sg63
(lp120
S'streamlog'
p121
asbasbasbag56
(g72
g58
NtRp122
(dp123
g61
(dp124
sg70
g66
sg63
(lp125
g56
(g77
g58
NtRp126
(dp127
g61
(dp128
g81
g82
ssg70
g122
sg63
(lp129
g23
asbag56
(g77
g58
NtRp130
(dp131
g61
(dp132
g88
g89
ssg70
g122
sg63
(lp133
S':'
asbag56
(g77
g58
NtRp134
(dp135
g61
(dp136
sg70
g122
sg63
(lp137
g56
(g57
g58
NtRp138
(dp139
g61
(dp140
g69
I5
ssg70
g134
sg63
(lp141
g56
(g65
g58
NtRp142
(dp143
g61
(dp144
g69
I4
ssg70
Nsg63
(lp145
sbasbasbasbag56
(g72
g58
NtRp146
(dp147
g61
(dp148
sg70
g66
sg63
(lp149
g56
(g77
g58
NtRp150
(dp151
g61
(dp152
g81
g82
ssg70
g146
sg63
(lp153
S'body'
p154
asbag56
(g77
g58
NtRp155
(dp156
g61
(dp157
g88
g89
ssg70
g146
sg63
(lp158
S':'
asbag56
(g77
g58
NtRp159
(dp160
g61
(dp161
sg70
g146
sg63
(lp162
g56
(g57
g58
NtRp163
(dp164
g61
(dp165
g69
I5
ssg70
g159
sg63
(lp166
S'<cStringIO.StringO object at 0x3529340>'
p167
asbasbasbag56
(g72
g58
NtRp168
(dp169
g61
(dp170
sg70
g66
sg63
(lp171
g56
(g77
g58
NtRp172
(dp173
g61
(dp174
g81
g82
ssg70
g168
sg63
(lp175
S'client'
p176
asbag56
(g77
g58
NtRp177
(dp178
g61
(dp179
g88
g89
ssg70
g168
sg63
(lp180
S':'
asbag56
(g77
g58
NtRp181
(dp182
g61
(dp183
sg70
g168
sg63
(lp184
g56
(g57
g58
NtRp185
(dp186
g61
(dp187
g69
I5
ssg70
g181
sg63
(lp188
S'127.0.0.1'
p189
asbasbasbag56
(g72
g58
NtRp190
(dp191
g61
(dp192
sg70
g66
sg63
(lp193
g56
(g77
g58
NtRp194
(dp195
g61
(dp196
g81
g82
ssg70
g190
sg63
(lp197
S'controller'
p198
asbag56
(g77
g58
NtRp199
(dp200
g61
(dp201
g88
g89
ssg70
g190
sg63
(lp202
S':'
asbag56
(g77
g58
NtRp203
(dp204
g61
(dp205
sg70
g190
sg63
(lp206
g56
(g57
g58
NtRp207
(dp208
g61
(dp209
g69
I5
ssg70
g203
sg63
(lp210
S'default'
p211
asbasbasbag56
(g72
g58
NtRp212
(dp213
g61
(dp214
sg70
g66
sg63
(lp215
g56
(g77
g58
NtRp216
(dp217
g61
(dp218
g81
g82
ssg70
g212
sg63
(lp219
S'cookies'
p220
asbag56
(g77
g58
NtRp221
(dp222
g61
(dp223
g88
g89
ssg70
g212
sg63
(lp224
S':'
asbag56
(g77
g58
NtRp225
(dp226
g61
(dp227
sg70
g212
sg63
(lp228
g56
(g57
g58
NtRp229
(dp230
g61
(dp231
g69
I5
ssg70
g225
sg63
(lp232
g56
(g65
g58
NtRp233
(dp234
g61
(dp235
g69
I4
ssg70
Nsg63
(lp236
g56
(g72
g58
NtRp237
(dp238
g61
(dp239
sg70
g233
sg63
(lp240
g56
(g77
g58
NtRp241
(dp242
g61
(dp243
g81
g82
ssg70
g237
sg63
(lp244
S'session_id_admin'
p245
asbag56
(g77
g58
NtRp246
(dp247
g61
(dp248
g88
g89
ssg70
g237
sg63
(lp249
S':'
asbag56
(g77
g58
NtRp250
(dp251
g61
(dp252
sg70
g237
sg63
(lp253
g56
(g57
g58
NtRp254
(dp255
g61
(dp256
g69
I4
ssg70
g250
sg63
(lp257
g56
(g65
g58
NtRp258
(dp259
g61
(dp260
g69
I3
ssg70
Nsg63
(lp261
g56
(g72
g58
NtRp262
(dp263
g61
(dp264
sg70
g258
sg63
(lp265
g56
(g77
g58
NtRp266
(dp267
g61
(dp268
g81
g82
ssg70
g262
sg63
(lp269
S'comment'
p270
asbag56
(g77
g58
NtRp271
(dp272
g61
(dp273
g88
g89
ssg70
g262
sg63
(lp274
S':'
asbag56
(g77
g58
NtRp275
(dp276
g61
(dp277
sg70
g262
sg63
(lp278
g56
(g57
g58
NtRp279
(dp280
g61
(dp281
g69
I3
ssg70
g275
sg63
(lp282
S''
asbasbasbag56
(g72
g58
NtRp283
(dp284
g61
(dp285
sg70
g258
sg63
(lp286
g56
(g77
g58
NtRp287
(dp288
g61
(dp289
g81
g82
ssg70
g283
sg63
(lp290
S'domain'
p291
asbag56
(g77
g58
NtRp292
(dp293
g61
(dp294
g88
g89
ssg70
g283
sg63
(lp295
S':'
asbag56
(g77
g58
NtRp296
(dp297
g61
(dp298
sg70
g283
sg63
(lp299
g56
(g57
g58
NtRp300
(dp301
g61
(dp302
g69
I3
ssg70
g296
sg63
(lp303
S''
asbasbasbag56
(g72
g58
NtRp304
(dp305
g61
(dp306
sg70
g258
sg63
(lp307
g56
(g77
g58
NtRp308
(dp309
g61
(dp310
g81
g82
ssg70
g304
sg63
(lp311
S'expires'
p312
asbag56
(g77
g58
NtRp313
(dp314
g61
(dp315
g88
g89
ssg70
g304
sg63
(lp316
S':'
asbag56
(g77
g58
NtRp317
(dp318
g61
(dp319
sg70
g304
sg63
(lp320
g56
(g57
g58
NtRp321
(dp322
g61
(dp323
g69
I3
ssg70
g317
sg63
(lp324
S''
asbasbasbag56
(g72
g58
NtRp325
(dp326
g61
(dp327
sg70
g258
sg63
(lp328
g56
(g77
g58
NtRp329
(dp330
g61
(dp331
g81
g82
ssg70
g325
sg63
(lp332
S'httponly'
p333
asbag56
(g77
g58
NtRp334
(dp335
g61
(dp336
g88
g89
ssg70
g325
sg63
(lp337
S':'
asbag56
(g77
g58
NtRp338
(dp339
g61
(dp340
sg70
g325
sg63
(lp341
g56
(g57
g58
NtRp342
(dp343
g61
(dp344
g69
I3
ssg70
g338
sg63
(lp345
S''
asbasbasbag56
(g72
g58
NtRp346
(dp347
g61
(dp348
sg70
g258
sg63
(lp349
g56
(g77
g58
NtRp350
(dp351
g61
(dp352
g81
g82
ssg70
g346
sg63
(lp353
S'max-age'
p354
asbag56
(g77
g58
NtRp355
(dp356
g61
(dp357
g88
g89
ssg70
g346
sg63
(lp358
S':'
asbag56
(g77
g58
NtRp359
(dp360
g61
(dp361
sg70
g346
sg63
(lp362
g56
(g57
g58
NtRp363
(dp364
g61
(dp365
g69
I3
ssg70
g359
sg63
(lp366
S''
asbasbasbag56
(g72
g58
NtRp367
(dp368
g61
(dp369
sg70
g258
sg63
(lp370
g56
(g77
g58
NtRp371
(dp372
g61
(dp373
g81
g82
ssg70
g367
sg63
(lp374
S'path'
p375
asbag56
(g77
g58
NtRp376
(dp377
g61
(dp378
g88
g89
ssg70
g367
sg63
(lp379
S':'
asbag56
(g77
g58
NtRp380
(dp381
g61
(dp382
sg70
g367
sg63
(lp383
g56
(g57
g58
NtRp384
(dp385
g61
(dp386
g69
I3
ssg70
g380
sg63
(lp387
S''
asbasbasbag56
(g72
g58
NtRp388
(dp389
g61
(dp390
sg70
g258
sg63
(lp391
g56
(g77
g58
NtRp392
(dp393
g61
(dp394
g81
g82
ssg70
g388
sg63
(lp395
S'secure'
p396
asbag56
(g77
g58
NtRp397
(dp398
g61
(dp399
g88
g89
ssg70
g388
sg63
(lp400
S':'
asbag56
(g77
g58
NtRp401
(dp402
g61
(dp403
sg70
g388
sg63
(lp404
g56
(g57
g58
NtRp405
(dp406
g61
(dp407
g69
I3
ssg70
g401
sg63
(lp408
S''
asbasbasbag56
(g72
g58
NtRp409
(dp410
g61
(dp411
sg70
g258
sg63
(lp412
g56
(g77
g58
NtRp413
(dp414
g61
(dp415
g81
g82
ssg70
g409
sg63
(lp416
S'version'
p417
asbag56
(g77
g58
NtRp418
(dp419
g61
(dp420
g88
g89
ssg70
g409
sg63
(lp421
S':'
asbag56
(g77
g58
NtRp422
(dp423
g61
(dp424
sg70
g409
sg63
(lp425
g56
(g57
g58
NtRp426
(dp427
g61
(dp428
g69
I3
ssg70
g422
sg63
(lp429
S''
asbasbasbasbasbasbasbag56
(g72
g58
NtRp430
(dp431
g61
(dp432
sg70
g233
sg63
(lp433
g56
(g77
g58
NtRp434
(dp435
g61
(dp436
g81
g82
ssg70
g430
sg63
(lp437
S'session_id_streamlog'
p438
asbag56
(g77
g58
NtRp439
(dp440
g61
(dp441
g88
g89
ssg70
g430
sg63
(lp442
S':'
asbag56
(g77
g58
NtRp443
(dp444
g61
(dp445
sg70
g430
sg63
(lp446
g56
(g57
g58
NtRp447
(dp448
g61
(dp449
g69
I4
ssg70
g443
sg63
(lp450
g56
(g65
g58
NtRp451
(dp452
g61
(dp453
g69
I3
ssg70
Nsg63
(lp454
g56
(g72
g58
NtRp455
(dp456
g61
(dp457
sg70
g451
sg63
(lp458
g56
(g77
g58
NtRp459
(dp460
g61
(dp461
g81
g82
ssg70
g455
sg63
(lp462
g270
asbag56
(g77
g58
NtRp463
(dp464
g61
(dp465
g88
g89
ssg70
g455
sg63
(lp466
S':'
asbag56
(g77
g58
NtRp467
(dp468
g61
(dp469
sg70
g455
sg63
(lp470
g56
(g57
g58
NtRp471
(dp472
g61
(dp473
g69
I3
ssg70
g467
sg63
(lp474
S''
asbasbasbag56
(g72
g58
NtRp475
(dp476
g61
(dp477
sg70
g451
sg63
(lp478
g56
(g77
g58
NtRp479
(dp480
g61
(dp481
g81
g82
ssg70
g475
sg63
(lp482
g291
asbag56
(g77
g58
NtRp483
(dp484
g61
(dp485
g88
g89
ssg70
g475
sg63
(lp486
S':'
asbag56
(g77
g58
NtRp487
(dp488
g61
(dp489
sg70
g475
sg63
(lp490
g56
(g57
g58
NtRp491
(dp492
g61
(dp493
g69
I3
ssg70
g487
sg63
(lp494
S''
asbasbasbag56
(g72
g58
NtRp495
(dp496
g61
(dp497
sg70
g451
sg63
(lp498
g56
(g77
g58
NtRp499
(dp500
g61
(dp501
g81
g82
ssg70
g495
sg63
(lp502
g312
asbag56
(g77
g58
NtRp503
(dp504
g61
(dp505
g88
g89
ssg70
g495
sg63
(lp506
S':'
asbag56
(g77
g58
NtRp507
(dp508
g61
(dp509
sg70
g495
sg63
(lp510
g56
(g57
g58
NtRp511
(dp512
g61
(dp513
g69
I3
ssg70
g507
sg63
(lp514
S''
asbasbasbag56
(g72
g58
NtRp515
(dp516
g61
(dp517
sg70
g451
sg63
(lp518
g56
(g77
g58
NtRp519
(dp520
g61
(dp521
g81
g82
ssg70
g515
sg63
(lp522
g333
asbag56
(g77
g58
NtRp523
(dp524
g61
(dp525
g88
g89
ssg70
g515
sg63
(lp526
S':'
asbag56
(g77
g58
NtRp527
(dp528
g61
(dp529
sg70
g515
sg63
(lp530
g56
(g57
g58
NtRp531
(dp532
g61
(dp533
g69
I3
ssg70
g527
sg63
(lp534
S''
asbasbasbag56
(g72
g58
NtRp535
(dp536
g61
(dp537
sg70
g451
sg63
(lp538
g56
(g77
g58
NtRp539
(dp540
g61
(dp541
g81
g82
ssg70
g535
sg63
(lp542
g354
asbag56
(g77
g58
NtRp543
(dp544
g61
(dp545
g88
g89
ssg70
g535
sg63
(lp546
S':'
asbag56
(g77
g58
NtRp547
(dp548
g61
(dp549
sg70
g535
sg63
(lp550
g56
(g57
g58
NtRp551
(dp552
g61
(dp553
g69
I3
ssg70
g547
sg63
(lp554
S''
asbasbasbag56
(g72
g58
NtRp555
(dp556
g61
(dp557
sg70
g451
sg63
(lp558
g56
(g77
g58
NtRp559
(dp560
g61
(dp561
g81
g82
ssg70
g555
sg63
(lp562
g375
asbag56
(g77
g58
NtRp563
(dp564
g61
(dp565
g88
g89
ssg70
g555
sg63
(lp566
S':'
asbag56
(g77
g58
NtRp567
(dp568
g61
(dp569
sg70
g555
sg63
(lp570
g56
(g57
g58
NtRp571
(dp572
g61
(dp573
g69
I3
ssg70
g567
sg63
(lp574
S''
asbasbasbag56
(g72
g58
NtRp575
(dp576
g61
(dp577
sg70
g451
sg63
(lp578
g56
(g77
g58
NtRp579
(dp580
g61
(dp581
g81
g82
ssg70
g575
sg63
(lp582
g396
asbag56
(g77
g58
NtRp583
(dp584
g61
(dp585
g88
g89
ssg70
g575
sg63
(lp586
S':'
asbag56
(g77
g58
NtRp587
(dp588
g61
(dp589
sg70
g575
sg63
(lp590
g56
(g57
g58
NtRp591
(dp592
g61
(dp593
g69
I3
ssg70
g587
sg63
(lp594
S''
asbasbasbag56
(g72
g58
NtRp595
(dp596
g61
(dp597
sg70
g451
sg63
(lp598
g56
(g77
g58
NtRp599
(dp600
g61
(dp601
g81
g82
ssg70
g595
sg63
(lp602
g417
asbag56
(g77
g58
NtRp603
(dp604
g61
(dp605
g88
g89
ssg70
g595
sg63
(lp606
S':'
asbag56
(g77
g58
NtRp607
(dp608
g61
(dp609
sg70
g595
sg63
(lp610
g56
(g57
g58
NtRp611
(dp612
g61
(dp613
g69
I3
ssg70
g607
sg63
(lp614
S''
asbasbasbasbasbasbasbag56
(g72
g58
NtRp615
(dp616
g61
(dp617
sg70
g233
sg63
(lp618
g56
(g77
g58
NtRp619
(dp620
g61
(dp621
g81
g82
ssg70
g615
sg63
(lp622
S'session_id_test3'
p623
asbag56
(g77
g58
NtRp624
(dp625
g61
(dp626
g88
g89
ssg70
g615
sg63
(lp627
S':'
asbag56
(g77
g58
NtRp628
(dp629
g61
(dp630
sg70
g615
sg63
(lp631
g56
(g57
g58
NtRp632
(dp633
g61
(dp634
g69
I4
ssg70
g628
sg63
(lp635
g56
(g65
g58
NtRp636
(dp637
g61
(dp638
g69
I3
ssg70
Nsg63
(lp639
g56
(g72
g58
NtRp640
(dp641
g61
(dp642
sg70
g636
sg63
(lp643
g56
(g77
g58
NtRp644
(dp645
g61
(dp646
g81
g82
ssg70
g640
sg63
(lp647
g270
asbag56
(g77
g58
NtRp648
(dp649
g61
(dp650
g88
g89
ssg70
g640
sg63
(lp651
S':'
asbag56
(g77
g58
NtRp652
(dp653
g61
(dp654
sg70
g640
sg63
(lp655
g56
(g57
g58
NtRp656
(dp657
g61
(dp658
g69
I3
ssg70
g652
sg63
(lp659
S''
asbasbasbag56
(g72
g58
NtRp660
(dp661
g61
(dp662
sg70
g636
sg63
(lp663
g56
(g77
g58
NtRp664
(dp665
g61
(dp666
g81
g82
ssg70
g660
sg63
(lp667
g291
asbag56
(g77
g58
NtRp668
(dp669
g61
(dp670
g88
g89
ssg70
g660
sg63
(lp671
S':'
asbag56
(g77
g58
NtRp672
(dp673
g61
(dp674
sg70
g660
sg63
(lp675
g56
(g57
g58
NtRp676
(dp677
g61
(dp678
g69
I3
ssg70
g672
sg63
(lp679
S''
asbasbasbag56
(g72
g58
NtRp680
(dp681
g61
(dp682
sg70
g636
sg63
(lp683
g56
(g77
g58
NtRp684
(dp685
g61
(dp686
g81
g82
ssg70
g680
sg63
(lp687
g312
asbag56
(g77
g58
NtRp688
(dp689
g61
(dp690
g88
g89
ssg70
g680
sg63
(lp691
S':'
asbag56
(g77
g58
NtRp692
(dp693
g61
(dp694
sg70
g680
sg63
(lp695
g56
(g57
g58
NtRp696
(dp697
g61
(dp698
g69
I3
ssg70
g692
sg63
(lp699
S''
asbasbasbag56
(g72
g58
NtRp700
(dp701
g61
(dp702
sg70
g636
sg63
(lp703
g56
(g77
g58
NtRp704
(dp705
g61
(dp706
g81
g82
ssg70
g700
sg63
(lp707
g333
asbag56
(g77
g58
NtRp708
(dp709
g61
(dp710
g88
g89
ssg70
g700
sg63
(lp711
S':'
asbag56
(g77
g58
NtRp712
(dp713
g61
(dp714
sg70
g700
sg63
(lp715
g56
(g57
g58
NtRp716
(dp717
g61
(dp718
g69
I3
ssg70
g712
sg63
(lp719
S''
asbasbasbag56
(g72
g58
NtRp720
(dp721
g61
(dp722
sg70
g636
sg63
(lp723
g56
(g77
g58
NtRp724
(dp725
g61
(dp726
g81
g82
ssg70
g720
sg63
(lp727
g354
asbag56
(g77
g58
NtRp728
(dp729
g61
(dp730
g88
g89
ssg70
g720
sg63
(lp731
S':'
asbag56
(g77
g58
NtRp732
(dp733
g61
(dp734
sg70
g720
sg63
(lp735
g56
(g57
g58
NtRp736
(dp737
g61
(dp738
g69
I3
ssg70
g732
sg63
(lp739
S''
asbasbasbag56
(g72
g58
NtRp740
(dp741
g61
(dp742
sg70
g636
sg63
(lp743
g56
(g77
g58
NtRp744
(dp745
g61
(dp746
g81
g82
ssg70
g740
sg63
(lp747
g375
asbag56
(g77
g58
NtRp748
(dp749
g61
(dp750
g88
g89
ssg70
g740
sg63
(lp751
S':'
asbag56
(g77
g58
NtRp752
(dp753
g61
(dp754
sg70
g740
sg63
(lp755
g56
(g57
g58
NtRp756
(dp757
g61
(dp758
g69
I3
ssg70
g752
sg63
(lp759
S''
asbasbasbag56
(g72
g58
NtRp760
(dp761
g61
(dp762
sg70
g636
sg63
(lp763
g56
(g77
g58
NtRp764
(dp765
g61
(dp766
g81
g82
ssg70
g760
sg63
(lp767
g396
asbag56
(g77
g58
NtRp768
(dp769
g61
(dp770
g88
g89
ssg70
g760
sg63
(lp771
S':'
asbag56
(g77
g58
NtRp772
(dp773
g61
(dp774
sg70
g760
sg63
(lp775
g56
(g57
g58
NtRp776
(dp777
g61
(dp778
g69
I3
ssg70
g772
sg63
(lp779
S''
asbasbasbag56
(g72
g58
NtRp780
(dp781
g61
(dp782
sg70
g636
sg63
(lp783
g56
(g77
g58
NtRp784
(dp785
g61
(dp786
g81
g82
ssg70
g780
sg63
(lp787
g417
asbag56
(g77
g58
NtRp788
(dp789
g61
(dp790
g88
g89
ssg70
g780
sg63
(lp791
S':'
asbag56
(g77
g58
NtRp792
(dp793
g61
(dp794
sg70
g780
sg63
(lp795
g56
(g57
g58
NtRp796
(dp797
g61
(dp798
g69
I3
ssg70
g792
sg63
(lp799
S''
asbasbasbasbasbasbasbasbasbasbasbag56
(g72
g58
NtRp800
(dp801
g61
(dp802
sg70
g66
sg63
(lp803
g56
(g77
g58
NtRp804
(dp805
g61
(dp806
g81
g82
ssg70
g800
sg63
(lp807
S'env'
p808
asbag56
(g77
g58
NtRp809
(dp810
g61
(dp811
g88
g89
ssg70
g800
sg63
(lp812
S':'
asbag56
(g77
g58
NtRp813
(dp814
g61
(dp815
sg70
g800
sg63
(lp816
g56
(g57
g58
NtRp817
(dp818
g61
(dp819
g69
I5
ssg70
g813
sg63
(lp820
g56
(g65
g58
NtRp821
(dp822
g61
(dp823
g69
I4
ssg70
Nsg63
(lp824
g56
(g72
g58
NtRp825
(dp826
g61
(dp827
sg70
g821
sg63
(lp828
g56
(g77
g58
NtRp829
(dp830
g61
(dp831
g81
g82
ssg70
g825
sg63
(lp832
S'app_folders'
p833
asbag56
(g77
g58
NtRp834
(dp835
g61
(dp836
g88
g89
ssg70
g825
sg63
(lp837
S':'
asbag56
(g77
g58
NtRp838
(dp839
g61
(dp840
sg70
g825
sg63
(lp841
g56
(g57
g58
NtRp842
(dp843
g61
(dp844
g69
I4
ssg70
g838
sg63
(lp845
S"set(['/home/jose/DESARROLLO/web2py199/applications/streamlog/', '/home/jose/DESARROLLO/web2py199/applications/admin/'])"
p846
asbasbasbag56
(g72
g58
NtRp847
(dp848
g61
(dp849
sg70
g821
sg63
(lp850
g56
(g77
g58
NtRp851
(dp852
g61
(dp853
g81
g82
ssg70
g847
sg63
(lp854
S'applications_parent'
p855
asbag56
(g77
g58
NtRp856
(dp857
g61
(dp858
g88
g89
ssg70
g847
sg63
(lp859
S':'
asbag56
(g77
g58
NtRp860
(dp861
g61
(dp862
sg70
g847
sg63
(lp863
g56
(g57
g58
NtRp864
(dp865
g61
(dp866
g69
I4
ssg70
g860
sg63
(lp867
S'/home/jose/DESARROLLO/web2py199'
p868
asbasbasbag56
(g72
g58
NtRp869
(dp870
g61
(dp871
sg70
g821
sg63
(lp872
g56
(g77
g58
NtRp873
(dp874
g61
(dp875
g81
g82
ssg70
g869
sg63
(lp876
S'cmd_args'
p877
asbag56
(g77
g58
NtRp878
(dp879
g61
(dp880
g88
g89
ssg70
g869
sg63
(lp881
S':'
asbag56
(g77
g58
NtRp882
(dp883
g61
(dp884
sg70
g869
sg63
(lp885
g56
(g57
g58
NtRp886
(dp887
g61
(dp888
g69
I4
ssg70
g882
sg63
(lp889
g56
(g65
g58
NtRp890
(dp891
g61
(dp892
g69
I3
ssg70
Nsg63
(lp893
sbasbasbasbag56
(g72
g58
NtRp894
(dp895
g61
(dp896
sg70
g821
sg63
(lp897
g56
(g77
g58
NtRp898
(dp899
g61
(dp900
g81
g82
ssg70
g894
sg63
(lp901
S'cmd_options'
p902
asbag56
(g77
g58
NtRp903
(dp904
g61
(dp905
g88
g89
ssg70
g894
sg63
(lp906
S':'
asbag56
(g77
g58
NtRp907
(dp908
g61
(dp909
sg70
g894
sg63
(lp910
g56
(g57
g58
NtRp911
(dp912
g61
(dp913
g69
I4
ssg70
g907
sg63
(lp914
S"<Values at 0x1c79f80: {'verbose': False, 'ip': '127.0.0.1', 'shutdown_timeout': 5, 'taskbar': False, 'nocron': False, 'pid_filename': 'httpserver.pid', 'maxthreads': None, 'softcron': False, 'server_name': 'jose', 'bpython': False, 'nogui': False, 'port': 8000, 'extcron': False, 'debuglevel': 30, 'test': None, 'folder': '/home/jose/DESARROLLO/web2py199', 'config': '', 'import_models': False, 'winservice': '', 'shell': None, 'run': '', 'log_filename': 'httpserver.log', 'args': [''], 'ssl_ca_certificate': None, 'scheduler': None, 'profiler_filename': None, 'ssl_private_key': '', 'password': 't', 'request_queue_size': 5, 'ssl_certificate': '', 'cronjob': False, 'plain': False, 'quiet': False, 'interfaces': None, 'minthreads': None, 'timeout': 10, 'numthreads': None, 'nobanner': False}>"
p915
asbasbasbag56
(g72
g58
NtRp916
(dp917
g61
(dp918
sg70
g821
sg63
(lp919
g56
(g77
g58
NtRp920
(dp921
g61
(dp922
g81
g82
ssg70
g916
sg63
(lp923
S'db_sessions'
p924
asbag56
(g77
g58
NtRp925
(dp926
g61
(dp927
g88
g89
ssg70
g916
sg63
(lp928
S':'
asbag56
(g77
g58
NtRp929
(dp930
g61
(dp931
sg70
g916
sg63
(lp932
g56
(g57
g58
NtRp933
(dp934
g61
(dp935
g69
I4
ssg70
g929
sg63
(lp936
S'set([])'
p937
asbasbasbag56
(g72
g58
NtRp938
(dp939
g61
(dp940
sg70
g821
sg63
(lp941
g56
(g77
g58
NtRp942
(dp943
g61
(dp944
g81
g82
ssg70
g938
sg63
(lp945
S'debugging'
p946
asbag56
(g77
g58
NtRp947
(dp948
g61
(dp949
g88
g89
ssg70
g938
sg63
(lp950
S':'
asbag56
(g77
g58
NtRp951
(dp952
g61
(dp953
sg70
g938
sg63
(lp954
g56
(g57
g58
NtRp955
(dp956
g61
(dp957
g69
I4
ssg70
g951
sg63
(lp958
g99
asbasbasbag56
(g72
g58
NtRp959
(dp960
g61
(dp961
sg70
g821
sg63
(lp962
g56
(g77
g58
NtRp963
(dp964
g61
(dp965
g81
g82
ssg70
g959
sg63
(lp966
S'gluon_parent'
p967
asbag56
(g77
g58
NtRp968
(dp969
g61
(dp970
g88
g89
ssg70
g959
sg63
(lp971
S':'
asbag56
(g77
g58
NtRp972
(dp973
g61
(dp974
sg70
g959
sg63
(lp975
g56
(g57
g58
NtRp976
(dp977
g61
(dp978
g69
I4
ssg70
g972
sg63
(lp979
S'/home/jose/DESARROLLO/web2py199'
p980
asbasbasbag56
(g72
g58
NtRp981
(dp982
g61
(dp983
sg70
g821
sg63
(lp984
g56
(g77
g58
NtRp985
(dp986
g61
(dp987
g81
g82
ssg70
g981
sg63
(lp988
S'http_accept'
p989
asbag56
(g77
g58
NtRp990
(dp991
g61
(dp992
g88
g89
ssg70
g981
sg63
(lp993
S':'
asbag56
(g77
g58
NtRp994
(dp995
g61
(dp996
sg70
g981
sg63
(lp997
g56
(g57
g58
NtRp998
(dp999
g61
(dp1000
g69
I4
ssg70
g994
sg63
(lp1001
S'text/html,application/xhtml+xml,application/xml;q=0.9,*/*;q=0.8'
p1002
asbasbasbag56
(g72
g58
NtRp1003
(dp1004
g61
(dp1005
sg70
g821
sg63
(lp1006
g56
(g77
g58
NtRp1007
(dp1008
g61
(dp1009
g81
g82
ssg70
g1003
sg63
(lp1010
S'http_accept_encoding'
p1011
asbag56
(g77
g58
NtRp1012
(dp1013
g61
(dp1014
g88
g89
ssg70
g1003
sg63
(lp1015
S':'
asbag56
(g77
g58
NtRp1016
(dp1017
g61
(dp1018
sg70
g1003
sg63
(lp1019
g56
(g57
g58
NtRp1020
(dp1021
g61
(dp1022
g69
I4
ssg70
g1016
sg63
(lp1023
S'gzip, deflate'
p1024
asbasbasbag56
(g72
g58
NtRp1025
(dp1026
g61
(dp1027
sg70
g821
sg63
(lp1028
g56
(g77
g58
NtRp1029
(dp1030
g61
(dp1031
g81
g82
ssg70
g1025
sg63
(lp1032
S'http_accept_language'
p1033
asbag56
(g77
g58
NtRp1034
(dp1035
g61
(dp1036
g88
g89
ssg70
g1025
sg63
(lp1037
S':'
asbag56
(g77
g58
NtRp1038
(dp1039
g61
(dp1040
sg70
g1025
sg63
(lp1041
g56
(g57
g58
NtRp1042
(dp1043
g61
(dp1044
g69
I4
ssg70
g1038
sg63
(lp1045
S'en-us,en;q=0.5'
p1046
asbasbasbag56
(g72
g58
NtRp1047
(dp1048
g61
(dp1049
sg70
g821
sg63
(lp1050
g56
(g77
g58
NtRp1051
(dp1052
g61
(dp1053
g81
g82
ssg70
g1047
sg63
(lp1054
S'http_connection'
p1055
asbag56
(g77
g58
NtRp1056
(dp1057
g61
(dp1058
g88
g89
ssg70
g1047
sg63
(lp1059
S':'
asbag56
(g77
g58
NtRp1060
(dp1061
g61
(dp1062
sg70
g1047
sg63
(lp1063
g56
(g57
g58
NtRp1064
(dp1065
g61
(dp1066
g69
I4
ssg70
g1060
sg63
(lp1067
S'keep-alive'
p1068
asbasbasbag56
(g72
g58
NtRp1069
(dp1070
g61
(dp1071
sg70
g821
sg63
(lp1072
g56
(g77
g58
NtRp1073
(dp1074
g61
(dp1075
g81
g82
ssg70
g1069
sg63
(lp1076
S'http_cookie'
p1077
asbag56
(g77
g58
NtRp1078
(dp1079
g61
(dp1080
g88
g89
ssg70
g1069
sg63
(lp1081
S':'
asbag56
(g77
g58
NtRp1082
(dp1083
g61
(dp1084
sg70
g1069
sg63
(lp1085
g56
(g57
g58
NtRp1086
(dp1087
g61
(dp1088
g69
I4
ssg70
g1082
sg63
(lp1089
S'session_id_streamlog=127.0.0.1-610b0c7d-3f6f-4500-a76a-b095fb30f7fd; session_id_admin=127.0.0.1-87ac9729-f9fb-412b-aa6d-428ca5932487; session_id_test3=127.0.0.1-380e7b29-b635-4690-b9ca-812870d6a061'
p1090
asbasbasbag56
(g72
g58
NtRp1091
(dp1092
g61
(dp1093
sg70
g821
sg63
(lp1094
g56
(g77
g58
NtRp1095
(dp1096
g61
(dp1097
g81
g82
ssg70
g1091
sg63
(lp1098
S'http_host'
p1099
asbag56
(g77
g58
NtRp1100
(dp1101
g61
(dp1102
g88
g89
ssg70
g1091
sg63
(lp1103
S':'
asbag56
(g77
g58
NtRp1104
(dp1105
g61
(dp1106
sg70
g1091
sg63
(lp1107
g56
(g57
g58
NtRp1108
(dp1109
g61
(dp1110
g69
I4
ssg70
g1104
sg63
(lp1111
S'localhost:8000'
p1112
asbasbasbag56
(g72
g58
NtRp1113
(dp1114
g61
(dp1115
sg70
g821
sg63
(lp1116
g56
(g77
g58
NtRp1117
(dp1118
g61
(dp1119
g81
g82
ssg70
g1113
sg63
(lp1120
S'http_referer'
p1121
asbag56
(g77
g58
NtRp1122
(dp1123
g61
(dp1124
g88
g89
ssg70
g1113
sg63
(lp1125
S':'
asbag56
(g77
g58
NtRp1126
(dp1127
g61
(dp1128
sg70
g1113
sg63
(lp1129
g56
(g57
g58
NtRp1130
(dp1131
g61
(dp1132
g69
I4
ssg70
g1126
sg63
(lp1133
S'http://localhost:8000/streamlog/default/server_manage'
p1134
asbasbasbag56
(g72
g58
NtRp1135
(dp1136
g61
(dp1137
sg70
g821
sg63
(lp1138
g56
(g77
g58
NtRp1139
(dp1140
g61
(dp1141
g81
g82
ssg70
g1135
sg63
(lp1142
S'http_user_agent'
p1143
asbag56
(g77
g58
NtRp1144
(dp1145
g61
(dp1146
g88
g89
ssg70
g1135
sg63
(lp1147
S':'
asbag56
(g77
g58
NtRp1148
(dp1149
g61
(dp1150
sg70
g1135
sg63
(lp1151
g56
(g57
g58
NtRp1152
(dp1153
g61
(dp1154
g69
I4
ssg70
g1148
sg63
(lp1155
S'Mozilla/5.0 (X11; Ubuntu; Linux x86_64; rv:12.0) Gecko/20100101 Firefox/12.0'
p1156
asbasbasbag56
(g72
g58
NtRp1157
(dp1158
g61
(dp1159
sg70
g821
sg63
(lp1160
g56
(g77
g58
NtRp1161
(dp1162
g61
(dp1163
g81
g82
ssg70
g1157
sg63
(lp1164
S'is_jython'
p1165
asbag56
(g77
g58
NtRp1166
(dp1167
g61
(dp1168
g88
g89
ssg70
g1157
sg63
(lp1169
S':'
asbag56
(g77
g58
NtRp1170
(dp1171
g61
(dp1172
sg70
g1157
sg63
(lp1173
g56
(g57
g58
NtRp1174
(dp1175
g61
(dp1176
g69
I4
ssg70
g1170
sg63
(lp1177
g99
asbasbasbag56
(g72
g58
NtRp1178
(dp1179
g61
(dp1180
sg70
g821
sg63
(lp1181
g56
(g77
g58
NtRp1182
(dp1183
g61
(dp1184
g81
g82
ssg70
g1178
sg63
(lp1185
S'path_info'
p1186
asbag56
(g77
g58
NtRp1187
(dp1188
g61
(dp1189
g88
g89
ssg70
g1178
sg63
(lp1190
S':'
asbag56
(g77
g58
NtRp1191
(dp1192
g61
(dp1193
sg70
g1178
sg63
(lp1194
g56
(g57
g58
NtRp1195
(dp1196
g61
(dp1197
g69
I4
ssg70
g1191
sg63
(lp1198
S'/streamlog/default/server_manage'
p1199
asbasbasbag56
(g72
g58
NtRp1200
(dp1201
g61
(dp1202
sg70
g821
sg63
(lp1203
g56
(g77
g58
NtRp1204
(dp1205
g61
(dp1206
g81
g82
ssg70
g1200
sg63
(lp1207
S'query_string'
p1208
asbag56
(g77
g58
NtRp1209
(dp1210
g61
(dp1211
g88
g89
ssg70
g1200
sg63
(lp1212
S':'
asbag56
(g77
g58
NtRp1213
(dp1214
g61
(dp1215
sg70
g1200
sg63
(lp1216
g56
(g57
g58
NtRp1217
(dp1218
g61
(dp1219
g69
I4
ssg70
g1213
sg63
(lp1220
S''
asbasbasbag56
(g72
g58
NtRp1221
(dp1222
g61
(dp1223
sg70
g821
sg63
(lp1224
g56
(g77
g58
NtRp1225
(dp1226
g61
(dp1227
g81
g82
ssg70
g1221
sg63
(lp1228
S'remote_addr'
p1229
asbag56
(g77
g58
NtRp1230
(dp1231
g61
(dp1232
g88
g89
ssg70
g1221
sg63
(lp1233
S':'
asbag56
(g77
g58
NtRp1234
(dp1235
g61
(dp1236
sg70
g1221
sg63
(lp1237
g56
(g57
g58
NtRp1238
(dp1239
g61
(dp1240
g69
I4
ssg70
g1234
sg63
(lp1241
g189
asbasbasbag56
(g72
g58
NtRp1242
(dp1243
g61
(dp1244
sg70
g821
sg63
(lp1245
g56
(g77
g58
NtRp1246
(dp1247
g61
(dp1248
g81
g82
ssg70
g1242
sg63
(lp1249
S'remote_port'
p1250
asbag56
(g77
g58
NtRp1251
(dp1252
g61
(dp1253
g88
g89
ssg70
g1242
sg63
(lp1254
S':'
asbag56
(g77
g58
NtRp1255
(dp1256
g61
(dp1257
sg70
g1242
sg63
(lp1258
g56
(g57
g58
NtRp1259
(dp1260
g61
(dp1261
g69
I4
ssg70
g1255
sg63
(lp1262
S'33791'
p1263
asbasbasbag56
(g72
g58
NtRp1264
(dp1265
g61
(dp1266
sg70
g821
sg63
(lp1267
g56
(g77
g58
NtRp1268
(dp1269
g61
(dp1270
g81
g82
ssg70
g1264
sg63
(lp1271
S'request_method'
p1272
asbag56
(g77
g58
NtRp1273
(dp1274
g61
(dp1275
g88
g89
ssg70
g1264
sg63
(lp1276
S':'
asbag56
(g77
g58
NtRp1277
(dp1278
g61
(dp1279
sg70
g1264
sg63
(lp1280
g56
(g57
g58
NtRp1281
(dp1282
g61
(dp1283
g69
I4
ssg70
g1277
sg63
(lp1284
S'GET'
p1285
asbasbasbag56
(g72
g58
NtRp1286
(dp1287
g61
(dp1288
sg70
g821
sg63
(lp1289
g56
(g77
g58
NtRp1290
(dp1291
g61
(dp1292
g81
g82
ssg70
g1286
sg63
(lp1293
S'script_name'
p1294
asbag56
(g77
g58
NtRp1295
(dp1296
g61
(dp1297
g88
g89
ssg70
g1286
sg63
(lp1298
S':'
asbag56
(g77
g58
NtRp1299
(dp1300
g61
(dp1301
sg70
g1286
sg63
(lp1302
g56
(g57
g58
NtRp1303
(dp1304
g61
(dp1305
g69
I4
ssg70
g1299
sg63
(lp1306
S''
asbasbasbag56
(g72
g58
NtRp1307
(dp1308
g61
(dp1309
sg70
g821
sg63
(lp1310
g56
(g77
g58
NtRp1311
(dp1312
g61
(dp1313
g81
g82
ssg70
g1307
sg63
(lp1314
S'server_name'
p1315
asbag56
(g77
g58
NtRp1316
(dp1317
g61
(dp1318
g88
g89
ssg70
g1307
sg63
(lp1319
S':'
asbag56
(g77
g58
NtRp1320
(dp1321
g61
(dp1322
sg70
g1307
sg63
(lp1323
g56
(g57
g58
NtRp1324
(dp1325
g61
(dp1326
g69
I4
ssg70
g1320
sg63
(lp1327
S'jose'
p1328
asbasbasbag56
(g72
g58
NtRp1329
(dp1330
g61
(dp1331
sg70
g821
sg63
(lp1332
g56
(g77
g58
NtRp1333
(dp1334
g61
(dp1335
g81
g82
ssg70
g1329
sg63
(lp1336
S'server_port'
p1337
asbag56
(g77
g58
NtRp1338
(dp1339
g61
(dp1340
g88
g89
ssg70
g1329
sg63
(lp1341
S':'
asbag56
(g77
g58
NtRp1342
(dp1343
g61
(dp1344
sg70
g1329
sg63
(lp1345
g56
(g57
g58
NtRp1346
(dp1347
g61
(dp1348
g69
I4
ssg70
g1342
sg63
(lp1349
S'8000'
p1350
asbasbasbag56
(g72
g58
NtRp1351
(dp1352
g61
(dp1353
sg70
g821
sg63
(lp1354
g56
(g77
g58
NtRp1355
(dp1356
g61
(dp1357
g81
g82
ssg70
g1351
sg63
(lp1358
S'server_protocol'
p1359
asbag56
(g77
g58
NtRp1360
(dp1361
g61
(dp1362
g88
g89
ssg70
g1351
sg63
(lp1363
S':'
asbag56
(g77
g58
NtRp1364
(dp1365
g61
(dp1366
sg70
g1351
sg63
(lp1367
g56
(g57
g58
NtRp1368
(dp1369
g61
(dp1370
g69
I4
ssg70
g1364
sg63
(lp1371
S'HTTP/1.1'
p1372
asbasbasbag56
(g72
g58
NtRp1373
(dp1374
g61
(dp1375
sg70
g821
sg63
(lp1376
g56
(g77
g58
NtRp1377
(dp1378
g61
(dp1379
g81
g82
ssg70
g1373
sg63
(lp1380
S'server_software'
p1381
asbag56
(g77
g58
NtRp1382
(dp1383
g61
(dp1384
g88
g89
ssg70
g1373
sg63
(lp1385
S':'
asbag56
(g77
g58
NtRp1386
(dp1387
g61
(dp1388
sg70
g1373
sg63
(lp1389
g56
(g57
g58
NtRp1390
(dp1391
g61
(dp1392
g69
I4
ssg70
g1386
sg63
(lp1393
S'Rocket 1.2.4'
p1394
asbasbasbag56
(g72
g58
NtRp1395
(dp1396
g61
(dp1397
sg70
g821
sg63
(lp1398
g56
(g77
g58
NtRp1399
(dp1400
g61
(dp1401
g81
g82
ssg70
g1395
sg63
(lp1402
S'web2py_crontype'
p1403
asbag56
(g77
g58
NtRp1404
(dp1405
g61
(dp1406
g88
g89
ssg70
g1395
sg63
(lp1407
S':'
asbag56
(g77
g58
NtRp1408
(dp1409
g61
(dp1410
sg70
g1395
sg63
(lp1411
g56
(g57
g58
NtRp1412
(dp1413
g61
(dp1414
g69
I4
ssg70
g1408
sg63
(lp1415
S'hard'
p1416
asbasbasbag56
(g72
g58
NtRp1417
(dp1418
g61
(dp1419
sg70
g821
sg63
(lp1420
g56
(g77
g58
NtRp1421
(dp1422
g61
(dp1423
g81
g82
ssg70
g1417
sg63
(lp1424
S'web2py_path'
p1425
asbag56
(g77
g58
NtRp1426
(dp1427
g61
(dp1428
g88
g89
ssg70
g1417
sg63
(lp1429
S':'
asbag56
(g77
g58
NtRp1430
(dp1431
g61
(dp1432
sg70
g1417
sg63
(lp1433
g56
(g57
g58
NtRp1434
(dp1435
g61
(dp1436
g69
I4
ssg70
g1430
sg63
(lp1437
g868
asbasbasbag56
(g72
g58
NtRp1438
(dp1439
g61
(dp1440
sg70
g821
sg63
(lp1441
g56
(g77
g58
NtRp1442
(dp1443
g61
(dp1444
g81
g82
ssg70
g1438
sg63
(lp1445
S'web2py_version'
p1446
asbag56
(g77
g58
NtRp1447
(dp1448
g61
(dp1449
g88
g89
ssg70
g1438
sg63
(lp1450
S':'
asbag56
(g77
g58
NtRp1451
(dp1452
g61
(dp1453
sg70
g1438
sg63
(lp1454
g56
(g57
g58
NtRp1455
(dp1456
g61
(dp1457
g69
I4
ssg70
g1451
sg63
(lp1458
g56
(g65
g58
NtRp1459
(dp1460
g61
(dp1461
g69
I3
ssg70
Nsg63
(lp1462
g56
(g72
g58
NtRp1463
(dp1464
g61
(dp1465
sg70
g1459
sg63
(lp1466
g56
(g77
g58
NtRp1467
(dp1468
g61
(dp1469
sg70
g1463
sg63
(lp1470
g56
(g57
g58
NtRp1471
(dp1472
g61
(dp1473
g69
I3
ssg70
g1467
sg63
(lp1474
S'1'
asbasbasbag56
(g72
g58
NtRp1475
(dp1476
g61
(dp1477
sg70
g1459
sg63
(lp1478
g56
(g77
g58
NtRp1479
(dp1480
g61
(dp1481
sg70
g1475
sg63
(lp1482
g56
(g57
g58
NtRp1483
(dp1484
g61
(dp1485
g69
I3
ssg70
g1479
sg63
(lp1486
S'99'
p1487
asbasbasbag56
(g72
g58
NtRp1488
(dp1489
g61
(dp1490
sg70
g1459
sg63
(lp1491
g56
(g77
g58
NtRp1492
(dp1493
g61
(dp1494
sg70
g1488
sg63
(lp1495
g56
(g57
g58
NtRp1496
(dp1497
g61
(dp1498
g69
I3
ssg70
g1492
sg63
(lp1499
S'2'
asbasbasbag56
(g72
g58
NtRp1500
(dp1501
g61
(dp1502
sg70
g1459
sg63
(lp1503
g56
(g77
g58
NtRp1504
(dp1505
g61
(dp1506
sg70
g1500
sg63
(lp1507
g56
(g57
g58
NtRp1508
(dp1509
g61
(dp1510
g69
I3
ssg70
g1504
sg63
(lp1511
S'datetime.datetime(2011, 9, 26, 6, 55, 33)'
p1512
asbasbasbag56
(g72
g58
NtRp1513
(dp1514
g61
(dp1515
sg70
g1459
sg63
(lp1516
g56
(g77
g58
NtRp1517
(dp1518
g61
(dp1519
sg70
g1513
sg63
(lp1520
g56
(g57
g58
NtRp1521
(dp1522
g61
(dp1523
g69
I3
ssg70
g1517
sg63
(lp1524
S'stable'
p1525
asbasbasbasbasbasbasbag56
(g72
g58
NtRp1526
(dp1527
g61
(dp1528
sg70
g821
sg63
(lp1529
g56
(g77
g58
NtRp1530
(dp1531
g61
(dp1532
g81
g82
ssg70
g1526
sg63
(lp1533
S'wsgi_errors'
p1534
asbag56
(g77
g58
NtRp1535
(dp1536
g61
(dp1537
g88
g89
ssg70
g1526
sg63
(lp1538
S':'
asbag56
(g77
g58
NtRp1539
(dp1540
g61
(dp1541
sg70
g1526
sg63
(lp1542
g56
(g57
g58
NtRp1543
(dp1544
g61
(dp1545
g69
I4
ssg70
g1539
sg63
(lp1546
S"<open file '<stderr>', mode 'w' at 0x7f84db3ff270>"
p1547
asbasbasbag56
(g72
g58
NtRp1548
(dp1549
g61
(dp1550
sg70
g821
sg63
(lp1551
g56
(g77
g58
NtRp1552
(dp1553
g61
(dp1554
g81
g82
ssg70
g1548
sg63
(lp1555
S'wsgi_file_wrapper'
p1556
asbag56
(g77
g58
NtRp1557
(dp1558
g61
(dp1559
g88
g89
ssg70
g1548
sg63
(lp1560
S':'
asbag56
(g77
g58
NtRp1561
(dp1562
g61
(dp1563
sg70
g1548
sg63
(lp1564
g56
(g57
g58
NtRp1565
(dp1566
g61
(dp1567
g69
I4
ssg70
g1561
sg63
(lp1568
S'<class wsgiref.util.FileWrapper at 0x1b96d50>'
p1569
asbasbasbag56
(g72
g58
NtRp1570
(dp1571
g61
(dp1572
sg70
g821
sg63
(lp1573
g56
(g77
g58
NtRp1574
(dp1575
g61
(dp1576
g81
g82
ssg70
g1570
sg63
(lp1577
S'wsgi_input'
p1578
asbag56
(g77
g58
NtRp1579
(dp1580
g61
(dp1581
g88
g89
ssg70
g1570
sg63
(lp1582
S':'
asbag56
(g77
g58
NtRp1583
(dp1584
g61
(dp1585
sg70
g1570
sg63
(lp1586
g56
(g57
g58
NtRp1587
(dp1588
g61
(dp1589
g69
I4
ssg70
g1583
sg63
(lp1590
S'<socket._fileobject object at 0x39efd50>'
p1591
asbasbasbag56
(g72
g58
NtRp1592
(dp1593
g61
(dp1594
sg70
g821
sg63
(lp1595
g56
(g77
g58
NtRp1596
(dp1597
g61
(dp1598
g81
g82
ssg70
g1592
sg63
(lp1599
S'wsgi_multiprocess'
p1600
asbag56
(g77
g58
NtRp1601
(dp1602
g61
(dp1603
g88
g89
ssg70
g1592
sg63
(lp1604
S':'
asbag56
(g77
g58
NtRp1605
(dp1606
g61
(dp1607
sg70
g1592
sg63
(lp1608
g56
(g57
g58
NtRp1609
(dp1610
g61
(dp1611
g69
I4
ssg70
g1605
sg63
(lp1612
g99
asbasbasbag56
(g72
g58
NtRp1613
(dp1614
g61
(dp1615
sg70
g821
sg63
(lp1616
g56
(g77
g58
NtRp1617
(dp1618
g61
(dp1619
g81
g82
ssg70
g1613
sg63
(lp1620
S'wsgi_multithread'
p1621
asbag56
(g77
g58
NtRp1622
(dp1623
g61
(dp1624
g88
g89
ssg70
g1613
sg63
(lp1625
S':'
asbag56
(g77
g58
NtRp1626
(dp1627
g61
(dp1628
sg70
g1613
sg63
(lp1629
g56
(g57
g58
NtRp1630
(dp1631
g61
(dp1632
g69
I4
ssg70
g1626
sg63
(lp1633
S'True'
p1634
asbasbasbag56
(g72
g58
NtRp1635
(dp1636
g61
(dp1637
sg70
g821
sg63
(lp1638
g56
(g77
g58
NtRp1639
(dp1640
g61
(dp1641
g81
g82
ssg70
g1635
sg63
(lp1642
S'wsgi_run_once'
p1643
asbag56
(g77
g58
NtRp1644
(dp1645
g61
(dp1646
g88
g89
ssg70
g1635
sg63
(lp1647
S':'
asbag56
(g77
g58
NtRp1648
(dp1649
g61
(dp1650
sg70
g1635
sg63
(lp1651
g56
(g57
g58
NtRp1652
(dp1653
g61
(dp1654
g69
I4
ssg70
g1648
sg63
(lp1655
g99
asbasbasbag56
(g72
g58
NtRp1656
(dp1657
g61
(dp1658
sg70
g821
sg63
(lp1659
g56
(g77
g58
NtRp1660
(dp1661
g61
(dp1662
g81
g82
ssg70
g1656
sg63
(lp1663
S'wsgi_url_scheme'
p1664
asbag56
(g77
g58
NtRp1665
(dp1666
g61
(dp1667
g88
g89
ssg70
g1656
sg63
(lp1668
S':'
asbag56
(g77
g58
NtRp1669
(dp1670
g61
(dp1671
sg70
g1656
sg63
(lp1672
g56
(g57
g58
NtRp1673
(dp1674
g61
(dp1675
g69
I4
ssg70
g1669
sg63
(lp1676
S'http'
p1677
asbasbasbag56
(g72
g58
NtRp1678
(dp1679
g61
(dp1680
sg70
g821
sg63
(lp1681
g56
(g77
g58
NtRp1682
(dp1683
g61
(dp1684
g81
g82
ssg70
g1678
sg63
(lp1685
S'wsgi_version'
p1686
asbag56
(g77
g58
NtRp1687
(dp1688
g61
(dp1689
g88
g89
ssg70
g1678
sg63
(lp1690
S':'
asbag56
(g77
g58
NtRp1691
(dp1692
g61
(dp1693
sg70
g1678
sg63
(lp1694
g56
(g57
g58
NtRp1695
(dp1696
g61
(dp1697
g69
I4
ssg70
g1691
sg63
(lp1698
g56
(g65
g58
NtRp1699
(dp1700
g61
(dp1701
g69
I3
ssg70
Nsg63
(lp1702
g56
(g72
g58
NtRp1703
(dp1704
g61
(dp1705
sg70
g1699
sg63
(lp1706
g56
(g77
g58
NtRp1707
(dp1708
g61
(dp1709
sg70
g1703
sg63
(lp1710
g56
(g57
g58
NtRp1711
(dp1712
g61
(dp1713
g69
I3
ssg70
g1707
sg63
(lp1714
S'1'
asbasbasbag56
(g72
g58
NtRp1715
(dp1716
g61
(dp1717
sg70
g1699
sg63
(lp1718
g56
(g77
g58
NtRp1719
(dp1720
g61
(dp1721
sg70
g1715
sg63
(lp1722
g56
(g57
g58
NtRp1723
(dp1724
g61
(dp1725
g69
I3
ssg70
g1719
sg63
(lp1726
S'0'
asbasbasbasbasbasbasbasbasbasbasbag56
(g72
g58
NtRp1727
(dp1728
g61
(dp1729
sg70
g66
sg63
(lp1730
g56
(g77
g58
NtRp1731
(dp1732
g61
(dp1733
g81
g82
ssg70
g1727
sg63
(lp1734
S'extension'
p1735
asbag56
(g77
g58
NtRp1736
(dp1737
g61
(dp1738
g88
g89
ssg70
g1727
sg63
(lp1739
S':'
asbag56
(g77
g58
NtRp1740
(dp1741
g61
(dp1742
sg70
g1727
sg63
(lp1743
g56
(g57
g58
NtRp1744
(dp1745
g61
(dp1746
g69
I5
ssg70
g1740
sg63
(lp1747
S'html'
p1748
asbasbasbag56
(g72
g58
NtRp1749
(dp1750
g61
(dp1751
sg70
g66
sg63
(lp1752
g56
(g77
g58
NtRp1753
(dp1754
g61
(dp1755
g81
g82
ssg70
g1749
sg63
(lp1756
S'folder'
p1757
asbag56
(g77
g58
NtRp1758
(dp1759
g61
(dp1760
g88
g89
ssg70
g1749
sg63
(lp1761
S':'
asbag56
(g77
g58
NtRp1762
(dp1763
g61
(dp1764
sg70
g1749
sg63
(lp1765
g56
(g57
g58
NtRp1766
(dp1767
g61
(dp1768
g69
I5
ssg70
g1762
sg63
(lp1769
S'/home/jose/DESARROLLO/web2py199/applications/streamlog/'
p1770
asbasbasbag56
(g72
g58
NtRp1771
(dp1772
g61
(dp1773
sg70
g66
sg63
(lp1774
g56
(g77
g58
NtRp1775
(dp1776
g61
(dp1777
g81
g82
ssg70
g1771
sg63
(lp1778
S'function'
p1779
asbag56
(g77
g58
NtRp1780
(dp1781
g61
(dp1782
g88
g89
ssg70
g1771
sg63
(lp1783
S':'
asbag56
(g77
g58
NtRp1784
(dp1785
g61
(dp1786
sg70
g1771
sg63
(lp1787
g56
(g57
g58
NtRp1788
(dp1789
g61
(dp1790
g69
I5
ssg70
g1784
sg63
(lp1791
S'server_manage'
p1792
asbasbasbag56
(g72
g58
NtRp1793
(dp1794
g61
(dp1795
sg70
g66
sg63
(lp1796
g56
(g77
g58
NtRp1797
(dp1798
g61
(dp1799
g81
g82
ssg70
g1793
sg63
(lp1800
S'get_vars'
p1801
asbag56
(g77
g58
NtRp1802
(dp1803
g61
(dp1804
g88
g89
ssg70
g1793
sg63
(lp1805
S':'
asbag56
(g77
g58
NtRp1806
(dp1807
g61
(dp1808
sg70
g1793
sg63
(lp1809
g56
(g57
g58
NtRp1810
(dp1811
g61
(dp1812
g69
I5
ssg70
g1806
sg63
(lp1813
g56
(g65
g58
NtRp1814
(dp1815
g61
(dp1816
g69
I4
ssg70
Nsg63
(lp1817
sbasbasbasbag56
(g72
g58
NtRp1818
(dp1819
g61
(dp1820
sg70
g66
sg63
(lp1821
g56
(g77
g58
NtRp1822
(dp1823
g61
(dp1824
g81
g82
ssg70
g1818
sg63
(lp1825
S'global_settings'
p1826
asbag56
(g77
g58
NtRp1827
(dp1828
g61
(dp1829
g88
g89
ssg70
g1818
sg63
(lp1830
S':'
asbag56
(g77
g58
NtRp1831
(dp1832
g61
(dp1833
sg70
g1818
sg63
(lp1834
g56
(g57
g58
NtRp1835
(dp1836
g61
(dp1837
g69
I5
ssg70
g1831
sg63
(lp1838
g56
(g65
g58
NtRp1839
(dp1840
g61
(dp1841
g69
I4
ssg70
Nsg63
(lp1842
g56
(g72
g58
NtRp1843
(dp1844
g61
(dp1845
sg70
g1839
sg63
(lp1846
g56
(g77
g58
NtRp1847
(dp1848
g61
(dp1849
g81
g82
ssg70
g1843
sg63
(lp1850
g833
asbag56
(g77
g58
NtRp1851
(dp1852
g61
(dp1853
g88
g89
ssg70
g1843
sg63
(lp1854
S':'
asbag56
(g77
g58
NtRp1855
(dp1856
g61
(dp1857
sg70
g1843
sg63
(lp1858
g56
(g57
g58
NtRp1859
(dp1860
g61
(dp1861
g69
I4
ssg70
g1855
sg63
(lp1862
S"set(['/home/jose/DESARROLLO/web2py199/applications/streamlog/', '/home/jose/DESARROLLO/web2py199/applications/admin/'])"
p1863
asbasbasbag56
(g72
g58
NtRp1864
(dp1865
g61
(dp1866
sg70
g1839
sg63
(lp1867
g56
(g77
g58
NtRp1868
(dp1869
g61
(dp1870
g81
g82
ssg70
g1864
sg63
(lp1871
g855
asbag56
(g77
g58
NtRp1872
(dp1873
g61
(dp1874
g88
g89
ssg70
g1864
sg63
(lp1875
S':'
asbag56
(g77
g58
NtRp1876
(dp1877
g61
(dp1878
sg70
g1864
sg63
(lp1879
g56
(g57
g58
NtRp1880
(dp1881
g61
(dp1882
g69
I4
ssg70
g1876
sg63
(lp1883
g868
asbasbasbag56
(g72
g58
NtRp1884
(dp1885
g61
(dp1886
sg70
g1839
sg63
(lp1887
g56
(g77
g58
NtRp1888
(dp1889
g61
(dp1890
g81
g82
ssg70
g1884
sg63
(lp1891
g877
asbag56
(g77
g58
NtRp1892
(dp1893
g61
(dp1894
g88
g89
ssg70
g1884
sg63
(lp1895
S':'
asbag56
(g77
g58
NtRp1896
(dp1897
g61
(dp1898
sg70
g1884
sg63
(lp1899
g56
(g57
g58
NtRp1900
(dp1901
g61
(dp1902
g69
I4
ssg70
g1896
sg63
(lp1903
g56
(g65
g58
NtRp1904
(dp1905
g61
(dp1906
g69
I3
ssg70
Nsg63
(lp1907
sbasbasbasbag56
(g72
g58
NtRp1908
(dp1909
g61
(dp1910
sg70
g1839
sg63
(lp1911
g56
(g77
g58
NtRp1912
(dp1913
g61
(dp1914
g81
g82
ssg70
g1908
sg63
(lp1915
g902
asbag56
(g77
g58
NtRp1916
(dp1917
g61
(dp1918
g88
g89
ssg70
g1908
sg63
(lp1919
S':'
asbag56
(g77
g58
NtRp1920
(dp1921
g61
(dp1922
sg70
g1908
sg63
(lp1923
g56
(g57
g58
NtRp1924
(dp1925
g61
(dp1926
g69
I4
ssg70
g1920
sg63
(lp1927
S"<Values at 0x1c79f80: {'verbose': False, 'ip': '127.0.0.1', 'shutdown_timeout': 5, 'taskbar': False, 'nocron': False, 'pid_filename': 'httpserver.pid', 'maxthreads': None, 'softcron': False, 'server_name': 'jose', 'bpython': False, 'nogui': False, 'port': 8000, 'extcron': False, 'debuglevel': 30, 'test': None, 'folder': '/home/jose/DESARROLLO/web2py199', 'config': '', 'import_models': False, 'winservice': '', 'shell': None, 'run': '', 'log_filename': 'httpserver.log', 'args': [''], 'ssl_ca_certificate': None, 'scheduler': None, 'profiler_filename': None, 'ssl_private_key': '', 'password': 't', 'request_queue_size': 5, 'ssl_certificate': '', 'cronjob': False, 'plain': False, 'quiet': False, 'interfaces': None, 'minthreads': None, 'timeout': 10, 'numthreads': None, 'nobanner': False}>"
p1928
asbasbasbag56
(g72
g58
NtRp1929
(dp1930
g61
(dp1931
sg70
g1839
sg63
(lp1932
g56
(g77
g58
NtRp1933
(dp1934
g61
(dp1935
g81
g82
ssg70
g1929
sg63
(lp1936
g924
asbag56
(g77
g58
NtRp1937
(dp1938
g61
(dp1939
g88
g89
ssg70
g1929
sg63
(lp1940
S':'
asbag56
(g77
g58
NtRp1941
(dp1942
g61
(dp1943
sg70
g1929
sg63
(lp1944
g56
(g57
g58
NtRp1945
(dp1946
g61
(dp1947
g69
I4
ssg70
g1941
sg63
(lp1948
S'set([])'
p1949
asbasbasbag56
(g72
g58
NtRp1950
(dp1951
g61
(dp1952
sg70
g1839
sg63
(lp1953
g56
(g77
g58
NtRp1954
(dp1955
g61
(dp1956
g81
g82
ssg70
g1950
sg63
(lp1957
g946
asbag56
(g77
g58
NtRp1958
(dp1959
g61
(dp1960
g88
g89
ssg70
g1950
sg63
(lp1961
S':'
asbag56
(g77
g58
NtRp1962
(dp1963
g61
(dp1964
sg70
g1950
sg63
(lp1965
g56
(g57
g58
NtRp1966
(dp1967
g61
(dp1968
g69
I4
ssg70
g1962
sg63
(lp1969
g99
asbasbasbag56
(g72
g58
NtRp1970
(dp1971
g61
(dp1972
sg70
g1839
sg63
(lp1973
g56
(g77
g58
NtRp1974
(dp1975
g61
(dp1976
g81
g82
ssg70
g1970
sg63
(lp1977
g967
asbag56
(g77
g58
NtRp1978
(dp1979
g61
(dp1980
g88
g89
ssg70
g1970
sg63
(lp1981
S':'
asbag56
(g77
g58
NtRp1982
(dp1983
g61
(dp1984
sg70
g1970
sg63
(lp1985
g56
(g57
g58
NtRp1986
(dp1987
g61
(dp1988
g69
I4
ssg70
g1982
sg63
(lp1989
g980
asbasbasbag56
(g72
g58
NtRp1990
(dp1991
g61
(dp1992
sg70
g1839
sg63
(lp1993
g56
(g77
g58
NtRp1994
(dp1995
g61
(dp1996
g81
g82
ssg70
g1990
sg63
(lp1997
g1165
asbag56
(g77
g58
NtRp1998
(dp1999
g61
(dp2000
g88
g89
ssg70
g1990
sg63
(lp2001
S':'
asbag56
(g77
g58
NtRp2002
(dp2003
g61
(dp2004
sg70
g1990
sg63
(lp2005
g56
(g57
g58
NtRp2006
(dp2007
g61
(dp2008
g69
I4
ssg70
g2002
sg63
(lp2009
g99
asbasbasbag56
(g72
g58
NtRp2010
(dp2011
g61
(dp2012
sg70
g1839
sg63
(lp2013
g56
(g77
g58
NtRp2014
(dp2015
g61
(dp2016
g81
g82
ssg70
g2010
sg63
(lp2017
g1403
asbag56
(g77
g58
NtRp2018
(dp2019
g61
(dp2020
g88
g89
ssg70
g2010
sg63
(lp2021
S':'
asbag56
(g77
g58
NtRp2022
(dp2023
g61
(dp2024
sg70
g2010
sg63
(lp2025
g56
(g57
g58
NtRp2026
(dp2027
g61
(dp2028
g69
I4
ssg70
g2022
sg63
(lp2029
g1416
asbasbasbag56
(g72
g58
NtRp2030
(dp2031
g61
(dp2032
sg70
g1839
sg63
(lp2033
g56
(g77
g58
NtRp2034
(dp2035
g61
(dp2036
g81
g82
ssg70
g2030
sg63
(lp2037
g1446
asbag56
(g77
g58
NtRp2038
(dp2039
g61
(dp2040
g88
g89
ssg70
g2030
sg63
(lp2041
S':'
asbag56
(g77
g58
NtRp2042
(dp2043
g61
(dp2044
sg70
g2030
sg63
(lp2045
g56
(g57
g58
NtRp2046
(dp2047
g61
(dp2048
g69
I4
ssg70
g2042
sg63
(lp2049
g56
(g65
g58
NtRp2050
(dp2051
g61
(dp2052
g69
I3
ssg70
Nsg63
(lp2053
g56
(g72
g58
NtRp2054
(dp2055
g61
(dp2056
sg70
g2050
sg63
(lp2057
g56
(g77
g58
NtRp2058
(dp2059
g61
(dp2060
sg70
g2054
sg63
(lp2061
g56
(g57
g58
NtRp2062
(dp2063
g61
(dp2064
g69
I3
ssg70
g2058
sg63
(lp2065
S'1'
asbasbasbag56
(g72
g58
NtRp2066
(dp2067
g61
(dp2068
sg70
g2050
sg63
(lp2069
g56
(g77
g58
NtRp2070
(dp2071
g61
(dp2072
sg70
g2066
sg63
(lp2073
g56
(g57
g58
NtRp2074
(dp2075
g61
(dp2076
g69
I3
ssg70
g2070
sg63
(lp2077
S'99'
p2078
asbasbasbag56
(g72
g58
NtRp2079
(dp2080
g61
(dp2081
sg70
g2050
sg63
(lp2082
g56
(g77
g58
NtRp2083
(dp2084
g61
(dp2085
sg70
g2079
sg63
(lp2086
g56
(g57
g58
NtRp2087
(dp2088
g61
(dp2089
g69
I3
ssg70
g2083
sg63
(lp2090
S'2'
asbasbasbag56
(g72
g58
NtRp2091
(dp2092
g61
(dp2093
sg70
g2050
sg63
(lp2094
g56
(g77
g58
NtRp2095
(dp2096
g61
(dp2097
sg70
g2091
sg63
(lp2098
g56
(g57
g58
NtRp2099
(dp2100
g61
(dp2101
g69
I3
ssg70
g2095
sg63
(lp2102
S'datetime.datetime(2011, 9, 26, 6, 55, 33)'
p2103
asbasbasbag56
(g72
g58
NtRp2104
(dp2105
g61
(dp2106
sg70
g2050
sg63
(lp2107
g56
(g77
g58
NtRp2108
(dp2109
g61
(dp2110
sg70
g2104
sg63
(lp2111
g56
(g57
g58
NtRp2112
(dp2113
g61
(dp2114
g69
I3
ssg70
g2108
sg63
(lp2115
g1525
asbasbasbasbasbasbasbasbasbasbasbag56
(g72
g58
NtRp2116
(dp2117
g61
(dp2118
sg70
g66
sg63
(lp2119
g56
(g77
g58
NtRp2120
(dp2121
g61
(dp2122
g81
g82
ssg70
g2116
sg63
(lp2123
S'is_https'
p2124
asbag56
(g77
g58
NtRp2125
(dp2126
g61
(dp2127
g88
g89
ssg70
g2116
sg63
(lp2128
S':'
asbag56
(g77
g58
NtRp2129
(dp2130
g61
(dp2131
sg70
g2116
sg63
(lp2132
g56
(g57
g58
NtRp2133
(dp2134
g61
(dp2135
g69
I5
ssg70
g2129
sg63
(lp2136
g99
asbasbasbag56
(g72
g58
NtRp2137
(dp2138
g61
(dp2139
sg70
g66
sg63
(lp2140
g56
(g77
g58
NtRp2141
(dp2142
g61
(dp2143
g81
g82
ssg70
g2137
sg63
(lp2144
S'is_local'
p2145
asbag56
(g77
g58
NtRp2146
(dp2147
g61
(dp2148
g88
g89
ssg70
g2137
sg63
(lp2149
S':'
asbag56
(g77
g58
NtRp2150
(dp2151
g61
(dp2152
sg70
g2137
sg63
(lp2153
g56
(g57
g58
NtRp2154
(dp2155
g61
(dp2156
g69
I5
ssg70
g2150
sg63
(lp2157
g1634
asbasbasbag56
(g72
g58
NtRp2158
(dp2159
g61
(dp2160
sg70
g66
sg63
(lp2161
g56
(g77
g58
NtRp2162
(dp2163
g61
(dp2164
g81
g82
ssg70
g2158
sg63
(lp2165
S'is_restful'
p2166
asbag56
(g77
g58
NtRp2167
(dp2168
g61
(dp2169
g88
g89
ssg70
g2158
sg63
(lp2170
S':'
asbag56
(g77
g58
NtRp2171
(dp2172
g61
(dp2173
sg70
g2158
sg63
(lp2174
g56
(g57
g58
NtRp2175
(dp2176
g61
(dp2177
g69
I5
ssg70
g2171
sg63
(lp2178
g99
asbasbasbag56
(g72
g58
NtRp2179
(dp2180
g61
(dp2181
sg70
g66
sg63
(lp2182
g56
(g77
g58
NtRp2183
(dp2184
g61
(dp2185
g81
g82
ssg70
g2179
sg63
(lp2186
S'now'
p2187
asbag56
(g77
g58
NtRp2188
(dp2189
g61
(dp2190
g88
g89
ssg70
g2179
sg63
(lp2191
S':'
asbag56
(g77
g58
NtRp2192
(dp2193
g61
(dp2194
sg70
g2179
sg63
(lp2195
g56
(g57
g58
NtRp2196
(dp2197
g61
(dp2198
g69
I5
ssg70
g2192
sg63
(lp2199
S'datetime.datetime(2012, 5, 26, 15, 13, 14, 116992)'
p2200
asbasbasbag56
(g72
g58
NtRp2201
(dp2202
g61
(dp2203
sg70
g66
sg63
(lp2204
g56
(g77
g58
NtRp2205
(dp2206
g61
(dp2207
g81
g82
ssg70
g2201
sg63
(lp2208
S'post_vars'
p2209
asbag56
(g77
g58
NtRp2210
(dp2211
g61
(dp2212
g88
g89
ssg70
g2201
sg63
(lp2213
S':'
asbag56
(g77
g58
NtRp2214
(dp2215
g61
(dp2216
sg70
g2201
sg63
(lp2217
g56
(g57
g58
NtRp2218
(dp2219
g61
(dp2220
g69
I5
ssg70
g2214
sg63
(lp2221
g56
(g65
g58
NtRp2222
(dp2223
g61
(dp2224
g69
I4
ssg70
Nsg63
(lp2225
sbasbasbasbag56
(g72
g58
NtRp2226
(dp2227
g61
(dp2228
sg70
g66
sg63
(lp2229
g56
(g77
g58
NtRp2230
(dp2231
g61
(dp2232
g81
g82
ssg70
g2226
sg63
(lp2233
S'url'
p2234
asbag56
(g77
g58
NtRp2235
(dp2236
g61
(dp2237
g88
g89
ssg70
g2226
sg63
(lp2238
S':'
asbag56
(g77
g58
NtRp2239
(dp2240
g61
(dp2241
sg70
g2226
sg63
(lp2242
g56
(g57
g58
NtRp2243
(dp2244
g61
(dp2245
g69
I5
ssg70
g2239
sg63
(lp2246
S'/streamlog/default/server_manage'
p2247
asbasbasbag56
(g72
g58
NtRp2248
(dp2249
g61
(dp2250
sg70
g66
sg63
(lp2251
g56
(g77
g58
NtRp2252
(dp2253
g61
(dp2254
g81
g82
ssg70
g2248
sg63
(lp2255
S'utcnow'
p2256
asbag56
(g77
g58
NtRp2257
(dp2258
g61
(dp2259
g88
g89
ssg70
g2248
sg63
(lp2260
S':'
asbag56
(g77
g58
NtRp2261
(dp2262
g61
(dp2263
sg70
g2248
sg63
(lp2264
g56
(g57
g58
NtRp2265
(dp2266
g61
(dp2267
g69
I5
ssg70
g2261
sg63
(lp2268
S'datetime.datetime(2012, 5, 26, 8, 13, 14, 117014)'
p2269
asbasbasbag56
(g72
g58
NtRp2270
(dp2271
g61
(dp2272
sg70
g66
sg63
(lp2273
g56
(g77
g58
NtRp2274
(dp2275
g61
(dp2276
g81
g82
ssg70
g2270
sg63
(lp2277
S'uuid'
p2278
asbag56
(g77
g58
NtRp2279
(dp2280
g61
(dp2281
g88
g89
ssg70
g2270
sg63
(lp2282
S':'
asbag56
(g77
g58
NtRp2283
(dp2284
g61
(dp2285
sg70
g2270
sg63
(lp2286
g56
(g57
g58
NtRp2287
(dp2288
g61
(dp2289
g69
I5
ssg70
g2283
sg63
(lp2290
S'streamlog/127.0.0.1.2012-05-26.15-13-14.11c02823-b90a-4162-91f3-01f7bae5ac2c'
p2291
asbasbasbag56
(g72
g58
NtRp2292
(dp2293
g61
(dp2294
sg70
g66
sg63
(lp2295
g56
(g77
g58
NtRp2296
(dp2297
g61
(dp2298
g81
g82
ssg70
g2292
sg63
(lp2299
S'vars'
p2300
asbag56
(g77
g58
NtRp2301
(dp2302
g61
(dp2303
g88
g89
ssg70
g2292
sg63
(lp2304
S':'
asbag56
(g77
g58
NtRp2305
(dp2306
g61
(dp2307
sg70
g2292
sg63
(lp2308
g56
(g57
g58
NtRp2309
(dp2310
g61
(dp2311
g69
I5
ssg70
g2305
sg63
(lp2312
g56
(g65
g58
NtRp2313
(dp2314
g61
(dp2315
g69
I4
ssg70
Nsg63
(lp2316
sbasbasbasbag56
(g72
g58
NtRp2317
(dp2318
g61
(dp2319
sg70
g66
sg63
(lp2320
g56
(g77
g58
NtRp2321
(dp2322
g61
(dp2323
g81
g82
ssg70
g2317
sg63
(lp2324
S'wsgi'
p2325
asbag56
(g77
g58
NtRp2326
(dp2327
g61
(dp2328
g88
g89
ssg70
g2317
sg63
(lp2329
S':'
asbag56
(g77
g58
NtRp2330
(dp2331
g61
(dp2332
sg70
g2317
sg63
(lp2333
g56
(g57
g58
NtRp2334
(dp2335
g61
(dp2336
g69
I5
ssg70
g2330
sg63
(lp2337
g56
(g65
g58
NtRp2338
(dp2339
g61
(dp2340
g69
I4
ssg70
Nsg63
(lp2341
g56
(g72
g58
NtRp2342
(dp2343
g61
(dp2344
sg70
g2338
sg63
(lp2345
g56
(g77
g58
NtRp2346
(dp2347
g61
(dp2348
g81
g82
ssg70
g2342
sg63
(lp2349
S'environ'
p2350
asbag56
(g77
g58
NtRp2351
(dp2352
g61
(dp2353
g88
g89
ssg70
g2342
sg63
(lp2354
S':'
asbag56
(g77
g58
NtRp2355
(dp2356
g61
(dp2357
sg70
g2342
sg63
(lp2358
g56
(g57
g58
NtRp2359
(dp2360
g61
(dp2361
g69
I4
ssg70
g2355
sg63
(lp2362
g56
(g65
g58
NtRp2363
(dp2364
g61
(dp2365
g69
I3
ssg70
Nsg63
(lp2366
g56
(g72
g58
NtRp2367
(dp2368
g61
(dp2369
sg70
g2363
sg63
(lp2370
g56
(g77
g58
NtRp2371
(dp2372
g61
(dp2373
g81
g82
ssg70
g2367
sg63
(lp2374
S'HTTP_ACCEPT'
p2375
asbag56
(g77
g58
NtRp2376
(dp2377
g61
(dp2378
g88
g89
ssg70
g2367
sg63
(lp2379
S':'
asbag56
(g77
g58
NtRp2380
(dp2381
g61
(dp2382
sg70
g2367
sg63
(lp2383
g56
(g57
g58
NtRp2384
(dp2385
g61
(dp2386
g69
I3
ssg70
g2380
sg63
(lp2387
g1002
asbasbasbag56
(g72
g58
NtRp2388
(dp2389
g61
(dp2390
sg70
g2363
sg63
(lp2391
g56
(g77
g58
NtRp2392
(dp2393
g61
(dp2394
g81
g82
ssg70
g2388
sg63
(lp2395
S'HTTP_ACCEPT_ENCODING'
p2396
asbag56
(g77
g58
NtRp2397
(dp2398
g61
(dp2399
g88
g89
ssg70
g2388
sg63
(lp2400
S':'
asbag56
(g77
g58
NtRp2401
(dp2402
g61
(dp2403
sg70
g2388
sg63
(lp2404
g56
(g57
g58
NtRp2405
(dp2406
g61
(dp2407
g69
I3
ssg70
g2401
sg63
(lp2408
g1024
asbasbasbag56
(g72
g58
NtRp2409
(dp2410
g61
(dp2411
sg70
g2363
sg63
(lp2412
g56
(g77
g58
NtRp2413
(dp2414
g61
(dp2415
g81
g82
ssg70
g2409
sg63
(lp2416
S'HTTP_ACCEPT_LANGUAGE'
p2417
asbag56
(g77
g58
NtRp2418
(dp2419
g61
(dp2420
g88
g89
ssg70
g2409
sg63
(lp2421
S':'
asbag56
(g77
g58
NtRp2422
(dp2423
g61
(dp2424
sg70
g2409
sg63
(lp2425
g56
(g57
g58
NtRp2426
(dp2427
g61
(dp2428
g69
I3
ssg70
g2422
sg63
(lp2429
g1046
asbasbasbag56
(g72
g58
NtRp2430
(dp2431
g61
(dp2432
sg70
g2363
sg63
(lp2433
g56
(g77
g58
NtRp2434
(dp2435
g61
(dp2436
g81
g82
ssg70
g2430
sg63
(lp2437
S'HTTP_CONNECTION'
p2438
asbag56
(g77
g58
NtRp2439
(dp2440
g61
(dp2441
g88
g89
ssg70
g2430
sg63
(lp2442
S':'
asbag56
(g77
g58
NtRp2443
(dp2444
g61
(dp2445
sg70
g2430
sg63
(lp2446
g56
(g57
g58
NtRp2447
(dp2448
g61
(dp2449
g69
I3
ssg70
g2443
sg63
(lp2450
g1068
asbasbasbag56
(g72
g58
NtRp2451
(dp2452
g61
(dp2453
sg70
g2363
sg63
(lp2454
g56
(g77
g58
NtRp2455
(dp2456
g61
(dp2457
g81
g82
ssg70
g2451
sg63
(lp2458
S'HTTP_COOKIE'
p2459
asbag56
(g77
g58
NtRp2460
(dp2461
g61
(dp2462
g88
g89
ssg70
g2451
sg63
(lp2463
S':'
asbag56
(g77
g58
NtRp2464
(dp2465
g61
(dp2466
sg70
g2451
sg63
(lp2467
g56
(g57
g58
NtRp2468
(dp2469
g61
(dp2470
g69
I3
ssg70
g2464
sg63
(lp2471
g1090
asbasbasbag56
(g72
g58
NtRp2472
(dp2473
g61
(dp2474
sg70
g2363
sg63
(lp2475
g56
(g77
g58
NtRp2476
(dp2477
g61
(dp2478
g81
g82
ssg70
g2472
sg63
(lp2479
S'HTTP_HOST'
p2480
asbag56
(g77
g58
NtRp2481
(dp2482
g61
(dp2483
g88
g89
ssg70
g2472
sg63
(lp2484
S':'
asbag56
(g77
g58
NtRp2485
(dp2486
g61
(dp2487
sg70
g2472
sg63
(lp2488
g56
(g57
g58
NtRp2489
(dp2490
g61
(dp2491
g69
I3
ssg70
g2485
sg63
(lp2492
g1112
asbasbasbag56
(g72
g58
NtRp2493
(dp2494
g61
(dp2495
sg70
g2363
sg63
(lp2496
g56
(g77
g58
NtRp2497
(dp2498
g61
(dp2499
g81
g82
ssg70
g2493
sg63
(lp2500
S'HTTP_REFERER'
p2501
asbag56
(g77
g58
NtRp2502
(dp2503
g61
(dp2504
g88
g89
ssg70
g2493
sg63
(lp2505
S':'
asbag56
(g77
g58
NtRp2506
(dp2507
g61
(dp2508
sg70
g2493
sg63
(lp2509
g56
(g57
g58
NtRp2510
(dp2511
g61
(dp2512
g69
I3
ssg70
g2506
sg63
(lp2513
g1134
asbasbasbag56
(g72
g58
NtRp2514
(dp2515
g61
(dp2516
sg70
g2363
sg63
(lp2517
g56
(g77
g58
NtRp2518
(dp2519
g61
(dp2520
g81
g82
ssg70
g2514
sg63
(lp2521
S'HTTP_USER_AGENT'
p2522
asbag56
(g77
g58
NtRp2523
(dp2524
g61
(dp2525
g88
g89
ssg70
g2514
sg63
(lp2526
S':'
asbag56
(g77
g58
NtRp2527
(dp2528
g61
(dp2529
sg70
g2514
sg63
(lp2530
g56
(g57
g58
NtRp2531
(dp2532
g61
(dp2533
g69
I3
ssg70
g2527
sg63
(lp2534
g1156
asbasbasbag56
(g72
g58
NtRp2535
(dp2536
g61
(dp2537
sg70
g2363
sg63
(lp2538
g56
(g77
g58
NtRp2539
(dp2540
g61
(dp2541
g81
g82
ssg70
g2535
sg63
(lp2542
S'PATH_INFO'
p2543
asbag56
(g77
g58
NtRp2544
(dp2545
g61
(dp2546
g88
g89
ssg70
g2535
sg63
(lp2547
S':'
asbag56
(g77
g58
NtRp2548
(dp2549
g61
(dp2550
sg70
g2535
sg63
(lp2551
g56
(g57
g58
NtRp2552
(dp2553
g61
(dp2554
g69
I3
ssg70
g2548
sg63
(lp2555
g1199
asbasbasbag56
(g72
g58
NtRp2556
(dp2557
g61
(dp2558
sg70
g2363
sg63
(lp2559
g56
(g77
g58
NtRp2560
(dp2561
g61
(dp2562
g81
g82
ssg70
g2556
sg63
(lp2563
S'QUERY_STRING'
p2564
asbag56
(g77
g58
NtRp2565
(dp2566
g61
(dp2567
g88
g89
ssg70
g2556
sg63
(lp2568
S':'
asbag56
(g77
g58
NtRp2569
(dp2570
g61
(dp2571
sg70
g2556
sg63
(lp2572
g56
(g57
g58
NtRp2573
(dp2574
g61
(dp2575
g69
I3
ssg70
g2569
sg63
(lp2576
S''
asbasbasbag56
(g72
g58
NtRp2577
(dp2578
g61
(dp2579
sg70
g2363
sg63
(lp2580
g56
(g77
g58
NtRp2581
(dp2582
g61
(dp2583
g81
g82
ssg70
g2577
sg63
(lp2584
S'REMOTE_ADDR'
p2585
asbag56
(g77
g58
NtRp2586
(dp2587
g61
(dp2588
g88
g89
ssg70
g2577
sg63
(lp2589
S':'
asbag56
(g77
g58
NtRp2590
(dp2591
g61
(dp2592
sg70
g2577
sg63
(lp2593
g56
(g57
g58
NtRp2594
(dp2595
g61
(dp2596
g69
I3
ssg70
g2590
sg63
(lp2597
g189
asbasbasbag56
(g72
g58
NtRp2598
(dp2599
g61
(dp2600
sg70
g2363
sg63
(lp2601
g56
(g77
g58
NtRp2602
(dp2603
g61
(dp2604
g81
g82
ssg70
g2598
sg63
(lp2605
S'REMOTE_PORT'
p2606
asbag56
(g77
g58
NtRp2607
(dp2608
g61
(dp2609
g88
g89
ssg70
g2598
sg63
(lp2610
S':'
asbag56
(g77
g58
NtRp2611
(dp2612
g61
(dp2613
sg70
g2598
sg63
(lp2614
g56
(g57
g58
NtRp2615
(dp2616
g61
(dp2617
g69
I3
ssg70
g2611
sg63
(lp2618
g1263
asbasbasbag56
(g72
g58
NtRp2619
(dp2620
g61
(dp2621
sg70
g2363
sg63
(lp2622
g56
(g77
g58
NtRp2623
(dp2624
g61
(dp2625
g81
g82
ssg70
g2619
sg63
(lp2626
S'REQUEST_METHOD'
p2627
asbag56
(g77
g58
NtRp2628
(dp2629
g61
(dp2630
g88
g89
ssg70
g2619
sg63
(lp2631
S':'
asbag56
(g77
g58
NtRp2632
(dp2633
g61
(dp2634
sg70
g2619
sg63
(lp2635
g56
(g57
g58
NtRp2636
(dp2637
g61
(dp2638
g69
I3
ssg70
g2632
sg63
(lp2639
g1285
asbasbasbag56
(g72
g58
NtRp2640
(dp2641
g61
(dp2642
sg70
g2363
sg63
(lp2643
g56
(g77
g58
NtRp2644
(dp2645
g61
(dp2646
g81
g82
ssg70
g2640
sg63
(lp2647
S'SCRIPT_NAME'
p2648
asbag56
(g77
g58
NtRp2649
(dp2650
g61
(dp2651
g88
g89
ssg70
g2640
sg63
(lp2652
S':'
asbag56
(g77
g58
NtRp2653
(dp2654
g61
(dp2655
sg70
g2640
sg63
(lp2656
g56
(g57
g58
NtRp2657
(dp2658
g61
(dp2659
g69
I3
ssg70
g2653
sg63
(lp2660
S''
asbasbasbag56
(g72
g58
NtRp2661
(dp2662
g61
(dp2663
sg70
g2363
sg63
(lp2664
g56
(g77
g58
NtRp2665
(dp2666
g61
(dp2667
g81
g82
ssg70
g2661
sg63
(lp2668
S'SERVER_NAME'
p2669
asbag56
(g77
g58
NtRp2670
(dp2671
g61
(dp2672
g88
g89
ssg70
g2661
sg63
(lp2673
S':'
asbag56
(g77
g58
NtRp2674
(dp2675
g61
(dp2676
sg70
g2661
sg63
(lp2677
g56
(g57
g58
NtRp2678
(dp2679
g61
(dp2680
g69
I3
ssg70
g2674
sg63
(lp2681
g1328
asbasbasbag56
(g72
g58
NtRp2682
(dp2683
g61
(dp2684
sg70
g2363
sg63
(lp2685
g56
(g77
g58
NtRp2686
(dp2687
g61
(dp2688
g81
g82
ssg70
g2682
sg63
(lp2689
S'SERVER_PORT'
p2690
asbag56
(g77
g58
NtRp2691
(dp2692
g61
(dp2693
g88
g89
ssg70
g2682
sg63
(lp2694
S':'
asbag56
(g77
g58
NtRp2695
(dp2696
g61
(dp2697
sg70
g2682
sg63
(lp2698
g56
(g57
g58
NtRp2699
(dp2700
g61
(dp2701
g69
I3
ssg70
g2695
sg63
(lp2702
g1350
asbasbasbag56
(g72
g58
NtRp2703
(dp2704
g61
(dp2705
sg70
g2363
sg63
(lp2706
g56
(g77
g58
NtRp2707
(dp2708
g61
(dp2709
g81
g82
ssg70
g2703
sg63
(lp2710
S'SERVER_PROTOCOL'
p2711
asbag56
(g77
g58
NtRp2712
(dp2713
g61
(dp2714
g88
g89
ssg70
g2703
sg63
(lp2715
S':'
asbag56
(g77
g58
NtRp2716
(dp2717
g61
(dp2718
sg70
g2703
sg63
(lp2719
g56
(g57
g58
NtRp2720
(dp2721
g61
(dp2722
g69
I3
ssg70
g2716
sg63
(lp2723
g1372
asbasbasbag56
(g72
g58
NtRp2724
(dp2725
g61
(dp2726
sg70
g2363
sg63
(lp2727
g56
(g77
g58
NtRp2728
(dp2729
g61
(dp2730
g81
g82
ssg70
g2724
sg63
(lp2731
S'SERVER_SOFTWARE'
p2732
asbag56
(g77
g58
NtRp2733
(dp2734
g61
(dp2735
g88
g89
ssg70
g2724
sg63
(lp2736
S':'
asbag56
(g77
g58
NtRp2737
(dp2738
g61
(dp2739
sg70
g2724
sg63
(lp2740
g56
(g57
g58
NtRp2741
(dp2742
g61
(dp2743
g69
I3
ssg70
g2737
sg63
(lp2744
g1394
asbasbasbag56
(g72
g58
NtRp2745
(dp2746
g61
(dp2747
sg70
g2363
sg63
(lp2748
g56
(g77
g58
NtRp2749
(dp2750
g61
(dp2751
g81
g82
ssg70
g2745
sg63
(lp2752
S'wsgi.errors'
p2753
asbag56
(g77
g58
NtRp2754
(dp2755
g61
(dp2756
g88
g89
ssg70
g2745
sg63
(lp2757
S':'
asbag56
(g77
g58
NtRp2758
(dp2759
g61
(dp2760
sg70
g2745
sg63
(lp2761
g56
(g57
g58
NtRp2762
(dp2763
g61
(dp2764
g69
I3
ssg70
g2758
sg63
(lp2765
S"<open file '<stderr>', mode 'w' at 0x7f84db3ff270>"
p2766
asbasbasbag56
(g72
g58
NtRp2767
(dp2768
g61
(dp2769
sg70
g2363
sg63
(lp2770
g56
(g77
g58
NtRp2771
(dp2772
g61
(dp2773
g81
g82
ssg70
g2767
sg63
(lp2774
S'wsgi.file_wrapper'
p2775
asbag56
(g77
g58
NtRp2776
(dp2777
g61
(dp2778
g88
g89
ssg70
g2767
sg63
(lp2779
S':'
asbag56
(g77
g58
NtRp2780
(dp2781
g61
(dp2782
sg70
g2767
sg63
(lp2783
g56
(g57
g58
NtRp2784
(dp2785
g61
(dp2786
g69
I3
ssg70
g2780
sg63
(lp2787
S'<class wsgiref.util.FileWrapper at 0x1b96d50>'
p2788
asbasbasbag56
(g72
g58
NtRp2789
(dp2790
g61
(dp2791
sg70
g2363
sg63
(lp2792
g56
(g77
g58
NtRp2793
(dp2794
g61
(dp2795
g81
g82
ssg70
g2789
sg63
(lp2796
S'wsgi.input'
p2797
asbag56
(g77
g58
NtRp2798
(dp2799
g61
(dp2800
g88
g89
ssg70
g2789
sg63
(lp2801
S':'
asbag56
(g77
g58
NtRp2802
(dp2803
g61
(dp2804
sg70
g2789
sg63
(lp2805
g56
(g57
g58
NtRp2806
(dp2807
g61
(dp2808
g69
I3
ssg70
g2802
sg63
(lp2809
S'<cStringIO.StringO object at 0x3529340>'
p2810
asbasbasbag56
(g72
g58
NtRp2811
(dp2812
g61
(dp2813
sg70
g2363
sg63
(lp2814
g56
(g77
g58
NtRp2815
(dp2816
g61
(dp2817
g81
g82
ssg70
g2811
sg63
(lp2818
S'wsgi.multiprocess'
p2819
asbag56
(g77
g58
NtRp2820
(dp2821
g61
(dp2822
g88
g89
ssg70
g2811
sg63
(lp2823
S':'
asbag56
(g77
g58
NtRp2824
(dp2825
g61
(dp2826
sg70
g2811
sg63
(lp2827
g56
(g57
g58
NtRp2828
(dp2829
g61
(dp2830
g69
I3
ssg70
g2824
sg63
(lp2831
g99
asbasbasbag56
(g72
g58
NtRp2832
(dp2833
g61
(dp2834
sg70
g2363
sg63
(lp2835
g56
(g77
g58
NtRp2836
(dp2837
g61
(dp2838
g81
g82
ssg70
g2832
sg63
(lp2839
S'wsgi.multithread'
p2840
asbag56
(g77
g58
NtRp2841
(dp2842
g61
(dp2843
g88
g89
ssg70
g2832
sg63
(lp2844
S':'
asbag56
(g77
g58
NtRp2845
(dp2846
g61
(dp2847
sg70
g2832
sg63
(lp2848
g56
(g57
g58
NtRp2849
(dp2850
g61
(dp2851
g69
I3
ssg70
g2845
sg63
(lp2852
g1634
asbasbasbag56
(g72
g58
NtRp2853
(dp2854
g61
(dp2855
sg70
g2363
sg63
(lp2856
g56
(g77
g58
NtRp2857
(dp2858
g61
(dp2859
g81
g82
ssg70
g2853
sg63
(lp2860
S'wsgi.run_once'
p2861
asbag56
(g77
g58
NtRp2862
(dp2863
g61
(dp2864
g88
g89
ssg70
g2853
sg63
(lp2865
S':'
asbag56
(g77
g58
NtRp2866
(dp2867
g61
(dp2868
sg70
g2853
sg63
(lp2869
g56
(g57
g58
NtRp2870
(dp2871
g61
(dp2872
g69
I3
ssg70
g2866
sg63
(lp2873
g99
asbasbasbag56
(g72
g58
NtRp2874
(dp2875
g61
(dp2876
sg70
g2363
sg63
(lp2877
g56
(g77
g58
NtRp2878
(dp2879
g61
(dp2880
g81
g82
ssg70
g2874
sg63
(lp2881
S'wsgi.url_scheme'
p2882
asbag56
(g77
g58
NtRp2883
(dp2884
g61
(dp2885
g88
g89
ssg70
g2874
sg63
(lp2886
S':'
asbag56
(g77
g58
NtRp2887
(dp2888
g61
(dp2889
sg70
g2874
sg63
(lp2890
g56
(g57
g58
NtRp2891
(dp2892
g61
(dp2893
g69
I3
ssg70
g2887
sg63
(lp2894
g1677
asbasbasbag56
(g72
g58
NtRp2895
(dp2896
g61
(dp2897
sg70
g2363
sg63
(lp2898
g56
(g77
g58
NtRp2899
(dp2900
g61
(dp2901
g81
g82
ssg70
g2895
sg63
(lp2902
S'wsgi.version'
p2903
asbag56
(g77
g58
NtRp2904
(dp2905
g61
(dp2906
g88
g89
ssg70
g2895
sg63
(lp2907
S':'
asbag56
(g77
g58
NtRp2908
(dp2909
g61
(dp2910
sg70
g2895
sg63
(lp2911
g56
(g57
g58
NtRp2912
(dp2913
g61
(dp2914
g69
I3
ssg70
g2908
sg63
(lp2915
S'1'
asbasbasbasbasbasbasbasbasbasbasbasbasbsS'frames'
p2916
(lp2917
(dp2918
S'file'
p2919
S'/home/jose/DESARROLLO/web2py199/gluon/restricted.py'
p2920
sS'dump'
p2921
(dp2922
S'environment'
p2923
S"{'A': <class 'gluon.html.A'>, 'Auth': <class 'gluon.tools.Auth'>, 'B': <class 'gluon.html.B'>, 'BEAUTIFY': <class 'gluon.html.BEAUTIFY'>, 'BODY': <class 'gluon.html.BODY'>, 'BR': <class 'gluon.html.BR'>, 'BUTTON': <class 'gluon.html.BUTTON'>, 'CAT': <class 'gluon.html.CAT'>, 'CENTER': <class 'gluon.html.CENTER'>, 'CLEANUP': <class 'gluon.validators.CLEANUP'>, ...}"
p2924
sS'ccode'
p2925
S'<code object <module> at 0x3c24b30, file "/home/...tions/streamlog/controllers/default.py", line 14>'
p2926
ssS'lnum'
p2927
I194
sS'lines'
p2928
(dp2929
I192
S'        else:'
p2930
sI193
S'            ccode = compile2(code,layer)'
p2931
sI194
S'        exec ccode in environment'
p2932
sI195
S'    except HTTP:'
p2933
sI196
S'        raise'
p2934
sI197
S'    except Exception, error:'
p2935
sI198
S'        # XXX Show exception in Wing IDE if running in debugger'
p2936
sI189
S'    try:'
p2937
sI190
S'        if type(code) == types.CodeType:'
p2938
sI191
S'            ccode = code'
p2939
ssS'call'
p2940
S"(code='# -*- coding: utf-8 -*-\\n# this file is released ...\\n\\nresponse._vars=response._caller(server_manage)\\n', environment={'A': <class 'gluon.html.A'>, 'Auth': <class 'gluon.tools.Auth'>, 'B': <class 'gluon.html.B'>, 'BEAUTIFY': <class 'gluon.html.BEAUTIFY'>, 'BODY': <class 'gluon.html.BODY'>, 'BR': <class 'gluon.html.BR'>, 'BUTTON': <class 'gluon.html.BUTTON'>, 'CAT': <class 'gluon.html.CAT'>, 'CENTER': <class 'gluon.html.CENTER'>, 'CLEANUP': <class 'gluon.validators.CLEANUP'>, ...}, layer='/home/jose/DESARROLLO/web2py199/applications/streamlog/controllers/default.py')"
p2941
sS'func'
p2942
S'restricted'
p2943
sa(dp2944
g2919
S'/home/jose/DESARROLLO/web2py199/applications/streamlog/controllers/default.py'
p2945
sg2921
(dp2946
sg2927
I170
sg2928
(dp2947
I160
S'    http://..../[app]/default/data/delete/[table]/[id]'
p2948
sI161
S'    http://..../[app]/default/data/select/[table]'
p2949
sI162
S'    http://..../[app]/default/data/search/[table]'
p2950
sI163
S'    but URLs bust be signed, i.e. linked with'
p2951
sI164
S"      A('table',_href=URL('data/tables',user_signature=True))"
p2952
sI165
S'    or with the signed load operator'
p2953
sI166
S"      LOAD('default','data.load',args='tables',ajax=True,user_signature=True)"
p2954
sI167
S'    """'
p2955
sI168
S'    return dict(form=crud())'
p2956
sI159
S'    http://..../[app]/default/data/update/[table]/[id]'
p2957
ssg2940
S'()'
p2958
sg2942
S'<module>'
p2959
sa(dp2960
g2919
S'/home/jose/DESARROLLO/web2py199/gluon/globals.py'
p2961
sg2921
(dp2962
S'self'
p2963
S'undefined'
p2964
sS'f'
S'<function server_manage>'
p2965
ssg2927
I149
sg2928
(dp2966
I144
S'        self.meta = Storage()      # used by web2py_ajax.html'
p2967
sI145
S'        self.menu = []             # used by the default view layout'
p2968
sI146
S'        self.files = []            # used by web2py_ajax.html'
p2969
sI147
S'        self.generic_patterns = [] # patterns to allow generic views'
p2970
sI148
S'        self._vars = None'
p2971
sI149
S'        self._caller = lambda f: f()'
p2972
sI150
S'        self._view_environment = None'
p2973
sI151
S'        self._custom_commit = None'
p2974
sI152
S'        self._custom_rollback = None'
p2975
sI153
S''
ssg2940
S'(f=<function server_manage>)'
p2976
sg2942
S'<lambda>'
p2977
sa(dp2978
g2919
S'/home/jose/DESARROLLO/web2py199/applications/streamlog/controllers/default.py'
p2979
sg2921
(dp2980
S'form'
p2981
g2964
sS'SQLFORM.grid'
p2982
S'<function grid>'
p2983
sS'global SQLFORM'
p2984
S"<class 'gluon.sqlhtml.SQLFORM'>"
p2985
sS'hearders'
p2986
g2964
sS'headers'
p2987
S"{'t_server.name': 'ID'}"
p2988
sS'fields'
p2989
S'<gluon.dal.Field object>'
p2990
sS'query'
p2991
S'<gluon.dal.Query object>'
p2992
ssg2927
I104
sg2928
(dp2993
I99
S'    db.t_server.id.readable=False'
p2994
sI100
S'    fields = (db.t_server.name)'
p2995
sI101
S"    headers = {'t_server.name':   'ID' }"
p2996
sI102
S''
sI103
S'    query=((db.t_project.user==me)&(db.t_server.project==db.t_project.id))'
p2997
sI104
S'    form=SQLFORM.grid(query=query, fields=fields, headers=hearders)'
p2998
sI105
S'    return locals()'
p2999
sI106
S''
sI107
S'#@auth.requires_login()'
p3000
sI108
S'def log_manage():'
p3001
ssg2940
S'()'
p3002
sg2942
S'server_manage'
p3003
sasS'pyver'
p3004
S'Python 2.7.2+: /usr/bin/python'
p3005
sS'session'
p3006
g56
(g57
g58
NtRp3007
(dp3008
g61
(dp3009
sg63
(lp3010
g56
(g65
g58
NtRp3011
(dp3012
g61
(dp3013
g69
I5
ssg70
Nsg63
(lp3014
g56
(g72
g58
NtRp3015
(dp3016
g61
(dp3017
sg70
g3011
sg63
(lp3018
g56
(g77
g58
NtRp3019
(dp3020
g61
(dp3021
g81
g82
ssg70
g3015
sg63
(lp3022
S'auth'
p3023
asbag56
(g77
g58
NtRp3024
(dp3025
g61
(dp3026
g88
g89
ssg70
g3015
sg63
(lp3027
S':'
asbag56
(g77
g58
NtRp3028
(dp3029
g61
(dp3030
sg70
g3015
sg63
(lp3031
g56
(g57
g58
NtRp3032
(dp3033
g61
(dp3034
g69
I5
ssg70
g3028
sg63
(lp3035
g56
(g65
g58
NtRp3036
(dp3037
g61
(dp3038
g69
I4
ssg70
Nsg63
(lp3039
g56
(g72
g58
NtRp3040
(dp3041
g61
(dp3042
sg70
g3036
sg63
(lp3043
g56
(g77
g58
NtRp3044
(dp3045
g61
(dp3046
g81
g82
ssg70
g3040
sg63
(lp3047
S'expiration'
p3048
asbag56
(g77
g58
NtRp3049
(dp3050
g61
(dp3051
g88
g89
ssg70
g3040
sg63
(lp3052
S':'
asbag56
(g77
g58
NtRp3053
(dp3054
g61
(dp3055
sg70
g3040
sg63
(lp3056
g56
(g57
g58
NtRp3057
(dp3058
g61
(dp3059
g69
I4
ssg70
g3053
sg63
(lp3060
S'3600'
p3061
asbasbasbag56
(g72
g58
NtRp3062
(dp3063
g61
(dp3064
sg70
g3036
sg63
(lp3065
g56
(g77
g58
NtRp3066
(dp3067
g61
(dp3068
g81
g82
ssg70
g3062
sg63
(lp3069
S'hmac_key'
p3070
asbag56
(g77
g58
NtRp3071
(dp3072
g61
(dp3073
g88
g89
ssg70
g3062
sg63
(lp3074
S':'
asbag56
(g77
g58
NtRp3075
(dp3076
g61
(dp3077
sg70
g3062
sg63
(lp3078
g56
(g57
g58
NtRp3079
(dp3080
g61
(dp3081
g69
I4
ssg70
g3075
sg63
(lp3082
S'4939d400-e4c9-4a5c-be3b-b030e1657229'
p3083
asbasbasbag56
(g72
g58
NtRp3084
(dp3085
g61
(dp3086
sg70
g3036
sg63
(lp3087
g56
(g77
g58
NtRp3088
(dp3089
g61
(dp3090
g81
g82
ssg70
g3084
sg63
(lp3091
S'last_visit'
p3092
asbag56
(g77
g58
NtRp3093
(dp3094
g61
(dp3095
g88
g89
ssg70
g3084
sg63
(lp3096
S':'
asbag56
(g77
g58
NtRp3097
(dp3098
g61
(dp3099
sg70
g3084
sg63
(lp3100
g56
(g57
g58
NtRp3101
(dp3102
g61
(dp3103
g69
I4
ssg70
g3097
sg63
(lp3104
S'datetime.datetime(2012, 5, 26, 15, 13, 14, 116992)'
p3105
asbasbasbag56
(g72
g58
NtRp3106
(dp3107
g61
(dp3108
sg70
g3036
sg63
(lp3109
g56
(g77
g58
NtRp3110
(dp3111
g61
(dp3112
g81
g82
ssg70
g3106
sg63
(lp3113
S'user'
p3114
asbag56
(g77
g58
NtRp3115
(dp3116
g61
(dp3117
g88
g89
ssg70
g3106
sg63
(lp3118
S':'
asbag56
(g77
g58
NtRp3119
(dp3120
g61
(dp3121
sg70
g3106
sg63
(lp3122
g56
(g57
g58
NtRp3123
(dp3124
g61
(dp3125
g69
I4
ssg70
g3119
sg63
(lp3126
g56
(g65
g58
NtRp3127
(dp3128
g61
(dp3129
g69
I3
ssg70
Nsg63
(lp3130
g56
(g72
g58
NtRp3131
(dp3132
g61
(dp3133
sg70
g3127
sg63
(lp3134
g56
(g77
g58
NtRp3135
(dp3136
g61
(dp3137
g81
g82
ssg70
g3131
sg63
(lp3138
S'email'
p3139
asbag56
(g77
g58
NtRp3140
(dp3141
g61
(dp3142
g88
g89
ssg70
g3131
sg63
(lp3143
S':'
asbag56
(g77
g58
NtRp3144
(dp3145
g61
(dp3146
sg70
g3131
sg63
(lp3147
g56
(g57
g58
NtRp3148
(dp3149
g61
(dp3150
g69
I3
ssg70
g3144
sg63
(lp3151
S'josedesoto@gmail.com'
p3152
asbasbasbag56
(g72
g58
NtRp3153
(dp3154
g61
(dp3155
sg70
g3127
sg63
(lp3156
g56
(g77
g58
NtRp3157
(dp3158
g61
(dp3159
g81
g82
ssg70
g3153
sg63
(lp3160
S'first_name'
p3161
asbag56
(g77
g58
NtRp3162
(dp3163
g61
(dp3164
g88
g89
ssg70
g3153
sg63
(lp3165
S':'
asbag56
(g77
g58
NtRp3166
(dp3167
g61
(dp3168
sg70
g3153
sg63
(lp3169
g56
(g57
g58
NtRp3170
(dp3171
g61
(dp3172
g69
I3
ssg70
g3166
sg63
(lp3173
S'jose'
p3174
asbasbasbag56
(g72
g58
NtRp3175
(dp3176
g61
(dp3177
sg70
g3127
sg63
(lp3178
g56
(g77
g58
NtRp3179
(dp3180
g61
(dp3181
g81
g82
ssg70
g3175
sg63
(lp3182
S'id'
p3183
asbag56
(g77
g58
NtRp3184
(dp3185
g61
(dp3186
g88
g89
ssg70
g3175
sg63
(lp3187
S':'
asbag56
(g77
g58
NtRp3188
(dp3189
g61
(dp3190
sg70
g3175
sg63
(lp3191
g56
(g57
g58
NtRp3192
(dp3193
g61
(dp3194
g69
I3
ssg70
g3188
sg63
(lp3195
S'1'
asbasbasbag56
(g72
g58
NtRp3196
(dp3197
g61
(dp3198
sg70
g3127
sg63
(lp3199
g56
(g77
g58
NtRp3200
(dp3201
g61
(dp3202
g81
g82
ssg70
g3196
sg63
(lp3203
S'last_name'
p3204
asbag56
(g77
g58
NtRp3205
(dp3206
g61
(dp3207
g88
g89
ssg70
g3196
sg63
(lp3208
S':'
asbag56
(g77
g58
NtRp3209
(dp3210
g61
(dp3211
sg70
g3196
sg63
(lp3212
g56
(g57
g58
NtRp3213
(dp3214
g61
(dp3215
g69
I3
ssg70
g3209
sg63
(lp3216
S'jose'
p3217
asbasbasbag56
(g72
g58
NtRp3218
(dp3219
g61
(dp3220
sg70
g3127
sg63
(lp3221
g56
(g77
g58
NtRp3222
(dp3223
g61
(dp3224
g81
g82
ssg70
g3218
sg63
(lp3225
S'password'
p3226
asbag56
(g77
g58
NtRp3227
(dp3228
g61
(dp3229
g88
g89
ssg70
g3218
sg63
(lp3230
S':'
asbag56
(g77
g58
NtRp3231
(dp3232
g61
(dp3233
sg70
g3218
sg63
(lp3234
g56
(g57
g58
NtRp3235
(dp3236
g61
(dp3237
g69
I3
ssg70
g3231
sg63
(lp3238
S'2b32eaa2baa0c63b755a4cde1e4dda83'
p3239
asbasbasbag56
(g72
g58
NtRp3240
(dp3241
g61
(dp3242
sg70
g3127
sg63
(lp3243
g56
(g77
g58
NtRp3244
(dp3245
g61
(dp3246
g81
g82
ssg70
g3240
sg63
(lp3247
S'registration_key'
p3248
asbag56
(g77
g58
NtRp3249
(dp3250
g61
(dp3251
g88
g89
ssg70
g3240
sg63
(lp3252
S':'
asbag56
(g77
g58
NtRp3253
(dp3254
g61
(dp3255
sg70
g3240
sg63
(lp3256
g56
(g57
g58
NtRp3257
(dp3258
g61
(dp3259
g69
I3
ssg70
g3253
sg63
(lp3260
S''
asbasbasbag56
(g72
g58
NtRp3261
(dp3262
g61
(dp3263
sg70
g3127
sg63
(lp3264
g56
(g77
g58
NtRp3265
(dp3266
g61
(dp3267
g81
g82
ssg70
g3261
sg63
(lp3268
S'reset_password_key'
p3269
asbag56
(g77
g58
NtRp3270
(dp3271
g61
(dp3272
g88
g89
ssg70
g3261
sg63
(lp3273
S':'
asbag56
(g77
g58
NtRp3274
(dp3275
g61
(dp3276
sg70
g3261
sg63
(lp3277
g56
(g57
g58
NtRp3278
(dp3279
g61
(dp3280
g69
I3
ssg70
g3274
sg63
(lp3281
S''
asbasbasbasbasbasbasbasbasbasbasbag56
(g72
g58
NtRp3282
(dp3283
g61
(dp3284
sg70
g3011
sg63
(lp3285
g56
(g77
g58
NtRp3286
(dp3287
g61
(dp3288
g81
g82
ssg70
g3282
sg63
(lp3289
S'last_query'
p3290
asbag56
(g77
g58
NtRp3291
(dp3292
g61
(dp3293
g88
g89
ssg70
g3282
sg63
(lp3294
S':'
asbag56
(g77
g58
NtRp3295
(dp3296
g61
(dp3297
sg70
g3282
sg63
(lp3298
g56
(g57
g58
NtRp3299
(dp3300
g61
(dp3301
g69
I5
ssg70
g3295
sg63
(lp3302
S'(db.t_project.user==me)&(db.t_server.project==db.t_project.id)'
p3303
asbasbasbasbasbsS'etype'
p3304
S"<type 'exceptions.NameError'>"
p3305
sS'date'
p3306
S'Sat May 26 15:13:14 2012'
p3307
sS'response'
p3308
g56
(g57
g58
NtRp3309
(dp3310
g61
(dp3311
sg63
(lp3312
g56
(g65
g58
NtRp3313
(dp3314
g61
(dp3315
g69
I5
ssg70
Nsg63
(lp3316
g56
(g72
g58
NtRp3317
(dp3318
g61
(dp3319
sg70
g3313
sg63
(lp3320
g56
(g77
g58
NtRp3321
(dp3322
g61
(dp3323
g81
g82
ssg70
g3317
sg63
(lp3324
g154
asbag56
(g77
g58
NtRp3325
(dp3326
g61
(dp3327
g88
g89
ssg70
g3317
sg63
(lp3328
S':'
asbag56
(g77
g58
NtRp3329
(dp3330
g61
(dp3331
sg70
g3317
sg63
(lp3332
g56
(g57
g58
NtRp3333
(dp3334
g61
(dp3335
g69
I5
ssg70
g3329
sg63
(lp3336
S'<cStringIO.StringO object at 0x39e2458>'
p3337
asbasbasbag56
(g72
g58
NtRp3338
(dp3339
g61
(dp3340
sg70
g3313
sg63
(lp3341
g56
(g77
g58
NtRp3342
(dp3343
g61
(dp3344
g81
g82
ssg70
g3338
sg63
(lp3345
g220
asbag56
(g77
g58
NtRp3346
(dp3347
g61
(dp3348
g88
g89
ssg70
g3338
sg63
(lp3349
S':'
asbag56
(g77
g58
NtRp3350
(dp3351
g61
(dp3352
sg70
g3338
sg63
(lp3353
g56
(g57
g58
NtRp3354
(dp3355
g61
(dp3356
g69
I5
ssg70
g3350
sg63
(lp3357
g56
(g65
g58
NtRp3358
(dp3359
g61
(dp3360
g69
I4
ssg70
Nsg63
(lp3361
g56
(g72
g58
NtRp3362
(dp3363
g61
(dp3364
sg70
g3358
sg63
(lp3365
g56
(g77
g58
NtRp3366
(dp3367
g61
(dp3368
g81
g82
ssg70
g3362
sg63
(lp3369
S'session_id_streamlog'
p3370
asbag56
(g77
g58
NtRp3371
(dp3372
g61
(dp3373
g88
g89
ssg70
g3362
sg63
(lp3374
S':'
asbag56
(g77
g58
NtRp3375
(dp3376
g61
(dp3377
sg70
g3362
sg63
(lp3378
g56
(g57
g58
NtRp3379
(dp3380
g61
(dp3381
g69
I4
ssg70
g3375
sg63
(lp3382
g56
(g65
g58
NtRp3383
(dp3384
g61
(dp3385
g69
I3
ssg70
Nsg63
(lp3386
g56
(g72
g58
NtRp3387
(dp3388
g61
(dp3389
sg70
g3383
sg63
(lp3390
g56
(g77
g58
NtRp3391
(dp3392
g61
(dp3393
g81
g82
ssg70
g3387
sg63
(lp3394
g270
asbag56
(g77
g58
NtRp3395
(dp3396
g61
(dp3397
g88
g89
ssg70
g3387
sg63
(lp3398
S':'
asbag56
(g77
g58
NtRp3399
(dp3400
g61
(dp3401
sg70
g3387
sg63
(lp3402
g56
(g57
g58
NtRp3403
(dp3404
g61
(dp3405
g69
I3
ssg70
g3399
sg63
(lp3406
S''
asbasbasbag56
(g72
g58
NtRp3407
(dp3408
g61
(dp3409
sg70
g3383
sg63
(lp3410
g56
(g77
g58
NtRp3411
(dp3412
g61
(dp3413
g81
g82
ssg70
g3407
sg63
(lp3414
g291
asbag56
(g77
g58
NtRp3415
(dp3416
g61
(dp3417
g88
g89
ssg70
g3407
sg63
(lp3418
S':'
asbag56
(g77
g58
NtRp3419
(dp3420
g61
(dp3421
sg70
g3407
sg63
(lp3422
g56
(g57
g58
NtRp3423
(dp3424
g61
(dp3425
g69
I3
ssg70
g3419
sg63
(lp3426
S''
asbasbasbag56
(g72
g58
NtRp3427
(dp3428
g61
(dp3429
sg70
g3383
sg63
(lp3430
g56
(g77
g58
NtRp3431
(dp3432
g61
(dp3433
g81
g82
ssg70
g3427
sg63
(lp3434
g312
asbag56
(g77
g58
NtRp3435
(dp3436
g61
(dp3437
g88
g89
ssg70
g3427
sg63
(lp3438
S':'
asbag56
(g77
g58
NtRp3439
(dp3440
g61
(dp3441
sg70
g3427
sg63
(lp3442
g56
(g57
g58
NtRp3443
(dp3444
g61
(dp3445
g69
I3
ssg70
g3439
sg63
(lp3446
S''
asbasbasbag56
(g72
g58
NtRp3447
(dp3448
g61
(dp3449
sg70
g3383
sg63
(lp3450
g56
(g77
g58
NtRp3451
(dp3452
g61
(dp3453
g81
g82
ssg70
g3447
sg63
(lp3454
g333
asbag56
(g77
g58
NtRp3455
(dp3456
g61
(dp3457
g88
g89
ssg70
g3447
sg63
(lp3458
S':'
asbag56
(g77
g58
NtRp3459
(dp3460
g61
(dp3461
sg70
g3447
sg63
(lp3462
g56
(g57
g58
NtRp3463
(dp3464
g61
(dp3465
g69
I3
ssg70
g3459
sg63
(lp3466
S''
asbasbasbag56
(g72
g58
NtRp3467
(dp3468
g61
(dp3469
sg70
g3383
sg63
(lp3470
g56
(g77
g58
NtRp3471
(dp3472
g61
(dp3473
g81
g82
ssg70
g3467
sg63
(lp3474
g354
asbag56
(g77
g58
NtRp3475
(dp3476
g61
(dp3477
g88
g89
ssg70
g3467
sg63
(lp3478
S':'
asbag56
(g77
g58
NtRp3479
(dp3480
g61
(dp3481
sg70
g3467
sg63
(lp3482
g56
(g57
g58
NtRp3483
(dp3484
g61
(dp3485
g69
I3
ssg70
g3479
sg63
(lp3486
S''
asbasbasbag56
(g72
g58
NtRp3487
(dp3488
g61
(dp3489
sg70
g3383
sg63
(lp3490
g56
(g77
g58
NtRp3491
(dp3492
g61
(dp3493
g81
g82
ssg70
g3487
sg63
(lp3494
g375
asbag56
(g77
g58
NtRp3495
(dp3496
g61
(dp3497
g88
g89
ssg70
g3487
sg63
(lp3498
S':'
asbag56
(g77
g58
NtRp3499
(dp3500
g61
(dp3501
sg70
g3487
sg63
(lp3502
g56
(g57
g58
NtRp3503
(dp3504
g61
(dp3505
g69
I3
ssg70
g3499
sg63
(lp3506
S'/'
asbasbasbag56
(g72
g58
NtRp3507
(dp3508
g61
(dp3509
sg70
g3383
sg63
(lp3510
g56
(g77
g58
NtRp3511
(dp3512
g61
(dp3513
g81
g82
ssg70
g3507
sg63
(lp3514
g396
asbag56
(g77
g58
NtRp3515
(dp3516
g61
(dp3517
g88
g89
ssg70
g3507
sg63
(lp3518
S':'
asbag56
(g77
g58
NtRp3519
(dp3520
g61
(dp3521
sg70
g3507
sg63
(lp3522
g56
(g57
g58
NtRp3523
(dp3524
g61
(dp3525
g69
I3
ssg70
g3519
sg63
(lp3526
S''
asbasbasbag56
(g72
g58
NtRp3527
(dp3528
g61
(dp3529
sg70
g3383
sg63
(lp3530
g56
(g77
g58
NtRp3531
(dp3532
g61
(dp3533
g81
g82
ssg70
g3527
sg63
(lp3534
g417
asbag56
(g77
g58
NtRp3535
(dp3536
g61
(dp3537
g88
g89
ssg70
g3527
sg63
(lp3538
S':'
asbag56
(g77
g58
NtRp3539
(dp3540
g61
(dp3541
sg70
g3527
sg63
(lp3542
g56
(g57
g58
NtRp3543
(dp3544
g61
(dp3545
g69
I3
ssg70
g3539
sg63
(lp3546
S''
asbasbasbasbasbasbasbasbasbasbasbag56
(g72
g58
NtRp3547
(dp3548
g61
(dp3549
sg70
g3313
sg63
(lp3550
g56
(g77
g58
NtRp3551
(dp3552
g61
(dp3553
g81
g82
ssg70
g3547
sg63
(lp3554
S'files'
p3555
asbag56
(g77
g58
NtRp3556
(dp3557
g61
(dp3558
g88
g89
ssg70
g3547
sg63
(lp3559
S':'
asbag56
(g77
g58
NtRp3560
(dp3561
g61
(dp3562
sg70
g3547
sg63
(lp3563
g56
(g57
g58
NtRp3564
(dp3565
g61
(dp3566
g69
I5
ssg70
g3560
sg63
(lp3567
g56
(g65
g58
NtRp3568
(dp3569
g61
(dp3570
g69
I4
ssg70
Nsg63
(lp3571
sbasbasbasbag56
(g72
g58
NtRp3572
(dp3573
g61
(dp3574
sg70
g3313
sg63
(lp3575
g56
(g77
g58
NtRp3576
(dp3577
g61
(dp3578
g81
g82
ssg70
g3572
sg63
(lp3579
S'flash'
p3580
asbag56
(g77
g58
NtRp3581
(dp3582
g61
(dp3583
g88
g89
ssg70
g3572
sg63
(lp3584
S':'
asbag56
(g77
g58
NtRp3585
(dp3586
g61
(dp3587
sg70
g3572
sg63
(lp3588
g56
(g57
g58
NtRp3589
(dp3590
g61
(dp3591
g69
I5
ssg70
g3585
sg63
(lp3592
S''
asbasbasbag56
(g72
g58
NtRp3593
(dp3594
g61
(dp3595
sg70
g3313
sg63
(lp3596
g56
(g77
g58
NtRp3597
(dp3598
g61
(dp3599
g81
g82
ssg70
g3593
sg63
(lp3600
S'generic_patterns'
p3601
asbag56
(g77
g58
NtRp3602
(dp3603
g61
(dp3604
g88
g89
ssg70
g3593
sg63
(lp3605
S':'
asbag56
(g77
g58
NtRp3606
(dp3607
g61
(dp3608
sg70
g3593
sg63
(lp3609
g56
(g57
g58
NtRp3610
(dp3611
g61
(dp3612
g69
I5
ssg70
g3606
sg63
(lp3613
g56
(g65
g58
NtRp3614
(dp3615
g61
(dp3616
g69
I4
ssg70
Nsg63
(lp3617
g56
(g72
g58
NtRp3618
(dp3619
g61
(dp3620
sg70
g3614
sg63
(lp3621
g56
(g77
g58
NtRp3622
(dp3623
g61
(dp3624
sg70
g3618
sg63
(lp3625
g56
(g57
g58
NtRp3626
(dp3627
g61
(dp3628
g69
I4
ssg70
g3622
sg63
(lp3629
S'*'
asbasbasbasbasbasbasbag56
(g72
g58
NtRp3630
(dp3631
g61
(dp3632
sg70
g3313
sg63
(lp3633
g56
(g77
g58
NtRp3634
(dp3635
g61
(dp3636
g81
g82
ssg70
g3630
sg63
(lp3637
S'headers'
p3638
asbag56
(g77
g58
NtRp3639
(dp3640
g61
(dp3641
g88
g89
ssg70
g3630
sg63
(lp3642
S':'
asbag56
(g77
g58
NtRp3643
(dp3644
g61
(dp3645
sg70
g3630
sg63
(lp3646
g56
(g57
g58
NtRp3647
(dp3648
g61
(dp3649
g69
I5
ssg70
g3643
sg63
(lp3650
g56
(g65
g58
NtRp3651
(dp3652
g61
(dp3653
g69
I4
ssg70
Nsg63
(lp3654
g56
(g72
g58
NtRp3655
(dp3656
g61
(dp3657
sg70
g3651
sg63
(lp3658
g56
(g77
g58
NtRp3659
(dp3660
g61
(dp3661
g81
g82
ssg70
g3655
sg63
(lp3662
S'Cache-Control'
p3663
asbag56
(g77
g58
NtRp3664
(dp3665
g61
(dp3666
g88
g89
ssg70
g3655
sg63
(lp3667
S':'
asbag56
(g77
g58
NtRp3668
(dp3669
g61
(dp3670
sg70
g3655
sg63
(lp3671
g56
(g57
g58
NtRp3672
(dp3673
g61
(dp3674
g69
I4
ssg70
g3668
sg63
(lp3675
S'no-store, no-cache, must-revalidate, post-check=0, pre-check=0'
p3676
asbasbasbag56
(g72
g58
NtRp3677
(dp3678
g61
(dp3679
sg70
g3651
sg63
(lp3680
g56
(g77
g58
NtRp3681
(dp3682
g61
(dp3683
g81
g82
ssg70
g3677
sg63
(lp3684
S'Content-Type'
p3685
asbag56
(g77
g58
NtRp3686
(dp3687
g61
(dp3688
g88
g89
ssg70
g3677
sg63
(lp3689
S':'
asbag56
(g77
g58
NtRp3690
(dp3691
g61
(dp3692
sg70
g3677
sg63
(lp3693
g56
(g57
g58
NtRp3694
(dp3695
g61
(dp3696
g69
I4
ssg70
g3690
sg63
(lp3697
S'text/html; charset=utf-8'
p3698
asbasbasbag56
(g72
g58
NtRp3699
(dp3700
g61
(dp3701
sg70
g3651
sg63
(lp3702
g56
(g77
g58
NtRp3703
(dp3704
g61
(dp3705
g81
g82
ssg70
g3699
sg63
(lp3706
S'Expires'
p3707
asbag56
(g77
g58
NtRp3708
(dp3709
g61
(dp3710
g88
g89
ssg70
g3699
sg63
(lp3711
S':'
asbag56
(g77
g58
NtRp3712
(dp3713
g61
(dp3714
sg70
g3699
sg63
(lp3715
g56
(g57
g58
NtRp3716
(dp3717
g61
(dp3718
g69
I4
ssg70
g3712
sg63
(lp3719
S'Sat, 26 May 2012 08:13:14 GMT'
p3720
asbasbasbag56
(g72
g58
NtRp3721
(dp3722
g61
(dp3723
sg70
g3651
sg63
(lp3724
g56
(g77
g58
NtRp3725
(dp3726
g61
(dp3727
g81
g82
ssg70
g3721
sg63
(lp3728
S'Pragma'
p3729
asbag56
(g77
g58
NtRp3730
(dp3731
g61
(dp3732
g88
g89
ssg70
g3721
sg63
(lp3733
S':'
asbag56
(g77
g58
NtRp3734
(dp3735
g61
(dp3736
sg70
g3721
sg63
(lp3737
g56
(g57
g58
NtRp3738
(dp3739
g61
(dp3740
g69
I4
ssg70
g3734
sg63
(lp3741
S'no-cache'
p3742
asbasbasbag56
(g72
g58
NtRp3743
(dp3744
g61
(dp3745
sg70
g3651
sg63
(lp3746
g56
(g77
g58
NtRp3747
(dp3748
g61
(dp3749
g81
g82
ssg70
g3743
sg63
(lp3750
S'X-Powered-By'
p3751
asbag56
(g77
g58
NtRp3752
(dp3753
g61
(dp3754
g88
g89
ssg70
g3743
sg63
(lp3755
S':'
asbag56
(g77
g58
NtRp3756
(dp3757
g61
(dp3758
sg70
g3743
sg63
(lp3759
g56
(g57
g58
NtRp3760
(dp3761
g61
(dp3762
g69
I4
ssg70
g3756
sg63
(lp3763
S'web2py'
p3764
asbasbasbasbasbasbasbag56
(g72
g58
NtRp3765
(dp3766
g61
(dp3767
sg70
g3313
sg63
(lp3768
g56
(g77
g58
NtRp3769
(dp3770
g61
(dp3771
g81
g82
ssg70
g3765
sg63
(lp3772
S'menu'
p3773
asbag56
(g77
g58
NtRp3774
(dp3775
g61
(dp3776
g88
g89
ssg70
g3765
sg63
(lp3777
S':'
asbag56
(g77
g58
NtRp3778
(dp3779
g61
(dp3780
sg70
g3765
sg63
(lp3781
g56
(g57
g58
NtRp3782
(dp3783
g61
(dp3784
g69
I5
ssg70
g3778
sg63
(lp3785
g56
(g65
g58
NtRp3786
(dp3787
g61
(dp3788
g69
I4
ssg70
Nsg63
(lp3789
g56
(g72
g58
NtRp3790
(dp3791
g61
(dp3792
sg70
g3786
sg63
(lp3793
g56
(g77
g58
NtRp3794
(dp3795
g61
(dp3796
sg70
g3790
sg63
(lp3797
g56
(g57
g58
NtRp3798
(dp3799
g61
(dp3800
g69
I4
ssg70
g3794
sg63
(lp3801
g56
(g65
g58
NtRp3802
(dp3803
g61
(dp3804
g69
I3
ssg70
Nsg63
(lp3805
g56
(g72
g58
NtRp3806
(dp3807
g61
(dp3808
sg70
g3802
sg63
(lp3809
g56
(g77
g58
NtRp3810
(dp3811
g61
(dp3812
sg70
g3806
sg63
(lp3813
g56
(g57
g58
NtRp3814
(dp3815
g61
(dp3816
g69
I3
ssg70
g3810
sg63
(lp3817
cgluon.languages
lazyT_unpickle
p3818
(S's\n\x00\x00\x00Clear Page'
tRp3819
asbasbasbag56
(g72
g58
NtRp3820
(dp3821
g61
(dp3822
sg70
g3802
sg63
(lp3823
g56
(g77
g58
NtRp3824
(dp3825
g61
(dp3826
sg70
g3820
sg63
(lp3827
g56
(g57
g58
NtRp3828
(dp3829
g61
(dp3830
g69
I3
ssg70
g3824
sg63
(lp3831
g99
asbasbasbag56
(g72
g58
NtRp3832
(dp3833
g61
(dp3834
sg70
g3802
sg63
(lp3835
g56
(g77
g58
NtRp3836
(dp3837
g61
(dp3838
sg70
g3832
sg63
(lp3839
g56
(g57
g58
NtRp3840
(dp3841
g61
(dp3842
g69
I3
ssg70
g3836
sg63
(lp3843
S'/streamlog/default/index'
p3844
asbasbasbag56
(g72
g58
NtRp3845
(dp3846
g61
(dp3847
sg70
g3802
sg63
(lp3848
g56
(g77
g58
NtRp3849
(dp3850
g61
(dp3851
sg70
g3845
sg63
(lp3852
g56
(g57
g58
NtRp3853
(dp3854
g61
(dp3855
g69
I3
ssg70
g3849
sg63
(lp3856
g56
(g65
g58
NtRp3857
(dp3858
g61
(dp3859
g69
I2
ssg70
Nsg63
(lp3860
sbasbasbasbasbasbasbasbag56
(g72
g58
NtRp3861
(dp3862
g61
(dp3863
sg70
g3786
sg63
(lp3864
g56
(g77
g58
NtRp3865
(dp3866
g61
(dp3867
sg70
g3861
sg63
(lp3868
g56
(g57
g58
NtRp3869
(dp3870
g61
(dp3871
g69
I4
ssg70
g3865
sg63
(lp3872
g56
(g65
g58
NtRp3873
(dp3874
g61
(dp3875
g69
I3
ssg70
Nsg63
(lp3876
g56
(g72
g58
NtRp3877
(dp3878
g61
(dp3879
sg70
g3873
sg63
(lp3880
g56
(g77
g58
NtRp3881
(dp3882
g61
(dp3883
sg70
g3877
sg63
(lp3884
g56
(g57
g58
NtRp3885
(dp3886
g61
(dp3887
g69
I3
ssg70
g3881
sg63
(lp3888
g3818
(S't\x06\x00\x00\x00Manage'
tRp3889
asbasbasbag56
(g72
g58
NtRp3890
(dp3891
g61
(dp3892
sg70
g3873
sg63
(lp3893
g56
(g77
g58
NtRp3894
(dp3895
g61
(dp3896
sg70
g3890
sg63
(lp3897
g56
(g57
g58
NtRp3898
(dp3899
g61
(dp3900
g69
I3
ssg70
g3894
sg63
(lp3901
g99
asbasbasbag56
(g72
g58
NtRp3902
(dp3903
g61
(dp3904
sg70
g3873
sg63
(lp3905
g56
(g77
g58
NtRp3906
(dp3907
g61
(dp3908
sg70
g3902
sg63
(lp3909
g56
(g57
g58
NtRp3910
(dp3911
g61
(dp3912
g69
I3
ssg70
g3906
sg63
(lp3913
S'None'
p3914
asbasbasbag56
(g72
g58
NtRp3915
(dp3916
g61
(dp3917
sg70
g3873
sg63
(lp3918
g56
(g77
g58
NtRp3919
(dp3920
g61
(dp3921
sg70
g3915
sg63
(lp3922
g56
(g57
g58
NtRp3923
(dp3924
g61
(dp3925
g69
I3
ssg70
g3919
sg63
(lp3926
g56
(g65
g58
NtRp3927
(dp3928
g61
(dp3929
g69
I2
ssg70
Nsg63
(lp3930
g56
(g72
g58
NtRp3931
(dp3932
g61
(dp3933
sg70
g3927
sg63
(lp3934
g56
(g77
g58
NtRp3935
(dp3936
g61
(dp3937
sg70
g3931
sg63
(lp3938
g56
(g57
g58
NtRp3939
(dp3940
g61
(dp3941
g69
I2
ssg70
g3935
sg63
(lp3942
g56
(g65
g58
NtRp3943
(dp3944
g61
(dp3945
g69
I1
ssg70
Nsg63
(lp3946
g56
(g72
g58
NtRp3947
(dp3948
g61
(dp3949
sg70
g3943
sg63
(lp3950
g56
(g77
g58
NtRp3951
(dp3952
g61
(dp3953
sg70
g3947
sg63
(lp3954
g56
(g57
g58
NtRp3955
(dp3956
g61
(dp3957
g69
I1
ssg70
g3951
sg63
(lp3958
g3818
(S't\x07\x00\x00\x00Servers'
tRp3959
asbasbasbag56
(g72
g58
NtRp3960
(dp3961
g61
(dp3962
sg70
g3943
sg63
(lp3963
g56
(g77
g58
NtRp3964
(dp3965
g61
(dp3966
sg70
g3960
sg63
(lp3967
g56
(g57
g58
NtRp3968
(dp3969
g61
(dp3970
g69
I1
ssg70
g3964
sg63
(lp3971
I00
asbasbasbag56
(g72
g58
NtRp3972
(dp3973
g61
(dp3974
sg70
g3943
sg63
(lp3975
g56
(g77
g58
NtRp3976
(dp3977
g61
(dp3978
sg70
g3972
sg63
(lp3979
g56
(g57
g58
NtRp3980
(dp3981
g61
(dp3982
g69
I1
ssg70
g3976
sg63
(lp3983
S'/streamlog/default/server_manage'
p3984
asbasbasbag56
(g72
g58
NtRp3985
(dp3986
g61
(dp3987
sg70
g3943
sg63
(lp3988
g56
(g77
g58
NtRp3989
(dp3990
g61
(dp3991
sg70
g3985
sg63
(lp3992
g56
(g57
g58
NtRp3993
(dp3994
g61
(dp3995
g69
I1
ssg70
g3989
sg63
(lp3996
(lp3997
asbasbasbasbasbasbasbag56
(g72
g58
NtRp3998
(dp3999
g61
(dp4000
sg70
g3927
sg63
(lp4001
g56
(g77
g58
NtRp4002
(dp4003
g61
(dp4004
sg70
g3998
sg63
(lp4005
g56
(g57
g58
NtRp4006
(dp4007
g61
(dp4008
g69
I2
ssg70
g4002
sg63
(lp4009
g56
(g65
g58
NtRp4010
(dp4011
g61
(dp4012
g69
I1
ssg70
Nsg63
(lp4013
g56
(g72
g58
NtRp4014
(dp4015
g61
(dp4016
sg70
g4010
sg63
(lp4017
g56
(g77
g58
NtRp4018
(dp4019
g61
(dp4020
sg70
g4014
sg63
(lp4021
g56
(g57
g58
NtRp4022
(dp4023
g61
(dp4024
g69
I1
ssg70
g4018
sg63
(lp4025
g3818
(S't\x04\x00\x00\x00Logs'
tRp4026
asbasbasbag56
(g72
g58
NtRp4027
(dp4028
g61
(dp4029
sg70
g4010
sg63
(lp4030
g56
(g77
g58
NtRp4031
(dp4032
g61
(dp4033
sg70
g4027
sg63
(lp4034
g56
(g57
g58
NtRp4035
(dp4036
g61
(dp4037
g69
I1
ssg70
g4031
sg63
(lp4038
I00
asbasbasbag56
(g72
g58
NtRp4039
(dp4040
g61
(dp4041
sg70
g4010
sg63
(lp4042
g56
(g77
g58
NtRp4043
(dp4044
g61
(dp4045
sg70
g4039
sg63
(lp4046
g56
(g57
g58
NtRp4047
(dp4048
g61
(dp4049
g69
I1
ssg70
g4043
sg63
(lp4050
S'/streamlog/default/log_manage'
p4051
asbasbasbag56
(g72
g58
NtRp4052
(dp4053
g61
(dp4054
sg70
g4010
sg63
(lp4055
g56
(g77
g58
NtRp4056
(dp4057
g61
(dp4058
sg70
g4052
sg63
(lp4059
g56
(g57
g58
NtRp4060
(dp4061
g61
(dp4062
g69
I1
ssg70
g4056
sg63
(lp4063
(lp4064
asbasbasbasbasbasbasbag56
(g72
g58
NtRp4065
(dp4066
g61
(dp4067
sg70
g3927
sg63
(lp4068
g56
(g77
g58
NtRp4069
(dp4070
g61
(dp4071
sg70
g4065
sg63
(lp4072
g56
(g57
g58
NtRp4073
(dp4074
g61
(dp4075
g69
I2
ssg70
g4069
sg63
(lp4076
g56
(g65
g58
NtRp4077
(dp4078
g61
(dp4079
g69
I1
ssg70
Nsg63
(lp4080
g56
(g72
g58
NtRp4081
(dp4082
g61
(dp4083
sg70
g4077
sg63
(lp4084
g56
(g77
g58
NtRp4085
(dp4086
g61
(dp4087
sg70
g4081
sg63
(lp4088
g56
(g57
g58
NtRp4089
(dp4090
g61
(dp4091
g69
I1
ssg70
g4085
sg63
(lp4092
g3818
(S't\x08\x00\x00\x00Projects'
tRp4093
asbasbasbag56
(g72
g58
NtRp4094
(dp4095
g61
(dp4096
sg70
g4077
sg63
(lp4097
g56
(g77
g58
NtRp4098
(dp4099
g61
(dp4100
sg70
g4094
sg63
(lp4101
g56
(g57
g58
NtRp4102
(dp4103
g61
(dp4104
g69
I1
ssg70
g4098
sg63
(lp4105
I00
asbasbasbag56
(g72
g58
NtRp4106
(dp4107
g61
(dp4108
sg70
g4077
sg63
(lp4109
g56
(g77
g58
NtRp4110
(dp4111
g61
(dp4112
sg70
g4106
sg63
(lp4113
g56
(g57
g58
NtRp4114
(dp4115
g61
(dp4116
g69
I1
ssg70
g4110
sg63
(lp4117
S'/streamlog/default/project_manage'
p4118
asbasbasbag56
(g72
g58
NtRp4119
(dp4120
g61
(dp4121
sg70
g4077
sg63
(lp4122
g56
(g77
g58
NtRp4123
(dp4124
g61
(dp4125
sg70
g4119
sg63
(lp4126
g56
(g57
g58
NtRp4127
(dp4128
g61
(dp4129
g69
I1
ssg70
g4123
sg63
(lp4130
(lp4131
asbasbasbasbasbasbasbasbasbasbasbasbasbasbasbasbasbasbasbag56
(g72
g58
NtRp4132
(dp4133
g61
(dp4134
sg70
g3313
sg63
(lp4135
g56
(g77
g58
NtRp4136
(dp4137
g61
(dp4138
g81
g82
ssg70
g4132
sg63
(lp4139
S'meta'
p4140
asbag56
(g77
g58
NtRp4141
(dp4142
g61
(dp4143
g88
g89
ssg70
g4132
sg63
(lp4144
S':'
asbag56
(g77
g58
NtRp4145
(dp4146
g61
(dp4147
sg70
g4132
sg63
(lp4148
g56
(g57
g58
NtRp4149
(dp4150
g61
(dp4151
g69
I5
ssg70
g4145
sg63
(lp4152
g56
(g65
g58
NtRp4153
(dp4154
g61
(dp4155
g69
I4
ssg70
Nsg63
(lp4156
g56
(g72
g58
NtRp4157
(dp4158
g61
(dp4159
sg70
g4153
sg63
(lp4160
g56
(g77
g58
NtRp4161
(dp4162
g61
(dp4163
g81
g82
ssg70
g4157
sg63
(lp4164
S'author'
p4165
asbag56
(g77
g58
NtRp4166
(dp4167
g61
(dp4168
g88
g89
ssg70
g4157
sg63
(lp4169
S':'
asbag56
(g77
g58
NtRp4170
(dp4171
g61
(dp4172
sg70
g4157
sg63
(lp4173
g56
(g57
g58
NtRp4174
(dp4175
g61
(dp4176
g69
I4
ssg70
g4170
sg63
(lp4177
S'Jose de Soto <josedesoto@gmail.com>'
p4178
asbasbasbag56
(g72
g58
NtRp4179
(dp4180
g61
(dp4181
sg70
g4153
sg63
(lp4182
g56
(g77
g58
NtRp4183
(dp4184
g61
(dp4185
g81
g82
ssg70
g4179
sg63
(lp4186
S'copyright'
p4187
asbag56
(g77
g58
NtRp4188
(dp4189
g61
(dp4190
g88
g89
ssg70
g4179
sg63
(lp4191
S':'
asbag56
(g77
g58
NtRp4192
(dp4193
g61
(dp4194
sg70
g4179
sg63
(lp4195
g56
(g57
g58
NtRp4196
(dp4197
g61
(dp4198
g69
I4
ssg70
g4192
sg63
(lp4199
S'Copyright 2011'
p4200
asbasbasbag56
(g72
g58
NtRp4201
(dp4202
g61
(dp4203
sg70
g4153
sg63
(lp4204
g56
(g77
g58
NtRp4205
(dp4206
g61
(dp4207
g81
g82
ssg70
g4201
sg63
(lp4208
S'description'
p4209
asbag56
(g77
g58
NtRp4210
(dp4211
g61
(dp4212
g88
g89
ssg70
g4201
sg63
(lp4213
S':'
asbag56
(g77
g58
NtRp4214
(dp4215
g61
(dp4216
sg70
g4201
sg63
(lp4217
g56
(g57
g58
NtRp4218
(dp4219
g61
(dp4220
g69
I4
ssg70
g4214
sg63
(lp4221
S'a cool new app'
p4222
asbasbasbag56
(g72
g58
NtRp4223
(dp4224
g61
(dp4225
sg70
g4153
sg63
(lp4226
g56
(g77
g58
NtRp4227
(dp4228
g61
(dp4229
g81
g82
ssg70
g4223
sg63
(lp4230
S'generator'
p4231
asbag56
(g77
g58
NtRp4232
(dp4233
g61
(dp4234
g88
g89
ssg70
g4223
sg63
(lp4235
S':'
asbag56
(g77
g58
NtRp4236
(dp4237
g61
(dp4238
sg70
g4223
sg63
(lp4239
g56
(g57
g58
NtRp4240
(dp4241
g61
(dp4242
g69
I4
ssg70
g4236
sg63
(lp4243
S'Web2py Web Framework'
p4244
asbasbasbag56
(g72
g58
NtRp4245
(dp4246
g61
(dp4247
sg70
g4153
sg63
(lp4248
g56
(g77
g58
NtRp4249
(dp4250
g61
(dp4251
g81
g82
ssg70
g4245
sg63
(lp4252
S'keywords'
p4253
asbag56
(g77
g58
NtRp4254
(dp4255
g61
(dp4256
g88
g89
ssg70
g4245
sg63
(lp4257
S':'
asbag56
(g77
g58
NtRp4258
(dp4259
g61
(dp4260
sg70
g4245
sg63
(lp4261
g56
(g57
g58
NtRp4262
(dp4263
g61
(dp4264
g69
I4
ssg70
g4258
sg63
(lp4265
S'web2py, python, framework'
p4266
asbasbasbasbasbasbasbag56
(g72
g58
NtRp4267
(dp4268
g61
(dp4269
sg70
g3313
sg63
(lp4270
g56
(g77
g58
NtRp4271
(dp4272
g61
(dp4273
g81
g82
ssg70
g4267
sg63
(lp4274
S'postprocessing'
p4275
asbag56
(g77
g58
NtRp4276
(dp4277
g61
(dp4278
g88
g89
ssg70
g4267
sg63
(lp4279
S':'
asbag56
(g77
g58
NtRp4280
(dp4281
g61
(dp4282
sg70
g4267
sg63
(lp4283
g56
(g57
g58
NtRp4284
(dp4285
g61
(dp4286
g69
I5
ssg70
g4280
sg63
(lp4287
g56
(g65
g58
NtRp4288
(dp4289
g61
(dp4290
g69
I4
ssg70
Nsg63
(lp4291
sbasbasbasbag56
(g72
g58
NtRp4292
(dp4293
g61
(dp4294
sg70
g3313
sg63
(lp4295
g56
(g77
g58
NtRp4296
(dp4297
g61
(dp4298
g81
g82
ssg70
g4292
sg63
(lp4299
S'session_file'
p4300
asbag56
(g77
g58
NtRp4301
(dp4302
g61
(dp4303
g88
g89
ssg70
g4292
sg63
(lp4304
S':'
asbag56
(g77
g58
NtRp4305
(dp4306
g61
(dp4307
sg70
g4292
sg63
(lp4308
g56
(g57
g58
NtRp4309
(dp4310
g61
(dp4311
g69
I5
ssg70
g4305
sg63
(lp4312
S"<open file '/home/jose/DESARROLLO/web2py199/applications/streamlog/sessions/127.0.0.1-610b0c7d-3f6f-4500-a76a-b095fb30f7fd', mode 'rb+' at 0x27ef300>"
p4313
asbasbasbag56
(g72
g58
NtRp4314
(dp4315
g61
(dp4316
sg70
g3313
sg63
(lp4317
g56
(g77
g58
NtRp4318
(dp4319
g61
(dp4320
g81
g82
ssg70
g4314
sg63
(lp4321
S'session_filename'
p4322
asbag56
(g77
g58
NtRp4323
(dp4324
g61
(dp4325
g88
g89
ssg70
g4314
sg63
(lp4326
S':'
asbag56
(g77
g58
NtRp4327
(dp4328
g61
(dp4329
sg70
g4314
sg63
(lp4330
g56
(g57
g58
NtRp4331
(dp4332
g61
(dp4333
g69
I5
ssg70
g4327
sg63
(lp4334
S'/home/jose/DESARROLLO/web2py199/applications/streamlog/sessions/127.0.0.1-610b0c7d-3f6f-4500-a76a-b095fb30f7fd'
p4335
asbasbasbag56
(g72
g58
NtRp4336
(dp4337
g61
(dp4338
sg70
g3313
sg63
(lp4339
g56
(g77
g58
NtRp4340
(dp4341
g61
(dp4342
g81
g82
ssg70
g4336
sg63
(lp4343
S'session_id'
p4344
asbag56
(g77
g58
NtRp4345
(dp4346
g61
(dp4347
g88
g89
ssg70
g4336
sg63
(lp4348
S':'
asbag56
(g77
g58
NtRp4349
(dp4350
g61
(dp4351
sg70
g4336
sg63
(lp4352
g56
(g57
g58
NtRp4353
(dp4354
g61
(dp4355
g69
I5
ssg70
g4349
sg63
(lp4356
S'127.0.0.1-610b0c7d-3f6f-4500-a76a-b095fb30f7fd'
p4357
asbasbasbag56
(g72
g58
NtRp4358
(dp4359
g61
(dp4360
sg70
g3313
sg63
(lp4361
g56
(g77
g58
NtRp4362
(dp4363
g61
(dp4364
g81
g82
ssg70
g4358
sg63
(lp4365
S'session_id_name'
p4366
asbag56
(g77
g58
NtRp4367
(dp4368
g61
(dp4369
g88
g89
ssg70
g4358
sg63
(lp4370
S':'
asbag56
(g77
g58
NtRp4371
(dp4372
g61
(dp4373
sg70
g4358
sg63
(lp4374
g56
(g57
g58
NtRp4375
(dp4376
g61
(dp4377
g69
I5
ssg70
g4371
sg63
(lp4378
g3370
asbasbasbag56
(g72
g58
NtRp4379
(dp4380
g61
(dp4381
sg70
g3313
sg63
(lp4382
g56
(g77
g58
NtRp4383
(dp4384
g61
(dp4385
g81
g82
ssg70
g4379
sg63
(lp4386
S'session_locked'
p4387
asbag56
(g77
g58
NtRp4388
(dp4389
g61
(dp4390
g88
g89
ssg70
g4379
sg63
(lp4391
S':'
asbag56
(g77
g58
NtRp4392
(dp4393
g61
(dp4394
sg70
g4379
sg63
(lp4395
g56
(g57
g58
NtRp4396
(dp4397
g61
(dp4398
g69
I5
ssg70
g4392
sg63
(lp4399
g1634
asbasbasbag56
(g72
g58
NtRp4400
(dp4401
g61
(dp4402
sg70
g3313
sg63
(lp4403
g56
(g77
g58
NtRp4404
(dp4405
g61
(dp4406
g81
g82
ssg70
g4400
sg63
(lp4407
S'session_new'
p4408
asbag56
(g77
g58
NtRp4409
(dp4410
g61
(dp4411
g88
g89
ssg70
g4400
sg63
(lp4412
S':'
asbag56
(g77
g58
NtRp4413
(dp4414
g61
(dp4415
sg70
g4400
sg63
(lp4416
g56
(g57
g58
NtRp4417
(dp4418
g61
(dp4419
g69
I5
ssg70
g4413
sg63
(lp4420
g99
asbasbasbag56
(g72
g58
NtRp4421
(dp4422
g61
(dp4423
sg70
g3313
sg63
(lp4424
g56
(g77
g58
NtRp4425
(dp4426
g61
(dp4427
g81
g82
ssg70
g4421
sg63
(lp4428
S'status'
p4429
asbag56
(g77
g58
NtRp4430
(dp4431
g61
(dp4432
g88
g89
ssg70
g4421
sg63
(lp4433
S':'
asbag56
(g77
g58
NtRp4434
(dp4435
g61
(dp4436
sg70
g4421
sg63
(lp4437
g56
(g57
g58
NtRp4438
(dp4439
g61
(dp4440
g69
I5
ssg70
g4434
sg63
(lp4441
S'200'
p4442
asbasbasbag56
(g72
g58
NtRp4443
(dp4444
g61
(dp4445
sg70
g3313
sg63
(lp4446
g56
(g77
g58
NtRp4447
(dp4448
g61
(dp4449
g81
g82
ssg70
g4443
sg63
(lp4450
S'subtitle'
p4451
asbag56
(g77
g58
NtRp4452
(dp4453
g61
(dp4454
g88
g89
ssg70
g4443
sg63
(lp4455
S':'
asbag56
(g77
g58
NtRp4456
(dp4457
g61
(dp4458
sg70
g4443
sg63
(lp4459
g56
(g57
g58
NtRp4460
(dp4461
g61
(dp4462
g69
I5
ssg70
g4456
sg63
(lp4463
g3818
(S's\x12\x00\x00\x00Stream Log Client!'
tRp4464
asbasbasbag56
(g72
g58
NtRp4465
(dp4466
g61
(dp4467
sg70
g3313
sg63
(lp4468
g56
(g77
g58
NtRp4469
(dp4470
g61
(dp4471
g81
g82
ssg70
g4465
sg63
(lp4472
S'title'
p4473
asbag56
(g77
g58
NtRp4474
(dp4475
g61
(dp4476
g88
g89
ssg70
g4465
sg63
(lp4477
S':'
asbag56
(g77
g58
NtRp4478
(dp4479
g61
(dp4480
sg70
g4465
sg63
(lp4481
g56
(g57
g58
NtRp4482
(dp4483
g61
(dp4484
g69
I5
ssg70
g4478
sg63
(lp4485
g121
asbasbasbag56
(g72
g58
NtRp4486
(dp4487
g61
(dp4488
sg70
g3313
sg63
(lp4489
g56
(g77
g58
NtRp4490
(dp4491
g61
(dp4492
g81
g82
ssg70
g4486
sg63
(lp4493
g2278
asbag56
(g77
g58
NtRp4494
(dp4495
g61
(dp4496
g88
g89
ssg70
g4486
sg63
(lp4497
S':'
asbag56
(g77
g58
NtRp4498
(dp4499
g61
(dp4500
sg70
g4486
sg63
(lp4501
g56
(g57
g58
NtRp4502
(dp4503
g61
(dp4504
g69
I5
ssg70
g4498
sg63
(lp4505
g2291
asbasbasbag56
(g72
g58
NtRp4506
(dp4507
g61
(dp4508
sg70
g3313
sg63
(lp4509
g56
(g77
g58
NtRp4510
(dp4511
g61
(dp4512
g81
g82
ssg70
g4506
sg63
(lp4513
S'view'
p4514
asbag56
(g77
g58
NtRp4515
(dp4516
g61
(dp4517
g88
g89
ssg70
g4506
sg63
(lp4518
S':'
asbag56
(g77
g58
NtRp4519
(dp4520
g61
(dp4521
sg70
g4506
sg63
(lp4522
g56
(g57
g58
NtRp4523
(dp4524
g61
(dp4525
g69
I5
ssg70
g4519
sg63
(lp4526
S'default/server_manage.html'
p4527
asbasbasbasbasbsS'locals'
p4528
(dp4529
g3638
S"{'t_server.name': 'ID'}"
p4530
sS'query'
p4531
S'<gluon.dal.Query object>'
p4532
sS'fields'
p4533
S'<gluon.dal.Field object>'
p4534
sssS'traceback'
p4535
S'Traceback (most recent call last):\n  File "/home/jose/DESARROLLO/web2py199/gluon/restricted.py", line 194, in restricted\n    exec ccode in environment\n  File "/home/jose/DESARROLLO/web2py199/applications/streamlog/controllers/default.py", line 170, in <module>\n  File "/home/jose/DESARROLLO/web2py199/gluon/globals.py", line 149, in <lambda>\n    self._caller = lambda f: f()\n  File "/home/jose/DESARROLLO/web2py199/applications/streamlog/controllers/default.py", line 104, in server_manage\n    form=SQLFORM.grid(query=query, fields=fields, headers=hearders)\nNameError: global name \'hearders\' is not defined\n'
p4536
s.